ARM GAS  /var/folders/g9/bbpj86ld7fx45vd1b3pqxmp00000gn/T//ccm8d9TZ.s 			page 1


   1              		.syntax unified
   2              		.cpu cortex-m3
   3              		.fpu softvfp
   4              		.eabi_attribute 20, 1
   5              		.eabi_attribute 21, 1
   6              		.eabi_attribute 23, 3
   7              		.eabi_attribute 24, 1
   8              		.eabi_attribute 25, 1
   9              		.eabi_attribute 26, 1
  10              		.eabi_attribute 30, 1
  11              		.eabi_attribute 34, 1
  12              		.eabi_attribute 18, 4
  13              		.thumb
  14              		.syntax unified
  15              		.file	"debug.c"
  16              		.text
  17              	.Ltext0:
  18              		.cfi_sections	.debug_frame
  19              		.section	.text.DebugMsg_FunctionStart,"ax",%progbits
  20              		.align	2
  21              		.global	DebugMsg_FunctionStart
  22              		.thumb
  23              		.thumb_func
  25              	DebugMsg_FunctionStart:
  26              	.LFB28:
  27              		.file 1 "src/debug.c"
   1:src/debug.c   **** /*
   2:src/debug.c   ****  * (C) COPYRIGHT 2009 CRZ
   3:src/debug.c   ****  *
   4:src/debug.c   ****  * File Name : main.c
   5:src/debug.c   ****  * Author    : POOH
   6:src/debug.c   ****  * Version   : V1.0
   7:src/debug.c   ****  * Date      : 08/12/2009
   8:src/debug.c   ****  */
   9:src/debug.c   **** 
  10:src/debug.c   **** /* includes */
  11:src/debug.c   **** 
  12:src/debug.c   **** #include "hw_config.h"
  13:src/debug.c   **** 
  14:src/debug.c   **** /* functions */
  15:src/debug.c   **** 
  16:src/debug.c   **** 
  17:src/debug.c   **** void DebugMsg_FunctionStart(char const * fName_p)
  18:src/debug.c   **** {
  28              		.loc 1 18 0
  29              		.cfi_startproc
  30              		@ args = 0, pretend = 0, frame = 0
  31              		@ frame_needed = 0, uses_anonymous_args = 0
  32              	.LVL0:
  33 0000 08B5     		push	{r3, lr}
  34              	.LCFI0:
  35              		.cfi_def_cfa_offset 8
  36              		.cfi_offset 3, -8
  37              		.cfi_offset 14, -4
  19:src/debug.c   **** #ifdef  DEBUG_MSG_LEVEL0
  20:src/debug.c   ****     printf("%s() S\n", fName_p);
  38              		.loc 1 20 0
ARM GAS  /var/folders/g9/bbpj86ld7fx45vd1b3pqxmp00000gn/T//ccm8d9TZ.s 			page 2


  39 0002 0146     		mov	r1, r0
  40 0004 0148     		ldr	r0, .L3
  41              	.LVL1:
  42 0006 FFF7FEFF 		bl	printf
  43              	.LVL2:
  44 000a 08BD     		pop	{r3, pc}
  45              	.L4:
  46              		.align	2
  47              	.L3:
  48 000c 00000000 		.word	.LC0
  49              		.cfi_endproc
  50              	.LFE28:
  52              		.section	.text.DebugMsg_FunctionEnd,"ax",%progbits
  53              		.align	2
  54              		.global	DebugMsg_FunctionEnd
  55              		.thumb
  56              		.thumb_func
  58              	DebugMsg_FunctionEnd:
  59              	.LFB29:
  21:src/debug.c   **** #endif
  22:src/debug.c   **** }
  23:src/debug.c   **** 
  24:src/debug.c   **** void DebugMsg_FunctionEnd(char const * fName_p)
  25:src/debug.c   **** {
  60              		.loc 1 25 0
  61              		.cfi_startproc
  62              		@ args = 0, pretend = 0, frame = 0
  63              		@ frame_needed = 0, uses_anonymous_args = 0
  64              	.LVL3:
  65 0000 08B5     		push	{r3, lr}
  66              	.LCFI1:
  67              		.cfi_def_cfa_offset 8
  68              		.cfi_offset 3, -8
  69              		.cfi_offset 14, -4
  26:src/debug.c   **** #ifdef  DEBUG_MSG_LEVEL0
  27:src/debug.c   ****     printf("%s() E\n", fName_p);
  70              		.loc 1 27 0
  71 0002 0146     		mov	r1, r0
  72 0004 0148     		ldr	r0, .L7
  73              	.LVL4:
  74 0006 FFF7FEFF 		bl	printf
  75              	.LVL5:
  76 000a 08BD     		pop	{r3, pc}
  77              	.L8:
  78              		.align	2
  79              	.L7:
  80 000c 08000000 		.word	.LC1
  81              		.cfi_endproc
  82              	.LFE29:
  84              		.section	.text.DebugMsg_FunctionNotify,"ax",%progbits
  85              		.align	2
  86              		.global	DebugMsg_FunctionNotify
  87              		.thumb
  88              		.thumb_func
  90              	DebugMsg_FunctionNotify:
  91              	.LFB30:
  28:src/debug.c   **** #endif
ARM GAS  /var/folders/g9/bbpj86ld7fx45vd1b3pqxmp00000gn/T//ccm8d9TZ.s 			page 3


  29:src/debug.c   **** }
  30:src/debug.c   **** 
  31:src/debug.c   **** void DebugMsg_FunctionNotify(char const * fName_p, int lineNum)
  32:src/debug.c   **** {
  92              		.loc 1 32 0
  93              		.cfi_startproc
  94              		@ args = 0, pretend = 0, frame = 0
  95              		@ frame_needed = 0, uses_anonymous_args = 0
  96              	.LVL6:
  97 0000 08B5     		push	{r3, lr}
  98              	.LCFI2:
  99              		.cfi_def_cfa_offset 8
 100              		.cfi_offset 3, -8
 101              		.cfi_offset 14, -4
  33:src/debug.c   **** #ifdef  DEBUG_MSG_LEVEL0
  34:src/debug.c   ****     printf("%s() %d\n", fName_p, lineNum);
 102              		.loc 1 34 0
 103 0002 0A46     		mov	r2, r1
 104 0004 0146     		mov	r1, r0
 105              	.LVL7:
 106 0006 0248     		ldr	r0, .L11
 107              	.LVL8:
 108 0008 FFF7FEFF 		bl	printf
 109              	.LVL9:
 110 000c 08BD     		pop	{r3, pc}
 111              	.L12:
 112 000e 00BF     		.align	2
 113              	.L11:
 114 0010 10000000 		.word	.LC2
 115              		.cfi_endproc
 116              	.LFE30:
 118              		.section	.text.DebugMsg_FunctionError,"ax",%progbits
 119              		.align	2
 120              		.global	DebugMsg_FunctionError
 121              		.thumb
 122              		.thumb_func
 124              	DebugMsg_FunctionError:
 125              	.LFB31:
  35:src/debug.c   **** #endif
  36:src/debug.c   **** }
  37:src/debug.c   **** 
  38:src/debug.c   **** void DebugMsg_FunctionError(char const * fName_p, int lineNum)
  39:src/debug.c   **** {
 126              		.loc 1 39 0
 127              		.cfi_startproc
 128              		@ args = 0, pretend = 0, frame = 0
 129              		@ frame_needed = 0, uses_anonymous_args = 0
 130              	.LVL10:
 131 0000 08B5     		push	{r3, lr}
 132              	.LCFI3:
 133              		.cfi_def_cfa_offset 8
 134              		.cfi_offset 3, -8
 135              		.cfi_offset 14, -4
  40:src/debug.c   **** #ifdef  DEBUG_MSG_LEVEL0
  41:src/debug.c   ****     printf("[ERROR] %s() %d\n", fName_p, lineNum);
 136              		.loc 1 41 0
 137 0002 0A46     		mov	r2, r1
ARM GAS  /var/folders/g9/bbpj86ld7fx45vd1b3pqxmp00000gn/T//ccm8d9TZ.s 			page 4


 138 0004 0146     		mov	r1, r0
 139              	.LVL11:
 140 0006 0248     		ldr	r0, .L15
 141              	.LVL12:
 142 0008 FFF7FEFF 		bl	printf
 143              	.LVL13:
 144 000c 08BD     		pop	{r3, pc}
 145              	.L16:
 146 000e 00BF     		.align	2
 147              	.L15:
 148 0010 1C000000 		.word	.LC3
 149              		.cfi_endproc
 150              	.LFE31:
 152              		.section	.text.DebugMsg_Assert,"ax",%progbits
 153              		.align	2
 154              		.global	DebugMsg_Assert
 155              		.thumb
 156              		.thumb_func
 158              	DebugMsg_Assert:
 159              	.LFB32:
  42:src/debug.c   **** #endif
  43:src/debug.c   **** }
  44:src/debug.c   **** 
  45:src/debug.c   **** #ifdef  USE_FULL_ASSERT
  46:src/debug.c   **** 
  47:src/debug.c   **** void DebugMsg_Assert(char const * fName_p, int lineNum)
  48:src/debug.c   **** {
 160              		.loc 1 48 0
 161              		.cfi_startproc
 162              		@ args = 0, pretend = 0, frame = 0
 163              		@ frame_needed = 0, uses_anonymous_args = 0
 164              	.LVL14:
 165 0000 08B5     		push	{r3, lr}
 166              	.LCFI4:
 167              		.cfi_def_cfa_offset 8
 168              		.cfi_offset 3, -8
 169              		.cfi_offset 14, -4
  49:src/debug.c   ****     printf("!!! ASSERT FAILED !!! %s() %d\n", fName_p, lineNum);
 170              		.loc 1 49 0
 171 0002 0A46     		mov	r2, r1
 172 0004 0146     		mov	r1, r0
 173              	.LVL15:
 174 0006 0248     		ldr	r0, .L19
 175              	.LVL16:
 176 0008 FFF7FEFF 		bl	printf
 177              	.LVL17:
 178 000c 08BD     		pop	{r3, pc}
 179              	.L20:
 180 000e 00BF     		.align	2
 181              	.L19:
 182 0010 30000000 		.word	.LC4
 183              		.cfi_endproc
 184              	.LFE32:
 186              		.section	.text.assert_failed,"ax",%progbits
 187              		.align	2
 188              		.global	assert_failed
 189              		.thumb
ARM GAS  /var/folders/g9/bbpj86ld7fx45vd1b3pqxmp00000gn/T//ccm8d9TZ.s 			page 5


 190              		.thumb_func
 192              	assert_failed:
 193              	.LFB33:
  50:src/debug.c   **** }
  51:src/debug.c   **** 
  52:src/debug.c   **** /*******************************************************************************
  53:src/debug.c   **** * Function Name  : assert_failed
  54:src/debug.c   **** * Description    : Reports the name of the source file and the source line number
  55:src/debug.c   ****   *   where the assert_param error has occurred.
  56:src/debug.c   **** * Input          : - file: pointer to the source file name
  57:src/debug.c   **** *                  - line: assert_param error line source number
  58:src/debug.c   **** * Output         : None
  59:src/debug.c   **** * Return         : None
  60:src/debug.c   **** *******************************************************************************/
  61:src/debug.c   **** void assert_failed(uint8_t* file, uint32_t line)
  62:src/debug.c   **** { 
 194              		.loc 1 62 0
 195              		.cfi_startproc
 196              		@ Volatile: function does not return.
 197              		@ args = 0, pretend = 0, frame = 0
 198              		@ frame_needed = 0, uses_anonymous_args = 0
 199              	.LVL18:
 200 0000 08B5     		push	{r3, lr}
 201              	.LCFI5:
 202              		.cfi_def_cfa_offset 8
 203              		.cfi_offset 3, -8
 204              		.cfi_offset 14, -4
  63:src/debug.c   ****   /* User can add his own implementation to report the file name and line number,
  64:src/debug.c   ****      ex: printf("Wrong parameters value: file %s on line %d\r\n", file, line) */
  65:src/debug.c   ****     printf("Wrong parameters value: file %s on line %d\r\n", file, line);
 205              		.loc 1 65 0
 206 0002 0A46     		mov	r2, r1
 207 0004 0146     		mov	r1, r0
 208              	.LVL19:
 209 0006 0248     		ldr	r0, .L24
 210              	.LVL20:
 211 0008 FFF7FEFF 		bl	printf
 212              	.LVL21:
 213              	.L22:
 214 000c FEE7     		b	.L22
 215              	.L25:
 216 000e 00BF     		.align	2
 217              	.L24:
 218 0010 50000000 		.word	.LC5
 219              		.cfi_endproc
 220              	.LFE33:
 222              		.section	.rodata.str1.4,"aMS",%progbits,1
 223              		.align	2
 224              	.LC0:
 225 0000 25732829 		.ascii	"%s() S\012\000"
 225      20530A00 
 226              	.LC1:
 227 0008 25732829 		.ascii	"%s() E\012\000"
 227      20450A00 
 228              	.LC2:
 229 0010 25732829 		.ascii	"%s() %d\012\000"
 229      2025640A 
ARM GAS  /var/folders/g9/bbpj86ld7fx45vd1b3pqxmp00000gn/T//ccm8d9TZ.s 			page 6


 229      00
 230 0019 000000   		.space	3
 231              	.LC3:
 232 001c 5B455252 		.ascii	"[ERROR] %s() %d\012\000"
 232      4F525D20 
 232      25732829 
 232      2025640A 
 232      00
 233 002d 000000   		.space	3
 234              	.LC4:
 235 0030 21212120 		.ascii	"!!! ASSERT FAILED !!! %s() %d\012\000"
 235      41535345 
 235      52542046 
 235      41494C45 
 235      44202121 
 236 004f 00       		.space	1
 237              	.LC5:
 238 0050 57726F6E 		.ascii	"Wrong parameters value: file %s on line %d\015\012\000"
 238      67207061 
 238      72616D65 
 238      74657273 
 238      2076616C 
 239              		.text
 240              	.Letext0:
 241              		.file 2 "/usr/local/Cellar/gcc-arm-none-eabi/20160926/arm-none-eabi/include/machine/_default_types
 242              		.file 3 "/usr/local/Cellar/gcc-arm-none-eabi/20160926/arm-none-eabi/include/sys/_stdint.h"
 243              		.file 4 "/usr/local/Cellar/gcc-arm-none-eabi/20160926/arm-none-eabi/include/stdio.h"
ARM GAS  /var/folders/g9/bbpj86ld7fx45vd1b3pqxmp00000gn/T//ccm8d9TZ.s 			page 7

