ARM GAS  /var/folders/g9/bbpj86ld7fx45vd1b3pqxmp00000gn/T//ccDtlNlM.s 			page 1


   1              		.syntax unified
   2              		.cpu cortex-m3
   3              		.fpu softvfp
   4              		.eabi_attribute 20, 1
   5              		.eabi_attribute 21, 1
   6              		.eabi_attribute 23, 3
   7              		.eabi_attribute 24, 1
   8              		.eabi_attribute 25, 1
   9              		.eabi_attribute 26, 1
  10              		.eabi_attribute 30, 1
  11              		.eabi_attribute 34, 1
  12              		.eabi_attribute 18, 4
  13              		.thumb
  14              		.syntax unified
  15              		.file	"key.c"
  16              		.text
  17              	.Ltext0:
  18              		.cfi_sections	.debug_frame
  19              		.section	.text.KEY_Test,"ax",%progbits
  20              		.align	2
  21              		.global	KEY_Test
  22              		.thumb
  23              		.thumb_func
  25              	KEY_Test:
  26              	.LFB28:
  27              		.file 1 "src/key.c"
   1:src/key.c     **** /*
   2:src/key.c     ****  * (C) COPYRIGHT 2009 CRZ
   3:src/key.c     ****  *
   4:src/key.c     ****  * File Name : key.c
   5:src/key.c     ****  * Author    : POOH
   6:src/key.c     ****  * Version   : V1.0
   7:src/key.c     ****  * Date      : 08/20/2009
   8:src/key.c     ****  */
   9:src/key.c     **** 
  10:src/key.c     **** /* Includes */
  11:src/key.c     **** 
  12:src/key.c     **** #include "hw_config.h"
  13:src/key.c     **** 
  14:src/key.c     **** /* functions */
  15:src/key.c     **** 
  16:src/key.c     **** /*
  17:src/key.c     **** void LED_On_Red (void);
  18:src/key.c     **** void LED_Off_Red (void);
  19:src/key.c     **** void LED_On_Yellow (void);
  20:src/key.c     **** void LED_Off_Yellow (void);
  21:src/key.c     **** void LED_On_Blue (void);
  22:src/key.c     **** void LED_Off_Blue (void);
  23:src/key.c     **** void LED_On_All (void);
  24:src/key.c     **** void LED_Off_All (void);
  25:src/key.c     **** */
  26:src/key.c     **** 
  27:src/key.c     **** void KEY_Test (void)
  28:src/key.c     **** {
  28              		.loc 1 28 0
  29              		.cfi_startproc
  30              		@ args = 0, pretend = 0, frame = 0
ARM GAS  /var/folders/g9/bbpj86ld7fx45vd1b3pqxmp00000gn/T//ccDtlNlM.s 			page 2


  31              		@ frame_needed = 0, uses_anonymous_args = 0
  32 0000 38B5     		push	{r3, r4, r5, lr}
  33              	.LCFI0:
  34              		.cfi_def_cfa_offset 16
  35              		.cfi_offset 3, -16
  36              		.cfi_offset 4, -12
  37              		.cfi_offset 5, -8
  38              		.cfi_offset 14, -4
  39              	.LVL0:
  29:src/key.c     ****     uint32_t i = 0;
  30:src/key.c     **** 
  31:src/key.c     ****     LED_Off_All();
  40              		.loc 1 31 0
  41 0002 FFF7FEFF 		bl	LED_Off_All
  42              	.LVL1:
  29:src/key.c     ****     uint32_t i = 0;
  43              		.loc 1 29 0
  44 0006 0024     		movs	r4, #0
  45 0008 00E0     		b	.L2
  46              	.LVL2:
  47              	.L8:
  28:src/key.c     ****     uint32_t i = 0;
  48              		.loc 1 28 0
  49 000a 2C46     		mov	r4, r5
  50              	.LVL3:
  51              	.L2:
  32:src/key.c     **** 
  33:src/key.c     ****     while(1)
  34:src/key.c     ****     {
  35:src/key.c     ****         delay_100_milli_second();
  52              		.loc 1 35 0
  53 000c FFF7FEFF 		bl	delay_100_milli_second
  54              	.LVL4:
  36:src/key.c     **** 
  37:src/key.c     ****         if((i++ & 0x1) == 0x0)
  55              		.loc 1 37 0
  56 0010 651C     		adds	r5, r4, #1
  57              	.LVL5:
  58 0012 14F0010F 		tst	r4, #1
  59 0016 02D1     		bne	.L3
  38:src/key.c     ****         {
  39:src/key.c     ****             LED_On_Blue();
  60              		.loc 1 39 0
  61 0018 FFF7FEFF 		bl	LED_On_Blue
  62              	.LVL6:
  63 001c 01E0     		b	.L4
  64              	.L3:
  40:src/key.c     ****         }
  41:src/key.c     ****         else
  42:src/key.c     ****         {
  43:src/key.c     ****             LED_Off_Blue();
  65              		.loc 1 43 0
  66 001e FFF7FEFF 		bl	LED_Off_Blue
  67              	.LVL7:
  68              	.L4:
  44:src/key.c     ****         }
  45:src/key.c     **** 
ARM GAS  /var/folders/g9/bbpj86ld7fx45vd1b3pqxmp00000gn/T//ccDtlNlM.s 			page 3


  46:src/key.c     ****         if(GPIO_ReadInputDataBit(GPIO_KEY, GPIO_KEY1_PIN) == Bit_SET)
  69              		.loc 1 46 0
  70 0022 0121     		movs	r1, #1
  71 0024 0A48     		ldr	r0, .L10
  72 0026 FFF7FEFF 		bl	GPIO_ReadInputDataBit
  73              	.LVL8:
  74 002a 0128     		cmp	r0, #1
  75 002c 02D1     		bne	.L5
  47:src/key.c     ****         {
  48:src/key.c     ****             LED_On_Red();
  76              		.loc 1 48 0
  77 002e FFF7FEFF 		bl	LED_On_Red
  78              	.LVL9:
  79 0032 01E0     		b	.L6
  80              	.L5:
  49:src/key.c     ****         }
  50:src/key.c     ****         else
  51:src/key.c     ****         {
  52:src/key.c     ****             LED_Off_Red();
  81              		.loc 1 52 0
  82 0034 FFF7FEFF 		bl	LED_Off_Red
  83              	.LVL10:
  84              	.L6:
  53:src/key.c     ****         }
  54:src/key.c     **** 
  55:src/key.c     ****         if(GPIO_ReadInputDataBit(GPIO_KEY, GPIO_KEY2_PIN) == Bit_SET)
  85              		.loc 1 55 0
  86 0038 0221     		movs	r1, #2
  87 003a 0548     		ldr	r0, .L10
  88 003c FFF7FEFF 		bl	GPIO_ReadInputDataBit
  89              	.LVL11:
  90 0040 0128     		cmp	r0, #1
  91 0042 02D1     		bne	.L7
  56:src/key.c     ****         {
  57:src/key.c     ****             LED_On_Yellow();
  92              		.loc 1 57 0
  93 0044 FFF7FEFF 		bl	LED_On_Yellow
  94              	.LVL12:
  95 0048 DFE7     		b	.L8
  96              	.L7:
  58:src/key.c     ****         }
  59:src/key.c     ****         else
  60:src/key.c     ****         {
  61:src/key.c     ****             LED_Off_Yellow();
  97              		.loc 1 61 0
  98 004a FFF7FEFF 		bl	LED_Off_Yellow
  99              	.LVL13:
 100 004e DCE7     		b	.L8
 101              	.L11:
 102              		.align	2
 103              	.L10:
 104 0050 00080140 		.word	1073809408
 105              		.cfi_endproc
 106              	.LFE28:
 108              		.text
 109              	.Letext0:
 110              		.file 2 "/usr/local/Cellar/gcc-arm-none-eabi/20160926/arm-none-eabi/include/machine/_default_types
ARM GAS  /var/folders/g9/bbpj86ld7fx45vd1b3pqxmp00000gn/T//ccDtlNlM.s 			page 4


 111              		.file 3 "/usr/local/Cellar/gcc-arm-none-eabi/20160926/arm-none-eabi/include/sys/_stdint.h"
 112              		.file 4 "CMSIS/Core/CM3/stm32f10x.h"
 113              		.file 5 "Inc/hw_config.h"
 114              		.file 6 "STM32F10x_StdPeriph_Driver/inc/stm32f10x_gpio.h"
ARM GAS  /var/folders/g9/bbpj86ld7fx45vd1b3pqxmp00000gn/T//ccDtlNlM.s 			page 5

