ARM GAS  /var/folders/g9/bbpj86ld7fx45vd1b3pqxmp00000gn/T//cc4EjzoN.s 			page 1


   1              		.syntax unified
   2              		.cpu cortex-m3
   3              		.fpu softvfp
   4              		.eabi_attribute 20, 1
   5              		.eabi_attribute 21, 1
   6              		.eabi_attribute 23, 3
   7              		.eabi_attribute 24, 1
   8              		.eabi_attribute 25, 1
   9              		.eabi_attribute 26, 1
  10              		.eabi_attribute 30, 1
  11              		.eabi_attribute 34, 1
  12              		.eabi_attribute 18, 4
  13              		.thumb
  14              		.syntax unified
  15              		.file	"lcd.c"
  16              		.text
  17              	.Ltext0:
  18              		.cfi_sections	.debug_frame
  19              		.section	.text.StrLength,"ax",%progbits
  20              		.align	2
  21              		.thumb
  22              		.thumb_func
  24              	StrLength:
  25              	.LFB59:
  26              		.file 1 "FreeRTOS/test_Src/lcd.c"
   1:FreeRTOS/test_Src/lcd.c **** /******************** (C) COPYRIGHT 2007 STMicroelectronics ********************
   2:FreeRTOS/test_Src/lcd.c **** * File Name          : lcd.c
   3:FreeRTOS/test_Src/lcd.c **** * Author             : MCD Application Team
   4:FreeRTOS/test_Src/lcd.c **** * Date First Issued  : mm/dd/yyyy
   5:FreeRTOS/test_Src/lcd.c **** * Description        : This file includes the LCD driver for AM-240320LTNQW00H
   6:FreeRTOS/test_Src/lcd.c **** *                      liquid Crystal Display Module of STM32F10x-EVAL.
   7:FreeRTOS/test_Src/lcd.c **** ********************************************************************************
   8:FreeRTOS/test_Src/lcd.c **** * History:
   9:FreeRTOS/test_Src/lcd.c **** * mm/dd/yyyy
  10:FreeRTOS/test_Src/lcd.c **** ********************************************************************************
  11:FreeRTOS/test_Src/lcd.c **** * THE PRESENT SOFTWARE WHICH IS FOR GUIDANCE ONLY AIMS AT PROVIDING CUSTOMERS
  12:FreeRTOS/test_Src/lcd.c **** * WITH CODING INFORMATION REGARDING THEIR PRODUCTS IN ORDER FOR THEM TO SAVE TIME.
  13:FreeRTOS/test_Src/lcd.c **** * AS A RESULT, STMICROELECTRONICS SHALL NOT BE HELD LIABLE FOR ANY DIRECT,
  14:FreeRTOS/test_Src/lcd.c **** * INDIRECT OR CONSEQUENTIAL DAMAGES WITH RESPECT TO ANY CLAIMS ARISING FROM THE
  15:FreeRTOS/test_Src/lcd.c **** * CONTENT OF SUCH SOFTWARE AND/OR THE USE MADE BY CUSTOMERS OF THE CODING
  16:FreeRTOS/test_Src/lcd.c **** * INFORMATION CONTAINED HEREIN IN CONNECTION WITH THEIR PRODUCTS.
  17:FreeRTOS/test_Src/lcd.c **** *******************************************************************************/
  18:FreeRTOS/test_Src/lcd.c **** 
  19:FreeRTOS/test_Src/lcd.c **** /* Includes ------------------------------------------------------------------*/
  20:FreeRTOS/test_Src/lcd.c **** #include "stm32f10x.h"
  21:FreeRTOS/test_Src/lcd.c **** 
  22:FreeRTOS/test_Src/lcd.c **** #include "lcd.h"
  23:FreeRTOS/test_Src/lcd.c **** #include "spi_flash.h"
  24:FreeRTOS/test_Src/lcd.c **** 
  25:FreeRTOS/test_Src/lcd.c **** 
  26:FreeRTOS/test_Src/lcd.c **** 
  27:FreeRTOS/test_Src/lcd.c **** #include "FreeRTOS.h"
  28:FreeRTOS/test_Src/lcd.c **** #include "task.h"
  29:FreeRTOS/test_Src/lcd.c **** 
  30:FreeRTOS/test_Src/lcd.c **** #define SPI_FLAG_RXNE               ((uint16_t)0x0001)
  31:FreeRTOS/test_Src/lcd.c **** #define SPI_FLAG_TXE                ((uint16_t)0x0002)
  32:FreeRTOS/test_Src/lcd.c **** #define SPI_FLAG_OVR                ((uint16_t)0x0040)
ARM GAS  /var/folders/g9/bbpj86ld7fx45vd1b3pqxmp00000gn/T//cc4EjzoN.s 			page 2


  33:FreeRTOS/test_Src/lcd.c **** #define SPI_FLAG_BSY                ((uint16_t)0x0080)
  34:FreeRTOS/test_Src/lcd.c **** /* Private typedef -----------------------------------------------------------*/
  35:FreeRTOS/test_Src/lcd.c **** /* Private define ------------------------------------------------------------*/
  36:FreeRTOS/test_Src/lcd.c ****      /* ASCII Table: each character is 16 column (16dots large)
  37:FreeRTOS/test_Src/lcd.c ****         and 24 raw (24 dots high) */
  38:FreeRTOS/test_Src/lcd.c ****      const uc16 ASCII_Table[] =
  39:FreeRTOS/test_Src/lcd.c ****        {
  40:FreeRTOS/test_Src/lcd.c ****          /* Space ' ' */
  41:FreeRTOS/test_Src/lcd.c ****          0x0000, 0x0000, 0x0000, 0x0000, 0x0000, 0x0000, 0x0000, 0x0000,
  42:FreeRTOS/test_Src/lcd.c ****          0x0000, 0x0000, 0x0000, 0x0000, 0x0000, 0x0000, 0x0000, 0x0000,
  43:FreeRTOS/test_Src/lcd.c ****          0x0000, 0x0000, 0x0000, 0x0000, 0x0000, 0x0000, 0x0000, 0x0000,
  44:FreeRTOS/test_Src/lcd.c ****          /* '!' */
  45:FreeRTOS/test_Src/lcd.c ****          0x0000, 0x0180, 0x0180, 0x0180, 0x0180, 0x0180, 0x0180, 0x0180,
  46:FreeRTOS/test_Src/lcd.c ****          0x0180, 0x0180, 0x0180, 0x0180, 0x0180, 0x0180, 0x0000, 0x0000,
  47:FreeRTOS/test_Src/lcd.c ****          0x0180, 0x0180, 0x0000, 0x0000, 0x0000, 0x0000, 0x0000, 0x0000,
  48:FreeRTOS/test_Src/lcd.c ****          /* '"' */
  49:FreeRTOS/test_Src/lcd.c ****          0x0000, 0x0000, 0x00CC, 0x00CC, 0x00CC, 0x00CC, 0x00CC, 0x00CC,
  50:FreeRTOS/test_Src/lcd.c ****          0x0000, 0x0000, 0x0000, 0x0000, 0x0000, 0x0000, 0x0000, 0x0000,
  51:FreeRTOS/test_Src/lcd.c ****          0x0000, 0x0000, 0x0000, 0x0000, 0x0000, 0x0000, 0x0000, 0x0000,
  52:FreeRTOS/test_Src/lcd.c ****          /* '#' */
  53:FreeRTOS/test_Src/lcd.c ****          0x0000, 0x0000, 0x0000, 0x0000, 0x0000, 0x0000, 0x0C60, 0x0C60,
  54:FreeRTOS/test_Src/lcd.c ****          0x0C60, 0x0630, 0x0630, 0x1FFE, 0x1FFE, 0x0630, 0x0738, 0x0318,
  55:FreeRTOS/test_Src/lcd.c ****          0x1FFE, 0x1FFE, 0x0318, 0x0318, 0x018C, 0x018C, 0x018C, 0x0000,
  56:FreeRTOS/test_Src/lcd.c ****          /* '$' */
  57:FreeRTOS/test_Src/lcd.c ****          0x0000, 0x0080, 0x03E0, 0x0FF8, 0x0E9C, 0x1C8C, 0x188C, 0x008C,
  58:FreeRTOS/test_Src/lcd.c ****          0x0098, 0x01F8, 0x07E0, 0x0E80, 0x1C80, 0x188C, 0x188C, 0x189C,
  59:FreeRTOS/test_Src/lcd.c ****          0x0CB8, 0x0FF0, 0x03E0, 0x0080, 0x0080, 0x0000, 0x0000, 0x0000,
  60:FreeRTOS/test_Src/lcd.c ****          /* '%' */
  61:FreeRTOS/test_Src/lcd.c ****          0x0000, 0x0000, 0x0000, 0x180E, 0x0C1B, 0x0C11, 0x0611, 0x0611,
  62:FreeRTOS/test_Src/lcd.c ****          0x0311, 0x0311, 0x019B, 0x018E, 0x38C0, 0x6CC0, 0x4460, 0x4460,
  63:FreeRTOS/test_Src/lcd.c ****          0x4430, 0x4430, 0x4418, 0x6C18, 0x380C, 0x0000, 0x0000, 0x0000,
  64:FreeRTOS/test_Src/lcd.c ****          /* '&' */
  65:FreeRTOS/test_Src/lcd.c ****          0x0000, 0x01E0, 0x03F0, 0x0738, 0x0618, 0x0618, 0x0330, 0x01F0,
  66:FreeRTOS/test_Src/lcd.c ****          0x00F0, 0x00F8, 0x319C, 0x330E, 0x1E06, 0x1C06, 0x1C06, 0x3F06,
  67:FreeRTOS/test_Src/lcd.c ****          0x73FC, 0x21F0, 0x0000, 0x0000, 0x0000, 0x0000, 0x0000, 0x0000,
  68:FreeRTOS/test_Src/lcd.c ****          /* ''' */
  69:FreeRTOS/test_Src/lcd.c ****          0x0000, 0x0000, 0x000C, 0x000C, 0x000C, 0x000C, 0x000C, 0x000C,
  70:FreeRTOS/test_Src/lcd.c ****          0x0000, 0x0000, 0x0000, 0x0000, 0x0000, 0x0000, 0x0000, 0x0000,
  71:FreeRTOS/test_Src/lcd.c ****          0x0000, 0x0000, 0x0000, 0x0000, 0x0000, 0x0000, 0x0000, 0x0000,
  72:FreeRTOS/test_Src/lcd.c ****          /* '(' */
  73:FreeRTOS/test_Src/lcd.c ****          0x0000, 0x0200, 0x0300, 0x0180, 0x00C0, 0x00C0, 0x0060, 0x0060,
  74:FreeRTOS/test_Src/lcd.c ****          0x0030, 0x0030, 0x0030, 0x0030, 0x0030, 0x0030, 0x0030, 0x0030,
  75:FreeRTOS/test_Src/lcd.c ****          0x0060, 0x0060, 0x00C0, 0x00C0, 0x0180, 0x0300, 0x0200, 0x0000,
  76:FreeRTOS/test_Src/lcd.c ****          /* ')' */
  77:FreeRTOS/test_Src/lcd.c ****          0x0000, 0x0020, 0x0060, 0x00C0, 0x0180, 0x0180, 0x0300, 0x0300,
  78:FreeRTOS/test_Src/lcd.c ****          0x0600, 0x0600, 0x0600, 0x0600, 0x0600, 0x0600, 0x0600, 0x0600,
  79:FreeRTOS/test_Src/lcd.c ****          0x0300, 0x0300, 0x0180, 0x0180, 0x00C0, 0x0060, 0x0020, 0x0000,
  80:FreeRTOS/test_Src/lcd.c ****          /* '*' */
  81:FreeRTOS/test_Src/lcd.c ****          0x0000, 0x0000, 0x0000, 0x0000, 0x0000, 0x0000, 0x00C0, 0x00C0,
  82:FreeRTOS/test_Src/lcd.c ****          0x06D8, 0x07F8, 0x01E0, 0x0330, 0x0738, 0x0000, 0x0000, 0x0000,
  83:FreeRTOS/test_Src/lcd.c ****          0x0000, 0x0000, 0x0000, 0x0000, 0x0000, 0x0000, 0x0000, 0x0000,
  84:FreeRTOS/test_Src/lcd.c ****          /* '+' */
  85:FreeRTOS/test_Src/lcd.c ****          0x0000, 0x0000, 0x0000, 0x0000, 0x0000, 0x0000, 0x0180, 0x0180,
  86:FreeRTOS/test_Src/lcd.c ****          0x0180, 0x0180, 0x0180, 0x3FFC, 0x3FFC, 0x0180, 0x0180, 0x0180,
  87:FreeRTOS/test_Src/lcd.c ****          0x0180, 0x0180, 0x0000, 0x0000, 0x0000, 0x0000, 0x0000, 0x0000,
  88:FreeRTOS/test_Src/lcd.c ****          /* ',' */
  89:FreeRTOS/test_Src/lcd.c ****          0x0000, 0x0000, 0x0000, 0x0000, 0x0000, 0x0000, 0x0000, 0x0000,
ARM GAS  /var/folders/g9/bbpj86ld7fx45vd1b3pqxmp00000gn/T//cc4EjzoN.s 			page 3


  90:FreeRTOS/test_Src/lcd.c ****          0x0000, 0x0000, 0x0000, 0x0000, 0x0000, 0x0000, 0x0000, 0x0000,
  91:FreeRTOS/test_Src/lcd.c ****          0x0000, 0x0180, 0x0180, 0x0100, 0x0100, 0x0080, 0x0000, 0x0000,
  92:FreeRTOS/test_Src/lcd.c ****          /* '-' */
  93:FreeRTOS/test_Src/lcd.c ****          0x0000, 0x0000, 0x0000, 0x0000, 0x0000, 0x0000, 0x0000, 0x0000,
  94:FreeRTOS/test_Src/lcd.c ****          0x0000, 0x0000, 0x0000, 0x0000, 0x07E0, 0x07E0, 0x0000, 0x0000,
  95:FreeRTOS/test_Src/lcd.c ****          0x0000, 0x0000, 0x0000, 0x0000, 0x0000, 0x0000, 0x0000, 0x0000,
  96:FreeRTOS/test_Src/lcd.c ****          /* '.' */
  97:FreeRTOS/test_Src/lcd.c ****          0x0000, 0x0000, 0x0000, 0x0000, 0x0000, 0x0000, 0x0000, 0x0000,
  98:FreeRTOS/test_Src/lcd.c ****          0x0000, 0x0000, 0x0000, 0x0000, 0x0000, 0x0000, 0x0000, 0x0000,
  99:FreeRTOS/test_Src/lcd.c ****          0x0000, 0x00C0, 0x00C0, 0x0000, 0x0000, 0x0000, 0x0000, 0x0000,
 100:FreeRTOS/test_Src/lcd.c ****          /* '/' */
 101:FreeRTOS/test_Src/lcd.c ****          0x0000, 0x0C00, 0x0C00, 0x0600, 0x0600, 0x0600, 0x0300, 0x0300,
 102:FreeRTOS/test_Src/lcd.c ****          0x0300, 0x0380, 0x0180, 0x0180, 0x0180, 0x00C0, 0x00C0, 0x00C0,
 103:FreeRTOS/test_Src/lcd.c ****          0x0060, 0x0060, 0x0000, 0x0000, 0x0000, 0x0000, 0x0000, 0x0000,
 104:FreeRTOS/test_Src/lcd.c ****          /* '0' */
 105:FreeRTOS/test_Src/lcd.c ****          0x0000, 0x03E0, 0x07F0, 0x0E38, 0x0C18, 0x180C, 0x180C, 0x180C,
 106:FreeRTOS/test_Src/lcd.c ****          0x180C, 0x180C, 0x180C, 0x180C, 0x180C, 0x180C, 0x0C18, 0x0E38,
 107:FreeRTOS/test_Src/lcd.c ****          0x07F0, 0x03E0, 0x0000, 0x0000, 0x0000, 0x0000, 0x0000, 0x0000,
 108:FreeRTOS/test_Src/lcd.c ****          /* '1' */
 109:FreeRTOS/test_Src/lcd.c ****          0x0000, 0x0100, 0x0180, 0x01C0, 0x01F0, 0x0198, 0x0188, 0x0180,
 110:FreeRTOS/test_Src/lcd.c ****          0x0180, 0x0180, 0x0180, 0x0180, 0x0180, 0x0180, 0x0180, 0x0180,
 111:FreeRTOS/test_Src/lcd.c ****          0x0180, 0x0180, 0x0000, 0x0000, 0x0000, 0x0000, 0x0000, 0x0000,
 112:FreeRTOS/test_Src/lcd.c ****          /* '2' */
 113:FreeRTOS/test_Src/lcd.c ****          0x0000, 0x03E0, 0x0FF8, 0x0C18, 0x180C, 0x180C, 0x1800, 0x1800,
 114:FreeRTOS/test_Src/lcd.c ****          0x0C00, 0x0600, 0x0300, 0x0180, 0x00C0, 0x0060, 0x0030, 0x0018,
 115:FreeRTOS/test_Src/lcd.c ****          0x1FFC, 0x1FFC, 0x0000, 0x0000, 0x0000, 0x0000, 0x0000, 0x0000,
 116:FreeRTOS/test_Src/lcd.c ****          /* '3' */
 117:FreeRTOS/test_Src/lcd.c ****          0x0000, 0x01E0, 0x07F8, 0x0E18, 0x0C0C, 0x0C0C, 0x0C00, 0x0600,
 118:FreeRTOS/test_Src/lcd.c ****          0x03C0, 0x07C0, 0x0C00, 0x1800, 0x1800, 0x180C, 0x180C, 0x0C18,
 119:FreeRTOS/test_Src/lcd.c ****          0x07F8, 0x03E0, 0x0000, 0x0000, 0x0000, 0x0000, 0x0000, 0x0000,
 120:FreeRTOS/test_Src/lcd.c ****          /* '4' */
 121:FreeRTOS/test_Src/lcd.c ****          0x0000, 0x0C00, 0x0E00, 0x0F00, 0x0F00, 0x0D80, 0x0CC0, 0x0C60,
 122:FreeRTOS/test_Src/lcd.c ****          0x0C60, 0x0C30, 0x0C18, 0x0C0C, 0x3FFC, 0x3FFC, 0x0C00, 0x0C00,
 123:FreeRTOS/test_Src/lcd.c ****          0x0C00, 0x0C00, 0x0000, 0x0000, 0x0000, 0x0000, 0x0000, 0x0000,
 124:FreeRTOS/test_Src/lcd.c ****          /* '5' */
 125:FreeRTOS/test_Src/lcd.c ****          0x0000, 0x0FF8, 0x0FF8, 0x0018, 0x0018, 0x000C, 0x03EC, 0x07FC,
 126:FreeRTOS/test_Src/lcd.c ****          0x0E1C, 0x1C00, 0x1800, 0x1800, 0x1800, 0x180C, 0x0C1C, 0x0E18,
 127:FreeRTOS/test_Src/lcd.c ****          0x07F8, 0x03E0, 0x0000, 0x0000, 0x0000, 0x0000, 0x0000, 0x0000,
 128:FreeRTOS/test_Src/lcd.c ****          /* '6' */
 129:FreeRTOS/test_Src/lcd.c ****          0x0000, 0x07C0, 0x0FF0, 0x1C38, 0x1818, 0x0018, 0x000C, 0x03CC,
 130:FreeRTOS/test_Src/lcd.c ****          0x0FEC, 0x0E3C, 0x1C1C, 0x180C, 0x180C, 0x180C, 0x1C18, 0x0E38,
 131:FreeRTOS/test_Src/lcd.c ****          0x07F0, 0x03E0, 0x0000, 0x0000, 0x0000, 0x0000, 0x0000, 0x0000,
 132:FreeRTOS/test_Src/lcd.c ****          /* '7' */
 133:FreeRTOS/test_Src/lcd.c ****          0x0000, 0x1FFC, 0x1FFC, 0x0C00, 0x0600, 0x0600, 0x0300, 0x0380,
 134:FreeRTOS/test_Src/lcd.c ****          0x0180, 0x01C0, 0x00C0, 0x00E0, 0x0060, 0x0060, 0x0070, 0x0030,
 135:FreeRTOS/test_Src/lcd.c ****          0x0030, 0x0030, 0x0000, 0x0000, 0x0000, 0x0000, 0x0000, 0x0000,
 136:FreeRTOS/test_Src/lcd.c ****          /* '8' */
 137:FreeRTOS/test_Src/lcd.c ****          0x0000, 0x03E0, 0x07F0, 0x0E38, 0x0C18, 0x0C18, 0x0C18, 0x0638,
 138:FreeRTOS/test_Src/lcd.c ****          0x07F0, 0x07F0, 0x0C18, 0x180C, 0x180C, 0x180C, 0x180C, 0x0C38,
 139:FreeRTOS/test_Src/lcd.c ****          0x0FF8, 0x03E0, 0x0000, 0x0000, 0x0000, 0x0000, 0x0000, 0x0000,
 140:FreeRTOS/test_Src/lcd.c ****          /* '9' */
 141:FreeRTOS/test_Src/lcd.c ****          0x0000, 0x03E0, 0x07F0, 0x0E38, 0x0C1C, 0x180C, 0x180C, 0x180C,
 142:FreeRTOS/test_Src/lcd.c ****          0x1C1C, 0x1E38, 0x1BF8, 0x19E0, 0x1800, 0x0C00, 0x0C00, 0x0E1C,
 143:FreeRTOS/test_Src/lcd.c ****          0x07F8, 0x01F0, 0x0000, 0x0000, 0x0000, 0x0000, 0x0000, 0x0000,
 144:FreeRTOS/test_Src/lcd.c ****          /* ':' */
 145:FreeRTOS/test_Src/lcd.c ****          0x0000, 0x0000, 0x0000, 0x0000, 0x0000, 0x0000, 0x0180, 0x0180,
 146:FreeRTOS/test_Src/lcd.c ****          0x0000, 0x0000, 0x0000, 0x0000, 0x0000, 0x0000, 0x0000, 0x0000,
ARM GAS  /var/folders/g9/bbpj86ld7fx45vd1b3pqxmp00000gn/T//cc4EjzoN.s 			page 4


 147:FreeRTOS/test_Src/lcd.c ****          0x0180, 0x0180, 0x0000, 0x0000, 0x0000, 0x0000, 0x0000, 0x0000,
 148:FreeRTOS/test_Src/lcd.c ****          /* ';' */
 149:FreeRTOS/test_Src/lcd.c ****          0x0000, 0x0000, 0x0000, 0x0000, 0x0000, 0x0000, 0x0180, 0x0180,
 150:FreeRTOS/test_Src/lcd.c ****          0x0000, 0x0000, 0x0000, 0x0000, 0x0000, 0x0000, 0x0000, 0x0000,
 151:FreeRTOS/test_Src/lcd.c ****          0x0180, 0x0180, 0x0100, 0x0100, 0x0080, 0x0000, 0x0000, 0x0000,
 152:FreeRTOS/test_Src/lcd.c ****          /* '<' */
 153:FreeRTOS/test_Src/lcd.c ****          0x0000, 0x0000, 0x0000, 0x0000, 0x0000, 0x0000, 0x0000, 0x0000,
 154:FreeRTOS/test_Src/lcd.c ****          0x1000, 0x1C00, 0x0F80, 0x03E0, 0x00F8, 0x0018, 0x00F8, 0x03E0,
 155:FreeRTOS/test_Src/lcd.c ****          0x0F80, 0x1C00, 0x1000, 0x0000, 0x0000, 0x0000, 0x0000, 0x0000,
 156:FreeRTOS/test_Src/lcd.c ****          /* '=' */
 157:FreeRTOS/test_Src/lcd.c ****          0x0000, 0x0000, 0x0000, 0x0000, 0x0000, 0x0000, 0x0000, 0x0000,
 158:FreeRTOS/test_Src/lcd.c ****          0x1FF8, 0x0000, 0x0000, 0x0000, 0x1FF8, 0x0000, 0x0000, 0x0000,
 159:FreeRTOS/test_Src/lcd.c ****          0x0000, 0x0000, 0x0000, 0x0000, 0x0000, 0x0000, 0x0000, 0x0000,
 160:FreeRTOS/test_Src/lcd.c ****          /* '>' */
 161:FreeRTOS/test_Src/lcd.c ****          0x0000, 0x0000, 0x0000, 0x0000, 0x0000, 0x0000, 0x0000, 0x0000,
 162:FreeRTOS/test_Src/lcd.c ****          0x0008, 0x0038, 0x01F0, 0x07C0, 0x1F00, 0x1800, 0x1F00, 0x07C0,
 163:FreeRTOS/test_Src/lcd.c ****          0x01F0, 0x0038, 0x0008, 0x0000, 0x0000, 0x0000, 0x0000, 0x0000,
 164:FreeRTOS/test_Src/lcd.c ****          /* '?' */
 165:FreeRTOS/test_Src/lcd.c ****          0x0000, 0x03E0, 0x0FF8, 0x0C18, 0x180C, 0x180C, 0x1800, 0x0C00,
 166:FreeRTOS/test_Src/lcd.c ****          0x0600, 0x0300, 0x0180, 0x00C0, 0x00C0, 0x00C0, 0x0000, 0x0000,
 167:FreeRTOS/test_Src/lcd.c ****          0x00C0, 0x00C0, 0x0000, 0x0000, 0x0000, 0x0000, 0x0000, 0x0000,
 168:FreeRTOS/test_Src/lcd.c ****          /* '@' */
 169:FreeRTOS/test_Src/lcd.c ****          0x0000, 0x0000, 0x07E0, 0x1818, 0x2004, 0x29C2, 0x4A22, 0x4411,
 170:FreeRTOS/test_Src/lcd.c ****          0x4409, 0x4409, 0x4409, 0x2209, 0x1311, 0x0CE2, 0x4002, 0x2004,
 171:FreeRTOS/test_Src/lcd.c ****          0x1818, 0x07E0, 0x0000, 0x0000, 0x0000, 0x0000, 0x0000, 0x0000,
 172:FreeRTOS/test_Src/lcd.c ****          /* 'A' */
 173:FreeRTOS/test_Src/lcd.c ****          0x0000, 0x0380, 0x0380, 0x06C0, 0x06C0, 0x06C0, 0x0C60, 0x0C60,
 174:FreeRTOS/test_Src/lcd.c ****          0x1830, 0x1830, 0x1830, 0x3FF8, 0x3FF8, 0x701C, 0x600C, 0x600C,
 175:FreeRTOS/test_Src/lcd.c ****          0xC006, 0xC006, 0x0000, 0x0000, 0x0000, 0x0000, 0x0000, 0x0000,
 176:FreeRTOS/test_Src/lcd.c ****          /* 'B' */
 177:FreeRTOS/test_Src/lcd.c ****          0x0000, 0x03FC, 0x0FFC, 0x0C0C, 0x180C, 0x180C, 0x180C, 0x0C0C,
 178:FreeRTOS/test_Src/lcd.c ****          0x07FC, 0x0FFC, 0x180C, 0x300C, 0x300C, 0x300C, 0x300C, 0x180C,
 179:FreeRTOS/test_Src/lcd.c ****          0x1FFC, 0x07FC, 0x0000, 0x0000, 0x0000, 0x0000, 0x0000, 0x0000,
 180:FreeRTOS/test_Src/lcd.c ****          /* 'C' */
 181:FreeRTOS/test_Src/lcd.c ****          0x0000, 0x07C0, 0x1FF0, 0x3838, 0x301C, 0x700C, 0x6006, 0x0006,
 182:FreeRTOS/test_Src/lcd.c ****          0x0006, 0x0006, 0x0006, 0x0006, 0x0006, 0x6006, 0x700C, 0x301C,
 183:FreeRTOS/test_Src/lcd.c ****          0x1FF0, 0x07E0, 0x0000, 0x0000, 0x0000, 0x0000, 0x0000, 0x0000,
 184:FreeRTOS/test_Src/lcd.c ****          /* 'D' */
 185:FreeRTOS/test_Src/lcd.c ****          0x0000, 0x03FE, 0x0FFE, 0x0E06, 0x1806, 0x1806, 0x3006, 0x3006,
 186:FreeRTOS/test_Src/lcd.c ****          0x3006, 0x3006, 0x3006, 0x3006, 0x3006, 0x1806, 0x1806, 0x0E06,
 187:FreeRTOS/test_Src/lcd.c ****          0x0FFE, 0x03FE, 0x0000, 0x0000, 0x0000, 0x0000, 0x0000, 0x0000,
 188:FreeRTOS/test_Src/lcd.c ****          /* 'E' */
 189:FreeRTOS/test_Src/lcd.c ****          0x0000, 0x3FFC, 0x3FFC, 0x000C, 0x000C, 0x000C, 0x000C, 0x000C,
 190:FreeRTOS/test_Src/lcd.c ****          0x1FFC, 0x1FFC, 0x000C, 0x000C, 0x000C, 0x000C, 0x000C, 0x000C,
 191:FreeRTOS/test_Src/lcd.c ****          0x3FFC, 0x3FFC, 0x0000, 0x0000, 0x0000, 0x0000, 0x0000, 0x0000,
 192:FreeRTOS/test_Src/lcd.c ****          /* 'F' */
 193:FreeRTOS/test_Src/lcd.c ****          0x0000, 0x3FF8, 0x3FF8, 0x0018, 0x0018, 0x0018, 0x0018, 0x0018,
 194:FreeRTOS/test_Src/lcd.c ****          0x1FF8, 0x1FF8, 0x0018, 0x0018, 0x0018, 0x0018, 0x0018, 0x0018,
 195:FreeRTOS/test_Src/lcd.c ****          0x0018, 0x0018, 0x0000, 0x0000, 0x0000, 0x0000, 0x0000, 0x0000,
 196:FreeRTOS/test_Src/lcd.c ****          /* 'G' */
 197:FreeRTOS/test_Src/lcd.c ****          0x0000, 0x0FE0, 0x3FF8, 0x783C, 0x600E, 0xE006, 0xC007, 0x0003,
 198:FreeRTOS/test_Src/lcd.c ****          0x0003, 0xFE03, 0xFE03, 0xC003, 0xC007, 0xC006, 0xC00E, 0xF03C,
 199:FreeRTOS/test_Src/lcd.c ****          0x3FF8, 0x0FE0, 0x0000, 0x0000, 0x0000, 0x0000, 0x0000, 0x0000,
 200:FreeRTOS/test_Src/lcd.c ****          /* 'H' */
 201:FreeRTOS/test_Src/lcd.c ****          0x0000, 0x300C, 0x300C, 0x300C, 0x300C, 0x300C, 0x300C, 0x300C,
 202:FreeRTOS/test_Src/lcd.c ****          0x3FFC, 0x3FFC, 0x300C, 0x300C, 0x300C, 0x300C, 0x300C, 0x300C,
 203:FreeRTOS/test_Src/lcd.c ****          0x300C, 0x300C, 0x0000, 0x0000, 0x0000, 0x0000, 0x0000, 0x0000,
ARM GAS  /var/folders/g9/bbpj86ld7fx45vd1b3pqxmp00000gn/T//cc4EjzoN.s 			page 5


 204:FreeRTOS/test_Src/lcd.c ****          /* 'I' */
 205:FreeRTOS/test_Src/lcd.c ****          0x0000, 0x0180, 0x0180, 0x0180, 0x0180, 0x0180, 0x0180, 0x0180,
 206:FreeRTOS/test_Src/lcd.c ****          0x0180, 0x0180, 0x0180, 0x0180, 0x0180, 0x0180, 0x0180, 0x0180,
 207:FreeRTOS/test_Src/lcd.c ****          0x0180, 0x0180, 0x0000, 0x0000, 0x0000, 0x0000, 0x0000, 0x0000,
 208:FreeRTOS/test_Src/lcd.c ****          /* 'J' */
 209:FreeRTOS/test_Src/lcd.c ****          0x0000, 0x0600, 0x0600, 0x0600, 0x0600, 0x0600, 0x0600, 0x0600,
 210:FreeRTOS/test_Src/lcd.c ****          0x0600, 0x0600, 0x0600, 0x0600, 0x0600, 0x0618, 0x0618, 0x0738,
 211:FreeRTOS/test_Src/lcd.c ****          0x03F0, 0x01E0, 0x0000, 0x0000, 0x0000, 0x0000, 0x0000, 0x0000,
 212:FreeRTOS/test_Src/lcd.c ****          /* 'K' */
 213:FreeRTOS/test_Src/lcd.c ****          0x0000, 0x3006, 0x1806, 0x0C06, 0x0606, 0x0306, 0x0186, 0x00C6,
 214:FreeRTOS/test_Src/lcd.c ****          0x0066, 0x0076, 0x00DE, 0x018E, 0x0306, 0x0606, 0x0C06, 0x1806,
 215:FreeRTOS/test_Src/lcd.c ****          0x3006, 0x6006, 0x0000, 0x0000, 0x0000, 0x0000, 0x0000, 0x0000,
 216:FreeRTOS/test_Src/lcd.c ****          /* 'L' */
 217:FreeRTOS/test_Src/lcd.c ****          0x0000, 0x0018, 0x0018, 0x0018, 0x0018, 0x0018, 0x0018, 0x0018,
 218:FreeRTOS/test_Src/lcd.c ****          0x0018, 0x0018, 0x0018, 0x0018, 0x0018, 0x0018, 0x0018, 0x0018,
 219:FreeRTOS/test_Src/lcd.c ****          0x1FF8, 0x1FF8, 0x0000, 0x0000, 0x0000, 0x0000, 0x0000, 0x0000,
 220:FreeRTOS/test_Src/lcd.c ****          /* 'M' */
 221:FreeRTOS/test_Src/lcd.c ****          0x0000, 0xE00E, 0xF01E, 0xF01E, 0xF01E, 0xD836, 0xD836, 0xD836,
 222:FreeRTOS/test_Src/lcd.c ****          0xD836, 0xCC66, 0xCC66, 0xCC66, 0xC6C6, 0xC6C6, 0xC6C6, 0xC6C6,
 223:FreeRTOS/test_Src/lcd.c ****          0xC386, 0xC386, 0x0000, 0x0000, 0x0000, 0x0000, 0x0000, 0x0000,
 224:FreeRTOS/test_Src/lcd.c ****          /* 'N' */
 225:FreeRTOS/test_Src/lcd.c ****          0x0000, 0x300C, 0x301C, 0x303C, 0x303C, 0x306C, 0x306C, 0x30CC,
 226:FreeRTOS/test_Src/lcd.c ****          0x30CC, 0x318C, 0x330C, 0x330C, 0x360C, 0x360C, 0x3C0C, 0x3C0C,
 227:FreeRTOS/test_Src/lcd.c ****          0x380C, 0x300C, 0x0000, 0x0000, 0x0000, 0x0000, 0x0000, 0x0000,
 228:FreeRTOS/test_Src/lcd.c ****          /* 'O' */
 229:FreeRTOS/test_Src/lcd.c ****          0x0000, 0x07E0, 0x1FF8, 0x381C, 0x700E, 0x6006, 0xC003, 0xC003,
 230:FreeRTOS/test_Src/lcd.c ****          0xC003, 0xC003, 0xC003, 0xC003, 0xC003, 0x6006, 0x700E, 0x381C,
 231:FreeRTOS/test_Src/lcd.c ****          0x1FF8, 0x07E0, 0x0000, 0x0000, 0x0000, 0x0000, 0x0000, 0x0000,
 232:FreeRTOS/test_Src/lcd.c ****          /* 'P' */
 233:FreeRTOS/test_Src/lcd.c ****          0x0000, 0x0FFC, 0x1FFC, 0x380C, 0x300C, 0x300C, 0x300C, 0x300C,
 234:FreeRTOS/test_Src/lcd.c ****          0x180C, 0x1FFC, 0x07FC, 0x000C, 0x000C, 0x000C, 0x000C, 0x000C,
 235:FreeRTOS/test_Src/lcd.c ****          0x000C, 0x000C, 0x0000, 0x0000, 0x0000, 0x0000, 0x0000, 0x0000,
 236:FreeRTOS/test_Src/lcd.c ****          /* 'Q' */
 237:FreeRTOS/test_Src/lcd.c ****          0x0000, 0x07E0, 0x1FF8, 0x381C, 0x700E, 0x6006, 0xE003, 0xC003,
 238:FreeRTOS/test_Src/lcd.c ****          0xC003, 0xC003, 0xC003, 0xC003, 0xE007, 0x6306, 0x3F0E, 0x3C1C,
 239:FreeRTOS/test_Src/lcd.c ****          0x3FF8, 0xF7E0, 0xC000, 0x0000, 0x0000, 0x0000, 0x0000, 0x0000,
 240:FreeRTOS/test_Src/lcd.c ****          /* 'R' */
 241:FreeRTOS/test_Src/lcd.c ****          0x0000, 0x0FFE, 0x1FFE, 0x3806, 0x3006, 0x3006, 0x3006, 0x3806,
 242:FreeRTOS/test_Src/lcd.c ****          0x1FFE, 0x07FE, 0x0306, 0x0606, 0x0C06, 0x1806, 0x1806, 0x3006,
 243:FreeRTOS/test_Src/lcd.c ****          0x3006, 0x6006, 0x0000, 0x0000, 0x0000, 0x0000, 0x0000, 0x0000,
 244:FreeRTOS/test_Src/lcd.c ****          /* 'S' */
 245:FreeRTOS/test_Src/lcd.c ****          0x0000, 0x03E0, 0x0FF8, 0x0C1C, 0x180C, 0x180C, 0x000C, 0x001C,
 246:FreeRTOS/test_Src/lcd.c ****          0x03F8, 0x0FE0, 0x1E00, 0x3800, 0x3006, 0x3006, 0x300E, 0x1C1C,
 247:FreeRTOS/test_Src/lcd.c ****          0x0FF8, 0x07E0, 0x0000, 0x0000, 0x0000, 0x0000, 0x0000, 0x0000,
 248:FreeRTOS/test_Src/lcd.c ****          /* 'T' */
 249:FreeRTOS/test_Src/lcd.c ****          0x0000, 0x7FFE, 0x7FFE, 0x0180, 0x0180, 0x0180, 0x0180, 0x0180,
 250:FreeRTOS/test_Src/lcd.c ****          0x0180, 0x0180, 0x0180, 0x0180, 0x0180, 0x0180, 0x0180, 0x0180,
 251:FreeRTOS/test_Src/lcd.c ****          0x0180, 0x0180, 0x0000, 0x0000, 0x0000, 0x0000, 0x0000, 0x0000,
 252:FreeRTOS/test_Src/lcd.c ****          /* 'U' */
 253:FreeRTOS/test_Src/lcd.c ****          0x0000, 0x300C, 0x300C, 0x300C, 0x300C, 0x300C, 0x300C, 0x300C,
 254:FreeRTOS/test_Src/lcd.c ****          0x300C, 0x300C, 0x300C, 0x300C, 0x300C, 0x300C, 0x300C, 0x1818,
 255:FreeRTOS/test_Src/lcd.c ****          0x1FF8, 0x07E0, 0x0000, 0x0000, 0x0000, 0x0000, 0x0000, 0x0000,
 256:FreeRTOS/test_Src/lcd.c ****          /* 'V' */
 257:FreeRTOS/test_Src/lcd.c ****          0x0000, 0x6003, 0x3006, 0x3006, 0x3006, 0x180C, 0x180C, 0x180C,
 258:FreeRTOS/test_Src/lcd.c ****          0x0C18, 0x0C18, 0x0E38, 0x0630, 0x0630, 0x0770, 0x0360, 0x0360,
 259:FreeRTOS/test_Src/lcd.c ****          0x01C0, 0x01C0, 0x0000, 0x0000, 0x0000, 0x0000, 0x0000, 0x0000,
 260:FreeRTOS/test_Src/lcd.c ****          /* 'W' */
ARM GAS  /var/folders/g9/bbpj86ld7fx45vd1b3pqxmp00000gn/T//cc4EjzoN.s 			page 6


 261:FreeRTOS/test_Src/lcd.c ****          0x0000, 0x6003, 0x61C3, 0x61C3, 0x61C3, 0x3366, 0x3366, 0x3366,
 262:FreeRTOS/test_Src/lcd.c ****          0x3366, 0x3366, 0x3366, 0x1B6C, 0x1B6C, 0x1B6C, 0x1A2C, 0x1E3C,
 263:FreeRTOS/test_Src/lcd.c ****          0x0E38, 0x0E38, 0x0000, 0x0000, 0x0000, 0x0000, 0x0000, 0x0000,
 264:FreeRTOS/test_Src/lcd.c ****          /* 'X' */
 265:FreeRTOS/test_Src/lcd.c ****          0x0000, 0xE00F, 0x700C, 0x3018, 0x1830, 0x0C70, 0x0E60, 0x07C0,
 266:FreeRTOS/test_Src/lcd.c ****          0x0380, 0x0380, 0x03C0, 0x06E0, 0x0C70, 0x1C30, 0x1818, 0x300C,
 267:FreeRTOS/test_Src/lcd.c ****          0x600E, 0xE007, 0x0000, 0x0000, 0x0000, 0x0000, 0x0000, 0x0000,
 268:FreeRTOS/test_Src/lcd.c ****          /* 'Y' */
 269:FreeRTOS/test_Src/lcd.c ****          0x0000, 0xC003, 0x6006, 0x300C, 0x381C, 0x1838, 0x0C30, 0x0660,
 270:FreeRTOS/test_Src/lcd.c ****          0x07E0, 0x03C0, 0x0180, 0x0180, 0x0180, 0x0180, 0x0180, 0x0180,
 271:FreeRTOS/test_Src/lcd.c ****          0x0180, 0x0180, 0x0000, 0x0000, 0x0000, 0x0000, 0x0000, 0x0000,
 272:FreeRTOS/test_Src/lcd.c ****          /* 'Z' */
 273:FreeRTOS/test_Src/lcd.c ****          0x0000, 0x7FFC, 0x7FFC, 0x6000, 0x3000, 0x1800, 0x0C00, 0x0600,
 274:FreeRTOS/test_Src/lcd.c ****          0x0300, 0x0180, 0x00C0, 0x0060, 0x0030, 0x0018, 0x000C, 0x0006,
 275:FreeRTOS/test_Src/lcd.c ****          0x7FFE, 0x7FFE, 0x0000, 0x0000, 0x0000, 0x0000, 0x0000, 0x0000,
 276:FreeRTOS/test_Src/lcd.c ****          /* '[' */
 277:FreeRTOS/test_Src/lcd.c ****          0x0000, 0x03E0, 0x03E0, 0x0060, 0x0060, 0x0060, 0x0060, 0x0060,
 278:FreeRTOS/test_Src/lcd.c ****          0x0060, 0x0060, 0x0060, 0x0060, 0x0060, 0x0060, 0x0060, 0x0060,
 279:FreeRTOS/test_Src/lcd.c ****          0x0060, 0x0060, 0x0060, 0x0060, 0x0060, 0x03E0, 0x03E0, 0x0000,
 280:FreeRTOS/test_Src/lcd.c ****          /* '\' */
 281:FreeRTOS/test_Src/lcd.c ****          0x0000, 0x0030, 0x0030, 0x0060, 0x0060, 0x0060, 0x00C0, 0x00C0,
 282:FreeRTOS/test_Src/lcd.c ****          0x00C0, 0x01C0, 0x0180, 0x0180, 0x0180, 0x0300, 0x0300, 0x0300,
 283:FreeRTOS/test_Src/lcd.c ****          0x0600, 0x0600, 0x0000, 0x0000, 0x0000, 0x0000, 0x0000, 0x0000,
 284:FreeRTOS/test_Src/lcd.c ****          /* ']' */
 285:FreeRTOS/test_Src/lcd.c ****          0x0000, 0x03E0, 0x03E0, 0x0300, 0x0300, 0x0300, 0x0300, 0x0300,
 286:FreeRTOS/test_Src/lcd.c ****          0x0300, 0x0300, 0x0300, 0x0300, 0x0300, 0x0300, 0x0300, 0x0300,
 287:FreeRTOS/test_Src/lcd.c ****          0x0300, 0x0300, 0x0300, 0x0300, 0x0300, 0x03E0, 0x03E0, 0x0000,
 288:FreeRTOS/test_Src/lcd.c ****          /* '^' */
 289:FreeRTOS/test_Src/lcd.c ****          0x0000, 0x0000, 0x01C0, 0x01C0, 0x0360, 0x0360, 0x0360, 0x0630,
 290:FreeRTOS/test_Src/lcd.c ****          0x0630, 0x0C18, 0x0C18, 0x0000, 0x0000, 0x0000, 0x0000, 0x0000,
 291:FreeRTOS/test_Src/lcd.c ****          0x0000, 0x0000, 0x0000, 0x0000, 0x0000, 0x0000, 0x0000, 0x0000,
 292:FreeRTOS/test_Src/lcd.c ****          /* '_' */
 293:FreeRTOS/test_Src/lcd.c ****          0x0000, 0x0000, 0x0000, 0x0000, 0x0000, 0x0000, 0x0000, 0x0000,
 294:FreeRTOS/test_Src/lcd.c ****          0x0000, 0x0000, 0x0000, 0x0000, 0x0000, 0x0000, 0x0000, 0x0000,
 295:FreeRTOS/test_Src/lcd.c ****          0x0000, 0xFFFF, 0xFFFF, 0x0000, 0x0000, 0x0000, 0x0000, 0x0000,
 296:FreeRTOS/test_Src/lcd.c ****          /* ''' */
 297:FreeRTOS/test_Src/lcd.c ****          0x0000, 0x000C, 0x000C, 0x000C, 0x000C, 0x000C, 0x000C, 0x0000,
 298:FreeRTOS/test_Src/lcd.c ****          0x0000, 0x0000, 0x0000, 0x0000, 0x0000, 0x0000, 0x0000, 0x0000,
 299:FreeRTOS/test_Src/lcd.c ****          0x0000, 0x0000, 0x0000, 0x0000, 0x0000, 0x0000, 0x0000, 0x0000,
 300:FreeRTOS/test_Src/lcd.c ****          /* 'a' */
 301:FreeRTOS/test_Src/lcd.c ****          0x0000, 0x0000, 0x0000, 0x0000, 0x0000, 0x0000, 0x03F0, 0x07F8,
 302:FreeRTOS/test_Src/lcd.c ****          0x0C1C, 0x0C0C, 0x0F00, 0x0FF0, 0x0CF8, 0x0C0C, 0x0C0C, 0x0F1C,
 303:FreeRTOS/test_Src/lcd.c ****          0x0FF8, 0x18F0, 0x0000, 0x0000, 0x0000, 0x0000, 0x0000, 0x0000,
 304:FreeRTOS/test_Src/lcd.c ****          /* 'b' */
 305:FreeRTOS/test_Src/lcd.c ****          0x0000, 0x0018, 0x0018, 0x0018, 0x0018, 0x0018, 0x03D8, 0x0FF8,
 306:FreeRTOS/test_Src/lcd.c ****          0x0C38, 0x1818, 0x1818, 0x1818, 0x1818, 0x1818, 0x1818, 0x0C38,
 307:FreeRTOS/test_Src/lcd.c ****          0x0FF8, 0x03D8, 0x0000, 0x0000, 0x0000, 0x0000, 0x0000, 0x0000,
 308:FreeRTOS/test_Src/lcd.c ****          /* 'c' */
 309:FreeRTOS/test_Src/lcd.c ****          0x0000, 0x0000, 0x0000, 0x0000, 0x0000, 0x0000, 0x03C0, 0x07F0,
 310:FreeRTOS/test_Src/lcd.c ****          0x0E30, 0x0C18, 0x0018, 0x0018, 0x0018, 0x0018, 0x0C18, 0x0E30,
 311:FreeRTOS/test_Src/lcd.c ****          0x07F0, 0x03C0, 0x0000, 0x0000, 0x0000, 0x0000, 0x0000, 0x0000,
 312:FreeRTOS/test_Src/lcd.c ****          /* 'd' */
 313:FreeRTOS/test_Src/lcd.c ****          0x0000, 0x1800, 0x1800, 0x1800, 0x1800, 0x1800, 0x1BC0, 0x1FF0,
 314:FreeRTOS/test_Src/lcd.c ****          0x1C30, 0x1818, 0x1818, 0x1818, 0x1818, 0x1818, 0x1818, 0x1C30,
 315:FreeRTOS/test_Src/lcd.c ****          0x1FF0, 0x1BC0, 0x0000, 0x0000, 0x0000, 0x0000, 0x0000, 0x0000,
 316:FreeRTOS/test_Src/lcd.c ****          /* 'e' */
 317:FreeRTOS/test_Src/lcd.c ****          0x0000, 0x0000, 0x0000, 0x0000, 0x0000, 0x0000, 0x03C0, 0x0FF0,
ARM GAS  /var/folders/g9/bbpj86ld7fx45vd1b3pqxmp00000gn/T//cc4EjzoN.s 			page 7


 318:FreeRTOS/test_Src/lcd.c ****          0x0C30, 0x1818, 0x1FF8, 0x1FF8, 0x0018, 0x0018, 0x1838, 0x1C30,
 319:FreeRTOS/test_Src/lcd.c ****          0x0FF0, 0x07C0, 0x0000, 0x0000, 0x0000, 0x0000, 0x0000, 0x0000,
 320:FreeRTOS/test_Src/lcd.c ****          /* 'f' */
 321:FreeRTOS/test_Src/lcd.c ****          0x0000, 0x0F80, 0x0FC0, 0x00C0, 0x00C0, 0x00C0, 0x07F0, 0x07F0,
 322:FreeRTOS/test_Src/lcd.c ****          0x00C0, 0x00C0, 0x00C0, 0x00C0, 0x00C0, 0x00C0, 0x00C0, 0x00C0,
 323:FreeRTOS/test_Src/lcd.c ****          0x00C0, 0x00C0, 0x0000, 0x0000, 0x0000, 0x0000, 0x0000, 0x0000,
 324:FreeRTOS/test_Src/lcd.c ****          /* 'g' */
 325:FreeRTOS/test_Src/lcd.c ****          0x0000, 0x0000, 0x0000, 0x0000, 0x0000, 0x0000, 0x0DE0, 0x0FF8,
 326:FreeRTOS/test_Src/lcd.c ****          0x0E18, 0x0C0C, 0x0C0C, 0x0C0C, 0x0C0C, 0x0C0C, 0x0C0C, 0x0E18,
 327:FreeRTOS/test_Src/lcd.c ****          0x0FF8, 0x0DE0, 0x0C00, 0x0C0C, 0x061C, 0x07F8, 0x01F0, 0x0000,
 328:FreeRTOS/test_Src/lcd.c ****          /* 'h' */
 329:FreeRTOS/test_Src/lcd.c ****          0x0000, 0x0018, 0x0018, 0x0018, 0x0018, 0x0018, 0x07D8, 0x0FF8,
 330:FreeRTOS/test_Src/lcd.c ****          0x1C38, 0x1818, 0x1818, 0x1818, 0x1818, 0x1818, 0x1818, 0x1818,
 331:FreeRTOS/test_Src/lcd.c ****          0x1818, 0x1818, 0x0000, 0x0000, 0x0000, 0x0000, 0x0000, 0x0000,
 332:FreeRTOS/test_Src/lcd.c ****          /* 'i' */
 333:FreeRTOS/test_Src/lcd.c ****          0x0000, 0x00C0, 0x00C0, 0x0000, 0x0000, 0x0000, 0x00C0, 0x00C0,
 334:FreeRTOS/test_Src/lcd.c ****          0x00C0, 0x00C0, 0x00C0, 0x00C0, 0x00C0, 0x00C0, 0x00C0, 0x00C0,
 335:FreeRTOS/test_Src/lcd.c ****          0x00C0, 0x00C0, 0x0000, 0x0000, 0x0000, 0x0000, 0x0000, 0x0000,
 336:FreeRTOS/test_Src/lcd.c ****          /* 'j' */
 337:FreeRTOS/test_Src/lcd.c ****          0x0000, 0x00C0, 0x00C0, 0x0000, 0x0000, 0x0000, 0x00C0, 0x00C0,
 338:FreeRTOS/test_Src/lcd.c ****          0x00C0, 0x00C0, 0x00C0, 0x00C0, 0x00C0, 0x00C0, 0x00C0, 0x00C0,
 339:FreeRTOS/test_Src/lcd.c ****          0x00C0, 0x00C0, 0x00C0, 0x00C0, 0x00C0, 0x00F8, 0x0078, 0x0000,
 340:FreeRTOS/test_Src/lcd.c ****          /* 'k' */
 341:FreeRTOS/test_Src/lcd.c ****          0x0000, 0x000C, 0x000C, 0x000C, 0x000C, 0x000C, 0x0C0C, 0x060C,
 342:FreeRTOS/test_Src/lcd.c ****          0x030C, 0x018C, 0x00CC, 0x006C, 0x00FC, 0x019C, 0x038C, 0x030C,
 343:FreeRTOS/test_Src/lcd.c ****          0x060C, 0x0C0C, 0x0000, 0x0000, 0x0000, 0x0000, 0x0000, 0x0000,
 344:FreeRTOS/test_Src/lcd.c ****          /* 'l' */
 345:FreeRTOS/test_Src/lcd.c ****          0x0000, 0x00C0, 0x00C0, 0x00C0, 0x00C0, 0x00C0, 0x00C0, 0x00C0,
 346:FreeRTOS/test_Src/lcd.c ****          0x00C0, 0x00C0, 0x00C0, 0x00C0, 0x00C0, 0x00C0, 0x00C0, 0x00C0,
 347:FreeRTOS/test_Src/lcd.c ****          0x00C0, 0x00C0, 0x0000, 0x0000, 0x0000, 0x0000, 0x0000, 0x0000,
 348:FreeRTOS/test_Src/lcd.c ****          /* 'm' */
 349:FreeRTOS/test_Src/lcd.c ****          0x0000, 0x0000, 0x0000, 0x0000, 0x0000, 0x0000, 0x3C7C, 0x7EFF,
 350:FreeRTOS/test_Src/lcd.c ****          0xE3C7, 0xC183, 0xC183, 0xC183, 0xC183, 0xC183, 0xC183, 0xC183,
 351:FreeRTOS/test_Src/lcd.c ****          0xC183, 0xC183, 0x0000, 0x0000, 0x0000, 0x0000, 0x0000, 0x0000,
 352:FreeRTOS/test_Src/lcd.c ****          /* 'n' */
 353:FreeRTOS/test_Src/lcd.c ****          0x0000, 0x0000, 0x0000, 0x0000, 0x0000, 0x0000, 0x0798, 0x0FF8,
 354:FreeRTOS/test_Src/lcd.c ****          0x1C38, 0x1818, 0x1818, 0x1818, 0x1818, 0x1818, 0x1818, 0x1818,
 355:FreeRTOS/test_Src/lcd.c ****          0x1818, 0x1818, 0x0000, 0x0000, 0x0000, 0x0000, 0x0000, 0x0000,
 356:FreeRTOS/test_Src/lcd.c ****          /* 'o' */
 357:FreeRTOS/test_Src/lcd.c ****          0x0000, 0x0000, 0x0000, 0x0000, 0x0000, 0x0000, 0x03C0, 0x0FF0,
 358:FreeRTOS/test_Src/lcd.c ****          0x0C30, 0x1818, 0x1818, 0x1818, 0x1818, 0x1818, 0x1818, 0x0C30,
 359:FreeRTOS/test_Src/lcd.c ****          0x0FF0, 0x03C0, 0x0000, 0x0000, 0x0000, 0x0000, 0x0000, 0x0000,
 360:FreeRTOS/test_Src/lcd.c ****          /* 'p' */
 361:FreeRTOS/test_Src/lcd.c ****          0x0000, 0x0000, 0x0000, 0x0000, 0x0000, 0x0000, 0x03D8, 0x0FF8,
 362:FreeRTOS/test_Src/lcd.c ****          0x0C38, 0x1818, 0x1818, 0x1818, 0x1818, 0x1818, 0x1818, 0x0C38,
 363:FreeRTOS/test_Src/lcd.c ****          0x0FF8, 0x03D8, 0x0018, 0x0018, 0x0018, 0x0018, 0x0018, 0x0000,
 364:FreeRTOS/test_Src/lcd.c ****          /* 'q' */
 365:FreeRTOS/test_Src/lcd.c ****          0x0000, 0x0000, 0x0000, 0x0000, 0x0000, 0x0000, 0x1BC0, 0x1FF0,
 366:FreeRTOS/test_Src/lcd.c ****          0x1C30, 0x1818, 0x1818, 0x1818, 0x1818, 0x1818, 0x1818, 0x1C30,
 367:FreeRTOS/test_Src/lcd.c ****          0x1FF0, 0x1BC0, 0x1800, 0x1800, 0x1800, 0x1800, 0x1800, 0x0000,
 368:FreeRTOS/test_Src/lcd.c ****          /* 'r' */
 369:FreeRTOS/test_Src/lcd.c ****          0x0000, 0x0000, 0x0000, 0x0000, 0x0000, 0x0000, 0x07B0, 0x03F0,
 370:FreeRTOS/test_Src/lcd.c ****          0x0070, 0x0030, 0x0030, 0x0030, 0x0030, 0x0030, 0x0030, 0x0030,
 371:FreeRTOS/test_Src/lcd.c ****          0x0030, 0x0030, 0x0000, 0x0000, 0x0000, 0x0000, 0x0000, 0x0000,
 372:FreeRTOS/test_Src/lcd.c ****          /* 's' */
 373:FreeRTOS/test_Src/lcd.c ****          0x0000, 0x0000, 0x0000, 0x0000, 0x0000, 0x0000, 0x03E0, 0x03F0,
 374:FreeRTOS/test_Src/lcd.c ****          0x0E38, 0x0C18, 0x0038, 0x03F0, 0x07C0, 0x0C00, 0x0C18, 0x0E38,
ARM GAS  /var/folders/g9/bbpj86ld7fx45vd1b3pqxmp00000gn/T//cc4EjzoN.s 			page 8


 375:FreeRTOS/test_Src/lcd.c ****          0x07F0, 0x03E0, 0x0000, 0x0000, 0x0000, 0x0000, 0x0000, 0x0000,
 376:FreeRTOS/test_Src/lcd.c ****          /* 't' */
 377:FreeRTOS/test_Src/lcd.c ****          0x0000, 0x0000, 0x0080, 0x00C0, 0x00C0, 0x00C0, 0x07F0, 0x07F0,
 378:FreeRTOS/test_Src/lcd.c ****          0x00C0, 0x00C0, 0x00C0, 0x00C0, 0x00C0, 0x00C0, 0x00C0, 0x00C0,
 379:FreeRTOS/test_Src/lcd.c ****          0x07C0, 0x0780, 0x0000, 0x0000, 0x0000, 0x0000, 0x0000, 0x0000,
 380:FreeRTOS/test_Src/lcd.c ****          /* 'u' */
 381:FreeRTOS/test_Src/lcd.c ****          0x0000, 0x0000, 0x0000, 0x0000, 0x0000, 0x0000, 0x1818, 0x1818,
 382:FreeRTOS/test_Src/lcd.c ****          0x1818, 0x1818, 0x1818, 0x1818, 0x1818, 0x1818, 0x1818, 0x1C38,
 383:FreeRTOS/test_Src/lcd.c ****          0x1FF0, 0x19E0, 0x0000, 0x0000, 0x0000, 0x0000, 0x0000, 0x0000,
 384:FreeRTOS/test_Src/lcd.c ****          /* 'v' */
 385:FreeRTOS/test_Src/lcd.c ****          0x0000, 0x0000, 0x0000, 0x0000, 0x0000, 0x0000, 0x180C, 0x0C18,
 386:FreeRTOS/test_Src/lcd.c ****          0x0C18, 0x0C18, 0x0630, 0x0630, 0x0630, 0x0360, 0x0360, 0x0360,
 387:FreeRTOS/test_Src/lcd.c ****          0x01C0, 0x01C0, 0x0000, 0x0000, 0x0000, 0x0000, 0x0000, 0x0000,
 388:FreeRTOS/test_Src/lcd.c ****          /* 'w' */
 389:FreeRTOS/test_Src/lcd.c ****          0x0000, 0x0000, 0x0000, 0x0000, 0x0000, 0x0000, 0x41C1, 0x41C1,
 390:FreeRTOS/test_Src/lcd.c ****          0x61C3, 0x6363, 0x6363, 0x6363, 0x3636, 0x3636, 0x3636, 0x1C1C,
 391:FreeRTOS/test_Src/lcd.c ****          0x1C1C, 0x1C1C, 0x0000, 0x0000, 0x0000, 0x0000, 0x0000, 0x0000,
 392:FreeRTOS/test_Src/lcd.c ****          /* 'x' */
 393:FreeRTOS/test_Src/lcd.c ****          0x0000, 0x0000, 0x0000, 0x0000, 0x0000, 0x0000, 0x381C, 0x1C38,
 394:FreeRTOS/test_Src/lcd.c ****          0x0C30, 0x0660, 0x0360, 0x0360, 0x0360, 0x0360, 0x0660, 0x0C30,
 395:FreeRTOS/test_Src/lcd.c ****          0x1C38, 0x381C, 0x0000, 0x0000, 0x0000, 0x0000, 0x0000, 0x0000,
 396:FreeRTOS/test_Src/lcd.c ****          /* 'y' */
 397:FreeRTOS/test_Src/lcd.c ****          0x0000, 0x0000, 0x0000, 0x0000, 0x0000, 0x0000, 0x3018, 0x1830,
 398:FreeRTOS/test_Src/lcd.c ****          0x1830, 0x1870, 0x0C60, 0x0C60, 0x0CE0, 0x06C0, 0x06C0, 0x0380,
 399:FreeRTOS/test_Src/lcd.c ****          0x0380, 0x0380, 0x0180, 0x0180, 0x01C0, 0x00F0, 0x0070, 0x0000,
 400:FreeRTOS/test_Src/lcd.c ****          /* 'z' */
 401:FreeRTOS/test_Src/lcd.c ****          0x0000, 0x0000, 0x0000, 0x0000, 0x0000, 0x0000, 0x1FFC, 0x1FFC,
 402:FreeRTOS/test_Src/lcd.c ****          0x0C00, 0x0600, 0x0300, 0x0180, 0x00C0, 0x0060, 0x0030, 0x0018,
 403:FreeRTOS/test_Src/lcd.c ****          0x1FFC, 0x1FFC, 0x0000, 0x0000, 0x0000, 0x0000, 0x0000, 0x0000,
 404:FreeRTOS/test_Src/lcd.c ****          /* '{' */
 405:FreeRTOS/test_Src/lcd.c ****          0x0000, 0x0300, 0x0180, 0x00C0, 0x00C0, 0x00C0, 0x00C0, 0x00C0,
 406:FreeRTOS/test_Src/lcd.c ****          0x00C0, 0x0060, 0x0060, 0x0030, 0x0060, 0x0040, 0x00C0, 0x00C0,
 407:FreeRTOS/test_Src/lcd.c ****          0x00C0, 0x00C0, 0x00C0, 0x00C0, 0x0180, 0x0300, 0x0000, 0x0000,
 408:FreeRTOS/test_Src/lcd.c ****          /* '|' */
 409:FreeRTOS/test_Src/lcd.c ****          0x0000, 0x0180, 0x0180, 0x0180, 0x0180, 0x0180, 0x0180, 0x0180,
 410:FreeRTOS/test_Src/lcd.c ****          0x0180, 0x0180, 0x0180, 0x0180, 0x0180, 0x0180, 0x0180, 0x0180,
 411:FreeRTOS/test_Src/lcd.c ****          0x0180, 0x0180, 0x0180, 0x0180, 0x0180, 0x0180, 0x0180, 0x0000,
 412:FreeRTOS/test_Src/lcd.c ****          /* '}' */
 413:FreeRTOS/test_Src/lcd.c ****          0x0000, 0x0060, 0x00C0, 0x01C0, 0x0180, 0x0180, 0x0180, 0x0180,
 414:FreeRTOS/test_Src/lcd.c ****          0x0180, 0x0300, 0x0300, 0x0600, 0x0300, 0x0100, 0x0180, 0x0180,
 415:FreeRTOS/test_Src/lcd.c ****          0x0180, 0x0180, 0x0180, 0x0180, 0x00C0, 0x0060, 0x0000, 0x0000,
 416:FreeRTOS/test_Src/lcd.c ****          /* '~' */
 417:FreeRTOS/test_Src/lcd.c ****          0x0000, 0x0000, 0x0000, 0x0000, 0x0000, 0x0000, 0x0000, 0x0000,
 418:FreeRTOS/test_Src/lcd.c ****          0x10F0, 0x1FF8, 0x0F08, 0x0000, 0x0000, 0x0000, 0x0000, 0x0000,
 419:FreeRTOS/test_Src/lcd.c ****          0x0000, 0x0000, 0x0000, 0x0000, 0x0000, 0x0000, 0x0000, 0x0000,
 420:FreeRTOS/test_Src/lcd.c ****       };
 421:FreeRTOS/test_Src/lcd.c **** /* Private macro -------------------------------------------------------------*/
 422:FreeRTOS/test_Src/lcd.c **** /* Private variables ---------------------------------------------------------*/
 423:FreeRTOS/test_Src/lcd.c ****   /* Global variables to set the written text color */
 424:FreeRTOS/test_Src/lcd.c **** static  vu16 TextColor = 0x0000, BackColor = 0xFFFF;
 425:FreeRTOS/test_Src/lcd.c **** 
 426:FreeRTOS/test_Src/lcd.c **** /* Private function prototypes -----------------------------------------------*/
 427:FreeRTOS/test_Src/lcd.c **** /* Private functions ---------------------------------------------------------*/
 428:FreeRTOS/test_Src/lcd.c **** static u32 StrLength(u8 *Str);
 429:FreeRTOS/test_Src/lcd.c **** 
 430:FreeRTOS/test_Src/lcd.c **** /*******************************************************************************
 431:FreeRTOS/test_Src/lcd.c **** * Function Name  : LCD_Init
ARM GAS  /var/folders/g9/bbpj86ld7fx45vd1b3pqxmp00000gn/T//cc4EjzoN.s 			page 9


 432:FreeRTOS/test_Src/lcd.c **** * Description    : Initializes LCD.
 433:FreeRTOS/test_Src/lcd.c **** * Input          : None
 434:FreeRTOS/test_Src/lcd.c **** * Output         : None
 435:FreeRTOS/test_Src/lcd.c **** * Return         : None
 436:FreeRTOS/test_Src/lcd.c **** *******************************************************************************/
 437:FreeRTOS/test_Src/lcd.c **** void LCD_Init(void)
 438:FreeRTOS/test_Src/lcd.c **** {
 439:FreeRTOS/test_Src/lcd.c **** /* Configure the LCD Control pins --------------------------------------------*/
 440:FreeRTOS/test_Src/lcd.c ****   LCD_CtrlLinesConfig();
 441:FreeRTOS/test_Src/lcd.c **** 
 442:FreeRTOS/test_Src/lcd.c **** /* Configure the SPI2 interface ----------------------------------------------*/
 443:FreeRTOS/test_Src/lcd.c ****   LCD_SPIConfig();
 444:FreeRTOS/test_Src/lcd.c **** 
 445:FreeRTOS/test_Src/lcd.c **** /* Enable the LCD Oscillator -------------------------------------------------*/
 446:FreeRTOS/test_Src/lcd.c ****   LCD_WriteReg(R1, 0x10);
 447:FreeRTOS/test_Src/lcd.c ****   LCD_WriteReg(R0, 0xA0);
 448:FreeRTOS/test_Src/lcd.c ****   LCD_WriteReg(R3, 0x01);
 449:FreeRTOS/test_Src/lcd.c ****   vTaskDelay( 10 / portTICK_PERIOD_MS ); /* Delay 10 ms */
 450:FreeRTOS/test_Src/lcd.c ****   LCD_WriteReg(R3, 0x00);
 451:FreeRTOS/test_Src/lcd.c ****   LCD_WriteReg(R43, 0x04);
 452:FreeRTOS/test_Src/lcd.c **** 
 453:FreeRTOS/test_Src/lcd.c ****   LCD_WriteReg(R40, 0x18);
 454:FreeRTOS/test_Src/lcd.c ****   LCD_WriteReg(R26, 0x05);
 455:FreeRTOS/test_Src/lcd.c ****   LCD_WriteReg(R37, 0x05);
 456:FreeRTOS/test_Src/lcd.c ****   LCD_WriteReg(R25, 0x00);
 457:FreeRTOS/test_Src/lcd.c **** 
 458:FreeRTOS/test_Src/lcd.c **** /* LCD Power On --------------------------------------------------------------*/
 459:FreeRTOS/test_Src/lcd.c ****   LCD_WriteReg(R28, 0x73);
 460:FreeRTOS/test_Src/lcd.c ****   LCD_WriteReg(R36, 0x74);
 461:FreeRTOS/test_Src/lcd.c ****   LCD_WriteReg(R30, 0x01);
 462:FreeRTOS/test_Src/lcd.c ****   LCD_WriteReg(R24, 0xC1);
 463:FreeRTOS/test_Src/lcd.c ****   vTaskDelay( 10 / portTICK_PERIOD_MS ); /* Delay 10 ms */
 464:FreeRTOS/test_Src/lcd.c ****   LCD_WriteReg(R24, 0xE1);
 465:FreeRTOS/test_Src/lcd.c ****   LCD_WriteReg(R24, 0xF1);
 466:FreeRTOS/test_Src/lcd.c ****   vTaskDelay( 60 / portTICK_PERIOD_MS ); /* Delay 60 ms */
 467:FreeRTOS/test_Src/lcd.c ****   LCD_WriteReg(R24, 0xF5);
 468:FreeRTOS/test_Src/lcd.c ****   vTaskDelay( 60 / portTICK_PERIOD_MS ); /* Delay 60 ms */
 469:FreeRTOS/test_Src/lcd.c ****   LCD_WriteReg(R27, 0x09);
 470:FreeRTOS/test_Src/lcd.c ****   vTaskDelay( 10 / portTICK_PERIOD_MS ); /* Delay 10 ms */
 471:FreeRTOS/test_Src/lcd.c ****   LCD_WriteReg(R31, 0x11);
 472:FreeRTOS/test_Src/lcd.c ****   LCD_WriteReg(R32, 0x0E);
 473:FreeRTOS/test_Src/lcd.c ****   LCD_WriteReg(R30, 0x81);
 474:FreeRTOS/test_Src/lcd.c ****   vTaskDelay( 10 / portTICK_PERIOD_MS ); /* Delay 10 ms */
 475:FreeRTOS/test_Src/lcd.c **** 
 476:FreeRTOS/test_Src/lcd.c **** /* Chip Set ------------------------------------------------------------------*/
 477:FreeRTOS/test_Src/lcd.c ****   LCD_WriteReg(R157, 0x00);
 478:FreeRTOS/test_Src/lcd.c ****   LCD_WriteReg(R192, 0x00);
 479:FreeRTOS/test_Src/lcd.c **** 
 480:FreeRTOS/test_Src/lcd.c ****   LCD_WriteReg(R14, 0x00);
 481:FreeRTOS/test_Src/lcd.c ****   LCD_WriteReg(R15, 0x00);
 482:FreeRTOS/test_Src/lcd.c ****   LCD_WriteReg(R16, 0x00);
 483:FreeRTOS/test_Src/lcd.c ****   LCD_WriteReg(R17, 0x00);
 484:FreeRTOS/test_Src/lcd.c ****   LCD_WriteReg(R18, 0x00);
 485:FreeRTOS/test_Src/lcd.c ****   LCD_WriteReg(R19, 0x00);
 486:FreeRTOS/test_Src/lcd.c ****   LCD_WriteReg(R20, 0x00);
 487:FreeRTOS/test_Src/lcd.c ****   LCD_WriteReg(R21, 0x00);
 488:FreeRTOS/test_Src/lcd.c ****   LCD_WriteReg(R22, 0x00);
ARM GAS  /var/folders/g9/bbpj86ld7fx45vd1b3pqxmp00000gn/T//cc4EjzoN.s 			page 10


 489:FreeRTOS/test_Src/lcd.c ****   LCD_WriteReg(R23, 0x00);
 490:FreeRTOS/test_Src/lcd.c **** 
 491:FreeRTOS/test_Src/lcd.c ****   LCD_WriteReg(R52, 0x01);
 492:FreeRTOS/test_Src/lcd.c ****   LCD_WriteReg(R53, 0x00);
 493:FreeRTOS/test_Src/lcd.c **** 
 494:FreeRTOS/test_Src/lcd.c ****   LCD_WriteReg(R75, 0x00);
 495:FreeRTOS/test_Src/lcd.c ****   LCD_WriteReg(R76, 0x00);
 496:FreeRTOS/test_Src/lcd.c ****   LCD_WriteReg(R78, 0x00);
 497:FreeRTOS/test_Src/lcd.c ****   LCD_WriteReg(R79, 0x00);
 498:FreeRTOS/test_Src/lcd.c ****   LCD_WriteReg(R80, 0x00);
 499:FreeRTOS/test_Src/lcd.c **** 
 500:FreeRTOS/test_Src/lcd.c ****   LCD_WriteReg(R60, 0x00);
 501:FreeRTOS/test_Src/lcd.c ****   LCD_WriteReg(R61, 0x00);
 502:FreeRTOS/test_Src/lcd.c ****   LCD_WriteReg(R62, 0x01);
 503:FreeRTOS/test_Src/lcd.c ****   LCD_WriteReg(R63, 0x3F);
 504:FreeRTOS/test_Src/lcd.c ****   LCD_WriteReg(R64, 0x02);
 505:FreeRTOS/test_Src/lcd.c ****   LCD_WriteReg(R65, 0x02);
 506:FreeRTOS/test_Src/lcd.c ****   LCD_WriteReg(R66, 0x00);
 507:FreeRTOS/test_Src/lcd.c ****   LCD_WriteReg(R67, 0x00);
 508:FreeRTOS/test_Src/lcd.c ****   LCD_WriteReg(R68, 0x00);
 509:FreeRTOS/test_Src/lcd.c ****   LCD_WriteReg(R69, 0x00);
 510:FreeRTOS/test_Src/lcd.c ****   LCD_WriteReg(R70, 0xEF);
 511:FreeRTOS/test_Src/lcd.c ****   LCD_WriteReg(R71, 0x00);
 512:FreeRTOS/test_Src/lcd.c ****   LCD_WriteReg(R72, 0x00);
 513:FreeRTOS/test_Src/lcd.c ****   LCD_WriteReg(R73, 0x01);
 514:FreeRTOS/test_Src/lcd.c ****   LCD_WriteReg(R74, 0x3F);
 515:FreeRTOS/test_Src/lcd.c **** 
 516:FreeRTOS/test_Src/lcd.c ****   LCD_WriteReg(R29, 0x08);  /* R29:Gate scan direction setting */
 517:FreeRTOS/test_Src/lcd.c **** 
 518:FreeRTOS/test_Src/lcd.c ****   LCD_WriteReg(R134, 0x00);
 519:FreeRTOS/test_Src/lcd.c ****   LCD_WriteReg(R135, 0x30);
 520:FreeRTOS/test_Src/lcd.c ****   LCD_WriteReg(R136, 0x02);
 521:FreeRTOS/test_Src/lcd.c ****   LCD_WriteReg(R137, 0x05);
 522:FreeRTOS/test_Src/lcd.c **** 
 523:FreeRTOS/test_Src/lcd.c ****   LCD_WriteReg(R141, 0x01);  /* R141:Register set-up mode for one line clock */
 524:FreeRTOS/test_Src/lcd.c ****   LCD_WriteReg(R139, 0x20);  /* R139:One line SYSCLK number in one-line */
 525:FreeRTOS/test_Src/lcd.c ****   LCD_WriteReg(R51, 0x01);  /* R51:N line inversion setting */
 526:FreeRTOS/test_Src/lcd.c ****   LCD_WriteReg(R55, 0x01);  /* R55:Scanning method setting */
 527:FreeRTOS/test_Src/lcd.c ****   LCD_WriteReg(R118, 0x00);
 528:FreeRTOS/test_Src/lcd.c **** 
 529:FreeRTOS/test_Src/lcd.c **** /* Gamma Set -----------------------------------------------------------------*/
 530:FreeRTOS/test_Src/lcd.c ****   LCD_WriteReg(R143, 0x10);
 531:FreeRTOS/test_Src/lcd.c ****   LCD_WriteReg(R144, 0x67);
 532:FreeRTOS/test_Src/lcd.c ****   LCD_WriteReg(R145, 0x07);
 533:FreeRTOS/test_Src/lcd.c ****   LCD_WriteReg(R146, 0x65);
 534:FreeRTOS/test_Src/lcd.c ****   LCD_WriteReg(R147, 0x07);
 535:FreeRTOS/test_Src/lcd.c ****   LCD_WriteReg(R148, 0x01);
 536:FreeRTOS/test_Src/lcd.c ****   LCD_WriteReg(R149, 0x76);
 537:FreeRTOS/test_Src/lcd.c ****   LCD_WriteReg(R150, 0x56);
 538:FreeRTOS/test_Src/lcd.c ****   LCD_WriteReg(R151, 0x00);
 539:FreeRTOS/test_Src/lcd.c ****   LCD_WriteReg(R152, 0x06);
 540:FreeRTOS/test_Src/lcd.c ****   LCD_WriteReg(R153, 0x03);
 541:FreeRTOS/test_Src/lcd.c ****   LCD_WriteReg(R154, 0x00);
 542:FreeRTOS/test_Src/lcd.c **** 
 543:FreeRTOS/test_Src/lcd.c **** /* Display On ----------------------------------------------------------------*/
 544:FreeRTOS/test_Src/lcd.c ****   LCD_WriteReg(R1, 0x50);
 545:FreeRTOS/test_Src/lcd.c ****   LCD_WriteReg(R5, 0x04);
ARM GAS  /var/folders/g9/bbpj86ld7fx45vd1b3pqxmp00000gn/T//cc4EjzoN.s 			page 11


 546:FreeRTOS/test_Src/lcd.c **** 
 547:FreeRTOS/test_Src/lcd.c ****   LCD_WriteReg(R0, 0x80);
 548:FreeRTOS/test_Src/lcd.c ****   LCD_WriteReg(R59, 0x01);
 549:FreeRTOS/test_Src/lcd.c ****   vTaskDelay( 40 / portTICK_PERIOD_MS );  /* Delay 40 ms */
 550:FreeRTOS/test_Src/lcd.c ****   LCD_WriteReg(R0, 0x20);
 551:FreeRTOS/test_Src/lcd.c **** }
 552:FreeRTOS/test_Src/lcd.c **** 
 553:FreeRTOS/test_Src/lcd.c **** /*******************************************************************************
 554:FreeRTOS/test_Src/lcd.c **** * Function Name  : LCD_SetTextColor
 555:FreeRTOS/test_Src/lcd.c **** * Description    : Sets the Text color.
 556:FreeRTOS/test_Src/lcd.c **** * Input          : - Color: specifies the Text color code RGB(5-6-5).
 557:FreeRTOS/test_Src/lcd.c **** * Output         : - TextColor: Text color global variable used by LCD_DrawChar
 558:FreeRTOS/test_Src/lcd.c **** *                  and LCD_DrawPicture functions.
 559:FreeRTOS/test_Src/lcd.c **** * Return         : None
 560:FreeRTOS/test_Src/lcd.c **** *******************************************************************************/
 561:FreeRTOS/test_Src/lcd.c **** void LCD_SetTextColor(vu16 Color)
 562:FreeRTOS/test_Src/lcd.c **** {
 563:FreeRTOS/test_Src/lcd.c ****   TextColor = Color;
 564:FreeRTOS/test_Src/lcd.c **** }
 565:FreeRTOS/test_Src/lcd.c **** 
 566:FreeRTOS/test_Src/lcd.c **** /*******************************************************************************
 567:FreeRTOS/test_Src/lcd.c **** * Function Name  : LCD_SetBackColor
 568:FreeRTOS/test_Src/lcd.c **** * Description    : Sets the Background color.
 569:FreeRTOS/test_Src/lcd.c **** * Input          : - Color: specifies the Background color code RGB(5-6-5).
 570:FreeRTOS/test_Src/lcd.c **** * Output         : - BackColor: Background color global variable used by
 571:FreeRTOS/test_Src/lcd.c **** *                  LCD_DrawChar and LCD_DrawPicture functions.
 572:FreeRTOS/test_Src/lcd.c **** * Return         : None
 573:FreeRTOS/test_Src/lcd.c **** *******************************************************************************/
 574:FreeRTOS/test_Src/lcd.c **** void LCD_SetBackColor(vu16 Color)
 575:FreeRTOS/test_Src/lcd.c **** {
 576:FreeRTOS/test_Src/lcd.c ****   BackColor = Color;
 577:FreeRTOS/test_Src/lcd.c **** }
 578:FreeRTOS/test_Src/lcd.c **** 
 579:FreeRTOS/test_Src/lcd.c **** /*******************************************************************************
 580:FreeRTOS/test_Src/lcd.c **** * Function Name  : LCD_ClearLine
 581:FreeRTOS/test_Src/lcd.c **** * Description    : Clears the selected line.
 582:FreeRTOS/test_Src/lcd.c **** * Input          : - Line: the Line to be cleared.
 583:FreeRTOS/test_Src/lcd.c **** *                    This parameter can be one of the following values:
 584:FreeRTOS/test_Src/lcd.c **** *                       - Linex: where x can be 0..9
 585:FreeRTOS/test_Src/lcd.c **** * Output         : None
 586:FreeRTOS/test_Src/lcd.c **** * Return         : None
 587:FreeRTOS/test_Src/lcd.c **** *******************************************************************************/
 588:FreeRTOS/test_Src/lcd.c **** void LCD_ClearLine(u8 Line)
 589:FreeRTOS/test_Src/lcd.c **** {
 590:FreeRTOS/test_Src/lcd.c ****   LCD_DisplayStringLine(Line, "                    ");
 591:FreeRTOS/test_Src/lcd.c **** }
 592:FreeRTOS/test_Src/lcd.c **** 
 593:FreeRTOS/test_Src/lcd.c **** /*******************************************************************************
 594:FreeRTOS/test_Src/lcd.c **** * Function Name  : LCD_Clear
 595:FreeRTOS/test_Src/lcd.c **** * Description    : Clears the hole LCD.
 596:FreeRTOS/test_Src/lcd.c **** * Input          : None
 597:FreeRTOS/test_Src/lcd.c **** * Output         : None
 598:FreeRTOS/test_Src/lcd.c **** * Return         : None
 599:FreeRTOS/test_Src/lcd.c **** *******************************************************************************/
 600:FreeRTOS/test_Src/lcd.c **** void LCD_Clear(void)
 601:FreeRTOS/test_Src/lcd.c **** {
 602:FreeRTOS/test_Src/lcd.c ****   u32 index = 0;
ARM GAS  /var/folders/g9/bbpj86ld7fx45vd1b3pqxmp00000gn/T//cc4EjzoN.s 			page 12


 603:FreeRTOS/test_Src/lcd.c **** 
 604:FreeRTOS/test_Src/lcd.c ****   LCD_SetCursor(0x00, 0x013F);
 605:FreeRTOS/test_Src/lcd.c **** 
 606:FreeRTOS/test_Src/lcd.c ****   for(index = 0; index < 0x12C00; index++)
 607:FreeRTOS/test_Src/lcd.c ****   {
 608:FreeRTOS/test_Src/lcd.c ****     LCD_WriteRAM(White);
 609:FreeRTOS/test_Src/lcd.c ****   }
 610:FreeRTOS/test_Src/lcd.c **** }
 611:FreeRTOS/test_Src/lcd.c **** 
 612:FreeRTOS/test_Src/lcd.c **** /*******************************************************************************
 613:FreeRTOS/test_Src/lcd.c **** * Function Name  : LCD_SetCursor
 614:FreeRTOS/test_Src/lcd.c **** * Description    : Sets the cursor position.
 615:FreeRTOS/test_Src/lcd.c **** * Input          : - Xpos: specifies the X position.
 616:FreeRTOS/test_Src/lcd.c **** *                  - Ypos: specifies the Y position.
 617:FreeRTOS/test_Src/lcd.c **** * Output         : None
 618:FreeRTOS/test_Src/lcd.c **** * Return         : None
 619:FreeRTOS/test_Src/lcd.c **** *******************************************************************************/
 620:FreeRTOS/test_Src/lcd.c **** void LCD_SetCursor(u8 Xpos, u16 Ypos)
 621:FreeRTOS/test_Src/lcd.c **** {
 622:FreeRTOS/test_Src/lcd.c ****   LCD_WriteReg(R66, Xpos);
 623:FreeRTOS/test_Src/lcd.c ****   LCD_WriteReg(R67, ((Ypos & 0x100)>> 8));
 624:FreeRTOS/test_Src/lcd.c ****   LCD_WriteReg(R68, (Ypos & 0xFF));
 625:FreeRTOS/test_Src/lcd.c **** }
 626:FreeRTOS/test_Src/lcd.c **** 
 627:FreeRTOS/test_Src/lcd.c **** /*******************************************************************************
 628:FreeRTOS/test_Src/lcd.c **** * Function Name  : LCD_DrawChar
 629:FreeRTOS/test_Src/lcd.c **** * Description    : Draws a character on LCD.
 630:FreeRTOS/test_Src/lcd.c **** * Input          : - Xpos: the Line where to display the character shape.
 631:FreeRTOS/test_Src/lcd.c **** *                    This parameter can be one of the following values:
 632:FreeRTOS/test_Src/lcd.c **** *                       - Linex: where x can be 0..9
 633:FreeRTOS/test_Src/lcd.c **** *                  - Ypos: start column address.
 634:FreeRTOS/test_Src/lcd.c **** *                  - c: pointer to the character data.
 635:FreeRTOS/test_Src/lcd.c **** * Output         : None
 636:FreeRTOS/test_Src/lcd.c **** * Return         : None
 637:FreeRTOS/test_Src/lcd.c **** *******************************************************************************/
 638:FreeRTOS/test_Src/lcd.c **** void LCD_DrawChar(u8 Xpos, u16 Ypos, uc16 *c)
 639:FreeRTOS/test_Src/lcd.c **** {
 640:FreeRTOS/test_Src/lcd.c ****   u32 index = 0, i = 0;
 641:FreeRTOS/test_Src/lcd.c ****   u8 Xaddress = 0;
 642:FreeRTOS/test_Src/lcd.c **** 
 643:FreeRTOS/test_Src/lcd.c ****   Xaddress = Xpos;
 644:FreeRTOS/test_Src/lcd.c **** 
 645:FreeRTOS/test_Src/lcd.c ****   LCD_SetCursor(Xaddress, Ypos);
 646:FreeRTOS/test_Src/lcd.c **** 
 647:FreeRTOS/test_Src/lcd.c ****   for(index = 0; index < 24; index++)
 648:FreeRTOS/test_Src/lcd.c ****   {
 649:FreeRTOS/test_Src/lcd.c ****     for(i = 0; i < 16; i++)
 650:FreeRTOS/test_Src/lcd.c ****     {
 651:FreeRTOS/test_Src/lcd.c ****       if((c[index] & (1 << i)) == 0x00)
 652:FreeRTOS/test_Src/lcd.c ****       {
 653:FreeRTOS/test_Src/lcd.c ****         LCD_WriteRAM(BackColor);
 654:FreeRTOS/test_Src/lcd.c ****       }
 655:FreeRTOS/test_Src/lcd.c ****       else
 656:FreeRTOS/test_Src/lcd.c ****       {
 657:FreeRTOS/test_Src/lcd.c ****         LCD_WriteRAM(TextColor);
 658:FreeRTOS/test_Src/lcd.c ****       }
 659:FreeRTOS/test_Src/lcd.c ****     }
ARM GAS  /var/folders/g9/bbpj86ld7fx45vd1b3pqxmp00000gn/T//cc4EjzoN.s 			page 13


 660:FreeRTOS/test_Src/lcd.c ****     Xaddress++;
 661:FreeRTOS/test_Src/lcd.c ****     LCD_SetCursor(Xaddress, Ypos);
 662:FreeRTOS/test_Src/lcd.c ****   }
 663:FreeRTOS/test_Src/lcd.c **** }
 664:FreeRTOS/test_Src/lcd.c **** 
 665:FreeRTOS/test_Src/lcd.c **** /*******************************************************************************
 666:FreeRTOS/test_Src/lcd.c **** * Function Name  : LCD_DisplayChar
 667:FreeRTOS/test_Src/lcd.c **** * Description    : Displays one character (16dots width, 24dots height).
 668:FreeRTOS/test_Src/lcd.c **** * Input          : - Line: the Line where to display the character shape .
 669:FreeRTOS/test_Src/lcd.c **** *                    This parameter can be one of the following values:
 670:FreeRTOS/test_Src/lcd.c **** *                       - Linex: where x can be 0..9
 671:FreeRTOS/test_Src/lcd.c **** *                  - Column: start column address.
 672:FreeRTOS/test_Src/lcd.c **** *                  - Ascii: character ascii code, must be between 0x20 and 0x7E.
 673:FreeRTOS/test_Src/lcd.c **** * Output         : None
 674:FreeRTOS/test_Src/lcd.c **** * Return         : None
 675:FreeRTOS/test_Src/lcd.c **** *******************************************************************************/
 676:FreeRTOS/test_Src/lcd.c **** void LCD_DisplayChar(u8 Line, u16 Column, u8 Ascii)
 677:FreeRTOS/test_Src/lcd.c **** {
 678:FreeRTOS/test_Src/lcd.c ****   Ascii -= 32;
 679:FreeRTOS/test_Src/lcd.c ****   LCD_DrawChar(Line, Column, &ASCII_Table[Ascii * 24]);
 680:FreeRTOS/test_Src/lcd.c **** }
 681:FreeRTOS/test_Src/lcd.c **** 
 682:FreeRTOS/test_Src/lcd.c **** /*******************************************************************************
 683:FreeRTOS/test_Src/lcd.c **** * Function Name  : LCD_DisplayStringLine
 684:FreeRTOS/test_Src/lcd.c **** * Description    : Displays a maximum of 20 char on the LCD.
 685:FreeRTOS/test_Src/lcd.c **** * Input          : - Line: the Line where to display the character shape .
 686:FreeRTOS/test_Src/lcd.c **** *                    This parameter can be one of the following values:
 687:FreeRTOS/test_Src/lcd.c **** *                       - Linex: where x can be 0..9
 688:FreeRTOS/test_Src/lcd.c **** *                  - *ptr: pointer to string to display on LCD.
 689:FreeRTOS/test_Src/lcd.c **** * Output         : None
 690:FreeRTOS/test_Src/lcd.c **** * Return         : None
 691:FreeRTOS/test_Src/lcd.c **** *******************************************************************************/
 692:FreeRTOS/test_Src/lcd.c **** void LCD_DisplayStringLine(u8 Line, u8 *ptr)
 693:FreeRTOS/test_Src/lcd.c **** {
 694:FreeRTOS/test_Src/lcd.c ****   u32 i = 0;
 695:FreeRTOS/test_Src/lcd.c ****   u16 refcolumn = 319;
 696:FreeRTOS/test_Src/lcd.c **** 
 697:FreeRTOS/test_Src/lcd.c ****   /* Send the string character by character on lCD */
 698:FreeRTOS/test_Src/lcd.c ****   while ((*ptr != 0) & (i < 20))
 699:FreeRTOS/test_Src/lcd.c ****   {
 700:FreeRTOS/test_Src/lcd.c ****     /* Display one character on LCD */
 701:FreeRTOS/test_Src/lcd.c ****     LCD_DisplayChar(Line, refcolumn, *ptr);
 702:FreeRTOS/test_Src/lcd.c ****     /* Decrement the column position by 16 */
 703:FreeRTOS/test_Src/lcd.c ****     refcolumn -= 16;
 704:FreeRTOS/test_Src/lcd.c ****     /* Point on the next character */
 705:FreeRTOS/test_Src/lcd.c ****     ptr++;
 706:FreeRTOS/test_Src/lcd.c ****     /* Increment the character counter */
 707:FreeRTOS/test_Src/lcd.c ****     i++;
 708:FreeRTOS/test_Src/lcd.c ****   }
 709:FreeRTOS/test_Src/lcd.c **** }
 710:FreeRTOS/test_Src/lcd.c **** 
 711:FreeRTOS/test_Src/lcd.c **** /*******************************************************************************
 712:FreeRTOS/test_Src/lcd.c **** * Function Name  : LCD_DisplayString
 713:FreeRTOS/test_Src/lcd.c **** * Description    : Displays a maximum of 200 char on the LCD.
 714:FreeRTOS/test_Src/lcd.c **** * Input          : - Line: the starting Line where to display the character shape.
 715:FreeRTOS/test_Src/lcd.c **** *                    This parameter can be one of the following values:
 716:FreeRTOS/test_Src/lcd.c **** *                       - Linex: where x can be 0..9
ARM GAS  /var/folders/g9/bbpj86ld7fx45vd1b3pqxmp00000gn/T//cc4EjzoN.s 			page 14


 717:FreeRTOS/test_Src/lcd.c **** *                  - *ptr: pointer to string to display on LCD.
 718:FreeRTOS/test_Src/lcd.c **** * Output         : None
 719:FreeRTOS/test_Src/lcd.c **** * Return         : None
 720:FreeRTOS/test_Src/lcd.c **** *******************************************************************************/
 721:FreeRTOS/test_Src/lcd.c **** void LCD_DisplayString(u8 Line, u8 *ptr)
 722:FreeRTOS/test_Src/lcd.c **** {
 723:FreeRTOS/test_Src/lcd.c ****   u32 i = 0, column = 0, index = 0, spaceindex = 0;
 724:FreeRTOS/test_Src/lcd.c ****   u16 refcolumn = 319;
 725:FreeRTOS/test_Src/lcd.c ****   u32 length = 0;
 726:FreeRTOS/test_Src/lcd.c **** 
 727:FreeRTOS/test_Src/lcd.c ****   /* Get the string length */
 728:FreeRTOS/test_Src/lcd.c ****   length = StrLength(ptr);
 729:FreeRTOS/test_Src/lcd.c ****   if(length > 200)
 730:FreeRTOS/test_Src/lcd.c ****   {
 731:FreeRTOS/test_Src/lcd.c ****     /* Set the Cursor position */
 732:FreeRTOS/test_Src/lcd.c ****     LCD_SetCursor(Line, 0x013F);
 733:FreeRTOS/test_Src/lcd.c ****     /* Clear the Selected Line */
 734:FreeRTOS/test_Src/lcd.c ****     LCD_ClearLine(Line);
 735:FreeRTOS/test_Src/lcd.c ****     LCD_DisplayStringLine(Line, "   String too long  ");
 736:FreeRTOS/test_Src/lcd.c ****   }
 737:FreeRTOS/test_Src/lcd.c ****   else
 738:FreeRTOS/test_Src/lcd.c ****   {
 739:FreeRTOS/test_Src/lcd.c ****     /* Set the Cursor position */
 740:FreeRTOS/test_Src/lcd.c ****     LCD_SetCursor(Line, 0x013F);
 741:FreeRTOS/test_Src/lcd.c ****     /* Clear the Selected Line */
 742:FreeRTOS/test_Src/lcd.c ****     LCD_ClearLine(Line);
 743:FreeRTOS/test_Src/lcd.c **** 
 744:FreeRTOS/test_Src/lcd.c ****     while(length--)
 745:FreeRTOS/test_Src/lcd.c ****     {
 746:FreeRTOS/test_Src/lcd.c ****       if(index == 20)
 747:FreeRTOS/test_Src/lcd.c ****       {
 748:FreeRTOS/test_Src/lcd.c ****         if(*ptr == 0x20)
 749:FreeRTOS/test_Src/lcd.c ****         {
 750:FreeRTOS/test_Src/lcd.c ****           ptr++;
 751:FreeRTOS/test_Src/lcd.c ****         }
 752:FreeRTOS/test_Src/lcd.c ****         else
 753:FreeRTOS/test_Src/lcd.c ****         {
 754:FreeRTOS/test_Src/lcd.c ****           for(i = 0; i < spaceindex; i++)
 755:FreeRTOS/test_Src/lcd.c ****           {
 756:FreeRTOS/test_Src/lcd.c ****             LCD_DisplayChar(Line, column, ' ');
 757:FreeRTOS/test_Src/lcd.c ****             column -= 16;
 758:FreeRTOS/test_Src/lcd.c ****           }
 759:FreeRTOS/test_Src/lcd.c ****           ptr -= (spaceindex - 1);
 760:FreeRTOS/test_Src/lcd.c ****           length += (spaceindex - 1);
 761:FreeRTOS/test_Src/lcd.c ****         }
 762:FreeRTOS/test_Src/lcd.c ****         Line += 24;
 763:FreeRTOS/test_Src/lcd.c ****         /* Clear the Selected Line */
 764:FreeRTOS/test_Src/lcd.c ****         LCD_ClearLine(Line);
 765:FreeRTOS/test_Src/lcd.c ****         refcolumn = 319;
 766:FreeRTOS/test_Src/lcd.c ****         index = 0;
 767:FreeRTOS/test_Src/lcd.c ****       }
 768:FreeRTOS/test_Src/lcd.c ****       /* Display one character on LCD */
 769:FreeRTOS/test_Src/lcd.c ****       LCD_DisplayChar(Line, refcolumn, *ptr);
 770:FreeRTOS/test_Src/lcd.c **** 
 771:FreeRTOS/test_Src/lcd.c ****       /* Increment character number in one line */
 772:FreeRTOS/test_Src/lcd.c ****       index++;
 773:FreeRTOS/test_Src/lcd.c **** 
ARM GAS  /var/folders/g9/bbpj86ld7fx45vd1b3pqxmp00000gn/T//cc4EjzoN.s 			page 15


 774:FreeRTOS/test_Src/lcd.c ****       /* Decrement the column position by 16 */
 775:FreeRTOS/test_Src/lcd.c ****       refcolumn -= 16;
 776:FreeRTOS/test_Src/lcd.c ****       /* Point on the next character */
 777:FreeRTOS/test_Src/lcd.c ****       ptr++;
 778:FreeRTOS/test_Src/lcd.c ****       /* Increment the number of character after the last space */
 779:FreeRTOS/test_Src/lcd.c ****       spaceindex++;
 780:FreeRTOS/test_Src/lcd.c ****       if(*ptr == 0x20)
 781:FreeRTOS/test_Src/lcd.c ****       {
 782:FreeRTOS/test_Src/lcd.c ****         spaceindex = 0;
 783:FreeRTOS/test_Src/lcd.c ****         column = refcolumn - 16;
 784:FreeRTOS/test_Src/lcd.c ****       }
 785:FreeRTOS/test_Src/lcd.c ****     }
 786:FreeRTOS/test_Src/lcd.c ****   }
 787:FreeRTOS/test_Src/lcd.c **** }
 788:FreeRTOS/test_Src/lcd.c **** 
 789:FreeRTOS/test_Src/lcd.c **** /*******************************************************************************
 790:FreeRTOS/test_Src/lcd.c **** * Function Name  : LCD_ScrollText
 791:FreeRTOS/test_Src/lcd.c **** * Description    :
 792:FreeRTOS/test_Src/lcd.c **** * Input          :
 793:FreeRTOS/test_Src/lcd.c **** * Output         : None
 794:FreeRTOS/test_Src/lcd.c **** * Return         : None
 795:FreeRTOS/test_Src/lcd.c **** *******************************************************************************/
 796:FreeRTOS/test_Src/lcd.c **** void LCD_ScrollText(u8 Line, u8 *ptr)
 797:FreeRTOS/test_Src/lcd.c **** {
 798:FreeRTOS/test_Src/lcd.c ****   u32 i = 0, length = 0, x = 0;
 799:FreeRTOS/test_Src/lcd.c ****   u16 refcolumn = 319;
 800:FreeRTOS/test_Src/lcd.c **** 
 801:FreeRTOS/test_Src/lcd.c ****   /* Get the string length */
 802:FreeRTOS/test_Src/lcd.c ****   length = StrLength(ptr);
 803:FreeRTOS/test_Src/lcd.c **** 
 804:FreeRTOS/test_Src/lcd.c ****   while(1)
 805:FreeRTOS/test_Src/lcd.c ****   {
 806:FreeRTOS/test_Src/lcd.c ****     /* Send the string character by character on lCD */
 807:FreeRTOS/test_Src/lcd.c ****     while ((*ptr != 0) & (i < 20))
 808:FreeRTOS/test_Src/lcd.c ****     {
 809:FreeRTOS/test_Src/lcd.c ****       /* Display one character on LCD */
 810:FreeRTOS/test_Src/lcd.c ****       LCD_DisplayChar(Line, refcolumn, *ptr);
 811:FreeRTOS/test_Src/lcd.c ****       /* Decrement the column position by 16 */
 812:FreeRTOS/test_Src/lcd.c ****       refcolumn -= 16;
 813:FreeRTOS/test_Src/lcd.c ****       /* Point on the next character */
 814:FreeRTOS/test_Src/lcd.c ****       ptr++;
 815:FreeRTOS/test_Src/lcd.c ****       /* Increment the character counter */
 816:FreeRTOS/test_Src/lcd.c ****       i++;
 817:FreeRTOS/test_Src/lcd.c ****     }
 818:FreeRTOS/test_Src/lcd.c ****     vTaskDelay( 100 / portTICK_PERIOD_MS );
 819:FreeRTOS/test_Src/lcd.c ****     i = 0;
 820:FreeRTOS/test_Src/lcd.c ****     //LCD_ClearLine(Line);
 821:FreeRTOS/test_Src/lcd.c ****     ptr -= length;
 822:FreeRTOS/test_Src/lcd.c ****     x++;
 823:FreeRTOS/test_Src/lcd.c ****     if(refcolumn < 16)
 824:FreeRTOS/test_Src/lcd.c ****     {
 825:FreeRTOS/test_Src/lcd.c ****       x = 0;
 826:FreeRTOS/test_Src/lcd.c ****     }
 827:FreeRTOS/test_Src/lcd.c ****     refcolumn = 319 - (x * 16);
 828:FreeRTOS/test_Src/lcd.c ****   }
 829:FreeRTOS/test_Src/lcd.c **** }
 830:FreeRTOS/test_Src/lcd.c **** 
ARM GAS  /var/folders/g9/bbpj86ld7fx45vd1b3pqxmp00000gn/T//cc4EjzoN.s 			page 16


 831:FreeRTOS/test_Src/lcd.c **** /*******************************************************************************
 832:FreeRTOS/test_Src/lcd.c **** * Function Name  : LCD_SetDisplayWindow
 833:FreeRTOS/test_Src/lcd.c **** * Description    : Sets a display window
 834:FreeRTOS/test_Src/lcd.c **** * Input          : - Xpos: specifies the X position.
 835:FreeRTOS/test_Src/lcd.c **** *                  - Ypos: specifies the Y position.
 836:FreeRTOS/test_Src/lcd.c **** *                  - Height: display window height.
 837:FreeRTOS/test_Src/lcd.c **** *                  - Width: display window width.
 838:FreeRTOS/test_Src/lcd.c **** * Output         : None
 839:FreeRTOS/test_Src/lcd.c **** * Return         : None
 840:FreeRTOS/test_Src/lcd.c **** *******************************************************************************/
 841:FreeRTOS/test_Src/lcd.c **** void LCD_SetDisplayWindow(u8 Xpos, u16 Ypos, u8 Height, u16 Width)
 842:FreeRTOS/test_Src/lcd.c **** {
 843:FreeRTOS/test_Src/lcd.c ****   LCD_WriteReg(R1, 0xD0);
 844:FreeRTOS/test_Src/lcd.c ****   LCD_WriteReg(R5, 0x14);
 845:FreeRTOS/test_Src/lcd.c **** 
 846:FreeRTOS/test_Src/lcd.c ****   LCD_WriteReg(R69, Xpos);
 847:FreeRTOS/test_Src/lcd.c ****   LCD_WriteReg(R70, (Xpos + Height + 1));
 848:FreeRTOS/test_Src/lcd.c **** 
 849:FreeRTOS/test_Src/lcd.c ****   LCD_WriteReg(R71, ((Ypos & 0x100)>> 8));
 850:FreeRTOS/test_Src/lcd.c ****   LCD_WriteReg(R72, (Ypos & 0xFF));
 851:FreeRTOS/test_Src/lcd.c **** 
 852:FreeRTOS/test_Src/lcd.c ****   LCD_WriteReg(R73, (((Ypos + Width + 1) & 0x100)>> 8));
 853:FreeRTOS/test_Src/lcd.c ****   LCD_WriteReg(R74, ((Ypos + Width + 1) & 0xFF));
 854:FreeRTOS/test_Src/lcd.c **** 
 855:FreeRTOS/test_Src/lcd.c ****   LCD_SetCursor(Xpos, Ypos);
 856:FreeRTOS/test_Src/lcd.c **** }
 857:FreeRTOS/test_Src/lcd.c **** 
 858:FreeRTOS/test_Src/lcd.c **** /*******************************************************************************
 859:FreeRTOS/test_Src/lcd.c **** * Function Name  : LCD_DrawLine
 860:FreeRTOS/test_Src/lcd.c **** * Description    : Displays a line.
 861:FreeRTOS/test_Src/lcd.c **** * Input          : - Xpos: specifies the X position.
 862:FreeRTOS/test_Src/lcd.c **** *                  - Ypos: specifies the Y position.
 863:FreeRTOS/test_Src/lcd.c **** *                  - Length: line length.
 864:FreeRTOS/test_Src/lcd.c **** *                  - Direction: line direction.
 865:FreeRTOS/test_Src/lcd.c **** *                    This parameter can be one of the following values: Vertical
 866:FreeRTOS/test_Src/lcd.c **** *                    or Horizontal.
 867:FreeRTOS/test_Src/lcd.c **** * Output         : None
 868:FreeRTOS/test_Src/lcd.c **** * Return         : None
 869:FreeRTOS/test_Src/lcd.c **** *******************************************************************************/
 870:FreeRTOS/test_Src/lcd.c **** void LCD_DrawLine(u8 Xpos, u16 Ypos, u16 Length, u8 Direction)
 871:FreeRTOS/test_Src/lcd.c **** {
 872:FreeRTOS/test_Src/lcd.c ****   u32 i = 0;
 873:FreeRTOS/test_Src/lcd.c **** 
 874:FreeRTOS/test_Src/lcd.c ****   LCD_SetCursor(Xpos, Ypos);
 875:FreeRTOS/test_Src/lcd.c **** 
 876:FreeRTOS/test_Src/lcd.c ****   if(Direction == Horizontal)
 877:FreeRTOS/test_Src/lcd.c ****   {
 878:FreeRTOS/test_Src/lcd.c ****     for(i = 0; i < Length; i++)
 879:FreeRTOS/test_Src/lcd.c ****     {
 880:FreeRTOS/test_Src/lcd.c ****       LCD_WriteRAM(TextColor);
 881:FreeRTOS/test_Src/lcd.c ****     }
 882:FreeRTOS/test_Src/lcd.c ****   }
 883:FreeRTOS/test_Src/lcd.c ****   else
 884:FreeRTOS/test_Src/lcd.c ****   {
 885:FreeRTOS/test_Src/lcd.c ****    for(i = 0; i < Length; i++)
 886:FreeRTOS/test_Src/lcd.c ****     {
 887:FreeRTOS/test_Src/lcd.c **** 
ARM GAS  /var/folders/g9/bbpj86ld7fx45vd1b3pqxmp00000gn/T//cc4EjzoN.s 			page 17


 888:FreeRTOS/test_Src/lcd.c ****       LCD_WriteRAM(TextColor);
 889:FreeRTOS/test_Src/lcd.c ****       Xpos++;
 890:FreeRTOS/test_Src/lcd.c ****       LCD_SetCursor(Xpos, Ypos);
 891:FreeRTOS/test_Src/lcd.c ****     }
 892:FreeRTOS/test_Src/lcd.c ****   }
 893:FreeRTOS/test_Src/lcd.c **** }
 894:FreeRTOS/test_Src/lcd.c **** 
 895:FreeRTOS/test_Src/lcd.c **** /*******************************************************************************
 896:FreeRTOS/test_Src/lcd.c **** * Function Name  : LCD_DrawRect
 897:FreeRTOS/test_Src/lcd.c **** * Description    : Displays a rectangle.
 898:FreeRTOS/test_Src/lcd.c **** * Input          : - Xpos: specifies the X position.
 899:FreeRTOS/test_Src/lcd.c **** *                  - Ypos: specifies the Y position.
 900:FreeRTOS/test_Src/lcd.c **** *                  - Height: display rectangle height.
 901:FreeRTOS/test_Src/lcd.c **** *                  - Width: display rectangle width.
 902:FreeRTOS/test_Src/lcd.c **** * Output         : None
 903:FreeRTOS/test_Src/lcd.c **** * Return         : None
 904:FreeRTOS/test_Src/lcd.c **** *******************************************************************************/
 905:FreeRTOS/test_Src/lcd.c **** void LCD_DrawRect(u8 Xpos, u16 Ypos, u8 Height, u16 Width)
 906:FreeRTOS/test_Src/lcd.c **** {
 907:FreeRTOS/test_Src/lcd.c ****   LCD_DrawLine(Xpos, Ypos, Width, Horizontal);
 908:FreeRTOS/test_Src/lcd.c ****   LCD_DrawLine((Xpos + Height), Ypos, Width, Horizontal);
 909:FreeRTOS/test_Src/lcd.c **** 
 910:FreeRTOS/test_Src/lcd.c ****   LCD_DrawLine(Xpos, Ypos, Height, Vertical);
 911:FreeRTOS/test_Src/lcd.c ****   LCD_DrawLine(Xpos, (Ypos - Width + 1), Height, Vertical);
 912:FreeRTOS/test_Src/lcd.c **** }
 913:FreeRTOS/test_Src/lcd.c **** 
 914:FreeRTOS/test_Src/lcd.c **** /*******************************************************************************
 915:FreeRTOS/test_Src/lcd.c **** * Function Name  : LCD_DrawCircle
 916:FreeRTOS/test_Src/lcd.c **** * Description    : Displays a circle.
 917:FreeRTOS/test_Src/lcd.c **** * Input          : - Xpos: specifies the X position.
 918:FreeRTOS/test_Src/lcd.c **** *                  - Ypos: specifies the Y position.
 919:FreeRTOS/test_Src/lcd.c **** *                  - Height: display rectangle height.
 920:FreeRTOS/test_Src/lcd.c **** *                  - Width: display rectangle width.
 921:FreeRTOS/test_Src/lcd.c **** * Output         : None
 922:FreeRTOS/test_Src/lcd.c **** * Return         : None
 923:FreeRTOS/test_Src/lcd.c **** *******************************************************************************/
 924:FreeRTOS/test_Src/lcd.c **** void LCD_DrawCircle(u8 Xpos, u16 Ypos, u16 Radius)
 925:FreeRTOS/test_Src/lcd.c **** {
 926:FreeRTOS/test_Src/lcd.c ****   s32	D;	/* Decision Variable */
 927:FreeRTOS/test_Src/lcd.c ****   u32	CurX;	/* Current X Value */
 928:FreeRTOS/test_Src/lcd.c ****   u32	CurY;	/* Current Y Value */
 929:FreeRTOS/test_Src/lcd.c **** 
 930:FreeRTOS/test_Src/lcd.c ****   D = 3 - (Radius << 1);
 931:FreeRTOS/test_Src/lcd.c ****   CurX = 0;
 932:FreeRTOS/test_Src/lcd.c ****   CurY = Radius;
 933:FreeRTOS/test_Src/lcd.c **** 
 934:FreeRTOS/test_Src/lcd.c ****   while (CurX <= CurY)
 935:FreeRTOS/test_Src/lcd.c ****   {
 936:FreeRTOS/test_Src/lcd.c ****     LCD_SetCursor(Xpos + CurX, Ypos + CurY);
 937:FreeRTOS/test_Src/lcd.c ****     LCD_WriteRAM(TextColor);
 938:FreeRTOS/test_Src/lcd.c ****     LCD_SetCursor(Xpos + CurX, Ypos - CurY);
 939:FreeRTOS/test_Src/lcd.c ****     LCD_WriteRAM(TextColor);
 940:FreeRTOS/test_Src/lcd.c ****     LCD_SetCursor(Xpos - CurX, Ypos + CurY);
 941:FreeRTOS/test_Src/lcd.c ****     LCD_WriteRAM(TextColor);
 942:FreeRTOS/test_Src/lcd.c ****     LCD_SetCursor(Xpos - CurX, Ypos - CurY);
 943:FreeRTOS/test_Src/lcd.c ****     LCD_WriteRAM(TextColor);
 944:FreeRTOS/test_Src/lcd.c ****     LCD_SetCursor(Xpos + CurY, Ypos + CurX);
ARM GAS  /var/folders/g9/bbpj86ld7fx45vd1b3pqxmp00000gn/T//cc4EjzoN.s 			page 18


 945:FreeRTOS/test_Src/lcd.c ****     LCD_WriteRAM(TextColor);
 946:FreeRTOS/test_Src/lcd.c ****     LCD_SetCursor(Xpos + CurY, Ypos - CurX);
 947:FreeRTOS/test_Src/lcd.c ****     LCD_WriteRAM(TextColor);
 948:FreeRTOS/test_Src/lcd.c ****     LCD_SetCursor(Xpos - CurY, Ypos + CurX);
 949:FreeRTOS/test_Src/lcd.c ****     LCD_WriteRAM(TextColor);
 950:FreeRTOS/test_Src/lcd.c ****     LCD_SetCursor(Xpos - CurY, Ypos - CurX);
 951:FreeRTOS/test_Src/lcd.c ****     LCD_WriteRAM(TextColor);
 952:FreeRTOS/test_Src/lcd.c **** 
 953:FreeRTOS/test_Src/lcd.c ****     if (D < 0)
 954:FreeRTOS/test_Src/lcd.c ****     {
 955:FreeRTOS/test_Src/lcd.c ****       D += (CurX << 2) + 6;
 956:FreeRTOS/test_Src/lcd.c ****     }
 957:FreeRTOS/test_Src/lcd.c ****     else
 958:FreeRTOS/test_Src/lcd.c ****     {
 959:FreeRTOS/test_Src/lcd.c ****       D += ((CurX - CurY) << 2) + 10;
 960:FreeRTOS/test_Src/lcd.c ****       CurY--;
 961:FreeRTOS/test_Src/lcd.c ****     }
 962:FreeRTOS/test_Src/lcd.c ****     CurX++;
 963:FreeRTOS/test_Src/lcd.c ****   }
 964:FreeRTOS/test_Src/lcd.c **** }
 965:FreeRTOS/test_Src/lcd.c **** 
 966:FreeRTOS/test_Src/lcd.c **** /*******************************************************************************
 967:FreeRTOS/test_Src/lcd.c **** * Function Name  : LCD_DrawMonoPict
 968:FreeRTOS/test_Src/lcd.c **** * Description    : Displays a monocolor picture.
 969:FreeRTOS/test_Src/lcd.c **** * Input          : - Pict: pointer to the picture array.
 970:FreeRTOS/test_Src/lcd.c **** * Output         : None
 971:FreeRTOS/test_Src/lcd.c **** * Return         : None
 972:FreeRTOS/test_Src/lcd.c **** *******************************************************************************/
 973:FreeRTOS/test_Src/lcd.c **** void LCD_DrawMonoPict(uc32 *Pict)
 974:FreeRTOS/test_Src/lcd.c **** {
 975:FreeRTOS/test_Src/lcd.c ****   u32 index = 0, i = 0;
 976:FreeRTOS/test_Src/lcd.c **** 
 977:FreeRTOS/test_Src/lcd.c ****   LCD_SetCursor(0, 319);
 978:FreeRTOS/test_Src/lcd.c **** 
 979:FreeRTOS/test_Src/lcd.c ****   for(index = 0; index < 2400; index++)
 980:FreeRTOS/test_Src/lcd.c ****   {
 981:FreeRTOS/test_Src/lcd.c ****     for(i = 0; i < 32; i++)
 982:FreeRTOS/test_Src/lcd.c ****     {
 983:FreeRTOS/test_Src/lcd.c ****       if((Pict[index] & (1 << i)) == 0x00)
 984:FreeRTOS/test_Src/lcd.c ****       {
 985:FreeRTOS/test_Src/lcd.c ****         LCD_WriteRAM(BackColor);
 986:FreeRTOS/test_Src/lcd.c ****       }
 987:FreeRTOS/test_Src/lcd.c ****       else
 988:FreeRTOS/test_Src/lcd.c ****       {
 989:FreeRTOS/test_Src/lcd.c ****         LCD_WriteRAM(TextColor);
 990:FreeRTOS/test_Src/lcd.c ****       }
 991:FreeRTOS/test_Src/lcd.c ****     }
 992:FreeRTOS/test_Src/lcd.c ****   }
 993:FreeRTOS/test_Src/lcd.c **** }
 994:FreeRTOS/test_Src/lcd.c **** 
 995:FreeRTOS/test_Src/lcd.c **** /*******************************************************************************
 996:FreeRTOS/test_Src/lcd.c **** * Function Name  : LCD_DrawBMP
 997:FreeRTOS/test_Src/lcd.c **** * Description    : Displays a bitmap picture loaded in the SPI Flash.
 998:FreeRTOS/test_Src/lcd.c **** * Input          : - BmpAddress: Bmp picture address in the SPI Flash.
 999:FreeRTOS/test_Src/lcd.c **** * Output         : None
1000:FreeRTOS/test_Src/lcd.c **** * Return         : None
1001:FreeRTOS/test_Src/lcd.c **** *******************************************************************************/
ARM GAS  /var/folders/g9/bbpj86ld7fx45vd1b3pqxmp00000gn/T//cc4EjzoN.s 			page 19


1002:FreeRTOS/test_Src/lcd.c **** void LCD_DrawBMP(u32 BmpAddress)
1003:FreeRTOS/test_Src/lcd.c **** {
1004:FreeRTOS/test_Src/lcd.c ****   u32 i = 0;
1005:FreeRTOS/test_Src/lcd.c **** 
1006:FreeRTOS/test_Src/lcd.c ****   LCD_WriteReg(R1, 0xD0);
1007:FreeRTOS/test_Src/lcd.c ****   LCD_WriteReg(R5, 0x04);
1008:FreeRTOS/test_Src/lcd.c **** 
1009:FreeRTOS/test_Src/lcd.c ****   LCD_SetCursor(239, 0x013F);
1010:FreeRTOS/test_Src/lcd.c **** 
1011:FreeRTOS/test_Src/lcd.c ****   SPI_FLASH_StartReadSequence(BmpAddress);
1012:FreeRTOS/test_Src/lcd.c **** 
1013:FreeRTOS/test_Src/lcd.c ****   /* Disable SPI1  */
1014:FreeRTOS/test_Src/lcd.c ****   SPI_Cmd(SPI1, DISABLE);
1015:FreeRTOS/test_Src/lcd.c ****   /* SPI in 16-bit mode */
1016:FreeRTOS/test_Src/lcd.c ****   SPI_DataSizeConfig(SPI1, SPI_DataSize_16b);
1017:FreeRTOS/test_Src/lcd.c ****   /* Enable SPI1  */
1018:FreeRTOS/test_Src/lcd.c ****   SPI_Cmd(SPI1, ENABLE);
1019:FreeRTOS/test_Src/lcd.c **** 
1020:FreeRTOS/test_Src/lcd.c ****   for(i = 0; i < 76800; i++)
1021:FreeRTOS/test_Src/lcd.c ****   {
1022:FreeRTOS/test_Src/lcd.c ****     LCD_WriteRAM(__REV_HalfWord(SPI_FLASH_SendHalfWord(0xA5A5)));
1023:FreeRTOS/test_Src/lcd.c ****   }
1024:FreeRTOS/test_Src/lcd.c **** 
1025:FreeRTOS/test_Src/lcd.c ****   /* Deselect the FLASH: Chip Select high */
1026:FreeRTOS/test_Src/lcd.c ****   SPI_FLASH_ChipSelect(1);
1027:FreeRTOS/test_Src/lcd.c **** 
1028:FreeRTOS/test_Src/lcd.c ****   /* Disable SPI1  */
1029:FreeRTOS/test_Src/lcd.c ****   SPI_Cmd(SPI1, DISABLE);
1030:FreeRTOS/test_Src/lcd.c ****   /* SPI in 8-bit mode */
1031:FreeRTOS/test_Src/lcd.c ****   SPI_DataSizeConfig(SPI1, SPI_DataSize_8b);
1032:FreeRTOS/test_Src/lcd.c ****   /* Enable SPI1  */
1033:FreeRTOS/test_Src/lcd.c ****   SPI_Cmd(SPI1, ENABLE);
1034:FreeRTOS/test_Src/lcd.c **** }
1035:FreeRTOS/test_Src/lcd.c **** 
1036:FreeRTOS/test_Src/lcd.c **** /*******************************************************************************
1037:FreeRTOS/test_Src/lcd.c **** * Function Name  : LCD_WriteReg
1038:FreeRTOS/test_Src/lcd.c **** * Description    : Writes to the selected LCD register.
1039:FreeRTOS/test_Src/lcd.c **** * Input          : - LCD_Reg: address of the selected register.
1040:FreeRTOS/test_Src/lcd.c **** *                  - LCD_RegValue: value to write to the selected register.
1041:FreeRTOS/test_Src/lcd.c **** * Output         : None
1042:FreeRTOS/test_Src/lcd.c **** * Return         : None
1043:FreeRTOS/test_Src/lcd.c **** *******************************************************************************/
1044:FreeRTOS/test_Src/lcd.c **** void LCD_WriteReg(u8 LCD_Reg, u8 LCD_RegValue)
1045:FreeRTOS/test_Src/lcd.c **** {
1046:FreeRTOS/test_Src/lcd.c ****   u16 tmp = 0;
1047:FreeRTOS/test_Src/lcd.c **** 
1048:FreeRTOS/test_Src/lcd.c ****   LCD_CtrlLinesWrite(GPIOD, CtrlPin_NWR, Bit_RESET);
1049:FreeRTOS/test_Src/lcd.c ****   LCD_CtrlLinesWrite(GPIOD, CtrlPin_RS, Bit_RESET);
1050:FreeRTOS/test_Src/lcd.c ****   LCD_CtrlLinesWrite(GPIOB, CtrlPin_NCS, Bit_RESET);
1051:FreeRTOS/test_Src/lcd.c **** 
1052:FreeRTOS/test_Src/lcd.c ****   tmp = LCD_Reg << 8;
1053:FreeRTOS/test_Src/lcd.c ****   tmp |= LCD_RegValue;
1054:FreeRTOS/test_Src/lcd.c **** 
1055:FreeRTOS/test_Src/lcd.c ****   SPI_I2S_SendData(SPI2, tmp);
1056:FreeRTOS/test_Src/lcd.c ****   while(SPI_I2S_GetFlagStatus(SPI2, SPI_FLAG_TXE) == RESET)
1057:FreeRTOS/test_Src/lcd.c ****   {
1058:FreeRTOS/test_Src/lcd.c ****   }
ARM GAS  /var/folders/g9/bbpj86ld7fx45vd1b3pqxmp00000gn/T//cc4EjzoN.s 			page 20


1059:FreeRTOS/test_Src/lcd.c **** 
1060:FreeRTOS/test_Src/lcd.c ****   LCD_CtrlLinesWrite(GPIOB, CtrlPin_NCS, Bit_SET);
1061:FreeRTOS/test_Src/lcd.c **** }
1062:FreeRTOS/test_Src/lcd.c **** 
1063:FreeRTOS/test_Src/lcd.c **** /*******************************************************************************
1064:FreeRTOS/test_Src/lcd.c **** * Function Name  : LCD_ReadReg
1065:FreeRTOS/test_Src/lcd.c **** * Description    : Reads the selected LCD Register.
1066:FreeRTOS/test_Src/lcd.c **** * Input          : None
1067:FreeRTOS/test_Src/lcd.c **** * Output         : None
1068:FreeRTOS/test_Src/lcd.c **** * Return         : LCD Register Value.
1069:FreeRTOS/test_Src/lcd.c **** *******************************************************************************/
1070:FreeRTOS/test_Src/lcd.c **** u8 LCD_ReadReg(u8 LCD_Reg)
1071:FreeRTOS/test_Src/lcd.c **** {
1072:FreeRTOS/test_Src/lcd.c ****   u16 tmp = 0;
1073:FreeRTOS/test_Src/lcd.c **** 
1074:FreeRTOS/test_Src/lcd.c ****   LCD_CtrlLinesWrite(GPIOD, CtrlPin_NWR, Bit_RESET);
1075:FreeRTOS/test_Src/lcd.c ****   LCD_CtrlLinesWrite(GPIOD, CtrlPin_RS, Bit_RESET);
1076:FreeRTOS/test_Src/lcd.c ****   LCD_CtrlLinesWrite(GPIOB, CtrlPin_NCS, Bit_RESET);
1077:FreeRTOS/test_Src/lcd.c **** 
1078:FreeRTOS/test_Src/lcd.c ****   while(SPI_I2S_GetFlagStatus(SPI2, SPI_FLAG_TXE) == RESET)
1079:FreeRTOS/test_Src/lcd.c ****   {
1080:FreeRTOS/test_Src/lcd.c ****   }
1081:FreeRTOS/test_Src/lcd.c ****   SPI_I2S_SendData(SPI2, LCD_Reg);
1082:FreeRTOS/test_Src/lcd.c **** 
1083:FreeRTOS/test_Src/lcd.c ****   LCD_CtrlLinesWrite(GPIOD, CtrlPin_NWR, Bit_SET);
1084:FreeRTOS/test_Src/lcd.c **** 
1085:FreeRTOS/test_Src/lcd.c ****   while(SPI_I2S_GetFlagStatus(SPI2, SPI_FLAG_TXE) == RESET)
1086:FreeRTOS/test_Src/lcd.c ****   {
1087:FreeRTOS/test_Src/lcd.c ****   }
1088:FreeRTOS/test_Src/lcd.c ****   SPI_I2S_SendData(SPI2, 0xFF);
1089:FreeRTOS/test_Src/lcd.c **** 
1090:FreeRTOS/test_Src/lcd.c ****   while(SPI_I2S_GetFlagStatus(SPI2, SPI_FLAG_RXNE)== RESET)
1091:FreeRTOS/test_Src/lcd.c ****   {
1092:FreeRTOS/test_Src/lcd.c ****   }
1093:FreeRTOS/test_Src/lcd.c ****   tmp = SPI_ReceiveData(SPI2);
1094:FreeRTOS/test_Src/lcd.c **** 
1095:FreeRTOS/test_Src/lcd.c ****   LCD_CtrlLinesWrite(GPIOB, CtrlPin_NCS, Bit_SET);
1096:FreeRTOS/test_Src/lcd.c ****   return tmp;
1097:FreeRTOS/test_Src/lcd.c **** }
1098:FreeRTOS/test_Src/lcd.c **** 
1099:FreeRTOS/test_Src/lcd.c **** /*******************************************************************************
1100:FreeRTOS/test_Src/lcd.c **** * Function Name  : LCD_WriteRAM
1101:FreeRTOS/test_Src/lcd.c **** * Description    : Writes to the LCD RAM.
1102:FreeRTOS/test_Src/lcd.c **** * Input          : - RGB_Code: the pixel color in RGB mode (5-6-5).
1103:FreeRTOS/test_Src/lcd.c **** * Output         : None
1104:FreeRTOS/test_Src/lcd.c **** * Return         : None
1105:FreeRTOS/test_Src/lcd.c **** *******************************************************************************/
1106:FreeRTOS/test_Src/lcd.c **** void LCD_WriteRAM(u16 RGB_Code)
1107:FreeRTOS/test_Src/lcd.c **** {
1108:FreeRTOS/test_Src/lcd.c ****   LCD_CtrlLinesWrite(GPIOD, CtrlPin_NWR, Bit_RESET);
1109:FreeRTOS/test_Src/lcd.c ****   LCD_CtrlLinesWrite(GPIOD, CtrlPin_RS, Bit_SET);
1110:FreeRTOS/test_Src/lcd.c ****   LCD_CtrlLinesWrite(GPIOB, CtrlPin_NCS, Bit_RESET);
1111:FreeRTOS/test_Src/lcd.c **** 
1112:FreeRTOS/test_Src/lcd.c ****   SPI_I2S_SendData(SPI2, RGB_Code);
1113:FreeRTOS/test_Src/lcd.c ****   while(SPI_I2S_GetFlagStatus(SPI2, SPI_FLAG_TXE) == RESET)
1114:FreeRTOS/test_Src/lcd.c ****   {
1115:FreeRTOS/test_Src/lcd.c ****   }
ARM GAS  /var/folders/g9/bbpj86ld7fx45vd1b3pqxmp00000gn/T//cc4EjzoN.s 			page 21


1116:FreeRTOS/test_Src/lcd.c **** 
1117:FreeRTOS/test_Src/lcd.c ****   LCD_CtrlLinesWrite(GPIOB, CtrlPin_NCS, Bit_SET);
1118:FreeRTOS/test_Src/lcd.c **** }
1119:FreeRTOS/test_Src/lcd.c **** 
1120:FreeRTOS/test_Src/lcd.c **** /*******************************************************************************
1121:FreeRTOS/test_Src/lcd.c **** * Function Name  : LCD_ReadRAM
1122:FreeRTOS/test_Src/lcd.c **** * Description    : Reads the LCD RAM.
1123:FreeRTOS/test_Src/lcd.c **** * Input          : None
1124:FreeRTOS/test_Src/lcd.c **** * Output         : None
1125:FreeRTOS/test_Src/lcd.c **** * Return         : LCD RAM Value.
1126:FreeRTOS/test_Src/lcd.c **** *******************************************************************************/
1127:FreeRTOS/test_Src/lcd.c **** u16  LCD_ReadRAM(void)
1128:FreeRTOS/test_Src/lcd.c **** {
1129:FreeRTOS/test_Src/lcd.c ****   u16 tmp = 0;
1130:FreeRTOS/test_Src/lcd.c **** 
1131:FreeRTOS/test_Src/lcd.c ****   LCD_CtrlLinesWrite(GPIOD, CtrlPin_NWR, Bit_SET);
1132:FreeRTOS/test_Src/lcd.c ****   LCD_CtrlLinesWrite(GPIOD, CtrlPin_RS, Bit_SET);
1133:FreeRTOS/test_Src/lcd.c ****   LCD_CtrlLinesWrite(GPIOB, CtrlPin_NCS, Bit_RESET);
1134:FreeRTOS/test_Src/lcd.c **** 
1135:FreeRTOS/test_Src/lcd.c ****   while(SPI_I2S_GetFlagStatus(SPI2, SPI_FLAG_TXE) == RESET)
1136:FreeRTOS/test_Src/lcd.c ****   {
1137:FreeRTOS/test_Src/lcd.c ****   }
1138:FreeRTOS/test_Src/lcd.c ****   SPI_I2S_SendData(SPI2, 0xFF);
1139:FreeRTOS/test_Src/lcd.c ****   while(SPI_I2S_GetFlagStatus(SPI2, SPI_FLAG_RXNE)==RESET)
1140:FreeRTOS/test_Src/lcd.c ****   {
1141:FreeRTOS/test_Src/lcd.c ****   }
1142:FreeRTOS/test_Src/lcd.c ****   tmp = SPI_ReceiveData(SPI2);
1143:FreeRTOS/test_Src/lcd.c **** 
1144:FreeRTOS/test_Src/lcd.c ****   LCD_CtrlLinesWrite(GPIOB, CtrlPin_NCS, Bit_SET);
1145:FreeRTOS/test_Src/lcd.c **** 
1146:FreeRTOS/test_Src/lcd.c ****   return tmp;
1147:FreeRTOS/test_Src/lcd.c **** }
1148:FreeRTOS/test_Src/lcd.c **** 
1149:FreeRTOS/test_Src/lcd.c **** /*******************************************************************************
1150:FreeRTOS/test_Src/lcd.c **** * Function Name  : LCD_PowerOn
1151:FreeRTOS/test_Src/lcd.c **** * Description    :
1152:FreeRTOS/test_Src/lcd.c **** * Input          : None
1153:FreeRTOS/test_Src/lcd.c **** * Output         : None
1154:FreeRTOS/test_Src/lcd.c **** * Return         : None
1155:FreeRTOS/test_Src/lcd.c **** *******************************************************************************/
1156:FreeRTOS/test_Src/lcd.c **** void LCD_PowerOn(void)
1157:FreeRTOS/test_Src/lcd.c **** {
1158:FreeRTOS/test_Src/lcd.c ****   /* Power On Set */
1159:FreeRTOS/test_Src/lcd.c ****   LCD_WriteReg(R28, 0x73);
1160:FreeRTOS/test_Src/lcd.c ****   LCD_WriteReg(R36, 0x74);
1161:FreeRTOS/test_Src/lcd.c ****   LCD_WriteReg(R30, 0x01);
1162:FreeRTOS/test_Src/lcd.c ****   LCD_WriteReg(R24, 0xC1);
1163:FreeRTOS/test_Src/lcd.c ****   vTaskDelay( 10 / portTICK_PERIOD_MS ); /* Delay 10 ms */
1164:FreeRTOS/test_Src/lcd.c ****   LCD_WriteReg(R24, 0xE1);
1165:FreeRTOS/test_Src/lcd.c ****   LCD_WriteReg(R24, 0xF1);
1166:FreeRTOS/test_Src/lcd.c ****   vTaskDelay( 60 / portTICK_PERIOD_MS ); /* Delay 60 ms */
1167:FreeRTOS/test_Src/lcd.c ****   LCD_WriteReg(R24, 0xF5);
1168:FreeRTOS/test_Src/lcd.c ****   vTaskDelay( 60 / portTICK_PERIOD_MS ); /* Delay 60 ms */
1169:FreeRTOS/test_Src/lcd.c ****   LCD_WriteReg(R27, 0x09);
1170:FreeRTOS/test_Src/lcd.c ****   vTaskDelay( 10 / portTICK_PERIOD_MS ); /* Delay 10 ms */
1171:FreeRTOS/test_Src/lcd.c ****   LCD_WriteReg(R31, 0x11);
1172:FreeRTOS/test_Src/lcd.c ****   LCD_WriteReg(R32, 0x0E);
ARM GAS  /var/folders/g9/bbpj86ld7fx45vd1b3pqxmp00000gn/T//cc4EjzoN.s 			page 22


1173:FreeRTOS/test_Src/lcd.c ****   LCD_WriteReg(R30, 0x81);
1174:FreeRTOS/test_Src/lcd.c ****   vTaskDelay( 10 / portTICK_PERIOD_MS ); /* Delay 10 ms */
1175:FreeRTOS/test_Src/lcd.c **** }
1176:FreeRTOS/test_Src/lcd.c **** 
1177:FreeRTOS/test_Src/lcd.c **** /*******************************************************************************
1178:FreeRTOS/test_Src/lcd.c **** * Function Name  : LCD_DisplayOn
1179:FreeRTOS/test_Src/lcd.c **** * Description    : Enables the Display.
1180:FreeRTOS/test_Src/lcd.c **** * Input          : None
1181:FreeRTOS/test_Src/lcd.c **** * Output         : None
1182:FreeRTOS/test_Src/lcd.c **** * Return         : None
1183:FreeRTOS/test_Src/lcd.c **** *******************************************************************************/
1184:FreeRTOS/test_Src/lcd.c **** void LCD_DisplayOn(void)
1185:FreeRTOS/test_Src/lcd.c **** {
1186:FreeRTOS/test_Src/lcd.c ****   LCD_WriteReg(R1, 0x50);
1187:FreeRTOS/test_Src/lcd.c ****   LCD_WriteReg(R5, 0x04);
1188:FreeRTOS/test_Src/lcd.c **** 
1189:FreeRTOS/test_Src/lcd.c ****   /* Display On */
1190:FreeRTOS/test_Src/lcd.c ****   LCD_WriteReg(R0, 0x80);
1191:FreeRTOS/test_Src/lcd.c ****   LCD_WriteReg(R59, 0x01);
1192:FreeRTOS/test_Src/lcd.c ****   vTaskDelay( 40 / portTICK_PERIOD_MS );                 /* Delay 40 ms */
1193:FreeRTOS/test_Src/lcd.c ****   LCD_WriteReg(R0, 0x20);
1194:FreeRTOS/test_Src/lcd.c **** }
1195:FreeRTOS/test_Src/lcd.c **** 
1196:FreeRTOS/test_Src/lcd.c **** /*******************************************************************************
1197:FreeRTOS/test_Src/lcd.c **** * Function Name  : LCD_DisplayOff
1198:FreeRTOS/test_Src/lcd.c **** * Description    : Disables the Display.
1199:FreeRTOS/test_Src/lcd.c **** * Input          : None
1200:FreeRTOS/test_Src/lcd.c **** * Output         : None
1201:FreeRTOS/test_Src/lcd.c **** * Return         : None
1202:FreeRTOS/test_Src/lcd.c **** *******************************************************************************/
1203:FreeRTOS/test_Src/lcd.c **** void LCD_DisplayOff(void)
1204:FreeRTOS/test_Src/lcd.c **** {
1205:FreeRTOS/test_Src/lcd.c ****   /* Display Off */
1206:FreeRTOS/test_Src/lcd.c ****   LCD_WriteReg(R0, 0xA0);
1207:FreeRTOS/test_Src/lcd.c ****   vTaskDelay( 40 / portTICK_PERIOD_MS );                 /* Delay 40 ms */
1208:FreeRTOS/test_Src/lcd.c ****   LCD_WriteReg(R59, 0x00);
1209:FreeRTOS/test_Src/lcd.c **** }
1210:FreeRTOS/test_Src/lcd.c **** 
1211:FreeRTOS/test_Src/lcd.c **** /*******************************************************************************
1212:FreeRTOS/test_Src/lcd.c **** * Function Name  : LCD_CtrlLinesConfig
1213:FreeRTOS/test_Src/lcd.c **** * Description    : Configures LCD control lines in Output Push-Pull mode.
1214:FreeRTOS/test_Src/lcd.c **** * Input          : None
1215:FreeRTOS/test_Src/lcd.c **** * Output         : None
1216:FreeRTOS/test_Src/lcd.c **** * Return         : None
1217:FreeRTOS/test_Src/lcd.c **** *******************************************************************************/
1218:FreeRTOS/test_Src/lcd.c **** void LCD_CtrlLinesConfig(void)
1219:FreeRTOS/test_Src/lcd.c **** {
1220:FreeRTOS/test_Src/lcd.c ****   GPIO_InitTypeDef GPIO_InitStructure;
1221:FreeRTOS/test_Src/lcd.c **** 
1222:FreeRTOS/test_Src/lcd.c ****   /* Configure NCS (PB.02) in Output Push-Pull mode */
1223:FreeRTOS/test_Src/lcd.c ****   GPIO_InitStructure.GPIO_Pin = GPIO_Pin_2;
1224:FreeRTOS/test_Src/lcd.c ****   GPIO_InitStructure.GPIO_Speed = GPIO_Speed_50MHz;
1225:FreeRTOS/test_Src/lcd.c ****   GPIO_InitStructure.GPIO_Mode = GPIO_Mode_Out_PP;
1226:FreeRTOS/test_Src/lcd.c ****   GPIO_Init(GPIOB, &GPIO_InitStructure);
1227:FreeRTOS/test_Src/lcd.c **** 
1228:FreeRTOS/test_Src/lcd.c ****   /* Configure NWR(RNW), RS (PD.15, PD.07) in Output Push-Pull mode */
1229:FreeRTOS/test_Src/lcd.c ****   GPIO_InitStructure.GPIO_Pin = GPIO_Pin_7 | GPIO_Pin_15;
ARM GAS  /var/folders/g9/bbpj86ld7fx45vd1b3pqxmp00000gn/T//cc4EjzoN.s 			page 23


1230:FreeRTOS/test_Src/lcd.c ****   GPIO_Init(GPIOD, &GPIO_InitStructure);
1231:FreeRTOS/test_Src/lcd.c **** }
1232:FreeRTOS/test_Src/lcd.c **** 
1233:FreeRTOS/test_Src/lcd.c **** /*******************************************************************************
1234:FreeRTOS/test_Src/lcd.c **** * Function Name  : LCD_CtrlLinesWrite
1235:FreeRTOS/test_Src/lcd.c **** * Description    : Sets or reset LCD control lines.
1236:FreeRTOS/test_Src/lcd.c **** * Input          : - GPIOx: where x can be B or D to select the GPIO peripheral.
1237:FreeRTOS/test_Src/lcd.c **** *                  - CtrlPins: the Control line. This parameter can be:
1238:FreeRTOS/test_Src/lcd.c **** *                       - CtrlPin_NCS: Chip Select pin (PB.02)
1239:FreeRTOS/test_Src/lcd.c **** *                       - CtrlPin_NWR: Read/Write Selection pin (PD.15)
1240:FreeRTOS/test_Src/lcd.c **** *                       - CtrlPin_RS: Register/RAM Selection pin (PD.07)
1241:FreeRTOS/test_Src/lcd.c **** *                  - BitVal: specifies the value to be written to the selected bit.
1242:FreeRTOS/test_Src/lcd.c **** *                    This parameter can be:
1243:FreeRTOS/test_Src/lcd.c **** *                       - Bit_RESET: to clear the port pin
1244:FreeRTOS/test_Src/lcd.c **** *                       - Bit_SET: to set the port pin
1245:FreeRTOS/test_Src/lcd.c **** * Output         : None
1246:FreeRTOS/test_Src/lcd.c **** * Return         : None
1247:FreeRTOS/test_Src/lcd.c **** *******************************************************************************/
1248:FreeRTOS/test_Src/lcd.c **** void LCD_CtrlLinesWrite(GPIO_TypeDef* GPIOx, u16 CtrlPins, BitAction BitVal)
1249:FreeRTOS/test_Src/lcd.c **** {
1250:FreeRTOS/test_Src/lcd.c ****   /* Set or Reset the control line */
1251:FreeRTOS/test_Src/lcd.c ****   GPIO_WriteBit(GPIOx, CtrlPins, BitVal);
1252:FreeRTOS/test_Src/lcd.c **** }
1253:FreeRTOS/test_Src/lcd.c **** 
1254:FreeRTOS/test_Src/lcd.c **** /*******************************************************************************
1255:FreeRTOS/test_Src/lcd.c **** * Function Name  : LCD_SPIConfig
1256:FreeRTOS/test_Src/lcd.c **** * Description    : Configures the SPI2 interface.
1257:FreeRTOS/test_Src/lcd.c **** * Input          : None
1258:FreeRTOS/test_Src/lcd.c **** * Output         : None
1259:FreeRTOS/test_Src/lcd.c **** * Return         : None
1260:FreeRTOS/test_Src/lcd.c **** *******************************************************************************/
1261:FreeRTOS/test_Src/lcd.c **** void LCD_SPIConfig(void)
1262:FreeRTOS/test_Src/lcd.c **** {
1263:FreeRTOS/test_Src/lcd.c ****   SPI_InitTypeDef    SPI_InitStructure;
1264:FreeRTOS/test_Src/lcd.c ****   GPIO_InitTypeDef   GPIO_InitStructure;
1265:FreeRTOS/test_Src/lcd.c **** 
1266:FreeRTOS/test_Src/lcd.c ****   /* Enable GPIOA clock */
1267:FreeRTOS/test_Src/lcd.c ****   RCC_APB2PeriphClockCmd(RCC_APB2Periph_GPIOB, ENABLE);
1268:FreeRTOS/test_Src/lcd.c **** 
1269:FreeRTOS/test_Src/lcd.c ****   /* Enable SPI2 clock  */
1270:FreeRTOS/test_Src/lcd.c ****   RCC_APB1PeriphClockCmd(RCC_APB1Periph_SPI2, ENABLE);
1271:FreeRTOS/test_Src/lcd.c **** 
1272:FreeRTOS/test_Src/lcd.c ****   /* Configure SPI2 pins: NSS, SCK, MISO and MOSI */
1273:FreeRTOS/test_Src/lcd.c ****   GPIO_InitStructure.GPIO_Pin = GPIO_Pin_12 | GPIO_Pin_13 | GPIO_Pin_14 | GPIO_Pin_15;
1274:FreeRTOS/test_Src/lcd.c ****   GPIO_InitStructure.GPIO_Speed = GPIO_Speed_50MHz;
1275:FreeRTOS/test_Src/lcd.c ****   GPIO_InitStructure.GPIO_Mode = GPIO_Mode_AF_PP;
1276:FreeRTOS/test_Src/lcd.c ****   GPIO_Init(GPIOB, &GPIO_InitStructure);
1277:FreeRTOS/test_Src/lcd.c **** 
1278:FreeRTOS/test_Src/lcd.c ****   /* SPI2 Config */
1279:FreeRTOS/test_Src/lcd.c ****   SPI_InitStructure.SPI_Direction = SPI_Direction_2Lines_FullDuplex;
1280:FreeRTOS/test_Src/lcd.c ****   SPI_InitStructure.SPI_Mode = SPI_Mode_Master;
1281:FreeRTOS/test_Src/lcd.c ****   SPI_InitStructure.SPI_DataSize = SPI_DataSize_16b;
1282:FreeRTOS/test_Src/lcd.c ****   SPI_InitStructure.SPI_CPOL = SPI_CPOL_Low;
1283:FreeRTOS/test_Src/lcd.c ****   SPI_InitStructure.SPI_CPHA = SPI_CPHA_1Edge;
1284:FreeRTOS/test_Src/lcd.c ****   SPI_InitStructure.SPI_NSS = SPI_NSS_Soft;
1285:FreeRTOS/test_Src/lcd.c ****   SPI_InitStructure.SPI_BaudRatePrescaler = SPI_BaudRatePrescaler_2;
1286:FreeRTOS/test_Src/lcd.c ****   SPI_InitStructure.SPI_FirstBit = SPI_FirstBit_MSB;
ARM GAS  /var/folders/g9/bbpj86ld7fx45vd1b3pqxmp00000gn/T//cc4EjzoN.s 			page 24


1287:FreeRTOS/test_Src/lcd.c ****   SPI_Init(SPI2, &SPI_InitStructure);
1288:FreeRTOS/test_Src/lcd.c **** 
1289:FreeRTOS/test_Src/lcd.c ****   /* SPI2 enable */
1290:FreeRTOS/test_Src/lcd.c ****   SPI_Cmd(SPI2, ENABLE);
1291:FreeRTOS/test_Src/lcd.c **** }
1292:FreeRTOS/test_Src/lcd.c **** 
1293:FreeRTOS/test_Src/lcd.c **** /*******************************************************************************
1294:FreeRTOS/test_Src/lcd.c **** * Function Name  : StrLength
1295:FreeRTOS/test_Src/lcd.c **** * Description    : Returns length of string.
1296:FreeRTOS/test_Src/lcd.c **** * Input          : - Str: Character Pointer.
1297:FreeRTOS/test_Src/lcd.c **** * Output         : None
1298:FreeRTOS/test_Src/lcd.c **** * Return         : String length.
1299:FreeRTOS/test_Src/lcd.c **** *******************************************************************************/
1300:FreeRTOS/test_Src/lcd.c **** static u32 StrLength(u8 *Str)
1301:FreeRTOS/test_Src/lcd.c **** {
  27              		.loc 1 1301 0
  28              		.cfi_startproc
  29              		@ args = 0, pretend = 0, frame = 0
  30              		@ frame_needed = 0, uses_anonymous_args = 0
  31              		@ link register save eliminated.
  32              	.LVL0:
  33 0000 0346     		mov	r3, r0
  34              	.LVL1:
1302:FreeRTOS/test_Src/lcd.c ****   u32 Index = 0;
1303:FreeRTOS/test_Src/lcd.c **** 
1304:FreeRTOS/test_Src/lcd.c ****   /* Increment the Index unless the end of string */
1305:FreeRTOS/test_Src/lcd.c ****   for(Index = 0; *Str != '\0'; Str++, Index++)
  35              		.loc 1 1305 0
  36 0002 0020     		movs	r0, #0
  37              	.LVL2:
  38 0004 01E0     		b	.L2
  39              	.LVL3:
  40              	.L3:
  41              		.loc 1 1305 0 is_stmt 0 discriminator 3
  42 0006 0133     		adds	r3, r3, #1
  43              	.LVL4:
  44 0008 0130     		adds	r0, r0, #1
  45              	.LVL5:
  46              	.L2:
  47              		.loc 1 1305 0 discriminator 1
  48 000a 1A78     		ldrb	r2, [r3]	@ zero_extendqisi2
  49 000c 002A     		cmp	r2, #0
  50 000e FAD1     		bne	.L3
1306:FreeRTOS/test_Src/lcd.c ****   {
1307:FreeRTOS/test_Src/lcd.c ****   }
1308:FreeRTOS/test_Src/lcd.c **** 
1309:FreeRTOS/test_Src/lcd.c ****   return Index;
1310:FreeRTOS/test_Src/lcd.c **** }
  51              		.loc 1 1310 0 is_stmt 1
  52 0010 7047     		bx	lr
  53              		.cfi_endproc
  54              	.LFE59:
  56              		.section	.text.LCD_SetTextColor,"ax",%progbits
  57              		.align	2
  58              		.global	LCD_SetTextColor
  59              		.thumb
  60              		.thumb_func
ARM GAS  /var/folders/g9/bbpj86ld7fx45vd1b3pqxmp00000gn/T//cc4EjzoN.s 			page 25


  62              	LCD_SetTextColor:
  63              	.LFB33:
 562:FreeRTOS/test_Src/lcd.c ****   TextColor = Color;
  64              		.loc 1 562 0
  65              		.cfi_startproc
  66              		@ args = 0, pretend = 0, frame = 8
  67              		@ frame_needed = 0, uses_anonymous_args = 0
  68              		@ link register save eliminated.
  69              	.LVL6:
  70 0000 82B0     		sub	sp, sp, #8
  71              	.LCFI0:
  72              		.cfi_def_cfa_offset 8
  73 0002 ADF80600 		strh	r0, [sp, #6]	@ movhi
 563:FreeRTOS/test_Src/lcd.c **** }
  74              		.loc 1 563 0
  75 0006 BDF80630 		ldrh	r3, [sp, #6]
  76 000a 9BB2     		uxth	r3, r3
  77 000c 014A     		ldr	r2, .L6
  78 000e 1380     		strh	r3, [r2]	@ movhi
 564:FreeRTOS/test_Src/lcd.c **** 
  79              		.loc 1 564 0
  80 0010 02B0     		add	sp, sp, #8
  81              	.LCFI1:
  82              		.cfi_def_cfa_offset 0
  83              		@ sp needed
  84 0012 7047     		bx	lr
  85              	.L7:
  86              		.align	2
  87              	.L6:
  88 0014 00000000 		.word	.LANCHOR0
  89              		.cfi_endproc
  90              	.LFE33:
  92              		.section	.text.LCD_SetBackColor,"ax",%progbits
  93              		.align	2
  94              		.global	LCD_SetBackColor
  95              		.thumb
  96              		.thumb_func
  98              	LCD_SetBackColor:
  99              	.LFB34:
 575:FreeRTOS/test_Src/lcd.c ****   BackColor = Color;
 100              		.loc 1 575 0
 101              		.cfi_startproc
 102              		@ args = 0, pretend = 0, frame = 8
 103              		@ frame_needed = 0, uses_anonymous_args = 0
 104              		@ link register save eliminated.
 105              	.LVL7:
 106 0000 82B0     		sub	sp, sp, #8
 107              	.LCFI2:
 108              		.cfi_def_cfa_offset 8
 109 0002 ADF80600 		strh	r0, [sp, #6]	@ movhi
 576:FreeRTOS/test_Src/lcd.c **** }
 110              		.loc 1 576 0
 111 0006 BDF80630 		ldrh	r3, [sp, #6]
 112 000a 9BB2     		uxth	r3, r3
 113 000c 014A     		ldr	r2, .L10
 114 000e 1380     		strh	r3, [r2]	@ movhi
 577:FreeRTOS/test_Src/lcd.c **** 
ARM GAS  /var/folders/g9/bbpj86ld7fx45vd1b3pqxmp00000gn/T//cc4EjzoN.s 			page 26


 115              		.loc 1 577 0
 116 0010 02B0     		add	sp, sp, #8
 117              	.LCFI3:
 118              		.cfi_def_cfa_offset 0
 119              		@ sp needed
 120 0012 7047     		bx	lr
 121              	.L11:
 122              		.align	2
 123              	.L10:
 124 0014 00000000 		.word	.LANCHOR1
 125              		.cfi_endproc
 126              	.LFE34:
 128              		.section	.text.LCD_CtrlLinesConfig,"ax",%progbits
 129              		.align	2
 130              		.global	LCD_CtrlLinesConfig
 131              		.thumb
 132              		.thumb_func
 134              	LCD_CtrlLinesConfig:
 135              	.LFB56:
1219:FreeRTOS/test_Src/lcd.c ****   GPIO_InitTypeDef GPIO_InitStructure;
 136              		.loc 1 1219 0
 137              		.cfi_startproc
 138              		@ args = 0, pretend = 0, frame = 8
 139              		@ frame_needed = 0, uses_anonymous_args = 0
 140 0000 00B5     		push	{lr}
 141              	.LCFI4:
 142              		.cfi_def_cfa_offset 4
 143              		.cfi_offset 14, -4
 144 0002 83B0     		sub	sp, sp, #12
 145              	.LCFI5:
 146              		.cfi_def_cfa_offset 16
1223:FreeRTOS/test_Src/lcd.c ****   GPIO_InitStructure.GPIO_Speed = GPIO_Speed_50MHz;
 147              		.loc 1 1223 0
 148 0004 0423     		movs	r3, #4
 149 0006 ADF80430 		strh	r3, [sp, #4]	@ movhi
1224:FreeRTOS/test_Src/lcd.c ****   GPIO_InitStructure.GPIO_Mode = GPIO_Mode_Out_PP;
 150              		.loc 1 1224 0
 151 000a 0323     		movs	r3, #3
 152 000c 8DF80630 		strb	r3, [sp, #6]
1225:FreeRTOS/test_Src/lcd.c ****   GPIO_Init(GPIOB, &GPIO_InitStructure);
 153              		.loc 1 1225 0
 154 0010 1023     		movs	r3, #16
 155 0012 8DF80730 		strb	r3, [sp, #7]
1226:FreeRTOS/test_Src/lcd.c **** 
 156              		.loc 1 1226 0
 157 0016 01A9     		add	r1, sp, #4
 158 0018 0648     		ldr	r0, .L14
 159 001a FFF7FEFF 		bl	GPIO_Init
 160              	.LVL8:
1229:FreeRTOS/test_Src/lcd.c ****   GPIO_Init(GPIOD, &GPIO_InitStructure);
 161              		.loc 1 1229 0
 162 001e 48F28003 		movw	r3, #32896
 163 0022 ADF80430 		strh	r3, [sp, #4]	@ movhi
1230:FreeRTOS/test_Src/lcd.c **** }
 164              		.loc 1 1230 0
 165 0026 01A9     		add	r1, sp, #4
 166 0028 0348     		ldr	r0, .L14+4
ARM GAS  /var/folders/g9/bbpj86ld7fx45vd1b3pqxmp00000gn/T//cc4EjzoN.s 			page 27


 167 002a FFF7FEFF 		bl	GPIO_Init
 168              	.LVL9:
1231:FreeRTOS/test_Src/lcd.c **** 
 169              		.loc 1 1231 0
 170 002e 03B0     		add	sp, sp, #12
 171              	.LCFI6:
 172              		.cfi_def_cfa_offset 4
 173              		@ sp needed
 174 0030 5DF804FB 		ldr	pc, [sp], #4
 175              	.L15:
 176              		.align	2
 177              	.L14:
 178 0034 000C0140 		.word	1073810432
 179 0038 00140140 		.word	1073812480
 180              		.cfi_endproc
 181              	.LFE56:
 183              		.section	.text.LCD_CtrlLinesWrite,"ax",%progbits
 184              		.align	2
 185              		.global	LCD_CtrlLinesWrite
 186              		.thumb
 187              		.thumb_func
 189              	LCD_CtrlLinesWrite:
 190              	.LFB57:
1249:FreeRTOS/test_Src/lcd.c ****   /* Set or Reset the control line */
 191              		.loc 1 1249 0
 192              		.cfi_startproc
 193              		@ args = 0, pretend = 0, frame = 0
 194              		@ frame_needed = 0, uses_anonymous_args = 0
 195              	.LVL10:
 196 0000 08B5     		push	{r3, lr}
 197              	.LCFI7:
 198              		.cfi_def_cfa_offset 8
 199              		.cfi_offset 3, -8
 200              		.cfi_offset 14, -4
1251:FreeRTOS/test_Src/lcd.c **** }
 201              		.loc 1 1251 0
 202 0002 FFF7FEFF 		bl	GPIO_WriteBit
 203              	.LVL11:
 204 0006 08BD     		pop	{r3, pc}
 205              		.cfi_endproc
 206              	.LFE57:
 208              		.section	.text.LCD_WriteReg,"ax",%progbits
 209              		.align	2
 210              		.global	LCD_WriteReg
 211              		.thumb
 212              		.thumb_func
 214              	LCD_WriteReg:
 215              	.LFB49:
1045:FreeRTOS/test_Src/lcd.c ****   u16 tmp = 0;
 216              		.loc 1 1045 0
 217              		.cfi_startproc
 218              		@ args = 0, pretend = 0, frame = 0
 219              		@ frame_needed = 0, uses_anonymous_args = 0
 220              	.LVL12:
 221 0000 70B5     		push	{r4, r5, r6, lr}
 222              	.LCFI8:
 223              		.cfi_def_cfa_offset 16
ARM GAS  /var/folders/g9/bbpj86ld7fx45vd1b3pqxmp00000gn/T//cc4EjzoN.s 			page 28


 224              		.cfi_offset 4, -16
 225              		.cfi_offset 5, -12
 226              		.cfi_offset 6, -8
 227              		.cfi_offset 14, -4
 228 0002 0646     		mov	r6, r0
 229 0004 0D46     		mov	r5, r1
 230              	.LVL13:
1048:FreeRTOS/test_Src/lcd.c ****   LCD_CtrlLinesWrite(GPIOD, CtrlPin_RS, Bit_RESET);
 231              		.loc 1 1048 0
 232 0006 114C     		ldr	r4, .L21
 233 0008 0022     		movs	r2, #0
 234 000a 4FF40041 		mov	r1, #32768
 235              	.LVL14:
 236 000e 2046     		mov	r0, r4
 237              	.LVL15:
 238 0010 FFF7FEFF 		bl	LCD_CtrlLinesWrite
 239              	.LVL16:
1049:FreeRTOS/test_Src/lcd.c ****   LCD_CtrlLinesWrite(GPIOB, CtrlPin_NCS, Bit_RESET);
 240              		.loc 1 1049 0
 241 0014 0022     		movs	r2, #0
 242 0016 8021     		movs	r1, #128
 243 0018 2046     		mov	r0, r4
 244 001a FFF7FEFF 		bl	LCD_CtrlLinesWrite
 245              	.LVL17:
1050:FreeRTOS/test_Src/lcd.c **** 
 246              		.loc 1 1050 0
 247 001e 0022     		movs	r2, #0
 248 0020 0421     		movs	r1, #4
 249 0022 0B48     		ldr	r0, .L21+4
 250 0024 FFF7FEFF 		bl	LCD_CtrlLinesWrite
 251              	.LVL18:
1055:FreeRTOS/test_Src/lcd.c ****   while(SPI_I2S_GetFlagStatus(SPI2, SPI_FLAG_TXE) == RESET)
 252              		.loc 1 1055 0
 253 0028 45EA0621 		orr	r1, r5, r6, lsl #8
 254 002c 0948     		ldr	r0, .L21+8
 255 002e FFF7FEFF 		bl	SPI_I2S_SendData
 256              	.LVL19:
 257              	.L19:
1056:FreeRTOS/test_Src/lcd.c ****   {
 258              		.loc 1 1056 0 discriminator 1
 259 0032 0221     		movs	r1, #2
 260 0034 0748     		ldr	r0, .L21+8
 261 0036 FFF7FEFF 		bl	SPI_I2S_GetFlagStatus
 262              	.LVL20:
 263 003a 0028     		cmp	r0, #0
 264 003c F9D0     		beq	.L19
1060:FreeRTOS/test_Src/lcd.c **** }
 265              		.loc 1 1060 0
 266 003e 0122     		movs	r2, #1
 267 0040 0421     		movs	r1, #4
 268 0042 0348     		ldr	r0, .L21+4
 269 0044 FFF7FEFF 		bl	LCD_CtrlLinesWrite
 270              	.LVL21:
 271 0048 70BD     		pop	{r4, r5, r6, pc}
 272              	.LVL22:
 273              	.L22:
 274 004a 00BF     		.align	2
ARM GAS  /var/folders/g9/bbpj86ld7fx45vd1b3pqxmp00000gn/T//cc4EjzoN.s 			page 29


 275              	.L21:
 276 004c 00140140 		.word	1073812480
 277 0050 000C0140 		.word	1073810432
 278 0054 00380040 		.word	1073756160
 279              		.cfi_endproc
 280              	.LFE49:
 282              		.section	.text.LCD_SetCursor,"ax",%progbits
 283              		.align	2
 284              		.global	LCD_SetCursor
 285              		.thumb
 286              		.thumb_func
 288              	LCD_SetCursor:
 289              	.LFB37:
 621:FreeRTOS/test_Src/lcd.c ****   LCD_WriteReg(R66, Xpos);
 290              		.loc 1 621 0
 291              		.cfi_startproc
 292              		@ args = 0, pretend = 0, frame = 0
 293              		@ frame_needed = 0, uses_anonymous_args = 0
 294              	.LVL23:
 295 0000 10B5     		push	{r4, lr}
 296              	.LCFI9:
 297              		.cfi_def_cfa_offset 8
 298              		.cfi_offset 4, -8
 299              		.cfi_offset 14, -4
 300 0002 0C46     		mov	r4, r1
 622:FreeRTOS/test_Src/lcd.c ****   LCD_WriteReg(R67, ((Ypos & 0x100)>> 8));
 301              		.loc 1 622 0
 302 0004 0146     		mov	r1, r0
 303              	.LVL24:
 304 0006 4220     		movs	r0, #66
 305              	.LVL25:
 306 0008 FFF7FEFF 		bl	LCD_WriteReg
 307              	.LVL26:
 623:FreeRTOS/test_Src/lcd.c ****   LCD_WriteReg(R68, (Ypos & 0xFF));
 308              		.loc 1 623 0
 309 000c C4F30021 		ubfx	r1, r4, #8, #1
 310 0010 4320     		movs	r0, #67
 311 0012 FFF7FEFF 		bl	LCD_WriteReg
 312              	.LVL27:
 624:FreeRTOS/test_Src/lcd.c **** }
 313              		.loc 1 624 0
 314 0016 E1B2     		uxtb	r1, r4
 315 0018 4420     		movs	r0, #68
 316 001a FFF7FEFF 		bl	LCD_WriteReg
 317              	.LVL28:
 318 001e 10BD     		pop	{r4, pc}
 319              		.cfi_endproc
 320              	.LFE37:
 322              		.section	.text.LCD_SetDisplayWindow,"ax",%progbits
 323              		.align	2
 324              		.global	LCD_SetDisplayWindow
 325              		.thumb
 326              		.thumb_func
 328              	LCD_SetDisplayWindow:
 329              	.LFB43:
 842:FreeRTOS/test_Src/lcd.c ****   LCD_WriteReg(R1, 0xD0);
 330              		.loc 1 842 0
ARM GAS  /var/folders/g9/bbpj86ld7fx45vd1b3pqxmp00000gn/T//cc4EjzoN.s 			page 30


 331              		.cfi_startproc
 332              		@ args = 0, pretend = 0, frame = 0
 333              		@ frame_needed = 0, uses_anonymous_args = 0
 334              	.LVL29:
 335 0000 F8B5     		push	{r3, r4, r5, r6, r7, lr}
 336              	.LCFI10:
 337              		.cfi_def_cfa_offset 24
 338              		.cfi_offset 3, -24
 339              		.cfi_offset 4, -20
 340              		.cfi_offset 5, -16
 341              		.cfi_offset 6, -12
 342              		.cfi_offset 7, -8
 343              		.cfi_offset 14, -4
 344 0002 0746     		mov	r7, r0
 345 0004 0E46     		mov	r6, r1
 346 0006 1546     		mov	r5, r2
 347 0008 1C46     		mov	r4, r3
 843:FreeRTOS/test_Src/lcd.c ****   LCD_WriteReg(R5, 0x14);
 348              		.loc 1 843 0
 349 000a D021     		movs	r1, #208
 350              	.LVL30:
 351 000c 0120     		movs	r0, #1
 352              	.LVL31:
 353 000e FFF7FEFF 		bl	LCD_WriteReg
 354              	.LVL32:
 844:FreeRTOS/test_Src/lcd.c **** 
 355              		.loc 1 844 0
 356 0012 1421     		movs	r1, #20
 357 0014 0520     		movs	r0, #5
 358 0016 FFF7FEFF 		bl	LCD_WriteReg
 359              	.LVL33:
 846:FreeRTOS/test_Src/lcd.c ****   LCD_WriteReg(R70, (Xpos + Height + 1));
 360              		.loc 1 846 0
 361 001a 3946     		mov	r1, r7
 362 001c 4520     		movs	r0, #69
 363 001e FFF7FEFF 		bl	LCD_WriteReg
 364              	.LVL34:
 847:FreeRTOS/test_Src/lcd.c **** 
 365              		.loc 1 847 0
 366 0022 7919     		adds	r1, r7, r5
 367 0024 0131     		adds	r1, r1, #1
 368 0026 C9B2     		uxtb	r1, r1
 369 0028 4620     		movs	r0, #70
 370 002a FFF7FEFF 		bl	LCD_WriteReg
 371              	.LVL35:
 849:FreeRTOS/test_Src/lcd.c ****   LCD_WriteReg(R72, (Ypos & 0xFF));
 372              		.loc 1 849 0
 373 002e C6F30021 		ubfx	r1, r6, #8, #1
 374 0032 4720     		movs	r0, #71
 375 0034 FFF7FEFF 		bl	LCD_WriteReg
 376              	.LVL36:
 850:FreeRTOS/test_Src/lcd.c **** 
 377              		.loc 1 850 0
 378 0038 F5B2     		uxtb	r5, r6
 379 003a 2946     		mov	r1, r5
 380 003c 4820     		movs	r0, #72
 381 003e FFF7FEFF 		bl	LCD_WriteReg
ARM GAS  /var/folders/g9/bbpj86ld7fx45vd1b3pqxmp00000gn/T//cc4EjzoN.s 			page 31


 382              	.LVL37:
 852:FreeRTOS/test_Src/lcd.c ****   LCD_WriteReg(R74, ((Ypos + Width + 1) & 0xFF));
 383              		.loc 1 852 0
 384 0042 A119     		adds	r1, r4, r6
 385 0044 0131     		adds	r1, r1, #1
 386 0046 C1F30021 		ubfx	r1, r1, #8, #1
 387 004a 4920     		movs	r0, #73
 388 004c FFF7FEFF 		bl	LCD_WriteReg
 389              	.LVL38:
 853:FreeRTOS/test_Src/lcd.c **** 
 390              		.loc 1 853 0
 391 0050 2919     		adds	r1, r5, r4
 392 0052 0131     		adds	r1, r1, #1
 393 0054 C9B2     		uxtb	r1, r1
 394 0056 4A20     		movs	r0, #74
 395 0058 FFF7FEFF 		bl	LCD_WriteReg
 396              	.LVL39:
 855:FreeRTOS/test_Src/lcd.c **** }
 397              		.loc 1 855 0
 398 005c 3146     		mov	r1, r6
 399 005e 3846     		mov	r0, r7
 400 0060 FFF7FEFF 		bl	LCD_SetCursor
 401              	.LVL40:
 402 0064 F8BD     		pop	{r3, r4, r5, r6, r7, pc}
 403              		.cfi_endproc
 404              	.LFE43:
 406 0066 00BF     		.section	.text.LCD_PowerOn,"ax",%progbits
 407              		.align	2
 408              		.global	LCD_PowerOn
 409              		.thumb
 410              		.thumb_func
 412              	LCD_PowerOn:
 413              	.LFB53:
1157:FreeRTOS/test_Src/lcd.c ****   /* Power On Set */
 414              		.loc 1 1157 0
 415              		.cfi_startproc
 416              		@ args = 0, pretend = 0, frame = 0
 417              		@ frame_needed = 0, uses_anonymous_args = 0
 418 0000 08B5     		push	{r3, lr}
 419              	.LCFI11:
 420              		.cfi_def_cfa_offset 8
 421              		.cfi_offset 3, -8
 422              		.cfi_offset 14, -4
1159:FreeRTOS/test_Src/lcd.c ****   LCD_WriteReg(R36, 0x74);
 423              		.loc 1 1159 0
 424 0002 7321     		movs	r1, #115
 425 0004 1C20     		movs	r0, #28
 426 0006 FFF7FEFF 		bl	LCD_WriteReg
 427              	.LVL41:
1160:FreeRTOS/test_Src/lcd.c ****   LCD_WriteReg(R30, 0x01);
 428              		.loc 1 1160 0
 429 000a 7421     		movs	r1, #116
 430 000c 2420     		movs	r0, #36
 431 000e FFF7FEFF 		bl	LCD_WriteReg
 432              	.LVL42:
1161:FreeRTOS/test_Src/lcd.c ****   LCD_WriteReg(R24, 0xC1);
 433              		.loc 1 1161 0
ARM GAS  /var/folders/g9/bbpj86ld7fx45vd1b3pqxmp00000gn/T//cc4EjzoN.s 			page 32


 434 0012 0121     		movs	r1, #1
 435 0014 1E20     		movs	r0, #30
 436 0016 FFF7FEFF 		bl	LCD_WriteReg
 437              	.LVL43:
1162:FreeRTOS/test_Src/lcd.c ****   vTaskDelay( 10 / portTICK_PERIOD_MS ); /* Delay 10 ms */
 438              		.loc 1 1162 0
 439 001a C121     		movs	r1, #193
 440 001c 1820     		movs	r0, #24
 441 001e FFF7FEFF 		bl	LCD_WriteReg
 442              	.LVL44:
1163:FreeRTOS/test_Src/lcd.c ****   LCD_WriteReg(R24, 0xE1);
 443              		.loc 1 1163 0
 444 0022 0A20     		movs	r0, #10
 445 0024 FFF7FEFF 		bl	vTaskDelay
 446              	.LVL45:
1164:FreeRTOS/test_Src/lcd.c ****   LCD_WriteReg(R24, 0xF1);
 447              		.loc 1 1164 0
 448 0028 E121     		movs	r1, #225
 449 002a 1820     		movs	r0, #24
 450 002c FFF7FEFF 		bl	LCD_WriteReg
 451              	.LVL46:
1165:FreeRTOS/test_Src/lcd.c ****   vTaskDelay( 60 / portTICK_PERIOD_MS ); /* Delay 60 ms */
 452              		.loc 1 1165 0
 453 0030 F121     		movs	r1, #241
 454 0032 1820     		movs	r0, #24
 455 0034 FFF7FEFF 		bl	LCD_WriteReg
 456              	.LVL47:
1166:FreeRTOS/test_Src/lcd.c ****   LCD_WriteReg(R24, 0xF5);
 457              		.loc 1 1166 0
 458 0038 3C20     		movs	r0, #60
 459 003a FFF7FEFF 		bl	vTaskDelay
 460              	.LVL48:
1167:FreeRTOS/test_Src/lcd.c ****   vTaskDelay( 60 / portTICK_PERIOD_MS ); /* Delay 60 ms */
 461              		.loc 1 1167 0
 462 003e F521     		movs	r1, #245
 463 0040 1820     		movs	r0, #24
 464 0042 FFF7FEFF 		bl	LCD_WriteReg
 465              	.LVL49:
1168:FreeRTOS/test_Src/lcd.c ****   LCD_WriteReg(R27, 0x09);
 466              		.loc 1 1168 0
 467 0046 3C20     		movs	r0, #60
 468 0048 FFF7FEFF 		bl	vTaskDelay
 469              	.LVL50:
1169:FreeRTOS/test_Src/lcd.c ****   vTaskDelay( 10 / portTICK_PERIOD_MS ); /* Delay 10 ms */
 470              		.loc 1 1169 0
 471 004c 0921     		movs	r1, #9
 472 004e 1B20     		movs	r0, #27
 473 0050 FFF7FEFF 		bl	LCD_WriteReg
 474              	.LVL51:
1170:FreeRTOS/test_Src/lcd.c ****   LCD_WriteReg(R31, 0x11);
 475              		.loc 1 1170 0
 476 0054 0A20     		movs	r0, #10
 477 0056 FFF7FEFF 		bl	vTaskDelay
 478              	.LVL52:
1171:FreeRTOS/test_Src/lcd.c ****   LCD_WriteReg(R32, 0x0E);
 479              		.loc 1 1171 0
 480 005a 1121     		movs	r1, #17
ARM GAS  /var/folders/g9/bbpj86ld7fx45vd1b3pqxmp00000gn/T//cc4EjzoN.s 			page 33


 481 005c 1F20     		movs	r0, #31
 482 005e FFF7FEFF 		bl	LCD_WriteReg
 483              	.LVL53:
1172:FreeRTOS/test_Src/lcd.c ****   LCD_WriteReg(R30, 0x81);
 484              		.loc 1 1172 0
 485 0062 0E21     		movs	r1, #14
 486 0064 2020     		movs	r0, #32
 487 0066 FFF7FEFF 		bl	LCD_WriteReg
 488              	.LVL54:
1173:FreeRTOS/test_Src/lcd.c ****   vTaskDelay( 10 / portTICK_PERIOD_MS ); /* Delay 10 ms */
 489              		.loc 1 1173 0
 490 006a 8121     		movs	r1, #129
 491 006c 1E20     		movs	r0, #30
 492 006e FFF7FEFF 		bl	LCD_WriteReg
 493              	.LVL55:
1174:FreeRTOS/test_Src/lcd.c **** }
 494              		.loc 1 1174 0
 495 0072 0A20     		movs	r0, #10
 496 0074 FFF7FEFF 		bl	vTaskDelay
 497              	.LVL56:
 498 0078 08BD     		pop	{r3, pc}
 499              		.cfi_endproc
 500              	.LFE53:
 502 007a 00BF     		.section	.text.LCD_DisplayOn,"ax",%progbits
 503              		.align	2
 504              		.global	LCD_DisplayOn
 505              		.thumb
 506              		.thumb_func
 508              	LCD_DisplayOn:
 509              	.LFB54:
1185:FreeRTOS/test_Src/lcd.c ****   LCD_WriteReg(R1, 0x50);
 510              		.loc 1 1185 0
 511              		.cfi_startproc
 512              		@ args = 0, pretend = 0, frame = 0
 513              		@ frame_needed = 0, uses_anonymous_args = 0
 514 0000 08B5     		push	{r3, lr}
 515              	.LCFI12:
 516              		.cfi_def_cfa_offset 8
 517              		.cfi_offset 3, -8
 518              		.cfi_offset 14, -4
1186:FreeRTOS/test_Src/lcd.c ****   LCD_WriteReg(R5, 0x04);
 519              		.loc 1 1186 0
 520 0002 5021     		movs	r1, #80
 521 0004 0120     		movs	r0, #1
 522 0006 FFF7FEFF 		bl	LCD_WriteReg
 523              	.LVL57:
1187:FreeRTOS/test_Src/lcd.c **** 
 524              		.loc 1 1187 0
 525 000a 0421     		movs	r1, #4
 526 000c 0520     		movs	r0, #5
 527 000e FFF7FEFF 		bl	LCD_WriteReg
 528              	.LVL58:
1190:FreeRTOS/test_Src/lcd.c ****   LCD_WriteReg(R59, 0x01);
 529              		.loc 1 1190 0
 530 0012 8021     		movs	r1, #128
 531 0014 0020     		movs	r0, #0
 532 0016 FFF7FEFF 		bl	LCD_WriteReg
ARM GAS  /var/folders/g9/bbpj86ld7fx45vd1b3pqxmp00000gn/T//cc4EjzoN.s 			page 34


 533              	.LVL59:
1191:FreeRTOS/test_Src/lcd.c ****   vTaskDelay( 40 / portTICK_PERIOD_MS );                 /* Delay 40 ms */
 534              		.loc 1 1191 0
 535 001a 0121     		movs	r1, #1
 536 001c 3B20     		movs	r0, #59
 537 001e FFF7FEFF 		bl	LCD_WriteReg
 538              	.LVL60:
1192:FreeRTOS/test_Src/lcd.c ****   LCD_WriteReg(R0, 0x20);
 539              		.loc 1 1192 0
 540 0022 2820     		movs	r0, #40
 541 0024 FFF7FEFF 		bl	vTaskDelay
 542              	.LVL61:
1193:FreeRTOS/test_Src/lcd.c **** }
 543              		.loc 1 1193 0
 544 0028 2021     		movs	r1, #32
 545 002a 0020     		movs	r0, #0
 546 002c FFF7FEFF 		bl	LCD_WriteReg
 547              	.LVL62:
 548 0030 08BD     		pop	{r3, pc}
 549              		.cfi_endproc
 550              	.LFE54:
 552 0032 00BF     		.section	.text.LCD_DisplayOff,"ax",%progbits
 553              		.align	2
 554              		.global	LCD_DisplayOff
 555              		.thumb
 556              		.thumb_func
 558              	LCD_DisplayOff:
 559              	.LFB55:
1204:FreeRTOS/test_Src/lcd.c ****   /* Display Off */
 560              		.loc 1 1204 0
 561              		.cfi_startproc
 562              		@ args = 0, pretend = 0, frame = 0
 563              		@ frame_needed = 0, uses_anonymous_args = 0
 564 0000 08B5     		push	{r3, lr}
 565              	.LCFI13:
 566              		.cfi_def_cfa_offset 8
 567              		.cfi_offset 3, -8
 568              		.cfi_offset 14, -4
1206:FreeRTOS/test_Src/lcd.c ****   vTaskDelay( 40 / portTICK_PERIOD_MS );                 /* Delay 40 ms */
 569              		.loc 1 1206 0
 570 0002 A021     		movs	r1, #160
 571 0004 0020     		movs	r0, #0
 572 0006 FFF7FEFF 		bl	LCD_WriteReg
 573              	.LVL63:
1207:FreeRTOS/test_Src/lcd.c ****   LCD_WriteReg(R59, 0x00);
 574              		.loc 1 1207 0
 575 000a 2820     		movs	r0, #40
 576 000c FFF7FEFF 		bl	vTaskDelay
 577              	.LVL64:
1208:FreeRTOS/test_Src/lcd.c **** }
 578              		.loc 1 1208 0
 579 0010 0021     		movs	r1, #0
 580 0012 3B20     		movs	r0, #59
 581 0014 FFF7FEFF 		bl	LCD_WriteReg
 582              	.LVL65:
 583 0018 08BD     		pop	{r3, pc}
 584              		.cfi_endproc
ARM GAS  /var/folders/g9/bbpj86ld7fx45vd1b3pqxmp00000gn/T//cc4EjzoN.s 			page 35


 585              	.LFE55:
 587 001a 00BF     		.section	.text.LCD_ReadReg,"ax",%progbits
 588              		.align	2
 589              		.global	LCD_ReadReg
 590              		.thumb
 591              		.thumb_func
 593              	LCD_ReadReg:
 594              	.LFB50:
1071:FreeRTOS/test_Src/lcd.c ****   u16 tmp = 0;
 595              		.loc 1 1071 0
 596              		.cfi_startproc
 597              		@ args = 0, pretend = 0, frame = 0
 598              		@ frame_needed = 0, uses_anonymous_args = 0
 599              	.LVL66:
 600 0000 38B5     		push	{r3, r4, r5, lr}
 601              	.LCFI14:
 602              		.cfi_def_cfa_offset 16
 603              		.cfi_offset 3, -16
 604              		.cfi_offset 4, -12
 605              		.cfi_offset 5, -8
 606              		.cfi_offset 14, -4
 607 0002 0546     		mov	r5, r0
 608              	.LVL67:
1074:FreeRTOS/test_Src/lcd.c ****   LCD_CtrlLinesWrite(GPIOD, CtrlPin_RS, Bit_RESET);
 609              		.loc 1 1074 0
 610 0004 1D4C     		ldr	r4, .L38
 611 0006 0022     		movs	r2, #0
 612 0008 4FF40041 		mov	r1, #32768
 613 000c 2046     		mov	r0, r4
 614              	.LVL68:
 615 000e FFF7FEFF 		bl	LCD_CtrlLinesWrite
 616              	.LVL69:
1075:FreeRTOS/test_Src/lcd.c ****   LCD_CtrlLinesWrite(GPIOB, CtrlPin_NCS, Bit_RESET);
 617              		.loc 1 1075 0
 618 0012 0022     		movs	r2, #0
 619 0014 8021     		movs	r1, #128
 620 0016 2046     		mov	r0, r4
 621 0018 FFF7FEFF 		bl	LCD_CtrlLinesWrite
 622              	.LVL70:
1076:FreeRTOS/test_Src/lcd.c **** 
 623              		.loc 1 1076 0
 624 001c 0022     		movs	r2, #0
 625 001e 0421     		movs	r1, #4
 626 0020 1748     		ldr	r0, .L38+4
 627 0022 FFF7FEFF 		bl	LCD_CtrlLinesWrite
 628              	.LVL71:
 629              	.L34:
1078:FreeRTOS/test_Src/lcd.c ****   {
 630              		.loc 1 1078 0 discriminator 1
 631 0026 0221     		movs	r1, #2
 632 0028 1648     		ldr	r0, .L38+8
 633 002a FFF7FEFF 		bl	SPI_I2S_GetFlagStatus
 634              	.LVL72:
 635 002e 0028     		cmp	r0, #0
 636 0030 F9D0     		beq	.L34
1081:FreeRTOS/test_Src/lcd.c **** 
 637              		.loc 1 1081 0
ARM GAS  /var/folders/g9/bbpj86ld7fx45vd1b3pqxmp00000gn/T//cc4EjzoN.s 			page 36


 638 0032 2946     		mov	r1, r5
 639 0034 1348     		ldr	r0, .L38+8
 640 0036 FFF7FEFF 		bl	SPI_I2S_SendData
 641              	.LVL73:
1083:FreeRTOS/test_Src/lcd.c **** 
 642              		.loc 1 1083 0
 643 003a 0122     		movs	r2, #1
 644 003c 4FF40041 		mov	r1, #32768
 645 0040 0E48     		ldr	r0, .L38
 646 0042 FFF7FEFF 		bl	LCD_CtrlLinesWrite
 647              	.LVL74:
 648              	.L35:
1085:FreeRTOS/test_Src/lcd.c ****   {
 649              		.loc 1 1085 0 discriminator 1
 650 0046 0221     		movs	r1, #2
 651 0048 0E48     		ldr	r0, .L38+8
 652 004a FFF7FEFF 		bl	SPI_I2S_GetFlagStatus
 653              	.LVL75:
 654 004e 0028     		cmp	r0, #0
 655 0050 F9D0     		beq	.L35
1088:FreeRTOS/test_Src/lcd.c **** 
 656              		.loc 1 1088 0
 657 0052 FF21     		movs	r1, #255
 658 0054 0B48     		ldr	r0, .L38+8
 659 0056 FFF7FEFF 		bl	SPI_I2S_SendData
 660              	.LVL76:
 661              	.L36:
1090:FreeRTOS/test_Src/lcd.c ****   {
 662              		.loc 1 1090 0 discriminator 1
 663 005a 0121     		movs	r1, #1
 664 005c 0948     		ldr	r0, .L38+8
 665 005e FFF7FEFF 		bl	SPI_I2S_GetFlagStatus
 666              	.LVL77:
 667 0062 0028     		cmp	r0, #0
 668 0064 F9D0     		beq	.L36
1093:FreeRTOS/test_Src/lcd.c **** 
 669              		.loc 1 1093 0
 670 0066 0748     		ldr	r0, .L38+8
 671 0068 FFF7FEFF 		bl	SPI_ReceiveData
 672              	.LVL78:
 673 006c 0446     		mov	r4, r0
 674              	.LVL79:
1095:FreeRTOS/test_Src/lcd.c ****   return tmp;
 675              		.loc 1 1095 0
 676 006e 0122     		movs	r2, #1
 677 0070 0421     		movs	r1, #4
 678 0072 0348     		ldr	r0, .L38+4
 679 0074 FFF7FEFF 		bl	LCD_CtrlLinesWrite
 680              	.LVL80:
1097:FreeRTOS/test_Src/lcd.c **** 
 681              		.loc 1 1097 0
 682 0078 E0B2     		uxtb	r0, r4
 683 007a 38BD     		pop	{r3, r4, r5, pc}
 684              	.LVL81:
 685              	.L39:
 686              		.align	2
 687              	.L38:
ARM GAS  /var/folders/g9/bbpj86ld7fx45vd1b3pqxmp00000gn/T//cc4EjzoN.s 			page 37


 688 007c 00140140 		.word	1073812480
 689 0080 000C0140 		.word	1073810432
 690 0084 00380040 		.word	1073756160
 691              		.cfi_endproc
 692              	.LFE50:
 694              		.section	.text.LCD_WriteRAM,"ax",%progbits
 695              		.align	2
 696              		.global	LCD_WriteRAM
 697              		.thumb
 698              		.thumb_func
 700              	LCD_WriteRAM:
 701              	.LFB51:
1107:FreeRTOS/test_Src/lcd.c ****   LCD_CtrlLinesWrite(GPIOD, CtrlPin_NWR, Bit_RESET);
 702              		.loc 1 1107 0
 703              		.cfi_startproc
 704              		@ args = 0, pretend = 0, frame = 0
 705              		@ frame_needed = 0, uses_anonymous_args = 0
 706              	.LVL82:
 707 0000 38B5     		push	{r3, r4, r5, lr}
 708              	.LCFI15:
 709              		.cfi_def_cfa_offset 16
 710              		.cfi_offset 3, -16
 711              		.cfi_offset 4, -12
 712              		.cfi_offset 5, -8
 713              		.cfi_offset 14, -4
 714 0002 0546     		mov	r5, r0
1108:FreeRTOS/test_Src/lcd.c ****   LCD_CtrlLinesWrite(GPIOD, CtrlPin_RS, Bit_SET);
 715              		.loc 1 1108 0
 716 0004 104C     		ldr	r4, .L43
 717 0006 0022     		movs	r2, #0
 718 0008 4FF40041 		mov	r1, #32768
 719 000c 2046     		mov	r0, r4
 720              	.LVL83:
 721 000e FFF7FEFF 		bl	LCD_CtrlLinesWrite
 722              	.LVL84:
1109:FreeRTOS/test_Src/lcd.c ****   LCD_CtrlLinesWrite(GPIOB, CtrlPin_NCS, Bit_RESET);
 723              		.loc 1 1109 0
 724 0012 0122     		movs	r2, #1
 725 0014 8021     		movs	r1, #128
 726 0016 2046     		mov	r0, r4
 727 0018 FFF7FEFF 		bl	LCD_CtrlLinesWrite
 728              	.LVL85:
1110:FreeRTOS/test_Src/lcd.c **** 
 729              		.loc 1 1110 0
 730 001c 0022     		movs	r2, #0
 731 001e 0421     		movs	r1, #4
 732 0020 0A48     		ldr	r0, .L43+4
 733 0022 FFF7FEFF 		bl	LCD_CtrlLinesWrite
 734              	.LVL86:
1112:FreeRTOS/test_Src/lcd.c ****   while(SPI_I2S_GetFlagStatus(SPI2, SPI_FLAG_TXE) == RESET)
 735              		.loc 1 1112 0
 736 0026 2946     		mov	r1, r5
 737 0028 0948     		ldr	r0, .L43+8
 738 002a FFF7FEFF 		bl	SPI_I2S_SendData
 739              	.LVL87:
 740              	.L41:
1113:FreeRTOS/test_Src/lcd.c ****   {
ARM GAS  /var/folders/g9/bbpj86ld7fx45vd1b3pqxmp00000gn/T//cc4EjzoN.s 			page 38


 741              		.loc 1 1113 0 discriminator 1
 742 002e 0221     		movs	r1, #2
 743 0030 0748     		ldr	r0, .L43+8
 744 0032 FFF7FEFF 		bl	SPI_I2S_GetFlagStatus
 745              	.LVL88:
 746 0036 0028     		cmp	r0, #0
 747 0038 F9D0     		beq	.L41
1117:FreeRTOS/test_Src/lcd.c **** }
 748              		.loc 1 1117 0
 749 003a 0122     		movs	r2, #1
 750 003c 0421     		movs	r1, #4
 751 003e 0348     		ldr	r0, .L43+4
 752 0040 FFF7FEFF 		bl	LCD_CtrlLinesWrite
 753              	.LVL89:
 754 0044 38BD     		pop	{r3, r4, r5, pc}
 755              	.L44:
 756 0046 00BF     		.align	2
 757              	.L43:
 758 0048 00140140 		.word	1073812480
 759 004c 000C0140 		.word	1073810432
 760 0050 00380040 		.word	1073756160
 761              		.cfi_endproc
 762              	.LFE51:
 764              		.section	.text.LCD_Clear,"ax",%progbits
 765              		.align	2
 766              		.global	LCD_Clear
 767              		.thumb
 768              		.thumb_func
 770              	LCD_Clear:
 771              	.LFB36:
 601:FreeRTOS/test_Src/lcd.c ****   u32 index = 0;
 772              		.loc 1 601 0
 773              		.cfi_startproc
 774              		@ args = 0, pretend = 0, frame = 0
 775              		@ frame_needed = 0, uses_anonymous_args = 0
 776 0000 10B5     		push	{r4, lr}
 777              	.LCFI16:
 778              		.cfi_def_cfa_offset 8
 779              		.cfi_offset 4, -8
 780              		.cfi_offset 14, -4
 781              	.LVL90:
 604:FreeRTOS/test_Src/lcd.c **** 
 782              		.loc 1 604 0
 783 0002 40F23F11 		movw	r1, #319
 784 0006 0020     		movs	r0, #0
 785 0008 FFF7FEFF 		bl	LCD_SetCursor
 786              	.LVL91:
 606:FreeRTOS/test_Src/lcd.c ****   {
 787              		.loc 1 606 0
 788 000c 0024     		movs	r4, #0
 789 000e 04E0     		b	.L46
 790              	.LVL92:
 791              	.L47:
 608:FreeRTOS/test_Src/lcd.c ****   }
 792              		.loc 1 608 0 discriminator 3
 793 0010 4FF6FF70 		movw	r0, #65535
 794 0014 FFF7FEFF 		bl	LCD_WriteRAM
ARM GAS  /var/folders/g9/bbpj86ld7fx45vd1b3pqxmp00000gn/T//cc4EjzoN.s 			page 39


 795              	.LVL93:
 606:FreeRTOS/test_Src/lcd.c ****   {
 796              		.loc 1 606 0 discriminator 3
 797 0018 0134     		adds	r4, r4, #1
 798              	.LVL94:
 799              	.L46:
 606:FreeRTOS/test_Src/lcd.c ****   {
 800              		.loc 1 606 0 is_stmt 0 discriminator 1
 801 001a B4F5963F 		cmp	r4, #76800
 802 001e F7D3     		bcc	.L47
 610:FreeRTOS/test_Src/lcd.c **** 
 803              		.loc 1 610 0 is_stmt 1
 804 0020 10BD     		pop	{r4, pc}
 805              		.cfi_endproc
 806              	.LFE36:
 808 0022 00BF     		.section	.text.LCD_DrawChar,"ax",%progbits
 809              		.align	2
 810              		.global	LCD_DrawChar
 811              		.thumb
 812              		.thumb_func
 814              	LCD_DrawChar:
 815              	.LFB38:
 639:FreeRTOS/test_Src/lcd.c ****   u32 index = 0, i = 0;
 816              		.loc 1 639 0
 817              		.cfi_startproc
 818              		@ args = 0, pretend = 0, frame = 0
 819              		@ frame_needed = 0, uses_anonymous_args = 0
 820              	.LVL95:
 821 0000 2DE9F041 		push	{r4, r5, r6, r7, r8, lr}
 822              	.LCFI17:
 823              		.cfi_def_cfa_offset 24
 824              		.cfi_offset 4, -24
 825              		.cfi_offset 5, -20
 826              		.cfi_offset 6, -16
 827              		.cfi_offset 7, -12
 828              		.cfi_offset 8, -8
 829              		.cfi_offset 14, -4
 830 0004 0746     		mov	r7, r0
 831 0006 8846     		mov	r8, r1
 832 0008 1646     		mov	r6, r2
 833              	.LVL96:
 645:FreeRTOS/test_Src/lcd.c **** 
 834              		.loc 1 645 0
 835 000a FFF7FEFF 		bl	LCD_SetCursor
 836              	.LVL97:
 647:FreeRTOS/test_Src/lcd.c ****   {
 837              		.loc 1 647 0
 838 000e 0025     		movs	r5, #0
 839 0010 1CE0     		b	.L50
 840              	.LVL98:
 841              	.L53:
 651:FreeRTOS/test_Src/lcd.c ****       {
 842              		.loc 1 651 0
 843 0012 36F81530 		ldrh	r3, [r6, r5, lsl #1]
 844 0016 2341     		asrs	r3, r3, r4
 845 0018 13F0010F 		tst	r3, #1
 846 001c 05D1     		bne	.L51
ARM GAS  /var/folders/g9/bbpj86ld7fx45vd1b3pqxmp00000gn/T//cc4EjzoN.s 			page 40


 653:FreeRTOS/test_Src/lcd.c ****       }
 847              		.loc 1 653 0
 848 001e 0D4B     		ldr	r3, .L57
 849 0020 1888     		ldrh	r0, [r3]
 850 0022 80B2     		uxth	r0, r0
 851 0024 FFF7FEFF 		bl	LCD_WriteRAM
 852              	.LVL99:
 853 0028 04E0     		b	.L52
 854              	.L51:
 657:FreeRTOS/test_Src/lcd.c ****       }
 855              		.loc 1 657 0
 856 002a 0B4B     		ldr	r3, .L57+4
 857 002c 1888     		ldrh	r0, [r3]
 858 002e 80B2     		uxth	r0, r0
 859 0030 FFF7FEFF 		bl	LCD_WriteRAM
 860              	.LVL100:
 861              	.L52:
 649:FreeRTOS/test_Src/lcd.c ****     {
 862              		.loc 1 649 0 discriminator 2
 863 0034 0134     		adds	r4, r4, #1
 864              	.LVL101:
 865 0036 00E0     		b	.L54
 866              	.LVL102:
 867              	.L55:
 868 0038 0024     		movs	r4, #0
 869              	.L54:
 870              	.LVL103:
 649:FreeRTOS/test_Src/lcd.c ****     {
 871              		.loc 1 649 0 is_stmt 0 discriminator 1
 872 003a 0F2C     		cmp	r4, #15
 873 003c E9D9     		bls	.L53
 660:FreeRTOS/test_Src/lcd.c ****     LCD_SetCursor(Xaddress, Ypos);
 874              		.loc 1 660 0 is_stmt 1 discriminator 2
 875 003e 0137     		adds	r7, r7, #1
 876              	.LVL104:
 877 0040 FFB2     		uxtb	r7, r7
 878              	.LVL105:
 661:FreeRTOS/test_Src/lcd.c ****   }
 879              		.loc 1 661 0 discriminator 2
 880 0042 4146     		mov	r1, r8
 881 0044 3846     		mov	r0, r7
 882 0046 FFF7FEFF 		bl	LCD_SetCursor
 883              	.LVL106:
 647:FreeRTOS/test_Src/lcd.c ****   {
 884              		.loc 1 647 0 discriminator 2
 885 004a 0135     		adds	r5, r5, #1
 886              	.LVL107:
 887              	.L50:
 647:FreeRTOS/test_Src/lcd.c ****   {
 888              		.loc 1 647 0 is_stmt 0 discriminator 1
 889 004c 172D     		cmp	r5, #23
 890 004e F3D9     		bls	.L55
 663:FreeRTOS/test_Src/lcd.c **** 
 891              		.loc 1 663 0 is_stmt 1
 892 0050 BDE8F081 		pop	{r4, r5, r6, r7, r8, pc}
 893              	.LVL108:
 894              	.L58:
ARM GAS  /var/folders/g9/bbpj86ld7fx45vd1b3pqxmp00000gn/T//cc4EjzoN.s 			page 41


 895              		.align	2
 896              	.L57:
 897 0054 00000000 		.word	.LANCHOR1
 898 0058 00000000 		.word	.LANCHOR0
 899              		.cfi_endproc
 900              	.LFE38:
 902              		.section	.text.LCD_DisplayChar,"ax",%progbits
 903              		.align	2
 904              		.global	LCD_DisplayChar
 905              		.thumb
 906              		.thumb_func
 908              	LCD_DisplayChar:
 909              	.LFB39:
 677:FreeRTOS/test_Src/lcd.c ****   Ascii -= 32;
 910              		.loc 1 677 0
 911              		.cfi_startproc
 912              		@ args = 0, pretend = 0, frame = 0
 913              		@ frame_needed = 0, uses_anonymous_args = 0
 914              	.LVL109:
 915 0000 08B5     		push	{r3, lr}
 916              	.LCFI18:
 917              		.cfi_def_cfa_offset 8
 918              		.cfi_offset 3, -8
 919              		.cfi_offset 14, -4
 678:FreeRTOS/test_Src/lcd.c ****   LCD_DrawChar(Line, Column, &ASCII_Table[Ascii * 24]);
 920              		.loc 1 678 0
 921 0002 203A     		subs	r2, r2, #32
 922              	.LVL110:
 923 0004 D3B2     		uxtb	r3, r2
 924              	.LVL111:
 679:FreeRTOS/test_Src/lcd.c **** }
 925              		.loc 1 679 0
 926 0006 03EB4303 		add	r3, r3, r3, lsl #1
 927              	.LVL112:
 928 000a DA00     		lsls	r2, r3, #3
 929              	.LVL113:
 930 000c 024B     		ldr	r3, .L61
 931 000e 03EB4202 		add	r2, r3, r2, lsl #1
 932 0012 FFF7FEFF 		bl	LCD_DrawChar
 933              	.LVL114:
 934 0016 08BD     		pop	{r3, pc}
 935              	.L62:
 936              		.align	2
 937              	.L61:
 938 0018 00000000 		.word	.LANCHOR2
 939              		.cfi_endproc
 940              	.LFE39:
 942              		.section	.text.LCD_DisplayStringLine,"ax",%progbits
 943              		.align	2
 944              		.global	LCD_DisplayStringLine
 945              		.thumb
 946              		.thumb_func
 948              	LCD_DisplayStringLine:
 949              	.LFB40:
 693:FreeRTOS/test_Src/lcd.c ****   u32 i = 0;
 950              		.loc 1 693 0
 951              		.cfi_startproc
ARM GAS  /var/folders/g9/bbpj86ld7fx45vd1b3pqxmp00000gn/T//cc4EjzoN.s 			page 42


 952              		@ args = 0, pretend = 0, frame = 0
 953              		@ frame_needed = 0, uses_anonymous_args = 0
 954              	.LVL115:
 955 0000 F8B5     		push	{r3, r4, r5, r6, r7, lr}
 956              	.LCFI19:
 957              		.cfi_def_cfa_offset 24
 958              		.cfi_offset 3, -24
 959              		.cfi_offset 4, -20
 960              		.cfi_offset 5, -16
 961              		.cfi_offset 6, -12
 962              		.cfi_offset 7, -8
 963              		.cfi_offset 14, -4
 964 0002 0746     		mov	r7, r0
 965 0004 0E46     		mov	r6, r1
 966              	.LVL116:
 695:FreeRTOS/test_Src/lcd.c **** 
 967              		.loc 1 695 0
 968 0006 40F23F14 		movw	r4, #319
 694:FreeRTOS/test_Src/lcd.c ****   u16 refcolumn = 319;
 969              		.loc 1 694 0
 970 000a 0025     		movs	r5, #0
 698:FreeRTOS/test_Src/lcd.c ****   {
 971              		.loc 1 698 0
 972 000c 07E0     		b	.L64
 973              	.LVL117:
 974              	.L65:
 701:FreeRTOS/test_Src/lcd.c ****     /* Decrement the column position by 16 */
 975              		.loc 1 701 0
 976 000e 2146     		mov	r1, r4
 977 0010 3846     		mov	r0, r7
 978 0012 FFF7FEFF 		bl	LCD_DisplayChar
 979              	.LVL118:
 703:FreeRTOS/test_Src/lcd.c ****     /* Point on the next character */
 980              		.loc 1 703 0
 981 0016 103C     		subs	r4, r4, #16
 982              	.LVL119:
 983 0018 A4B2     		uxth	r4, r4
 984              	.LVL120:
 705:FreeRTOS/test_Src/lcd.c ****     /* Increment the character counter */
 985              		.loc 1 705 0
 986 001a 0136     		adds	r6, r6, #1
 987              	.LVL121:
 707:FreeRTOS/test_Src/lcd.c ****   }
 988              		.loc 1 707 0
 989 001c 0135     		adds	r5, r5, #1
 990              	.LVL122:
 991              	.L64:
 698:FreeRTOS/test_Src/lcd.c ****   {
 992              		.loc 1 698 0
 993 001e 3278     		ldrb	r2, [r6]	@ zero_extendqisi2
 994 0020 131C     		adds	r3, r2, #0
 995 0022 18BF     		it	ne
 996 0024 0123     		movne	r3, #1
 997 0026 132D     		cmp	r5, #19
 998 0028 88BF     		it	hi
 999 002a 0023     		movhi	r3, #0
 1000 002c 002B     		cmp	r3, #0
ARM GAS  /var/folders/g9/bbpj86ld7fx45vd1b3pqxmp00000gn/T//cc4EjzoN.s 			page 43


 1001 002e EED1     		bne	.L65
 709:FreeRTOS/test_Src/lcd.c **** 
 1002              		.loc 1 709 0
 1003 0030 F8BD     		pop	{r3, r4, r5, r6, r7, pc}
 1004              		.cfi_endproc
 1005              	.LFE40:
 1007 0032 00BF     		.section	.text.LCD_ClearLine,"ax",%progbits
 1008              		.align	2
 1009              		.global	LCD_ClearLine
 1010              		.thumb
 1011              		.thumb_func
 1013              	LCD_ClearLine:
 1014              	.LFB35:
 589:FreeRTOS/test_Src/lcd.c ****   LCD_DisplayStringLine(Line, "                    ");
 1015              		.loc 1 589 0
 1016              		.cfi_startproc
 1017              		@ args = 0, pretend = 0, frame = 0
 1018              		@ frame_needed = 0, uses_anonymous_args = 0
 1019              	.LVL123:
 1020 0000 08B5     		push	{r3, lr}
 1021              	.LCFI20:
 1022              		.cfi_def_cfa_offset 8
 1023              		.cfi_offset 3, -8
 1024              		.cfi_offset 14, -4
 590:FreeRTOS/test_Src/lcd.c **** }
 1025              		.loc 1 590 0
 1026 0002 0249     		ldr	r1, .L69
 1027 0004 FFF7FEFF 		bl	LCD_DisplayStringLine
 1028              	.LVL124:
 1029 0008 08BD     		pop	{r3, pc}
 1030              	.L70:
 1031 000a 00BF     		.align	2
 1032              	.L69:
 1033 000c 00000000 		.word	.LC0
 1034              		.cfi_endproc
 1035              	.LFE35:
 1037              		.section	.text.LCD_DisplayString,"ax",%progbits
 1038              		.align	2
 1039              		.global	LCD_DisplayString
 1040              		.thumb
 1041              		.thumb_func
 1043              	LCD_DisplayString:
 1044              	.LFB41:
 722:FreeRTOS/test_Src/lcd.c ****   u32 i = 0, column = 0, index = 0, spaceindex = 0;
 1045              		.loc 1 722 0
 1046              		.cfi_startproc
 1047              		@ args = 0, pretend = 0, frame = 8
 1048              		@ frame_needed = 0, uses_anonymous_args = 0
 1049              	.LVL125:
 1050 0000 2DE9F04F 		push	{r4, r5, r6, r7, r8, r9, r10, fp, lr}
 1051              	.LCFI21:
 1052              		.cfi_def_cfa_offset 36
 1053              		.cfi_offset 4, -36
 1054              		.cfi_offset 5, -32
 1055              		.cfi_offset 6, -28
 1056              		.cfi_offset 7, -24
 1057              		.cfi_offset 8, -20
ARM GAS  /var/folders/g9/bbpj86ld7fx45vd1b3pqxmp00000gn/T//cc4EjzoN.s 			page 44


 1058              		.cfi_offset 9, -16
 1059              		.cfi_offset 10, -12
 1060              		.cfi_offset 11, -8
 1061              		.cfi_offset 14, -4
 1062 0004 83B0     		sub	sp, sp, #12
 1063              	.LCFI22:
 1064              		.cfi_def_cfa_offset 48
 1065 0006 0190     		str	r0, [sp, #4]
 1066 0008 8846     		mov	r8, r1
 1067              	.LVL126:
 728:FreeRTOS/test_Src/lcd.c ****   if(length > 200)
 1068              		.loc 1 728 0
 1069 000a 0846     		mov	r0, r1
 1070              	.LVL127:
 1071 000c FFF7FEFF 		bl	StrLength
 1072              	.LVL128:
 729:FreeRTOS/test_Src/lcd.c ****   {
 1073              		.loc 1 729 0
 1074 0010 C828     		cmp	r0, #200
 1075 0012 0DD9     		bls	.L72
 732:FreeRTOS/test_Src/lcd.c ****     /* Clear the Selected Line */
 1076              		.loc 1 732 0
 1077 0014 40F23F11 		movw	r1, #319
 1078 0018 019C     		ldr	r4, [sp, #4]
 1079 001a 2046     		mov	r0, r4
 1080              	.LVL129:
 1081 001c FFF7FEFF 		bl	LCD_SetCursor
 1082              	.LVL130:
 734:FreeRTOS/test_Src/lcd.c ****     LCD_DisplayStringLine(Line, "   String too long  ");
 1083              		.loc 1 734 0
 1084 0020 2046     		mov	r0, r4
 1085 0022 FFF7FEFF 		bl	LCD_ClearLine
 1086              	.LVL131:
 735:FreeRTOS/test_Src/lcd.c ****   }
 1087              		.loc 1 735 0
 1088 0026 2B49     		ldr	r1, .L83
 1089 0028 2046     		mov	r0, r4
 1090 002a FFF7FEFF 		bl	LCD_DisplayStringLine
 1091              	.LVL132:
 1092 002e 4EE0     		b	.L71
 1093              	.LVL133:
 1094              	.L72:
 1095 0030 8246     		mov	r10, r0
 740:FreeRTOS/test_Src/lcd.c ****     /* Clear the Selected Line */
 1096              		.loc 1 740 0
 1097 0032 40F23F11 		movw	r1, #319
 1098 0036 019C     		ldr	r4, [sp, #4]
 1099 0038 2046     		mov	r0, r4
 1100              	.LVL134:
 1101 003a FFF7FEFF 		bl	LCD_SetCursor
 1102              	.LVL135:
 742:FreeRTOS/test_Src/lcd.c **** 
 1103              		.loc 1 742 0
 1104 003e 2046     		mov	r0, r4
 1105 0040 FFF7FEFF 		bl	LCD_ClearLine
 1106              	.LVL136:
 724:FreeRTOS/test_Src/lcd.c ****   u32 length = 0;
ARM GAS  /var/folders/g9/bbpj86ld7fx45vd1b3pqxmp00000gn/T//cc4EjzoN.s 			page 45


 1107              		.loc 1 724 0
 1108 0044 40F23F15 		movw	r5, #319
 723:FreeRTOS/test_Src/lcd.c ****   u16 refcolumn = 319;
 1109              		.loc 1 723 0
 1110 0048 0026     		movs	r6, #0
 1111 004a B346     		mov	fp, r6
 1112 004c 3446     		mov	r4, r6
 744:FreeRTOS/test_Src/lcd.c ****     {
 1113              		.loc 1 744 0
 1114 004e 39E0     		b	.L74
 1115              	.LVL137:
 1116              	.L80:
 746:FreeRTOS/test_Src/lcd.c ****       {
 1117              		.loc 1 746 0
 1118 0050 BBF1140F 		cmp	fp, #20
 1119 0054 21D1     		bne	.L75
 748:FreeRTOS/test_Src/lcd.c ****         {
 1120              		.loc 1 748 0
 1121 0056 98F80030 		ldrb	r3, [r8]	@ zero_extendqisi2
 1122 005a 202B     		cmp	r3, #32
 1123 005c 0AD1     		bne	.L81
 750:FreeRTOS/test_Src/lcd.c ****         }
 1124              		.loc 1 750 0
 1125 005e 08F10108 		add	r8, r8, #1
 1126              	.LVL138:
 1127 0062 0FE0     		b	.L77
 1128              	.LVL139:
 1129              	.L78:
 756:FreeRTOS/test_Src/lcd.c ****             column -= 16;
 1130              		.loc 1 756 0 discriminator 3
 1131 0064 2022     		movs	r2, #32
 1132 0066 A1B2     		uxth	r1, r4
 1133 0068 0198     		ldr	r0, [sp, #4]
 1134 006a FFF7FEFF 		bl	LCD_DisplayChar
 1135              	.LVL140:
 757:FreeRTOS/test_Src/lcd.c ****           }
 1136              		.loc 1 757 0 discriminator 3
 1137 006e 103C     		subs	r4, r4, #16
 1138              	.LVL141:
 754:FreeRTOS/test_Src/lcd.c ****           {
 1139              		.loc 1 754 0 discriminator 3
 1140 0070 0135     		adds	r5, r5, #1
 1141              	.LVL142:
 1142 0072 00E0     		b	.L76
 1143              	.LVL143:
 1144              	.L81:
 1145 0074 0025     		movs	r5, #0
 1146              	.LVL144:
 1147              	.L76:
 754:FreeRTOS/test_Src/lcd.c ****           {
 1148              		.loc 1 754 0 is_stmt 0 discriminator 1
 1149 0076 B542     		cmp	r5, r6
 1150 0078 F4D3     		bcc	.L78
 759:FreeRTOS/test_Src/lcd.c ****           length += (spaceindex - 1);
 1151              		.loc 1 759 0 is_stmt 1
 1152 007a C6F10103 		rsb	r3, r6, #1
 1153 007e 9844     		add	r8, r8, r3
ARM GAS  /var/folders/g9/bbpj86ld7fx45vd1b3pqxmp00000gn/T//cc4EjzoN.s 			page 46


 1154              	.LVL145:
 760:FreeRTOS/test_Src/lcd.c ****         }
 1155              		.loc 1 760 0
 1156 0080 F319     		adds	r3, r6, r7
 1157 0082 5F1E     		subs	r7, r3, #1
 1158              	.LVL146:
 1159              	.L77:
 762:FreeRTOS/test_Src/lcd.c ****         /* Clear the Selected Line */
 1160              		.loc 1 762 0
 1161 0084 019B     		ldr	r3, [sp, #4]
 1162 0086 1833     		adds	r3, r3, #24
 1163 0088 DBB2     		uxtb	r3, r3
 1164 008a 0193     		str	r3, [sp, #4]
 1165              	.LVL147:
 764:FreeRTOS/test_Src/lcd.c ****         refcolumn = 319;
 1166              		.loc 1 764 0
 1167 008c 1846     		mov	r0, r3
 1168 008e FFF7FEFF 		bl	LCD_ClearLine
 1169              	.LVL148:
 765:FreeRTOS/test_Src/lcd.c ****         index = 0;
 1170              		.loc 1 765 0
 1171 0092 40F23F15 		movw	r5, #319
 766:FreeRTOS/test_Src/lcd.c ****       }
 1172              		.loc 1 766 0
 1173 0096 4FF0000B 		mov	fp, #0
 1174              	.LVL149:
 1175              	.L75:
 769:FreeRTOS/test_Src/lcd.c **** 
 1176              		.loc 1 769 0
 1177 009a C146     		mov	r9, r8
 1178 009c 19F8012B 		ldrb	r2, [r9], #1	@ zero_extendqisi2
 1179 00a0 2946     		mov	r1, r5
 1180 00a2 0198     		ldr	r0, [sp, #4]
 1181 00a4 FFF7FEFF 		bl	LCD_DisplayChar
 1182              	.LVL150:
 772:FreeRTOS/test_Src/lcd.c **** 
 1183              		.loc 1 772 0
 1184 00a8 0BF1010B 		add	fp, fp, #1
 1185              	.LVL151:
 775:FreeRTOS/test_Src/lcd.c ****       /* Point on the next character */
 1186              		.loc 1 775 0
 1187 00ac 103D     		subs	r5, r5, #16
 1188              	.LVL152:
 1189 00ae ADB2     		uxth	r5, r5
 1190              	.LVL153:
 779:FreeRTOS/test_Src/lcd.c ****       if(*ptr == 0x20)
 1191              		.loc 1 779 0
 1192 00b0 0136     		adds	r6, r6, #1
 1193              	.LVL154:
 780:FreeRTOS/test_Src/lcd.c ****       {
 1194              		.loc 1 780 0
 1195 00b2 98F80130 		ldrb	r3, [r8, #1]	@ zero_extendqisi2
 1196 00b6 202B     		cmp	r3, #32
 1197 00b8 02D1     		bne	.L79
 1198              	.LVL155:
 783:FreeRTOS/test_Src/lcd.c ****       }
 1199              		.loc 1 783 0
ARM GAS  /var/folders/g9/bbpj86ld7fx45vd1b3pqxmp00000gn/T//cc4EjzoN.s 			page 47


 1200 00ba A5F11004 		sub	r4, r5, #16
 1201              	.LVL156:
 782:FreeRTOS/test_Src/lcd.c ****         column = refcolumn - 16;
 1202              		.loc 1 782 0
 1203 00be 0026     		movs	r6, #0
 1204              	.LVL157:
 1205              	.L79:
 1206 00c0 BA46     		mov	r10, r7
 1207 00c2 C846     		mov	r8, r9
 1208              	.LVL158:
 1209              	.L74:
 744:FreeRTOS/test_Src/lcd.c ****     {
 1210              		.loc 1 744 0
 1211 00c4 0AF1FF37 		add	r7, r10, #-1
 1212              	.LVL159:
 1213 00c8 BAF1000F 		cmp	r10, #0
 1214 00cc C0D1     		bne	.L80
 1215              	.LVL160:
 1216              	.L71:
 787:FreeRTOS/test_Src/lcd.c **** 
 1217              		.loc 1 787 0
 1218 00ce 03B0     		add	sp, sp, #12
 1219              	.LCFI23:
 1220              		.cfi_def_cfa_offset 36
 1221              		@ sp needed
 1222 00d0 BDE8F08F 		pop	{r4, r5, r6, r7, r8, r9, r10, fp, pc}
 1223              	.LVL161:
 1224              	.L84:
 1225              		.align	2
 1226              	.L83:
 1227 00d4 18000000 		.word	.LC1
 1228              		.cfi_endproc
 1229              	.LFE41:
 1231              		.section	.text.LCD_ScrollText,"ax",%progbits
 1232              		.align	2
 1233              		.global	LCD_ScrollText
 1234              		.thumb
 1235              		.thumb_func
 1237              	LCD_ScrollText:
 1238              	.LFB42:
 797:FreeRTOS/test_Src/lcd.c ****   u32 i = 0, length = 0, x = 0;
 1239              		.loc 1 797 0
 1240              		.cfi_startproc
 1241              		@ args = 0, pretend = 0, frame = 0
 1242              		@ frame_needed = 0, uses_anonymous_args = 0
 1243              	.LVL162:
 1244 0000 2DE9F843 		push	{r3, r4, r5, r6, r7, r8, r9, lr}
 1245              	.LCFI24:
 1246              		.cfi_def_cfa_offset 32
 1247              		.cfi_offset 3, -32
 1248              		.cfi_offset 4, -28
 1249              		.cfi_offset 5, -24
 1250              		.cfi_offset 6, -20
 1251              		.cfi_offset 7, -16
 1252              		.cfi_offset 8, -12
 1253              		.cfi_offset 9, -8
 1254              		.cfi_offset 14, -4
ARM GAS  /var/folders/g9/bbpj86ld7fx45vd1b3pqxmp00000gn/T//cc4EjzoN.s 			page 48


 1255 0004 8046     		mov	r8, r0
 1256 0006 0D46     		mov	r5, r1
 1257              	.LVL163:
 802:FreeRTOS/test_Src/lcd.c **** 
 1258              		.loc 1 802 0
 1259 0008 0846     		mov	r0, r1
 1260              	.LVL164:
 1261 000a FFF7FEFF 		bl	StrLength
 1262              	.LVL165:
 1263 000e 0746     		mov	r7, r0
 1264              	.LVL166:
 799:FreeRTOS/test_Src/lcd.c **** 
 1265              		.loc 1 799 0
 1266 0010 40F23F14 		movw	r4, #319
 798:FreeRTOS/test_Src/lcd.c ****   u16 refcolumn = 319;
 1267              		.loc 1 798 0
 1268 0014 0026     		movs	r6, #0
 1269 0016 B146     		mov	r9, r6
 1270 0018 08E0     		b	.L86
 1271              	.LVL167:
 1272              	.L87:
 810:FreeRTOS/test_Src/lcd.c ****       /* Decrement the column position by 16 */
 1273              		.loc 1 810 0
 1274 001a 2146     		mov	r1, r4
 1275 001c 4046     		mov	r0, r8
 1276 001e FFF7FEFF 		bl	LCD_DisplayChar
 1277              	.LVL168:
 812:FreeRTOS/test_Src/lcd.c ****       /* Point on the next character */
 1278              		.loc 1 812 0
 1279 0022 103C     		subs	r4, r4, #16
 1280              	.LVL169:
 1281 0024 A4B2     		uxth	r4, r4
 1282              	.LVL170:
 814:FreeRTOS/test_Src/lcd.c ****       /* Increment the character counter */
 1283              		.loc 1 814 0
 1284 0026 0135     		adds	r5, r5, #1
 1285              	.LVL171:
 816:FreeRTOS/test_Src/lcd.c ****     }
 1286              		.loc 1 816 0
 1287 0028 09F10109 		add	r9, r9, #1
 1288              	.LVL172:
 1289              	.L86:
 807:FreeRTOS/test_Src/lcd.c ****     {
 1290              		.loc 1 807 0
 1291 002c 2A78     		ldrb	r2, [r5]	@ zero_extendqisi2
 1292 002e 131C     		adds	r3, r2, #0
 1293 0030 18BF     		it	ne
 1294 0032 0123     		movne	r3, #1
 1295 0034 B9F1130F 		cmp	r9, #19
 1296 0038 88BF     		it	hi
 1297 003a 0023     		movhi	r3, #0
 1298 003c 002B     		cmp	r3, #0
 1299 003e ECD1     		bne	.L87
 818:FreeRTOS/test_Src/lcd.c ****     i = 0;
 1300              		.loc 1 818 0
 1301 0040 6420     		movs	r0, #100
 1302 0042 FFF7FEFF 		bl	vTaskDelay
ARM GAS  /var/folders/g9/bbpj86ld7fx45vd1b3pqxmp00000gn/T//cc4EjzoN.s 			page 49


 1303              	.LVL173:
 821:FreeRTOS/test_Src/lcd.c ****     x++;
 1304              		.loc 1 821 0
 1305 0046 ED1B     		subs	r5, r5, r7
 1306              	.LVL174:
 822:FreeRTOS/test_Src/lcd.c ****     if(refcolumn < 16)
 1307              		.loc 1 822 0
 1308 0048 0136     		adds	r6, r6, #1
 1309              	.LVL175:
 823:FreeRTOS/test_Src/lcd.c ****     {
 1310              		.loc 1 823 0
 1311 004a 0F2C     		cmp	r4, #15
 1312 004c 00D8     		bhi	.L88
 825:FreeRTOS/test_Src/lcd.c ****     }
 1313              		.loc 1 825 0
 1314 004e 0026     		movs	r6, #0
 1315              	.LVL176:
 1316              	.L88:
 827:FreeRTOS/test_Src/lcd.c ****   }
 1317              		.loc 1 827 0
 1318 0050 40F23F14 		movw	r4, #319
 1319              	.LVL177:
 1320 0054 A4EB0614 		sub	r4, r4, r6, lsl #4
 1321 0058 A4B2     		uxth	r4, r4
 1322              	.LVL178:
 819:FreeRTOS/test_Src/lcd.c ****     //LCD_ClearLine(Line);
 1323              		.loc 1 819 0
 1324 005a 4FF00009 		mov	r9, #0
 828:FreeRTOS/test_Src/lcd.c **** }
 1325              		.loc 1 828 0
 1326 005e E5E7     		b	.L86
 1327              		.cfi_endproc
 1328              	.LFE42:
 1330              		.section	.text.LCD_DrawLine,"ax",%progbits
 1331              		.align	2
 1332              		.global	LCD_DrawLine
 1333              		.thumb
 1334              		.thumb_func
 1336              	LCD_DrawLine:
 1337              	.LFB44:
 871:FreeRTOS/test_Src/lcd.c ****   u32 i = 0;
 1338              		.loc 1 871 0
 1339              		.cfi_startproc
 1340              		@ args = 0, pretend = 0, frame = 0
 1341              		@ frame_needed = 0, uses_anonymous_args = 0
 1342              	.LVL179:
 1343 0000 F8B5     		push	{r3, r4, r5, r6, r7, lr}
 1344              	.LCFI25:
 1345              		.cfi_def_cfa_offset 24
 1346              		.cfi_offset 3, -24
 1347              		.cfi_offset 4, -20
 1348              		.cfi_offset 5, -16
 1349              		.cfi_offset 6, -12
 1350              		.cfi_offset 7, -8
 1351              		.cfi_offset 14, -4
 1352 0002 0446     		mov	r4, r0
 1353 0004 0F46     		mov	r7, r1
ARM GAS  /var/folders/g9/bbpj86ld7fx45vd1b3pqxmp00000gn/T//cc4EjzoN.s 			page 50


 1354 0006 1646     		mov	r6, r2
 1355 0008 1D46     		mov	r5, r3
 1356              	.LVL180:
 874:FreeRTOS/test_Src/lcd.c **** 
 1357              		.loc 1 874 0
 1358 000a FFF7FEFF 		bl	LCD_SetCursor
 1359              	.LVL181:
 876:FreeRTOS/test_Src/lcd.c ****   {
 1360              		.loc 1 876 0
 1361 000e 45B1     		cbz	r5, .L98
 1362 0010 0025     		movs	r5, #0
 1363 0012 16E0     		b	.L94
 1364              	.LVL182:
 1365              	.L95:
 880:FreeRTOS/test_Src/lcd.c ****     }
 1366              		.loc 1 880 0 discriminator 3
 1367 0014 0C4B     		ldr	r3, .L100
 1368 0016 1888     		ldrh	r0, [r3]
 1369 0018 80B2     		uxth	r0, r0
 1370 001a FFF7FEFF 		bl	LCD_WriteRAM
 1371              	.LVL183:
 878:FreeRTOS/test_Src/lcd.c ****     {
 1372              		.loc 1 878 0 discriminator 3
 1373 001e 0134     		adds	r4, r4, #1
 1374              	.LVL184:
 1375 0020 00E0     		b	.L93
 1376              	.LVL185:
 1377              	.L98:
 1378 0022 0024     		movs	r4, #0
 1379              	.LVL186:
 1380              	.L93:
 878:FreeRTOS/test_Src/lcd.c ****     {
 1381              		.loc 1 878 0 is_stmt 0 discriminator 1
 1382 0024 B442     		cmp	r4, r6
 1383 0026 F5D3     		bcc	.L95
 1384 0028 F8BD     		pop	{r3, r4, r5, r6, r7, pc}
 1385              	.LVL187:
 1386              	.L97:
 888:FreeRTOS/test_Src/lcd.c ****       Xpos++;
 1387              		.loc 1 888 0 is_stmt 1 discriminator 3
 1388 002a 074B     		ldr	r3, .L100
 1389 002c 1888     		ldrh	r0, [r3]
 1390 002e 80B2     		uxth	r0, r0
 1391 0030 FFF7FEFF 		bl	LCD_WriteRAM
 1392              	.LVL188:
 889:FreeRTOS/test_Src/lcd.c ****       LCD_SetCursor(Xpos, Ypos);
 1393              		.loc 1 889 0 discriminator 3
 1394 0034 0134     		adds	r4, r4, #1
 1395              	.LVL189:
 1396 0036 E4B2     		uxtb	r4, r4
 1397              	.LVL190:
 890:FreeRTOS/test_Src/lcd.c ****     }
 1398              		.loc 1 890 0 discriminator 3
 1399 0038 3946     		mov	r1, r7
 1400 003a 2046     		mov	r0, r4
 1401 003c FFF7FEFF 		bl	LCD_SetCursor
 1402              	.LVL191:
ARM GAS  /var/folders/g9/bbpj86ld7fx45vd1b3pqxmp00000gn/T//cc4EjzoN.s 			page 51


 885:FreeRTOS/test_Src/lcd.c ****     {
 1403              		.loc 1 885 0 discriminator 3
 1404 0040 0135     		adds	r5, r5, #1
 1405              	.LVL192:
 1406              	.L94:
 885:FreeRTOS/test_Src/lcd.c ****     {
 1407              		.loc 1 885 0 is_stmt 0 discriminator 1
 1408 0042 B542     		cmp	r5, r6
 1409 0044 F1D3     		bcc	.L97
 1410 0046 F8BD     		pop	{r3, r4, r5, r6, r7, pc}
 1411              	.LVL193:
 1412              	.L101:
 1413              		.align	2
 1414              	.L100:
 1415 0048 00000000 		.word	.LANCHOR0
 1416              		.cfi_endproc
 1417              	.LFE44:
 1419              		.section	.text.LCD_DrawRect,"ax",%progbits
 1420              		.align	2
 1421              		.global	LCD_DrawRect
 1422              		.thumb
 1423              		.thumb_func
 1425              	LCD_DrawRect:
 1426              	.LFB45:
 906:FreeRTOS/test_Src/lcd.c ****   LCD_DrawLine(Xpos, Ypos, Width, Horizontal);
 1427              		.loc 1 906 0 is_stmt 1
 1428              		.cfi_startproc
 1429              		@ args = 0, pretend = 0, frame = 0
 1430              		@ frame_needed = 0, uses_anonymous_args = 0
 1431              	.LVL194:
 1432 0000 F8B5     		push	{r3, r4, r5, r6, r7, lr}
 1433              	.LCFI26:
 1434              		.cfi_def_cfa_offset 24
 1435              		.cfi_offset 3, -24
 1436              		.cfi_offset 4, -20
 1437              		.cfi_offset 5, -16
 1438              		.cfi_offset 6, -12
 1439              		.cfi_offset 7, -8
 1440              		.cfi_offset 14, -4
 1441 0002 0646     		mov	r6, r0
 1442 0004 0C46     		mov	r4, r1
 1443 0006 1546     		mov	r5, r2
 1444 0008 1F46     		mov	r7, r3
 907:FreeRTOS/test_Src/lcd.c ****   LCD_DrawLine((Xpos + Height), Ypos, Width, Horizontal);
 1445              		.loc 1 907 0
 1446 000a 0023     		movs	r3, #0
 1447              	.LVL195:
 1448 000c 3A46     		mov	r2, r7
 1449              	.LVL196:
 1450 000e FFF7FEFF 		bl	LCD_DrawLine
 1451              	.LVL197:
 908:FreeRTOS/test_Src/lcd.c **** 
 1452              		.loc 1 908 0
 1453 0012 7019     		adds	r0, r6, r5
 1454 0014 0023     		movs	r3, #0
 1455 0016 3A46     		mov	r2, r7
 1456 0018 2146     		mov	r1, r4
ARM GAS  /var/folders/g9/bbpj86ld7fx45vd1b3pqxmp00000gn/T//cc4EjzoN.s 			page 52


 1457 001a C0B2     		uxtb	r0, r0
 1458 001c FFF7FEFF 		bl	LCD_DrawLine
 1459              	.LVL198:
 910:FreeRTOS/test_Src/lcd.c ****   LCD_DrawLine(Xpos, (Ypos - Width + 1), Height, Vertical);
 1460              		.loc 1 910 0
 1461 0020 ADB2     		uxth	r5, r5
 1462 0022 0123     		movs	r3, #1
 1463 0024 2A46     		mov	r2, r5
 1464 0026 2146     		mov	r1, r4
 1465 0028 3046     		mov	r0, r6
 1466 002a FFF7FEFF 		bl	LCD_DrawLine
 1467              	.LVL199:
 911:FreeRTOS/test_Src/lcd.c **** }
 1468              		.loc 1 911 0
 1469 002e E11B     		subs	r1, r4, r7
 1470 0030 0131     		adds	r1, r1, #1
 1471 0032 0123     		movs	r3, #1
 1472 0034 2A46     		mov	r2, r5
 1473 0036 89B2     		uxth	r1, r1
 1474 0038 3046     		mov	r0, r6
 1475 003a FFF7FEFF 		bl	LCD_DrawLine
 1476              	.LVL200:
 1477 003e F8BD     		pop	{r3, r4, r5, r6, r7, pc}
 1478              		.cfi_endproc
 1479              	.LFE45:
 1481              		.section	.text.LCD_DrawCircle,"ax",%progbits
 1482              		.align	2
 1483              		.global	LCD_DrawCircle
 1484              		.thumb
 1485              		.thumb_func
 1487              	LCD_DrawCircle:
 1488              	.LFB46:
 925:FreeRTOS/test_Src/lcd.c ****   s32	D;	/* Decision Variable */
 1489              		.loc 1 925 0
 1490              		.cfi_startproc
 1491              		@ args = 0, pretend = 0, frame = 8
 1492              		@ frame_needed = 0, uses_anonymous_args = 0
 1493              	.LVL201:
 1494 0000 2DE9F04F 		push	{r4, r5, r6, r7, r8, r9, r10, fp, lr}
 1495              	.LCFI27:
 1496              		.cfi_def_cfa_offset 36
 1497              		.cfi_offset 4, -36
 1498              		.cfi_offset 5, -32
 1499              		.cfi_offset 6, -28
 1500              		.cfi_offset 7, -24
 1501              		.cfi_offset 8, -20
 1502              		.cfi_offset 9, -16
 1503              		.cfi_offset 10, -12
 1504              		.cfi_offset 11, -8
 1505              		.cfi_offset 14, -4
 1506 0004 83B0     		sub	sp, sp, #12
 1507              	.LCFI28:
 1508              		.cfi_def_cfa_offset 48
 1509 0006 8246     		mov	r10, r0
 1510 0008 8946     		mov	r9, r1
 930:FreeRTOS/test_Src/lcd.c ****   CurX = 0;
 1511              		.loc 1 930 0
ARM GAS  /var/folders/g9/bbpj86ld7fx45vd1b3pqxmp00000gn/T//cc4EjzoN.s 			page 53


 1512 000a 4FEA420B 		lsl	fp, r2, #1
 1513 000e CBF1030B 		rsb	fp, fp, #3
 1514              	.LVL202:
 932:FreeRTOS/test_Src/lcd.c **** 
 1515              		.loc 1 932 0
 1516 0012 1646     		mov	r6, r2
 1517              	.LVL203:
 931:FreeRTOS/test_Src/lcd.c ****   CurY = Radius;
 1518              		.loc 1 931 0
 1519 0014 0025     		movs	r5, #0
 934:FreeRTOS/test_Src/lcd.c ****   {
 1520              		.loc 1 934 0
 1521 0016 75E0     		b	.L105
 1522              	.LVL204:
 1523              	.L108:
 936:FreeRTOS/test_Src/lcd.c ****     LCD_WriteRAM(TextColor);
 1524              		.loc 1 936 0
 1525 0018 EFB2     		uxtb	r7, r5
 1526 001a 07EB0A03 		add	r3, r7, r10
 1527 001e DBB2     		uxtb	r3, r3
 1528 0020 1A46     		mov	r2, r3
 1529 0022 1FFA86F8 		uxth	r8, r6
 1530 0026 08EB0903 		add	r3, r8, r9
 1531 002a 9BB2     		uxth	r3, r3
 1532 002c 0193     		str	r3, [sp, #4]
 1533 002e 1946     		mov	r1, r3
 1534 0030 0092     		str	r2, [sp]
 1535 0032 1046     		mov	r0, r2
 1536 0034 FFF7FEFF 		bl	LCD_SetCursor
 1537              	.LVL205:
 937:FreeRTOS/test_Src/lcd.c ****     LCD_SetCursor(Xpos + CurX, Ypos - CurY);
 1538              		.loc 1 937 0
 1539 0038 354C     		ldr	r4, .L110
 1540 003a 2088     		ldrh	r0, [r4]
 1541 003c 80B2     		uxth	r0, r0
 1542 003e FFF7FEFF 		bl	LCD_WriteRAM
 1543              	.LVL206:
 938:FreeRTOS/test_Src/lcd.c ****     LCD_WriteRAM(TextColor);
 1544              		.loc 1 938 0
 1545 0042 C8EB0908 		rsb	r8, r8, r9
 1546 0046 1FFA88F8 		uxth	r8, r8
 1547 004a 4146     		mov	r1, r8
 1548 004c 0098     		ldr	r0, [sp]
 1549 004e FFF7FEFF 		bl	LCD_SetCursor
 1550              	.LVL207:
 939:FreeRTOS/test_Src/lcd.c ****     LCD_SetCursor(Xpos - CurX, Ypos + CurY);
 1551              		.loc 1 939 0
 1552 0052 2088     		ldrh	r0, [r4]
 1553 0054 80B2     		uxth	r0, r0
 1554 0056 FFF7FEFF 		bl	LCD_WriteRAM
 1555              	.LVL208:
 940:FreeRTOS/test_Src/lcd.c ****     LCD_WriteRAM(TextColor);
 1556              		.loc 1 940 0
 1557 005a C7EB0A07 		rsb	r7, r7, r10
 1558 005e FFB2     		uxtb	r7, r7
 1559 0060 0199     		ldr	r1, [sp, #4]
 1560 0062 3846     		mov	r0, r7
ARM GAS  /var/folders/g9/bbpj86ld7fx45vd1b3pqxmp00000gn/T//cc4EjzoN.s 			page 54


 1561 0064 FFF7FEFF 		bl	LCD_SetCursor
 1562              	.LVL209:
 941:FreeRTOS/test_Src/lcd.c ****     LCD_SetCursor(Xpos - CurX, Ypos - CurY);
 1563              		.loc 1 941 0
 1564 0068 2088     		ldrh	r0, [r4]
 1565 006a 80B2     		uxth	r0, r0
 1566 006c FFF7FEFF 		bl	LCD_WriteRAM
 1567              	.LVL210:
 942:FreeRTOS/test_Src/lcd.c ****     LCD_WriteRAM(TextColor);
 1568              		.loc 1 942 0
 1569 0070 4146     		mov	r1, r8
 1570 0072 3846     		mov	r0, r7
 1571 0074 FFF7FEFF 		bl	LCD_SetCursor
 1572              	.LVL211:
 943:FreeRTOS/test_Src/lcd.c ****     LCD_SetCursor(Xpos + CurY, Ypos + CurX);
 1573              		.loc 1 943 0
 1574 0078 2088     		ldrh	r0, [r4]
 1575 007a 80B2     		uxth	r0, r0
 1576 007c FFF7FEFF 		bl	LCD_WriteRAM
 1577              	.LVL212:
 944:FreeRTOS/test_Src/lcd.c ****     LCD_WriteRAM(TextColor);
 1578              		.loc 1 944 0
 1579 0080 F7B2     		uxtb	r7, r6
 1580 0082 0AEB0703 		add	r3, r10, r7
 1581 0086 DBB2     		uxtb	r3, r3
 1582 0088 1A46     		mov	r2, r3
 1583 008a 1FFA85F8 		uxth	r8, r5
 1584 008e 09EB0803 		add	r3, r9, r8
 1585 0092 9BB2     		uxth	r3, r3
 1586 0094 0193     		str	r3, [sp, #4]
 1587 0096 1946     		mov	r1, r3
 1588 0098 0092     		str	r2, [sp]
 1589 009a 1046     		mov	r0, r2
 1590 009c FFF7FEFF 		bl	LCD_SetCursor
 1591              	.LVL213:
 945:FreeRTOS/test_Src/lcd.c ****     LCD_SetCursor(Xpos + CurY, Ypos - CurX);
 1592              		.loc 1 945 0
 1593 00a0 2088     		ldrh	r0, [r4]
 1594 00a2 80B2     		uxth	r0, r0
 1595 00a4 FFF7FEFF 		bl	LCD_WriteRAM
 1596              	.LVL214:
 946:FreeRTOS/test_Src/lcd.c ****     LCD_WriteRAM(TextColor);
 1597              		.loc 1 946 0
 1598 00a8 C8EB0908 		rsb	r8, r8, r9
 1599 00ac 1FFA88F8 		uxth	r8, r8
 1600 00b0 4146     		mov	r1, r8
 1601 00b2 0098     		ldr	r0, [sp]
 1602 00b4 FFF7FEFF 		bl	LCD_SetCursor
 1603              	.LVL215:
 947:FreeRTOS/test_Src/lcd.c ****     LCD_SetCursor(Xpos - CurY, Ypos + CurX);
 1604              		.loc 1 947 0
 1605 00b8 2088     		ldrh	r0, [r4]
 1606 00ba 80B2     		uxth	r0, r0
 1607 00bc FFF7FEFF 		bl	LCD_WriteRAM
 1608              	.LVL216:
 948:FreeRTOS/test_Src/lcd.c ****     LCD_WriteRAM(TextColor);
 1609              		.loc 1 948 0
ARM GAS  /var/folders/g9/bbpj86ld7fx45vd1b3pqxmp00000gn/T//cc4EjzoN.s 			page 55


 1610 00c0 C7EB0A07 		rsb	r7, r7, r10
 1611 00c4 FFB2     		uxtb	r7, r7
 1612 00c6 0199     		ldr	r1, [sp, #4]
 1613 00c8 3846     		mov	r0, r7
 1614 00ca FFF7FEFF 		bl	LCD_SetCursor
 1615              	.LVL217:
 949:FreeRTOS/test_Src/lcd.c ****     LCD_SetCursor(Xpos - CurY, Ypos - CurX);
 1616              		.loc 1 949 0
 1617 00ce 2088     		ldrh	r0, [r4]
 1618 00d0 80B2     		uxth	r0, r0
 1619 00d2 FFF7FEFF 		bl	LCD_WriteRAM
 1620              	.LVL218:
 950:FreeRTOS/test_Src/lcd.c ****     LCD_WriteRAM(TextColor);
 1621              		.loc 1 950 0
 1622 00d6 4146     		mov	r1, r8
 1623 00d8 3846     		mov	r0, r7
 1624 00da FFF7FEFF 		bl	LCD_SetCursor
 1625              	.LVL219:
 951:FreeRTOS/test_Src/lcd.c **** 
 1626              		.loc 1 951 0
 1627 00de 2088     		ldrh	r0, [r4]
 1628 00e0 80B2     		uxth	r0, r0
 1629 00e2 FFF7FEFF 		bl	LCD_WriteRAM
 1630              	.LVL220:
 953:FreeRTOS/test_Src/lcd.c ****     {
 1631              		.loc 1 953 0
 1632 00e6 BBF1000F 		cmp	fp, #0
 1633 00ea 04DA     		bge	.L106
 955:FreeRTOS/test_Src/lcd.c ****     }
 1634              		.loc 1 955 0
 1635 00ec 0BEB850B 		add	fp, fp, r5, lsl #2
 1636              	.LVL221:
 1637 00f0 0BF1060B 		add	fp, fp, #6
 1638              	.LVL222:
 1639 00f4 05E0     		b	.L107
 1640              	.L106:
 959:FreeRTOS/test_Src/lcd.c ****       CurY--;
 1641              		.loc 1 959 0
 1642 00f6 AB1B     		subs	r3, r5, r6
 1643 00f8 0BEB830B 		add	fp, fp, r3, lsl #2
 1644              	.LVL223:
 1645 00fc 0BF10A0B 		add	fp, fp, #10
 1646              	.LVL224:
 960:FreeRTOS/test_Src/lcd.c ****     }
 1647              		.loc 1 960 0
 1648 0100 013E     		subs	r6, r6, #1
 1649              	.LVL225:
 1650              	.L107:
 962:FreeRTOS/test_Src/lcd.c ****   }
 1651              		.loc 1 962 0
 1652 0102 0135     		adds	r5, r5, #1
 1653              	.LVL226:
 1654              	.L105:
 934:FreeRTOS/test_Src/lcd.c ****   {
 1655              		.loc 1 934 0
 1656 0104 B542     		cmp	r5, r6
 1657 0106 87D9     		bls	.L108
ARM GAS  /var/folders/g9/bbpj86ld7fx45vd1b3pqxmp00000gn/T//cc4EjzoN.s 			page 56


 964:FreeRTOS/test_Src/lcd.c **** 
 1658              		.loc 1 964 0
 1659 0108 03B0     		add	sp, sp, #12
 1660              	.LCFI29:
 1661              		.cfi_def_cfa_offset 36
 1662              		@ sp needed
 1663 010a BDE8F08F 		pop	{r4, r5, r6, r7, r8, r9, r10, fp, pc}
 1664              	.LVL227:
 1665              	.L111:
 1666 010e 00BF     		.align	2
 1667              	.L110:
 1668 0110 00000000 		.word	.LANCHOR0
 1669              		.cfi_endproc
 1670              	.LFE46:
 1672              		.section	.text.LCD_DrawMonoPict,"ax",%progbits
 1673              		.align	2
 1674              		.global	LCD_DrawMonoPict
 1675              		.thumb
 1676              		.thumb_func
 1678              	LCD_DrawMonoPict:
 1679              	.LFB47:
 974:FreeRTOS/test_Src/lcd.c ****   u32 index = 0, i = 0;
 1680              		.loc 1 974 0
 1681              		.cfi_startproc
 1682              		@ args = 0, pretend = 0, frame = 0
 1683              		@ frame_needed = 0, uses_anonymous_args = 0
 1684              	.LVL228:
 1685 0000 70B5     		push	{r4, r5, r6, lr}
 1686              	.LCFI30:
 1687              		.cfi_def_cfa_offset 16
 1688              		.cfi_offset 4, -16
 1689              		.cfi_offset 5, -12
 1690              		.cfi_offset 6, -8
 1691              		.cfi_offset 14, -4
 1692 0002 0646     		mov	r6, r0
 1693              	.LVL229:
 977:FreeRTOS/test_Src/lcd.c **** 
 1694              		.loc 1 977 0
 1695 0004 40F23F11 		movw	r1, #319
 1696 0008 0020     		movs	r0, #0
 1697              	.LVL230:
 1698 000a FFF7FEFF 		bl	LCD_SetCursor
 1699              	.LVL231:
 979:FreeRTOS/test_Src/lcd.c ****   {
 1700              		.loc 1 979 0
 1701 000e 0025     		movs	r5, #0
 1702 0010 16E0     		b	.L113
 1703              	.LVL232:
 1704              	.L116:
 983:FreeRTOS/test_Src/lcd.c ****       {
 1705              		.loc 1 983 0
 1706 0012 56F82520 		ldr	r2, [r6, r5, lsl #2]
 1707 0016 0123     		movs	r3, #1
 1708 0018 A340     		lsls	r3, r3, r4
 1709 001a 1342     		tst	r3, r2
 1710 001c 05D1     		bne	.L114
 985:FreeRTOS/test_Src/lcd.c ****       }
ARM GAS  /var/folders/g9/bbpj86ld7fx45vd1b3pqxmp00000gn/T//cc4EjzoN.s 			page 57


 1711              		.loc 1 985 0
 1712 001e 0A4B     		ldr	r3, .L120
 1713 0020 1888     		ldrh	r0, [r3]
 1714 0022 80B2     		uxth	r0, r0
 1715 0024 FFF7FEFF 		bl	LCD_WriteRAM
 1716              	.LVL233:
 1717 0028 04E0     		b	.L115
 1718              	.L114:
 989:FreeRTOS/test_Src/lcd.c ****       }
 1719              		.loc 1 989 0
 1720 002a 084B     		ldr	r3, .L120+4
 1721 002c 1888     		ldrh	r0, [r3]
 1722 002e 80B2     		uxth	r0, r0
 1723 0030 FFF7FEFF 		bl	LCD_WriteRAM
 1724              	.LVL234:
 1725              	.L115:
 981:FreeRTOS/test_Src/lcd.c ****     {
 1726              		.loc 1 981 0 discriminator 2
 1727 0034 0134     		adds	r4, r4, #1
 1728              	.LVL235:
 1729 0036 00E0     		b	.L117
 1730              	.LVL236:
 1731              	.L118:
 1732 0038 0024     		movs	r4, #0
 1733              	.L117:
 1734              	.LVL237:
 981:FreeRTOS/test_Src/lcd.c ****     {
 1735              		.loc 1 981 0 is_stmt 0 discriminator 1
 1736 003a 1F2C     		cmp	r4, #31
 1737 003c E9D9     		bls	.L116
 979:FreeRTOS/test_Src/lcd.c ****   {
 1738              		.loc 1 979 0 is_stmt 1 discriminator 2
 1739 003e 0135     		adds	r5, r5, #1
 1740              	.LVL238:
 1741              	.L113:
 979:FreeRTOS/test_Src/lcd.c ****   {
 1742              		.loc 1 979 0 is_stmt 0 discriminator 1
 1743 0040 B5F5166F 		cmp	r5, #2400
 1744 0044 F8D3     		bcc	.L118
 993:FreeRTOS/test_Src/lcd.c **** 
 1745              		.loc 1 993 0 is_stmt 1
 1746 0046 70BD     		pop	{r4, r5, r6, pc}
 1747              	.LVL239:
 1748              	.L121:
 1749              		.align	2
 1750              	.L120:
 1751 0048 00000000 		.word	.LANCHOR1
 1752 004c 00000000 		.word	.LANCHOR0
 1753              		.cfi_endproc
 1754              	.LFE47:
 1756              		.section	.text.LCD_DrawBMP,"ax",%progbits
 1757              		.align	2
 1758              		.global	LCD_DrawBMP
 1759              		.thumb
 1760              		.thumb_func
 1762              	LCD_DrawBMP:
 1763              	.LFB48:
ARM GAS  /var/folders/g9/bbpj86ld7fx45vd1b3pqxmp00000gn/T//cc4EjzoN.s 			page 58


1003:FreeRTOS/test_Src/lcd.c ****   u32 i = 0;
 1764              		.loc 1 1003 0
 1765              		.cfi_startproc
 1766              		@ args = 0, pretend = 0, frame = 0
 1767              		@ frame_needed = 0, uses_anonymous_args = 0
 1768              	.LVL240:
 1769 0000 10B5     		push	{r4, lr}
 1770              	.LCFI31:
 1771              		.cfi_def_cfa_offset 8
 1772              		.cfi_offset 4, -8
 1773              		.cfi_offset 14, -4
 1774 0002 0446     		mov	r4, r0
 1775              	.LVL241:
1006:FreeRTOS/test_Src/lcd.c ****   LCD_WriteReg(R5, 0x04);
 1776              		.loc 1 1006 0
 1777 0004 D021     		movs	r1, #208
 1778 0006 0120     		movs	r0, #1
 1779              	.LVL242:
 1780 0008 FFF7FEFF 		bl	LCD_WriteReg
 1781              	.LVL243:
1007:FreeRTOS/test_Src/lcd.c **** 
 1782              		.loc 1 1007 0
 1783 000c 0421     		movs	r1, #4
 1784 000e 0520     		movs	r0, #5
 1785 0010 FFF7FEFF 		bl	LCD_WriteReg
 1786              	.LVL244:
1009:FreeRTOS/test_Src/lcd.c **** 
 1787              		.loc 1 1009 0
 1788 0014 40F23F11 		movw	r1, #319
 1789 0018 EF20     		movs	r0, #239
 1790 001a FFF7FEFF 		bl	LCD_SetCursor
 1791              	.LVL245:
1011:FreeRTOS/test_Src/lcd.c **** 
 1792              		.loc 1 1011 0
 1793 001e 2046     		mov	r0, r4
 1794 0020 FFF7FEFF 		bl	SPI_FLASH_StartReadSequence
 1795              	.LVL246:
1014:FreeRTOS/test_Src/lcd.c ****   /* SPI in 16-bit mode */
 1796              		.loc 1 1014 0
 1797 0024 164C     		ldr	r4, .L126
 1798              	.LVL247:
 1799 0026 0021     		movs	r1, #0
 1800 0028 2046     		mov	r0, r4
 1801 002a FFF7FEFF 		bl	SPI_Cmd
 1802              	.LVL248:
1016:FreeRTOS/test_Src/lcd.c ****   /* Enable SPI1  */
 1803              		.loc 1 1016 0
 1804 002e 4FF40061 		mov	r1, #2048
 1805 0032 2046     		mov	r0, r4
 1806 0034 FFF7FEFF 		bl	SPI_DataSizeConfig
 1807              	.LVL249:
1018:FreeRTOS/test_Src/lcd.c **** 
 1808              		.loc 1 1018 0
 1809 0038 0121     		movs	r1, #1
 1810 003a 2046     		mov	r0, r4
 1811 003c FFF7FEFF 		bl	SPI_Cmd
 1812              	.LVL250:
ARM GAS  /var/folders/g9/bbpj86ld7fx45vd1b3pqxmp00000gn/T//cc4EjzoN.s 			page 59


1020:FreeRTOS/test_Src/lcd.c ****   {
 1813              		.loc 1 1020 0
 1814 0040 0024     		movs	r4, #0
 1815 0042 09E0     		b	.L123
 1816              	.LVL251:
 1817              	.L124:
 1818              	.LBB2:
1022:FreeRTOS/test_Src/lcd.c ****   }
 1819              		.loc 1 1022 0 discriminator 3
 1820 0044 4AF2A550 		movw	r0, #42405
 1821 0048 FFF7FEFF 		bl	SPI_FLASH_SendHalfWord
 1822              	.LVL252:
 1823 004c FFF7FEFF 		bl	__REV_HalfWord
 1824              	.LVL253:
 1825 0050 80B2     		uxth	r0, r0
 1826 0052 FFF7FEFF 		bl	LCD_WriteRAM
 1827              	.LVL254:
 1828              	.LBE2:
1020:FreeRTOS/test_Src/lcd.c ****   {
 1829              		.loc 1 1020 0 discriminator 3
 1830 0056 0134     		adds	r4, r4, #1
 1831              	.LVL255:
 1832              	.L123:
1020:FreeRTOS/test_Src/lcd.c ****   {
 1833              		.loc 1 1020 0 is_stmt 0 discriminator 1
 1834 0058 B4F5963F 		cmp	r4, #76800
 1835 005c F2D3     		bcc	.L124
1026:FreeRTOS/test_Src/lcd.c **** 
 1836              		.loc 1 1026 0 is_stmt 1
 1837 005e 0120     		movs	r0, #1
 1838 0060 FFF7FEFF 		bl	SPI_FLASH_ChipSelect
 1839              	.LVL256:
1029:FreeRTOS/test_Src/lcd.c ****   /* SPI in 8-bit mode */
 1840              		.loc 1 1029 0
 1841 0064 064C     		ldr	r4, .L126
 1842              	.LVL257:
 1843 0066 0021     		movs	r1, #0
 1844 0068 2046     		mov	r0, r4
 1845 006a FFF7FEFF 		bl	SPI_Cmd
 1846              	.LVL258:
1031:FreeRTOS/test_Src/lcd.c ****   /* Enable SPI1  */
 1847              		.loc 1 1031 0
 1848 006e 0021     		movs	r1, #0
 1849 0070 2046     		mov	r0, r4
 1850 0072 FFF7FEFF 		bl	SPI_DataSizeConfig
 1851              	.LVL259:
1033:FreeRTOS/test_Src/lcd.c **** }
 1852              		.loc 1 1033 0
 1853 0076 0121     		movs	r1, #1
 1854 0078 2046     		mov	r0, r4
 1855 007a FFF7FEFF 		bl	SPI_Cmd
 1856              	.LVL260:
 1857 007e 10BD     		pop	{r4, pc}
 1858              	.L127:
 1859              		.align	2
 1860              	.L126:
 1861 0080 00300140 		.word	1073819648
ARM GAS  /var/folders/g9/bbpj86ld7fx45vd1b3pqxmp00000gn/T//cc4EjzoN.s 			page 60


 1862              		.cfi_endproc
 1863              	.LFE48:
 1865              		.section	.text.LCD_ReadRAM,"ax",%progbits
 1866              		.align	2
 1867              		.global	LCD_ReadRAM
 1868              		.thumb
 1869              		.thumb_func
 1871              	LCD_ReadRAM:
 1872              	.LFB52:
1128:FreeRTOS/test_Src/lcd.c ****   u16 tmp = 0;
 1873              		.loc 1 1128 0
 1874              		.cfi_startproc
 1875              		@ args = 0, pretend = 0, frame = 0
 1876              		@ frame_needed = 0, uses_anonymous_args = 0
 1877 0000 10B5     		push	{r4, lr}
 1878              	.LCFI32:
 1879              		.cfi_def_cfa_offset 8
 1880              		.cfi_offset 4, -8
 1881              		.cfi_offset 14, -4
 1882              	.LVL261:
1131:FreeRTOS/test_Src/lcd.c ****   LCD_CtrlLinesWrite(GPIOD, CtrlPin_RS, Bit_SET);
 1883              		.loc 1 1131 0
 1884 0002 164C     		ldr	r4, .L132
 1885 0004 0122     		movs	r2, #1
 1886 0006 4FF40041 		mov	r1, #32768
 1887 000a 2046     		mov	r0, r4
 1888 000c FFF7FEFF 		bl	LCD_CtrlLinesWrite
 1889              	.LVL262:
1132:FreeRTOS/test_Src/lcd.c ****   LCD_CtrlLinesWrite(GPIOB, CtrlPin_NCS, Bit_RESET);
 1890              		.loc 1 1132 0
 1891 0010 0122     		movs	r2, #1
 1892 0012 8021     		movs	r1, #128
 1893 0014 2046     		mov	r0, r4
 1894 0016 FFF7FEFF 		bl	LCD_CtrlLinesWrite
 1895              	.LVL263:
1133:FreeRTOS/test_Src/lcd.c **** 
 1896              		.loc 1 1133 0
 1897 001a 0022     		movs	r2, #0
 1898 001c 0421     		movs	r1, #4
 1899 001e 1048     		ldr	r0, .L132+4
 1900 0020 FFF7FEFF 		bl	LCD_CtrlLinesWrite
 1901              	.LVL264:
 1902              	.L129:
1135:FreeRTOS/test_Src/lcd.c ****   {
 1903              		.loc 1 1135 0 discriminator 1
 1904 0024 0221     		movs	r1, #2
 1905 0026 0F48     		ldr	r0, .L132+8
 1906 0028 FFF7FEFF 		bl	SPI_I2S_GetFlagStatus
 1907              	.LVL265:
 1908 002c 0028     		cmp	r0, #0
 1909 002e F9D0     		beq	.L129
1138:FreeRTOS/test_Src/lcd.c ****   while(SPI_I2S_GetFlagStatus(SPI2, SPI_FLAG_RXNE)==RESET)
 1910              		.loc 1 1138 0
 1911 0030 FF21     		movs	r1, #255
 1912 0032 0C48     		ldr	r0, .L132+8
 1913 0034 FFF7FEFF 		bl	SPI_I2S_SendData
 1914              	.LVL266:
ARM GAS  /var/folders/g9/bbpj86ld7fx45vd1b3pqxmp00000gn/T//cc4EjzoN.s 			page 61


 1915              	.L130:
1139:FreeRTOS/test_Src/lcd.c ****   {
 1916              		.loc 1 1139 0 discriminator 1
 1917 0038 0121     		movs	r1, #1
 1918 003a 0A48     		ldr	r0, .L132+8
 1919 003c FFF7FEFF 		bl	SPI_I2S_GetFlagStatus
 1920              	.LVL267:
 1921 0040 0028     		cmp	r0, #0
 1922 0042 F9D0     		beq	.L130
1142:FreeRTOS/test_Src/lcd.c **** 
 1923              		.loc 1 1142 0
 1924 0044 0748     		ldr	r0, .L132+8
 1925 0046 FFF7FEFF 		bl	SPI_ReceiveData
 1926              	.LVL268:
 1927 004a 84B2     		uxth	r4, r0
 1928              	.LVL269:
1144:FreeRTOS/test_Src/lcd.c **** 
 1929              		.loc 1 1144 0
 1930 004c 0122     		movs	r2, #1
 1931 004e 0421     		movs	r1, #4
 1932 0050 0348     		ldr	r0, .L132+4
 1933 0052 FFF7FEFF 		bl	LCD_CtrlLinesWrite
 1934              	.LVL270:
1147:FreeRTOS/test_Src/lcd.c **** 
 1935              		.loc 1 1147 0
 1936 0056 2046     		mov	r0, r4
 1937 0058 10BD     		pop	{r4, pc}
 1938              	.LVL271:
 1939              	.L133:
 1940 005a 00BF     		.align	2
 1941              	.L132:
 1942 005c 00140140 		.word	1073812480
 1943 0060 000C0140 		.word	1073810432
 1944 0064 00380040 		.word	1073756160
 1945              		.cfi_endproc
 1946              	.LFE52:
 1948              		.section	.text.LCD_SPIConfig,"ax",%progbits
 1949              		.align	2
 1950              		.global	LCD_SPIConfig
 1951              		.thumb
 1952              		.thumb_func
 1954              	LCD_SPIConfig:
 1955              	.LFB58:
1262:FreeRTOS/test_Src/lcd.c ****   SPI_InitTypeDef    SPI_InitStructure;
 1956              		.loc 1 1262 0
 1957              		.cfi_startproc
 1958              		@ args = 0, pretend = 0, frame = 24
 1959              		@ frame_needed = 0, uses_anonymous_args = 0
 1960 0000 10B5     		push	{r4, lr}
 1961              	.LCFI33:
 1962              		.cfi_def_cfa_offset 8
 1963              		.cfi_offset 4, -8
 1964              		.cfi_offset 14, -4
 1965 0002 86B0     		sub	sp, sp, #24
 1966              	.LCFI34:
 1967              		.cfi_def_cfa_offset 32
1267:FreeRTOS/test_Src/lcd.c **** 
ARM GAS  /var/folders/g9/bbpj86ld7fx45vd1b3pqxmp00000gn/T//cc4EjzoN.s 			page 62


 1968              		.loc 1 1267 0
 1969 0004 0121     		movs	r1, #1
 1970 0006 0820     		movs	r0, #8
 1971 0008 FFF7FEFF 		bl	RCC_APB2PeriphClockCmd
 1972              	.LVL272:
1270:FreeRTOS/test_Src/lcd.c **** 
 1973              		.loc 1 1270 0
 1974 000c 0121     		movs	r1, #1
 1975 000e 4FF48040 		mov	r0, #16384
 1976 0012 FFF7FEFF 		bl	RCC_APB1PeriphClockCmd
 1977              	.LVL273:
1273:FreeRTOS/test_Src/lcd.c ****   GPIO_InitStructure.GPIO_Speed = GPIO_Speed_50MHz;
 1978              		.loc 1 1273 0
 1979 0016 4FF47043 		mov	r3, #61440
 1980 001a ADF80030 		strh	r3, [sp]	@ movhi
1274:FreeRTOS/test_Src/lcd.c ****   GPIO_InitStructure.GPIO_Mode = GPIO_Mode_AF_PP;
 1981              		.loc 1 1274 0
 1982 001e 0323     		movs	r3, #3
 1983 0020 8DF80230 		strb	r3, [sp, #2]
1275:FreeRTOS/test_Src/lcd.c ****   GPIO_Init(GPIOB, &GPIO_InitStructure);
 1984              		.loc 1 1275 0
 1985 0024 1823     		movs	r3, #24
 1986 0026 8DF80330 		strb	r3, [sp, #3]
1276:FreeRTOS/test_Src/lcd.c **** 
 1987              		.loc 1 1276 0
 1988 002a 6946     		mov	r1, sp
 1989 002c 1248     		ldr	r0, .L136
 1990 002e FFF7FEFF 		bl	GPIO_Init
 1991              	.LVL274:
1279:FreeRTOS/test_Src/lcd.c ****   SPI_InitStructure.SPI_Mode = SPI_Mode_Master;
 1992              		.loc 1 1279 0
 1993 0032 0023     		movs	r3, #0
 1994 0034 ADF80430 		strh	r3, [sp, #4]	@ movhi
1280:FreeRTOS/test_Src/lcd.c ****   SPI_InitStructure.SPI_DataSize = SPI_DataSize_16b;
 1995              		.loc 1 1280 0
 1996 0038 4FF48272 		mov	r2, #260
 1997 003c ADF80620 		strh	r2, [sp, #6]	@ movhi
1281:FreeRTOS/test_Src/lcd.c ****   SPI_InitStructure.SPI_CPOL = SPI_CPOL_Low;
 1998              		.loc 1 1281 0
 1999 0040 4FF40062 		mov	r2, #2048
 2000 0044 ADF80820 		strh	r2, [sp, #8]	@ movhi
1282:FreeRTOS/test_Src/lcd.c ****   SPI_InitStructure.SPI_CPHA = SPI_CPHA_1Edge;
 2001              		.loc 1 1282 0
 2002 0048 ADF80A30 		strh	r3, [sp, #10]	@ movhi
1283:FreeRTOS/test_Src/lcd.c ****   SPI_InitStructure.SPI_NSS = SPI_NSS_Soft;
 2003              		.loc 1 1283 0
 2004 004c ADF80C30 		strh	r3, [sp, #12]	@ movhi
1284:FreeRTOS/test_Src/lcd.c ****   SPI_InitStructure.SPI_BaudRatePrescaler = SPI_BaudRatePrescaler_2;
 2005              		.loc 1 1284 0
 2006 0050 4FF40072 		mov	r2, #512
 2007 0054 ADF80E20 		strh	r2, [sp, #14]	@ movhi
1285:FreeRTOS/test_Src/lcd.c ****   SPI_InitStructure.SPI_FirstBit = SPI_FirstBit_MSB;
 2008              		.loc 1 1285 0
 2009 0058 ADF81030 		strh	r3, [sp, #16]	@ movhi
1286:FreeRTOS/test_Src/lcd.c ****   SPI_Init(SPI2, &SPI_InitStructure);
 2010              		.loc 1 1286 0
 2011 005c ADF81230 		strh	r3, [sp, #18]	@ movhi
ARM GAS  /var/folders/g9/bbpj86ld7fx45vd1b3pqxmp00000gn/T//cc4EjzoN.s 			page 63


1287:FreeRTOS/test_Src/lcd.c **** 
 2012              		.loc 1 1287 0
 2013 0060 064C     		ldr	r4, .L136+4
 2014 0062 01A9     		add	r1, sp, #4
 2015 0064 2046     		mov	r0, r4
 2016 0066 FFF7FEFF 		bl	SPI_Init
 2017              	.LVL275:
1290:FreeRTOS/test_Src/lcd.c **** }
 2018              		.loc 1 1290 0
 2019 006a 0121     		movs	r1, #1
 2020 006c 2046     		mov	r0, r4
 2021 006e FFF7FEFF 		bl	SPI_Cmd
 2022              	.LVL276:
1291:FreeRTOS/test_Src/lcd.c **** 
 2023              		.loc 1 1291 0
 2024 0072 06B0     		add	sp, sp, #24
 2025              	.LCFI35:
 2026              		.cfi_def_cfa_offset 8
 2027              		@ sp needed
 2028 0074 10BD     		pop	{r4, pc}
 2029              	.L137:
 2030 0076 00BF     		.align	2
 2031              	.L136:
 2032 0078 000C0140 		.word	1073810432
 2033 007c 00380040 		.word	1073756160
 2034              		.cfi_endproc
 2035              	.LFE58:
 2037              		.section	.text.LCD_Init,"ax",%progbits
 2038              		.align	2
 2039              		.global	LCD_Init
 2040              		.thumb
 2041              		.thumb_func
 2043              	LCD_Init:
 2044              	.LFB32:
 438:FreeRTOS/test_Src/lcd.c **** /* Configure the LCD Control pins --------------------------------------------*/
 2045              		.loc 1 438 0
 2046              		.cfi_startproc
 2047              		@ args = 0, pretend = 0, frame = 0
 2048              		@ frame_needed = 0, uses_anonymous_args = 0
 2049 0000 08B5     		push	{r3, lr}
 2050              	.LCFI36:
 2051              		.cfi_def_cfa_offset 8
 2052              		.cfi_offset 3, -8
 2053              		.cfi_offset 14, -4
 440:FreeRTOS/test_Src/lcd.c **** 
 2054              		.loc 1 440 0
 2055 0002 FFF7FEFF 		bl	LCD_CtrlLinesConfig
 2056              	.LVL277:
 443:FreeRTOS/test_Src/lcd.c **** 
 2057              		.loc 1 443 0
 2058 0006 FFF7FEFF 		bl	LCD_SPIConfig
 2059              	.LVL278:
 446:FreeRTOS/test_Src/lcd.c ****   LCD_WriteReg(R0, 0xA0);
 2060              		.loc 1 446 0
 2061 000a 1021     		movs	r1, #16
 2062 000c 0120     		movs	r0, #1
 2063 000e FFF7FEFF 		bl	LCD_WriteReg
ARM GAS  /var/folders/g9/bbpj86ld7fx45vd1b3pqxmp00000gn/T//cc4EjzoN.s 			page 64


 2064              	.LVL279:
 447:FreeRTOS/test_Src/lcd.c ****   LCD_WriteReg(R3, 0x01);
 2065              		.loc 1 447 0
 2066 0012 A021     		movs	r1, #160
 2067 0014 0020     		movs	r0, #0
 2068 0016 FFF7FEFF 		bl	LCD_WriteReg
 2069              	.LVL280:
 448:FreeRTOS/test_Src/lcd.c ****   vTaskDelay( 10 / portTICK_PERIOD_MS ); /* Delay 10 ms */
 2070              		.loc 1 448 0
 2071 001a 0121     		movs	r1, #1
 2072 001c 0320     		movs	r0, #3
 2073 001e FFF7FEFF 		bl	LCD_WriteReg
 2074              	.LVL281:
 449:FreeRTOS/test_Src/lcd.c ****   LCD_WriteReg(R3, 0x00);
 2075              		.loc 1 449 0
 2076 0022 0A20     		movs	r0, #10
 2077 0024 FFF7FEFF 		bl	vTaskDelay
 2078              	.LVL282:
 450:FreeRTOS/test_Src/lcd.c ****   LCD_WriteReg(R43, 0x04);
 2079              		.loc 1 450 0
 2080 0028 0021     		movs	r1, #0
 2081 002a 0320     		movs	r0, #3
 2082 002c FFF7FEFF 		bl	LCD_WriteReg
 2083              	.LVL283:
 451:FreeRTOS/test_Src/lcd.c **** 
 2084              		.loc 1 451 0
 2085 0030 0421     		movs	r1, #4
 2086 0032 2B20     		movs	r0, #43
 2087 0034 FFF7FEFF 		bl	LCD_WriteReg
 2088              	.LVL284:
 453:FreeRTOS/test_Src/lcd.c ****   LCD_WriteReg(R26, 0x05);
 2089              		.loc 1 453 0
 2090 0038 1821     		movs	r1, #24
 2091 003a 2820     		movs	r0, #40
 2092 003c FFF7FEFF 		bl	LCD_WriteReg
 2093              	.LVL285:
 454:FreeRTOS/test_Src/lcd.c ****   LCD_WriteReg(R37, 0x05);
 2094              		.loc 1 454 0
 2095 0040 0521     		movs	r1, #5
 2096 0042 1A20     		movs	r0, #26
 2097 0044 FFF7FEFF 		bl	LCD_WriteReg
 2098              	.LVL286:
 455:FreeRTOS/test_Src/lcd.c ****   LCD_WriteReg(R25, 0x00);
 2099              		.loc 1 455 0
 2100 0048 0521     		movs	r1, #5
 2101 004a 2520     		movs	r0, #37
 2102 004c FFF7FEFF 		bl	LCD_WriteReg
 2103              	.LVL287:
 456:FreeRTOS/test_Src/lcd.c **** 
 2104              		.loc 1 456 0
 2105 0050 0021     		movs	r1, #0
 2106 0052 1920     		movs	r0, #25
 2107 0054 FFF7FEFF 		bl	LCD_WriteReg
 2108              	.LVL288:
 459:FreeRTOS/test_Src/lcd.c ****   LCD_WriteReg(R36, 0x74);
 2109              		.loc 1 459 0
 2110 0058 7321     		movs	r1, #115
ARM GAS  /var/folders/g9/bbpj86ld7fx45vd1b3pqxmp00000gn/T//cc4EjzoN.s 			page 65


 2111 005a 1C20     		movs	r0, #28
 2112 005c FFF7FEFF 		bl	LCD_WriteReg
 2113              	.LVL289:
 460:FreeRTOS/test_Src/lcd.c ****   LCD_WriteReg(R30, 0x01);
 2114              		.loc 1 460 0
 2115 0060 7421     		movs	r1, #116
 2116 0062 2420     		movs	r0, #36
 2117 0064 FFF7FEFF 		bl	LCD_WriteReg
 2118              	.LVL290:
 461:FreeRTOS/test_Src/lcd.c ****   LCD_WriteReg(R24, 0xC1);
 2119              		.loc 1 461 0
 2120 0068 0121     		movs	r1, #1
 2121 006a 1E20     		movs	r0, #30
 2122 006c FFF7FEFF 		bl	LCD_WriteReg
 2123              	.LVL291:
 462:FreeRTOS/test_Src/lcd.c ****   vTaskDelay( 10 / portTICK_PERIOD_MS ); /* Delay 10 ms */
 2124              		.loc 1 462 0
 2125 0070 C121     		movs	r1, #193
 2126 0072 1820     		movs	r0, #24
 2127 0074 FFF7FEFF 		bl	LCD_WriteReg
 2128              	.LVL292:
 463:FreeRTOS/test_Src/lcd.c ****   LCD_WriteReg(R24, 0xE1);
 2129              		.loc 1 463 0
 2130 0078 0A20     		movs	r0, #10
 2131 007a FFF7FEFF 		bl	vTaskDelay
 2132              	.LVL293:
 464:FreeRTOS/test_Src/lcd.c ****   LCD_WriteReg(R24, 0xF1);
 2133              		.loc 1 464 0
 2134 007e E121     		movs	r1, #225
 2135 0080 1820     		movs	r0, #24
 2136 0082 FFF7FEFF 		bl	LCD_WriteReg
 2137              	.LVL294:
 465:FreeRTOS/test_Src/lcd.c ****   vTaskDelay( 60 / portTICK_PERIOD_MS ); /* Delay 60 ms */
 2138              		.loc 1 465 0
 2139 0086 F121     		movs	r1, #241
 2140 0088 1820     		movs	r0, #24
 2141 008a FFF7FEFF 		bl	LCD_WriteReg
 2142              	.LVL295:
 466:FreeRTOS/test_Src/lcd.c ****   LCD_WriteReg(R24, 0xF5);
 2143              		.loc 1 466 0
 2144 008e 3C20     		movs	r0, #60
 2145 0090 FFF7FEFF 		bl	vTaskDelay
 2146              	.LVL296:
 467:FreeRTOS/test_Src/lcd.c ****   vTaskDelay( 60 / portTICK_PERIOD_MS ); /* Delay 60 ms */
 2147              		.loc 1 467 0
 2148 0094 F521     		movs	r1, #245
 2149 0096 1820     		movs	r0, #24
 2150 0098 FFF7FEFF 		bl	LCD_WriteReg
 2151              	.LVL297:
 468:FreeRTOS/test_Src/lcd.c ****   LCD_WriteReg(R27, 0x09);
 2152              		.loc 1 468 0
 2153 009c 3C20     		movs	r0, #60
 2154 009e FFF7FEFF 		bl	vTaskDelay
 2155              	.LVL298:
 469:FreeRTOS/test_Src/lcd.c ****   vTaskDelay( 10 / portTICK_PERIOD_MS ); /* Delay 10 ms */
 2156              		.loc 1 469 0
 2157 00a2 0921     		movs	r1, #9
ARM GAS  /var/folders/g9/bbpj86ld7fx45vd1b3pqxmp00000gn/T//cc4EjzoN.s 			page 66


 2158 00a4 1B20     		movs	r0, #27
 2159 00a6 FFF7FEFF 		bl	LCD_WriteReg
 2160              	.LVL299:
 470:FreeRTOS/test_Src/lcd.c ****   LCD_WriteReg(R31, 0x11);
 2161              		.loc 1 470 0
 2162 00aa 0A20     		movs	r0, #10
 2163 00ac FFF7FEFF 		bl	vTaskDelay
 2164              	.LVL300:
 471:FreeRTOS/test_Src/lcd.c ****   LCD_WriteReg(R32, 0x0E);
 2165              		.loc 1 471 0
 2166 00b0 1121     		movs	r1, #17
 2167 00b2 1F20     		movs	r0, #31
 2168 00b4 FFF7FEFF 		bl	LCD_WriteReg
 2169              	.LVL301:
 472:FreeRTOS/test_Src/lcd.c ****   LCD_WriteReg(R30, 0x81);
 2170              		.loc 1 472 0
 2171 00b8 0E21     		movs	r1, #14
 2172 00ba 2020     		movs	r0, #32
 2173 00bc FFF7FEFF 		bl	LCD_WriteReg
 2174              	.LVL302:
 473:FreeRTOS/test_Src/lcd.c ****   vTaskDelay( 10 / portTICK_PERIOD_MS ); /* Delay 10 ms */
 2175              		.loc 1 473 0
 2176 00c0 8121     		movs	r1, #129
 2177 00c2 1E20     		movs	r0, #30
 2178 00c4 FFF7FEFF 		bl	LCD_WriteReg
 2179              	.LVL303:
 474:FreeRTOS/test_Src/lcd.c **** 
 2180              		.loc 1 474 0
 2181 00c8 0A20     		movs	r0, #10
 2182 00ca FFF7FEFF 		bl	vTaskDelay
 2183              	.LVL304:
 477:FreeRTOS/test_Src/lcd.c ****   LCD_WriteReg(R192, 0x00);
 2184              		.loc 1 477 0
 2185 00ce 0021     		movs	r1, #0
 2186 00d0 9D20     		movs	r0, #157
 2187 00d2 FFF7FEFF 		bl	LCD_WriteReg
 2188              	.LVL305:
 478:FreeRTOS/test_Src/lcd.c **** 
 2189              		.loc 1 478 0
 2190 00d6 0021     		movs	r1, #0
 2191 00d8 C020     		movs	r0, #192
 2192 00da FFF7FEFF 		bl	LCD_WriteReg
 2193              	.LVL306:
 480:FreeRTOS/test_Src/lcd.c ****   LCD_WriteReg(R15, 0x00);
 2194              		.loc 1 480 0
 2195 00de 0021     		movs	r1, #0
 2196 00e0 0E20     		movs	r0, #14
 2197 00e2 FFF7FEFF 		bl	LCD_WriteReg
 2198              	.LVL307:
 481:FreeRTOS/test_Src/lcd.c ****   LCD_WriteReg(R16, 0x00);
 2199              		.loc 1 481 0
 2200 00e6 0021     		movs	r1, #0
 2201 00e8 0F20     		movs	r0, #15
 2202 00ea FFF7FEFF 		bl	LCD_WriteReg
 2203              	.LVL308:
 482:FreeRTOS/test_Src/lcd.c ****   LCD_WriteReg(R17, 0x00);
 2204              		.loc 1 482 0
ARM GAS  /var/folders/g9/bbpj86ld7fx45vd1b3pqxmp00000gn/T//cc4EjzoN.s 			page 67


 2205 00ee 0021     		movs	r1, #0
 2206 00f0 1020     		movs	r0, #16
 2207 00f2 FFF7FEFF 		bl	LCD_WriteReg
 2208              	.LVL309:
 483:FreeRTOS/test_Src/lcd.c ****   LCD_WriteReg(R18, 0x00);
 2209              		.loc 1 483 0
 2210 00f6 0021     		movs	r1, #0
 2211 00f8 1120     		movs	r0, #17
 2212 00fa FFF7FEFF 		bl	LCD_WriteReg
 2213              	.LVL310:
 484:FreeRTOS/test_Src/lcd.c ****   LCD_WriteReg(R19, 0x00);
 2214              		.loc 1 484 0
 2215 00fe 0021     		movs	r1, #0
 2216 0100 1220     		movs	r0, #18
 2217 0102 FFF7FEFF 		bl	LCD_WriteReg
 2218              	.LVL311:
 485:FreeRTOS/test_Src/lcd.c ****   LCD_WriteReg(R20, 0x00);
 2219              		.loc 1 485 0
 2220 0106 0021     		movs	r1, #0
 2221 0108 1320     		movs	r0, #19
 2222 010a FFF7FEFF 		bl	LCD_WriteReg
 2223              	.LVL312:
 486:FreeRTOS/test_Src/lcd.c ****   LCD_WriteReg(R21, 0x00);
 2224              		.loc 1 486 0
 2225 010e 0021     		movs	r1, #0
 2226 0110 1420     		movs	r0, #20
 2227 0112 FFF7FEFF 		bl	LCD_WriteReg
 2228              	.LVL313:
 487:FreeRTOS/test_Src/lcd.c ****   LCD_WriteReg(R22, 0x00);
 2229              		.loc 1 487 0
 2230 0116 0021     		movs	r1, #0
 2231 0118 1520     		movs	r0, #21
 2232 011a FFF7FEFF 		bl	LCD_WriteReg
 2233              	.LVL314:
 488:FreeRTOS/test_Src/lcd.c ****   LCD_WriteReg(R23, 0x00);
 2234              		.loc 1 488 0
 2235 011e 0021     		movs	r1, #0
 2236 0120 1620     		movs	r0, #22
 2237 0122 FFF7FEFF 		bl	LCD_WriteReg
 2238              	.LVL315:
 489:FreeRTOS/test_Src/lcd.c **** 
 2239              		.loc 1 489 0
 2240 0126 0021     		movs	r1, #0
 2241 0128 1720     		movs	r0, #23
 2242 012a FFF7FEFF 		bl	LCD_WriteReg
 2243              	.LVL316:
 491:FreeRTOS/test_Src/lcd.c ****   LCD_WriteReg(R53, 0x00);
 2244              		.loc 1 491 0
 2245 012e 0121     		movs	r1, #1
 2246 0130 3420     		movs	r0, #52
 2247 0132 FFF7FEFF 		bl	LCD_WriteReg
 2248              	.LVL317:
 492:FreeRTOS/test_Src/lcd.c **** 
 2249              		.loc 1 492 0
 2250 0136 0021     		movs	r1, #0
 2251 0138 3520     		movs	r0, #53
 2252 013a FFF7FEFF 		bl	LCD_WriteReg
ARM GAS  /var/folders/g9/bbpj86ld7fx45vd1b3pqxmp00000gn/T//cc4EjzoN.s 			page 68


 2253              	.LVL318:
 494:FreeRTOS/test_Src/lcd.c ****   LCD_WriteReg(R76, 0x00);
 2254              		.loc 1 494 0
 2255 013e 0021     		movs	r1, #0
 2256 0140 4B20     		movs	r0, #75
 2257 0142 FFF7FEFF 		bl	LCD_WriteReg
 2258              	.LVL319:
 495:FreeRTOS/test_Src/lcd.c ****   LCD_WriteReg(R78, 0x00);
 2259              		.loc 1 495 0
 2260 0146 0021     		movs	r1, #0
 2261 0148 4C20     		movs	r0, #76
 2262 014a FFF7FEFF 		bl	LCD_WriteReg
 2263              	.LVL320:
 496:FreeRTOS/test_Src/lcd.c ****   LCD_WriteReg(R79, 0x00);
 2264              		.loc 1 496 0
 2265 014e 0021     		movs	r1, #0
 2266 0150 4E20     		movs	r0, #78
 2267 0152 FFF7FEFF 		bl	LCD_WriteReg
 2268              	.LVL321:
 497:FreeRTOS/test_Src/lcd.c ****   LCD_WriteReg(R80, 0x00);
 2269              		.loc 1 497 0
 2270 0156 0021     		movs	r1, #0
 2271 0158 4F20     		movs	r0, #79
 2272 015a FFF7FEFF 		bl	LCD_WriteReg
 2273              	.LVL322:
 498:FreeRTOS/test_Src/lcd.c **** 
 2274              		.loc 1 498 0
 2275 015e 0021     		movs	r1, #0
 2276 0160 5020     		movs	r0, #80
 2277 0162 FFF7FEFF 		bl	LCD_WriteReg
 2278              	.LVL323:
 500:FreeRTOS/test_Src/lcd.c ****   LCD_WriteReg(R61, 0x00);
 2279              		.loc 1 500 0
 2280 0166 0021     		movs	r1, #0
 2281 0168 3C20     		movs	r0, #60
 2282 016a FFF7FEFF 		bl	LCD_WriteReg
 2283              	.LVL324:
 501:FreeRTOS/test_Src/lcd.c ****   LCD_WriteReg(R62, 0x01);
 2284              		.loc 1 501 0
 2285 016e 0021     		movs	r1, #0
 2286 0170 3D20     		movs	r0, #61
 2287 0172 FFF7FEFF 		bl	LCD_WriteReg
 2288              	.LVL325:
 502:FreeRTOS/test_Src/lcd.c ****   LCD_WriteReg(R63, 0x3F);
 2289              		.loc 1 502 0
 2290 0176 0121     		movs	r1, #1
 2291 0178 3E20     		movs	r0, #62
 2292 017a FFF7FEFF 		bl	LCD_WriteReg
 2293              	.LVL326:
 503:FreeRTOS/test_Src/lcd.c ****   LCD_WriteReg(R64, 0x02);
 2294              		.loc 1 503 0
 2295 017e 3F21     		movs	r1, #63
 2296 0180 0846     		mov	r0, r1
 2297 0182 FFF7FEFF 		bl	LCD_WriteReg
 2298              	.LVL327:
 504:FreeRTOS/test_Src/lcd.c ****   LCD_WriteReg(R65, 0x02);
 2299              		.loc 1 504 0
ARM GAS  /var/folders/g9/bbpj86ld7fx45vd1b3pqxmp00000gn/T//cc4EjzoN.s 			page 69


 2300 0186 0221     		movs	r1, #2
 2301 0188 4020     		movs	r0, #64
 2302 018a FFF7FEFF 		bl	LCD_WriteReg
 2303              	.LVL328:
 505:FreeRTOS/test_Src/lcd.c ****   LCD_WriteReg(R66, 0x00);
 2304              		.loc 1 505 0
 2305 018e 0221     		movs	r1, #2
 2306 0190 4120     		movs	r0, #65
 2307 0192 FFF7FEFF 		bl	LCD_WriteReg
 2308              	.LVL329:
 506:FreeRTOS/test_Src/lcd.c ****   LCD_WriteReg(R67, 0x00);
 2309              		.loc 1 506 0
 2310 0196 0021     		movs	r1, #0
 2311 0198 4220     		movs	r0, #66
 2312 019a FFF7FEFF 		bl	LCD_WriteReg
 2313              	.LVL330:
 507:FreeRTOS/test_Src/lcd.c ****   LCD_WriteReg(R68, 0x00);
 2314              		.loc 1 507 0
 2315 019e 0021     		movs	r1, #0
 2316 01a0 4320     		movs	r0, #67
 2317 01a2 FFF7FEFF 		bl	LCD_WriteReg
 2318              	.LVL331:
 508:FreeRTOS/test_Src/lcd.c ****   LCD_WriteReg(R69, 0x00);
 2319              		.loc 1 508 0
 2320 01a6 0021     		movs	r1, #0
 2321 01a8 4420     		movs	r0, #68
 2322 01aa FFF7FEFF 		bl	LCD_WriteReg
 2323              	.LVL332:
 509:FreeRTOS/test_Src/lcd.c ****   LCD_WriteReg(R70, 0xEF);
 2324              		.loc 1 509 0
 2325 01ae 0021     		movs	r1, #0
 2326 01b0 4520     		movs	r0, #69
 2327 01b2 FFF7FEFF 		bl	LCD_WriteReg
 2328              	.LVL333:
 510:FreeRTOS/test_Src/lcd.c ****   LCD_WriteReg(R71, 0x00);
 2329              		.loc 1 510 0
 2330 01b6 EF21     		movs	r1, #239
 2331 01b8 4620     		movs	r0, #70
 2332 01ba FFF7FEFF 		bl	LCD_WriteReg
 2333              	.LVL334:
 511:FreeRTOS/test_Src/lcd.c ****   LCD_WriteReg(R72, 0x00);
 2334              		.loc 1 511 0
 2335 01be 0021     		movs	r1, #0
 2336 01c0 4720     		movs	r0, #71
 2337 01c2 FFF7FEFF 		bl	LCD_WriteReg
 2338              	.LVL335:
 512:FreeRTOS/test_Src/lcd.c ****   LCD_WriteReg(R73, 0x01);
 2339              		.loc 1 512 0
 2340 01c6 0021     		movs	r1, #0
 2341 01c8 4820     		movs	r0, #72
 2342 01ca FFF7FEFF 		bl	LCD_WriteReg
 2343              	.LVL336:
 513:FreeRTOS/test_Src/lcd.c ****   LCD_WriteReg(R74, 0x3F);
 2344              		.loc 1 513 0
 2345 01ce 0121     		movs	r1, #1
 2346 01d0 4920     		movs	r0, #73
 2347 01d2 FFF7FEFF 		bl	LCD_WriteReg
ARM GAS  /var/folders/g9/bbpj86ld7fx45vd1b3pqxmp00000gn/T//cc4EjzoN.s 			page 70


 2348              	.LVL337:
 514:FreeRTOS/test_Src/lcd.c **** 
 2349              		.loc 1 514 0
 2350 01d6 3F21     		movs	r1, #63
 2351 01d8 4A20     		movs	r0, #74
 2352 01da FFF7FEFF 		bl	LCD_WriteReg
 2353              	.LVL338:
 516:FreeRTOS/test_Src/lcd.c **** 
 2354              		.loc 1 516 0
 2355 01de 0821     		movs	r1, #8
 2356 01e0 1D20     		movs	r0, #29
 2357 01e2 FFF7FEFF 		bl	LCD_WriteReg
 2358              	.LVL339:
 518:FreeRTOS/test_Src/lcd.c ****   LCD_WriteReg(R135, 0x30);
 2359              		.loc 1 518 0
 2360 01e6 0021     		movs	r1, #0
 2361 01e8 8620     		movs	r0, #134
 2362 01ea FFF7FEFF 		bl	LCD_WriteReg
 2363              	.LVL340:
 519:FreeRTOS/test_Src/lcd.c ****   LCD_WriteReg(R136, 0x02);
 2364              		.loc 1 519 0
 2365 01ee 3021     		movs	r1, #48
 2366 01f0 8720     		movs	r0, #135
 2367 01f2 FFF7FEFF 		bl	LCD_WriteReg
 2368              	.LVL341:
 520:FreeRTOS/test_Src/lcd.c ****   LCD_WriteReg(R137, 0x05);
 2369              		.loc 1 520 0
 2370 01f6 0221     		movs	r1, #2
 2371 01f8 8820     		movs	r0, #136
 2372 01fa FFF7FEFF 		bl	LCD_WriteReg
 2373              	.LVL342:
 521:FreeRTOS/test_Src/lcd.c **** 
 2374              		.loc 1 521 0
 2375 01fe 0521     		movs	r1, #5
 2376 0200 8920     		movs	r0, #137
 2377 0202 FFF7FEFF 		bl	LCD_WriteReg
 2378              	.LVL343:
 523:FreeRTOS/test_Src/lcd.c ****   LCD_WriteReg(R139, 0x20);  /* R139:One line SYSCLK number in one-line */
 2379              		.loc 1 523 0
 2380 0206 0121     		movs	r1, #1
 2381 0208 8D20     		movs	r0, #141
 2382 020a FFF7FEFF 		bl	LCD_WriteReg
 2383              	.LVL344:
 524:FreeRTOS/test_Src/lcd.c ****   LCD_WriteReg(R51, 0x01);  /* R51:N line inversion setting */
 2384              		.loc 1 524 0
 2385 020e 2021     		movs	r1, #32
 2386 0210 8B20     		movs	r0, #139
 2387 0212 FFF7FEFF 		bl	LCD_WriteReg
 2388              	.LVL345:
 525:FreeRTOS/test_Src/lcd.c ****   LCD_WriteReg(R55, 0x01);  /* R55:Scanning method setting */
 2389              		.loc 1 525 0
 2390 0216 0121     		movs	r1, #1
 2391 0218 3320     		movs	r0, #51
 2392 021a FFF7FEFF 		bl	LCD_WriteReg
 2393              	.LVL346:
 526:FreeRTOS/test_Src/lcd.c ****   LCD_WriteReg(R118, 0x00);
 2394              		.loc 1 526 0
ARM GAS  /var/folders/g9/bbpj86ld7fx45vd1b3pqxmp00000gn/T//cc4EjzoN.s 			page 71


 2395 021e 0121     		movs	r1, #1
 2396 0220 3720     		movs	r0, #55
 2397 0222 FFF7FEFF 		bl	LCD_WriteReg
 2398              	.LVL347:
 527:FreeRTOS/test_Src/lcd.c **** 
 2399              		.loc 1 527 0
 2400 0226 0021     		movs	r1, #0
 2401 0228 7620     		movs	r0, #118
 2402 022a FFF7FEFF 		bl	LCD_WriteReg
 2403              	.LVL348:
 530:FreeRTOS/test_Src/lcd.c ****   LCD_WriteReg(R144, 0x67);
 2404              		.loc 1 530 0
 2405 022e 1021     		movs	r1, #16
 2406 0230 8F20     		movs	r0, #143
 2407 0232 FFF7FEFF 		bl	LCD_WriteReg
 2408              	.LVL349:
 531:FreeRTOS/test_Src/lcd.c ****   LCD_WriteReg(R145, 0x07);
 2409              		.loc 1 531 0
 2410 0236 6721     		movs	r1, #103
 2411 0238 9020     		movs	r0, #144
 2412 023a FFF7FEFF 		bl	LCD_WriteReg
 2413              	.LVL350:
 532:FreeRTOS/test_Src/lcd.c ****   LCD_WriteReg(R146, 0x65);
 2414              		.loc 1 532 0
 2415 023e 0721     		movs	r1, #7
 2416 0240 9120     		movs	r0, #145
 2417 0242 FFF7FEFF 		bl	LCD_WriteReg
 2418              	.LVL351:
 533:FreeRTOS/test_Src/lcd.c ****   LCD_WriteReg(R147, 0x07);
 2419              		.loc 1 533 0
 2420 0246 6521     		movs	r1, #101
 2421 0248 9220     		movs	r0, #146
 2422 024a FFF7FEFF 		bl	LCD_WriteReg
 2423              	.LVL352:
 534:FreeRTOS/test_Src/lcd.c ****   LCD_WriteReg(R148, 0x01);
 2424              		.loc 1 534 0
 2425 024e 0721     		movs	r1, #7
 2426 0250 9320     		movs	r0, #147
 2427 0252 FFF7FEFF 		bl	LCD_WriteReg
 2428              	.LVL353:
 535:FreeRTOS/test_Src/lcd.c ****   LCD_WriteReg(R149, 0x76);
 2429              		.loc 1 535 0
 2430 0256 0121     		movs	r1, #1
 2431 0258 9420     		movs	r0, #148
 2432 025a FFF7FEFF 		bl	LCD_WriteReg
 2433              	.LVL354:
 536:FreeRTOS/test_Src/lcd.c ****   LCD_WriteReg(R150, 0x56);
 2434              		.loc 1 536 0
 2435 025e 7621     		movs	r1, #118
 2436 0260 9520     		movs	r0, #149
 2437 0262 FFF7FEFF 		bl	LCD_WriteReg
 2438              	.LVL355:
 537:FreeRTOS/test_Src/lcd.c ****   LCD_WriteReg(R151, 0x00);
 2439              		.loc 1 537 0
 2440 0266 5621     		movs	r1, #86
 2441 0268 9620     		movs	r0, #150
 2442 026a FFF7FEFF 		bl	LCD_WriteReg
ARM GAS  /var/folders/g9/bbpj86ld7fx45vd1b3pqxmp00000gn/T//cc4EjzoN.s 			page 72


 2443              	.LVL356:
 538:FreeRTOS/test_Src/lcd.c ****   LCD_WriteReg(R152, 0x06);
 2444              		.loc 1 538 0
 2445 026e 0021     		movs	r1, #0
 2446 0270 9720     		movs	r0, #151
 2447 0272 FFF7FEFF 		bl	LCD_WriteReg
 2448              	.LVL357:
 539:FreeRTOS/test_Src/lcd.c ****   LCD_WriteReg(R153, 0x03);
 2449              		.loc 1 539 0
 2450 0276 0621     		movs	r1, #6
 2451 0278 9820     		movs	r0, #152
 2452 027a FFF7FEFF 		bl	LCD_WriteReg
 2453              	.LVL358:
 540:FreeRTOS/test_Src/lcd.c ****   LCD_WriteReg(R154, 0x00);
 2454              		.loc 1 540 0
 2455 027e 0321     		movs	r1, #3
 2456 0280 9920     		movs	r0, #153
 2457 0282 FFF7FEFF 		bl	LCD_WriteReg
 2458              	.LVL359:
 541:FreeRTOS/test_Src/lcd.c **** 
 2459              		.loc 1 541 0
 2460 0286 0021     		movs	r1, #0
 2461 0288 9A20     		movs	r0, #154
 2462 028a FFF7FEFF 		bl	LCD_WriteReg
 2463              	.LVL360:
 544:FreeRTOS/test_Src/lcd.c ****   LCD_WriteReg(R5, 0x04);
 2464              		.loc 1 544 0
 2465 028e 5021     		movs	r1, #80
 2466 0290 0120     		movs	r0, #1
 2467 0292 FFF7FEFF 		bl	LCD_WriteReg
 2468              	.LVL361:
 545:FreeRTOS/test_Src/lcd.c **** 
 2469              		.loc 1 545 0
 2470 0296 0421     		movs	r1, #4
 2471 0298 0520     		movs	r0, #5
 2472 029a FFF7FEFF 		bl	LCD_WriteReg
 2473              	.LVL362:
 547:FreeRTOS/test_Src/lcd.c ****   LCD_WriteReg(R59, 0x01);
 2474              		.loc 1 547 0
 2475 029e 8021     		movs	r1, #128
 2476 02a0 0020     		movs	r0, #0
 2477 02a2 FFF7FEFF 		bl	LCD_WriteReg
 2478              	.LVL363:
 548:FreeRTOS/test_Src/lcd.c ****   vTaskDelay( 40 / portTICK_PERIOD_MS );  /* Delay 40 ms */
 2479              		.loc 1 548 0
 2480 02a6 0121     		movs	r1, #1
 2481 02a8 3B20     		movs	r0, #59
 2482 02aa FFF7FEFF 		bl	LCD_WriteReg
 2483              	.LVL364:
 549:FreeRTOS/test_Src/lcd.c ****   LCD_WriteReg(R0, 0x20);
 2484              		.loc 1 549 0
 2485 02ae 2820     		movs	r0, #40
 2486 02b0 FFF7FEFF 		bl	vTaskDelay
 2487              	.LVL365:
 550:FreeRTOS/test_Src/lcd.c **** }
 2488              		.loc 1 550 0
 2489 02b4 2021     		movs	r1, #32
ARM GAS  /var/folders/g9/bbpj86ld7fx45vd1b3pqxmp00000gn/T//cc4EjzoN.s 			page 73


 2490 02b6 0020     		movs	r0, #0
 2491 02b8 FFF7FEFF 		bl	LCD_WriteReg
 2492              	.LVL366:
 2493 02bc 08BD     		pop	{r3, pc}
 2494              		.cfi_endproc
 2495              	.LFE32:
 2497              		.global	ASCII_Table
 2498 02be 00BF     		.section	.rodata.ASCII_Table,"a",%progbits
 2499              		.align	2
 2500              		.set	.LANCHOR2,. + 0
 2503              	ASCII_Table:
 2504 0000 0000     		.short	0
 2505 0002 0000     		.short	0
 2506 0004 0000     		.short	0
 2507 0006 0000     		.short	0
 2508 0008 0000     		.short	0
 2509 000a 0000     		.short	0
 2510 000c 0000     		.short	0
 2511 000e 0000     		.short	0
 2512 0010 0000     		.short	0
 2513 0012 0000     		.short	0
 2514 0014 0000     		.short	0
 2515 0016 0000     		.short	0
 2516 0018 0000     		.short	0
 2517 001a 0000     		.short	0
 2518 001c 0000     		.short	0
 2519 001e 0000     		.short	0
 2520 0020 0000     		.short	0
 2521 0022 0000     		.short	0
 2522 0024 0000     		.short	0
 2523 0026 0000     		.short	0
 2524 0028 0000     		.short	0
 2525 002a 0000     		.short	0
 2526 002c 0000     		.short	0
 2527 002e 0000     		.short	0
 2528 0030 0000     		.short	0
 2529 0032 8001     		.short	384
 2530 0034 8001     		.short	384
 2531 0036 8001     		.short	384
 2532 0038 8001     		.short	384
 2533 003a 8001     		.short	384
 2534 003c 8001     		.short	384
 2535 003e 8001     		.short	384
 2536 0040 8001     		.short	384
 2537 0042 8001     		.short	384
 2538 0044 8001     		.short	384
 2539 0046 8001     		.short	384
 2540 0048 8001     		.short	384
 2541 004a 8001     		.short	384
 2542 004c 0000     		.short	0
 2543 004e 0000     		.short	0
 2544 0050 8001     		.short	384
 2545 0052 8001     		.short	384
 2546 0054 0000     		.short	0
 2547 0056 0000     		.short	0
 2548 0058 0000     		.short	0
 2549 005a 0000     		.short	0
ARM GAS  /var/folders/g9/bbpj86ld7fx45vd1b3pqxmp00000gn/T//cc4EjzoN.s 			page 74


 2550 005c 0000     		.short	0
 2551 005e 0000     		.short	0
 2552 0060 0000     		.short	0
 2553 0062 0000     		.short	0
 2554 0064 CC00     		.short	204
 2555 0066 CC00     		.short	204
 2556 0068 CC00     		.short	204
 2557 006a CC00     		.short	204
 2558 006c CC00     		.short	204
 2559 006e CC00     		.short	204
 2560 0070 0000     		.short	0
 2561 0072 0000     		.short	0
 2562 0074 0000     		.short	0
 2563 0076 0000     		.short	0
 2564 0078 0000     		.short	0
 2565 007a 0000     		.short	0
 2566 007c 0000     		.short	0
 2567 007e 0000     		.short	0
 2568 0080 0000     		.short	0
 2569 0082 0000     		.short	0
 2570 0084 0000     		.short	0
 2571 0086 0000     		.short	0
 2572 0088 0000     		.short	0
 2573 008a 0000     		.short	0
 2574 008c 0000     		.short	0
 2575 008e 0000     		.short	0
 2576 0090 0000     		.short	0
 2577 0092 0000     		.short	0
 2578 0094 0000     		.short	0
 2579 0096 0000     		.short	0
 2580 0098 0000     		.short	0
 2581 009a 0000     		.short	0
 2582 009c 600C     		.short	3168
 2583 009e 600C     		.short	3168
 2584 00a0 600C     		.short	3168
 2585 00a2 3006     		.short	1584
 2586 00a4 3006     		.short	1584
 2587 00a6 FE1F     		.short	8190
 2588 00a8 FE1F     		.short	8190
 2589 00aa 3006     		.short	1584
 2590 00ac 3807     		.short	1848
 2591 00ae 1803     		.short	792
 2592 00b0 FE1F     		.short	8190
 2593 00b2 FE1F     		.short	8190
 2594 00b4 1803     		.short	792
 2595 00b6 1803     		.short	792
 2596 00b8 8C01     		.short	396
 2597 00ba 8C01     		.short	396
 2598 00bc 8C01     		.short	396
 2599 00be 0000     		.short	0
 2600 00c0 0000     		.short	0
 2601 00c2 8000     		.short	128
 2602 00c4 E003     		.short	992
 2603 00c6 F80F     		.short	4088
 2604 00c8 9C0E     		.short	3740
 2605 00ca 8C1C     		.short	7308
 2606 00cc 8C18     		.short	6284
ARM GAS  /var/folders/g9/bbpj86ld7fx45vd1b3pqxmp00000gn/T//cc4EjzoN.s 			page 75


 2607 00ce 8C00     		.short	140
 2608 00d0 9800     		.short	152
 2609 00d2 F801     		.short	504
 2610 00d4 E007     		.short	2016
 2611 00d6 800E     		.short	3712
 2612 00d8 801C     		.short	7296
 2613 00da 8C18     		.short	6284
 2614 00dc 8C18     		.short	6284
 2615 00de 9C18     		.short	6300
 2616 00e0 B80C     		.short	3256
 2617 00e2 F00F     		.short	4080
 2618 00e4 E003     		.short	992
 2619 00e6 8000     		.short	128
 2620 00e8 8000     		.short	128
 2621 00ea 0000     		.short	0
 2622 00ec 0000     		.short	0
 2623 00ee 0000     		.short	0
 2624 00f0 0000     		.short	0
 2625 00f2 0000     		.short	0
 2626 00f4 0000     		.short	0
 2627 00f6 0E18     		.short	6158
 2628 00f8 1B0C     		.short	3099
 2629 00fa 110C     		.short	3089
 2630 00fc 1106     		.short	1553
 2631 00fe 1106     		.short	1553
 2632 0100 1103     		.short	785
 2633 0102 1103     		.short	785
 2634 0104 9B01     		.short	411
 2635 0106 8E01     		.short	398
 2636 0108 C038     		.short	14528
 2637 010a C06C     		.short	27840
 2638 010c 6044     		.short	17504
 2639 010e 6044     		.short	17504
 2640 0110 3044     		.short	17456
 2641 0112 3044     		.short	17456
 2642 0114 1844     		.short	17432
 2643 0116 186C     		.short	27672
 2644 0118 0C38     		.short	14348
 2645 011a 0000     		.short	0
 2646 011c 0000     		.short	0
 2647 011e 0000     		.short	0
 2648 0120 0000     		.short	0
 2649 0122 E001     		.short	480
 2650 0124 F003     		.short	1008
 2651 0126 3807     		.short	1848
 2652 0128 1806     		.short	1560
 2653 012a 1806     		.short	1560
 2654 012c 3003     		.short	816
 2655 012e F001     		.short	496
 2656 0130 F000     		.short	240
 2657 0132 F800     		.short	248
 2658 0134 9C31     		.short	12700
 2659 0136 0E33     		.short	13070
 2660 0138 061E     		.short	7686
 2661 013a 061C     		.short	7174
 2662 013c 061C     		.short	7174
 2663 013e 063F     		.short	16134
ARM GAS  /var/folders/g9/bbpj86ld7fx45vd1b3pqxmp00000gn/T//cc4EjzoN.s 			page 76


 2664 0140 FC73     		.short	29692
 2665 0142 F021     		.short	8688
 2666 0144 0000     		.short	0
 2667 0146 0000     		.short	0
 2668 0148 0000     		.short	0
 2669 014a 0000     		.short	0
 2670 014c 0000     		.short	0
 2671 014e 0000     		.short	0
 2672 0150 0000     		.short	0
 2673 0152 0000     		.short	0
 2674 0154 0C00     		.short	12
 2675 0156 0C00     		.short	12
 2676 0158 0C00     		.short	12
 2677 015a 0C00     		.short	12
 2678 015c 0C00     		.short	12
 2679 015e 0C00     		.short	12
 2680 0160 0000     		.short	0
 2681 0162 0000     		.short	0
 2682 0164 0000     		.short	0
 2683 0166 0000     		.short	0
 2684 0168 0000     		.short	0
 2685 016a 0000     		.short	0
 2686 016c 0000     		.short	0
 2687 016e 0000     		.short	0
 2688 0170 0000     		.short	0
 2689 0172 0000     		.short	0
 2690 0174 0000     		.short	0
 2691 0176 0000     		.short	0
 2692 0178 0000     		.short	0
 2693 017a 0000     		.short	0
 2694 017c 0000     		.short	0
 2695 017e 0000     		.short	0
 2696 0180 0000     		.short	0
 2697 0182 0002     		.short	512
 2698 0184 0003     		.short	768
 2699 0186 8001     		.short	384
 2700 0188 C000     		.short	192
 2701 018a C000     		.short	192
 2702 018c 6000     		.short	96
 2703 018e 6000     		.short	96
 2704 0190 3000     		.short	48
 2705 0192 3000     		.short	48
 2706 0194 3000     		.short	48
 2707 0196 3000     		.short	48
 2708 0198 3000     		.short	48
 2709 019a 3000     		.short	48
 2710 019c 3000     		.short	48
 2711 019e 3000     		.short	48
 2712 01a0 6000     		.short	96
 2713 01a2 6000     		.short	96
 2714 01a4 C000     		.short	192
 2715 01a6 C000     		.short	192
 2716 01a8 8001     		.short	384
 2717 01aa 0003     		.short	768
 2718 01ac 0002     		.short	512
 2719 01ae 0000     		.short	0
 2720 01b0 0000     		.short	0
ARM GAS  /var/folders/g9/bbpj86ld7fx45vd1b3pqxmp00000gn/T//cc4EjzoN.s 			page 77


 2721 01b2 2000     		.short	32
 2722 01b4 6000     		.short	96
 2723 01b6 C000     		.short	192
 2724 01b8 8001     		.short	384
 2725 01ba 8001     		.short	384
 2726 01bc 0003     		.short	768
 2727 01be 0003     		.short	768
 2728 01c0 0006     		.short	1536
 2729 01c2 0006     		.short	1536
 2730 01c4 0006     		.short	1536
 2731 01c6 0006     		.short	1536
 2732 01c8 0006     		.short	1536
 2733 01ca 0006     		.short	1536
 2734 01cc 0006     		.short	1536
 2735 01ce 0006     		.short	1536
 2736 01d0 0003     		.short	768
 2737 01d2 0003     		.short	768
 2738 01d4 8001     		.short	384
 2739 01d6 8001     		.short	384
 2740 01d8 C000     		.short	192
 2741 01da 6000     		.short	96
 2742 01dc 2000     		.short	32
 2743 01de 0000     		.short	0
 2744 01e0 0000     		.short	0
 2745 01e2 0000     		.short	0
 2746 01e4 0000     		.short	0
 2747 01e6 0000     		.short	0
 2748 01e8 0000     		.short	0
 2749 01ea 0000     		.short	0
 2750 01ec C000     		.short	192
 2751 01ee C000     		.short	192
 2752 01f0 D806     		.short	1752
 2753 01f2 F807     		.short	2040
 2754 01f4 E001     		.short	480
 2755 01f6 3003     		.short	816
 2756 01f8 3807     		.short	1848
 2757 01fa 0000     		.short	0
 2758 01fc 0000     		.short	0
 2759 01fe 0000     		.short	0
 2760 0200 0000     		.short	0
 2761 0202 0000     		.short	0
 2762 0204 0000     		.short	0
 2763 0206 0000     		.short	0
 2764 0208 0000     		.short	0
 2765 020a 0000     		.short	0
 2766 020c 0000     		.short	0
 2767 020e 0000     		.short	0
 2768 0210 0000     		.short	0
 2769 0212 0000     		.short	0
 2770 0214 0000     		.short	0
 2771 0216 0000     		.short	0
 2772 0218 0000     		.short	0
 2773 021a 0000     		.short	0
 2774 021c 8001     		.short	384
 2775 021e 8001     		.short	384
 2776 0220 8001     		.short	384
 2777 0222 8001     		.short	384
ARM GAS  /var/folders/g9/bbpj86ld7fx45vd1b3pqxmp00000gn/T//cc4EjzoN.s 			page 78


 2778 0224 8001     		.short	384
 2779 0226 FC3F     		.short	16380
 2780 0228 FC3F     		.short	16380
 2781 022a 8001     		.short	384
 2782 022c 8001     		.short	384
 2783 022e 8001     		.short	384
 2784 0230 8001     		.short	384
 2785 0232 8001     		.short	384
 2786 0234 0000     		.short	0
 2787 0236 0000     		.short	0
 2788 0238 0000     		.short	0
 2789 023a 0000     		.short	0
 2790 023c 0000     		.short	0
 2791 023e 0000     		.short	0
 2792 0240 0000     		.short	0
 2793 0242 0000     		.short	0
 2794 0244 0000     		.short	0
 2795 0246 0000     		.short	0
 2796 0248 0000     		.short	0
 2797 024a 0000     		.short	0
 2798 024c 0000     		.short	0
 2799 024e 0000     		.short	0
 2800 0250 0000     		.short	0
 2801 0252 0000     		.short	0
 2802 0254 0000     		.short	0
 2803 0256 0000     		.short	0
 2804 0258 0000     		.short	0
 2805 025a 0000     		.short	0
 2806 025c 0000     		.short	0
 2807 025e 0000     		.short	0
 2808 0260 0000     		.short	0
 2809 0262 8001     		.short	384
 2810 0264 8001     		.short	384
 2811 0266 0001     		.short	256
 2812 0268 0001     		.short	256
 2813 026a 8000     		.short	128
 2814 026c 0000     		.short	0
 2815 026e 0000     		.short	0
 2816 0270 0000     		.short	0
 2817 0272 0000     		.short	0
 2818 0274 0000     		.short	0
 2819 0276 0000     		.short	0
 2820 0278 0000     		.short	0
 2821 027a 0000     		.short	0
 2822 027c 0000     		.short	0
 2823 027e 0000     		.short	0
 2824 0280 0000     		.short	0
 2825 0282 0000     		.short	0
 2826 0284 0000     		.short	0
 2827 0286 0000     		.short	0
 2828 0288 E007     		.short	2016
 2829 028a E007     		.short	2016
 2830 028c 0000     		.short	0
 2831 028e 0000     		.short	0
 2832 0290 0000     		.short	0
 2833 0292 0000     		.short	0
 2834 0294 0000     		.short	0
ARM GAS  /var/folders/g9/bbpj86ld7fx45vd1b3pqxmp00000gn/T//cc4EjzoN.s 			page 79


 2835 0296 0000     		.short	0
 2836 0298 0000     		.short	0
 2837 029a 0000     		.short	0
 2838 029c 0000     		.short	0
 2839 029e 0000     		.short	0
 2840 02a0 0000     		.short	0
 2841 02a2 0000     		.short	0
 2842 02a4 0000     		.short	0
 2843 02a6 0000     		.short	0
 2844 02a8 0000     		.short	0
 2845 02aa 0000     		.short	0
 2846 02ac 0000     		.short	0
 2847 02ae 0000     		.short	0
 2848 02b0 0000     		.short	0
 2849 02b2 0000     		.short	0
 2850 02b4 0000     		.short	0
 2851 02b6 0000     		.short	0
 2852 02b8 0000     		.short	0
 2853 02ba 0000     		.short	0
 2854 02bc 0000     		.short	0
 2855 02be 0000     		.short	0
 2856 02c0 0000     		.short	0
 2857 02c2 C000     		.short	192
 2858 02c4 C000     		.short	192
 2859 02c6 0000     		.short	0
 2860 02c8 0000     		.short	0
 2861 02ca 0000     		.short	0
 2862 02cc 0000     		.short	0
 2863 02ce 0000     		.short	0
 2864 02d0 0000     		.short	0
 2865 02d2 000C     		.short	3072
 2866 02d4 000C     		.short	3072
 2867 02d6 0006     		.short	1536
 2868 02d8 0006     		.short	1536
 2869 02da 0006     		.short	1536
 2870 02dc 0003     		.short	768
 2871 02de 0003     		.short	768
 2872 02e0 0003     		.short	768
 2873 02e2 8003     		.short	896
 2874 02e4 8001     		.short	384
 2875 02e6 8001     		.short	384
 2876 02e8 8001     		.short	384
 2877 02ea C000     		.short	192
 2878 02ec C000     		.short	192
 2879 02ee C000     		.short	192
 2880 02f0 6000     		.short	96
 2881 02f2 6000     		.short	96
 2882 02f4 0000     		.short	0
 2883 02f6 0000     		.short	0
 2884 02f8 0000     		.short	0
 2885 02fa 0000     		.short	0
 2886 02fc 0000     		.short	0
 2887 02fe 0000     		.short	0
 2888 0300 0000     		.short	0
 2889 0302 E003     		.short	992
 2890 0304 F007     		.short	2032
 2891 0306 380E     		.short	3640
ARM GAS  /var/folders/g9/bbpj86ld7fx45vd1b3pqxmp00000gn/T//cc4EjzoN.s 			page 80


 2892 0308 180C     		.short	3096
 2893 030a 0C18     		.short	6156
 2894 030c 0C18     		.short	6156
 2895 030e 0C18     		.short	6156
 2896 0310 0C18     		.short	6156
 2897 0312 0C18     		.short	6156
 2898 0314 0C18     		.short	6156
 2899 0316 0C18     		.short	6156
 2900 0318 0C18     		.short	6156
 2901 031a 0C18     		.short	6156
 2902 031c 180C     		.short	3096
 2903 031e 380E     		.short	3640
 2904 0320 F007     		.short	2032
 2905 0322 E003     		.short	992
 2906 0324 0000     		.short	0
 2907 0326 0000     		.short	0
 2908 0328 0000     		.short	0
 2909 032a 0000     		.short	0
 2910 032c 0000     		.short	0
 2911 032e 0000     		.short	0
 2912 0330 0000     		.short	0
 2913 0332 0001     		.short	256
 2914 0334 8001     		.short	384
 2915 0336 C001     		.short	448
 2916 0338 F001     		.short	496
 2917 033a 9801     		.short	408
 2918 033c 8801     		.short	392
 2919 033e 8001     		.short	384
 2920 0340 8001     		.short	384
 2921 0342 8001     		.short	384
 2922 0344 8001     		.short	384
 2923 0346 8001     		.short	384
 2924 0348 8001     		.short	384
 2925 034a 8001     		.short	384
 2926 034c 8001     		.short	384
 2927 034e 8001     		.short	384
 2928 0350 8001     		.short	384
 2929 0352 8001     		.short	384
 2930 0354 0000     		.short	0
 2931 0356 0000     		.short	0
 2932 0358 0000     		.short	0
 2933 035a 0000     		.short	0
 2934 035c 0000     		.short	0
 2935 035e 0000     		.short	0
 2936 0360 0000     		.short	0
 2937 0362 E003     		.short	992
 2938 0364 F80F     		.short	4088
 2939 0366 180C     		.short	3096
 2940 0368 0C18     		.short	6156
 2941 036a 0C18     		.short	6156
 2942 036c 0018     		.short	6144
 2943 036e 0018     		.short	6144
 2944 0370 000C     		.short	3072
 2945 0372 0006     		.short	1536
 2946 0374 0003     		.short	768
 2947 0376 8001     		.short	384
 2948 0378 C000     		.short	192
ARM GAS  /var/folders/g9/bbpj86ld7fx45vd1b3pqxmp00000gn/T//cc4EjzoN.s 			page 81


 2949 037a 6000     		.short	96
 2950 037c 3000     		.short	48
 2951 037e 1800     		.short	24
 2952 0380 FC1F     		.short	8188
 2953 0382 FC1F     		.short	8188
 2954 0384 0000     		.short	0
 2955 0386 0000     		.short	0
 2956 0388 0000     		.short	0
 2957 038a 0000     		.short	0
 2958 038c 0000     		.short	0
 2959 038e 0000     		.short	0
 2960 0390 0000     		.short	0
 2961 0392 E001     		.short	480
 2962 0394 F807     		.short	2040
 2963 0396 180E     		.short	3608
 2964 0398 0C0C     		.short	3084
 2965 039a 0C0C     		.short	3084
 2966 039c 000C     		.short	3072
 2967 039e 0006     		.short	1536
 2968 03a0 C003     		.short	960
 2969 03a2 C007     		.short	1984
 2970 03a4 000C     		.short	3072
 2971 03a6 0018     		.short	6144
 2972 03a8 0018     		.short	6144
 2973 03aa 0C18     		.short	6156
 2974 03ac 0C18     		.short	6156
 2975 03ae 180C     		.short	3096
 2976 03b0 F807     		.short	2040
 2977 03b2 E003     		.short	992
 2978 03b4 0000     		.short	0
 2979 03b6 0000     		.short	0
 2980 03b8 0000     		.short	0
 2981 03ba 0000     		.short	0
 2982 03bc 0000     		.short	0
 2983 03be 0000     		.short	0
 2984 03c0 0000     		.short	0
 2985 03c2 000C     		.short	3072
 2986 03c4 000E     		.short	3584
 2987 03c6 000F     		.short	3840
 2988 03c8 000F     		.short	3840
 2989 03ca 800D     		.short	3456
 2990 03cc C00C     		.short	3264
 2991 03ce 600C     		.short	3168
 2992 03d0 600C     		.short	3168
 2993 03d2 300C     		.short	3120
 2994 03d4 180C     		.short	3096
 2995 03d6 0C0C     		.short	3084
 2996 03d8 FC3F     		.short	16380
 2997 03da FC3F     		.short	16380
 2998 03dc 000C     		.short	3072
 2999 03de 000C     		.short	3072
 3000 03e0 000C     		.short	3072
 3001 03e2 000C     		.short	3072
 3002 03e4 0000     		.short	0
 3003 03e6 0000     		.short	0
 3004 03e8 0000     		.short	0
 3005 03ea 0000     		.short	0
ARM GAS  /var/folders/g9/bbpj86ld7fx45vd1b3pqxmp00000gn/T//cc4EjzoN.s 			page 82


 3006 03ec 0000     		.short	0
 3007 03ee 0000     		.short	0
 3008 03f0 0000     		.short	0
 3009 03f2 F80F     		.short	4088
 3010 03f4 F80F     		.short	4088
 3011 03f6 1800     		.short	24
 3012 03f8 1800     		.short	24
 3013 03fa 0C00     		.short	12
 3014 03fc EC03     		.short	1004
 3015 03fe FC07     		.short	2044
 3016 0400 1C0E     		.short	3612
 3017 0402 001C     		.short	7168
 3018 0404 0018     		.short	6144
 3019 0406 0018     		.short	6144
 3020 0408 0018     		.short	6144
 3021 040a 0C18     		.short	6156
 3022 040c 1C0C     		.short	3100
 3023 040e 180E     		.short	3608
 3024 0410 F807     		.short	2040
 3025 0412 E003     		.short	992
 3026 0414 0000     		.short	0
 3027 0416 0000     		.short	0
 3028 0418 0000     		.short	0
 3029 041a 0000     		.short	0
 3030 041c 0000     		.short	0
 3031 041e 0000     		.short	0
 3032 0420 0000     		.short	0
 3033 0422 C007     		.short	1984
 3034 0424 F00F     		.short	4080
 3035 0426 381C     		.short	7224
 3036 0428 1818     		.short	6168
 3037 042a 1800     		.short	24
 3038 042c 0C00     		.short	12
 3039 042e CC03     		.short	972
 3040 0430 EC0F     		.short	4076
 3041 0432 3C0E     		.short	3644
 3042 0434 1C1C     		.short	7196
 3043 0436 0C18     		.short	6156
 3044 0438 0C18     		.short	6156
 3045 043a 0C18     		.short	6156
 3046 043c 181C     		.short	7192
 3047 043e 380E     		.short	3640
 3048 0440 F007     		.short	2032
 3049 0442 E003     		.short	992
 3050 0444 0000     		.short	0
 3051 0446 0000     		.short	0
 3052 0448 0000     		.short	0
 3053 044a 0000     		.short	0
 3054 044c 0000     		.short	0
 3055 044e 0000     		.short	0
 3056 0450 0000     		.short	0
 3057 0452 FC1F     		.short	8188
 3058 0454 FC1F     		.short	8188
 3059 0456 000C     		.short	3072
 3060 0458 0006     		.short	1536
 3061 045a 0006     		.short	1536
 3062 045c 0003     		.short	768
ARM GAS  /var/folders/g9/bbpj86ld7fx45vd1b3pqxmp00000gn/T//cc4EjzoN.s 			page 83


 3063 045e 8003     		.short	896
 3064 0460 8001     		.short	384
 3065 0462 C001     		.short	448
 3066 0464 C000     		.short	192
 3067 0466 E000     		.short	224
 3068 0468 6000     		.short	96
 3069 046a 6000     		.short	96
 3070 046c 7000     		.short	112
 3071 046e 3000     		.short	48
 3072 0470 3000     		.short	48
 3073 0472 3000     		.short	48
 3074 0474 0000     		.short	0
 3075 0476 0000     		.short	0
 3076 0478 0000     		.short	0
 3077 047a 0000     		.short	0
 3078 047c 0000     		.short	0
 3079 047e 0000     		.short	0
 3080 0480 0000     		.short	0
 3081 0482 E003     		.short	992
 3082 0484 F007     		.short	2032
 3083 0486 380E     		.short	3640
 3084 0488 180C     		.short	3096
 3085 048a 180C     		.short	3096
 3086 048c 180C     		.short	3096
 3087 048e 3806     		.short	1592
 3088 0490 F007     		.short	2032
 3089 0492 F007     		.short	2032
 3090 0494 180C     		.short	3096
 3091 0496 0C18     		.short	6156
 3092 0498 0C18     		.short	6156
 3093 049a 0C18     		.short	6156
 3094 049c 0C18     		.short	6156
 3095 049e 380C     		.short	3128
 3096 04a0 F80F     		.short	4088
 3097 04a2 E003     		.short	992
 3098 04a4 0000     		.short	0
 3099 04a6 0000     		.short	0
 3100 04a8 0000     		.short	0
 3101 04aa 0000     		.short	0
 3102 04ac 0000     		.short	0
 3103 04ae 0000     		.short	0
 3104 04b0 0000     		.short	0
 3105 04b2 E003     		.short	992
 3106 04b4 F007     		.short	2032
 3107 04b6 380E     		.short	3640
 3108 04b8 1C0C     		.short	3100
 3109 04ba 0C18     		.short	6156
 3110 04bc 0C18     		.short	6156
 3111 04be 0C18     		.short	6156
 3112 04c0 1C1C     		.short	7196
 3113 04c2 381E     		.short	7736
 3114 04c4 F81B     		.short	7160
 3115 04c6 E019     		.short	6624
 3116 04c8 0018     		.short	6144
 3117 04ca 000C     		.short	3072
 3118 04cc 000C     		.short	3072
 3119 04ce 1C0E     		.short	3612
ARM GAS  /var/folders/g9/bbpj86ld7fx45vd1b3pqxmp00000gn/T//cc4EjzoN.s 			page 84


 3120 04d0 F807     		.short	2040
 3121 04d2 F001     		.short	496
 3122 04d4 0000     		.short	0
 3123 04d6 0000     		.short	0
 3124 04d8 0000     		.short	0
 3125 04da 0000     		.short	0
 3126 04dc 0000     		.short	0
 3127 04de 0000     		.short	0
 3128 04e0 0000     		.short	0
 3129 04e2 0000     		.short	0
 3130 04e4 0000     		.short	0
 3131 04e6 0000     		.short	0
 3132 04e8 0000     		.short	0
 3133 04ea 0000     		.short	0
 3134 04ec 8001     		.short	384
 3135 04ee 8001     		.short	384
 3136 04f0 0000     		.short	0
 3137 04f2 0000     		.short	0
 3138 04f4 0000     		.short	0
 3139 04f6 0000     		.short	0
 3140 04f8 0000     		.short	0
 3141 04fa 0000     		.short	0
 3142 04fc 0000     		.short	0
 3143 04fe 0000     		.short	0
 3144 0500 8001     		.short	384
 3145 0502 8001     		.short	384
 3146 0504 0000     		.short	0
 3147 0506 0000     		.short	0
 3148 0508 0000     		.short	0
 3149 050a 0000     		.short	0
 3150 050c 0000     		.short	0
 3151 050e 0000     		.short	0
 3152 0510 0000     		.short	0
 3153 0512 0000     		.short	0
 3154 0514 0000     		.short	0
 3155 0516 0000     		.short	0
 3156 0518 0000     		.short	0
 3157 051a 0000     		.short	0
 3158 051c 8001     		.short	384
 3159 051e 8001     		.short	384
 3160 0520 0000     		.short	0
 3161 0522 0000     		.short	0
 3162 0524 0000     		.short	0
 3163 0526 0000     		.short	0
 3164 0528 0000     		.short	0
 3165 052a 0000     		.short	0
 3166 052c 0000     		.short	0
 3167 052e 0000     		.short	0
 3168 0530 8001     		.short	384
 3169 0532 8001     		.short	384
 3170 0534 0001     		.short	256
 3171 0536 0001     		.short	256
 3172 0538 8000     		.short	128
 3173 053a 0000     		.short	0
 3174 053c 0000     		.short	0
 3175 053e 0000     		.short	0
 3176 0540 0000     		.short	0
ARM GAS  /var/folders/g9/bbpj86ld7fx45vd1b3pqxmp00000gn/T//cc4EjzoN.s 			page 85


 3177 0542 0000     		.short	0
 3178 0544 0000     		.short	0
 3179 0546 0000     		.short	0
 3180 0548 0000     		.short	0
 3181 054a 0000     		.short	0
 3182 054c 0000     		.short	0
 3183 054e 0000     		.short	0
 3184 0550 0010     		.short	4096
 3185 0552 001C     		.short	7168
 3186 0554 800F     		.short	3968
 3187 0556 E003     		.short	992
 3188 0558 F800     		.short	248
 3189 055a 1800     		.short	24
 3190 055c F800     		.short	248
 3191 055e E003     		.short	992
 3192 0560 800F     		.short	3968
 3193 0562 001C     		.short	7168
 3194 0564 0010     		.short	4096
 3195 0566 0000     		.short	0
 3196 0568 0000     		.short	0
 3197 056a 0000     		.short	0
 3198 056c 0000     		.short	0
 3199 056e 0000     		.short	0
 3200 0570 0000     		.short	0
 3201 0572 0000     		.short	0
 3202 0574 0000     		.short	0
 3203 0576 0000     		.short	0
 3204 0578 0000     		.short	0
 3205 057a 0000     		.short	0
 3206 057c 0000     		.short	0
 3207 057e 0000     		.short	0
 3208 0580 F81F     		.short	8184
 3209 0582 0000     		.short	0
 3210 0584 0000     		.short	0
 3211 0586 0000     		.short	0
 3212 0588 F81F     		.short	8184
 3213 058a 0000     		.short	0
 3214 058c 0000     		.short	0
 3215 058e 0000     		.short	0
 3216 0590 0000     		.short	0
 3217 0592 0000     		.short	0
 3218 0594 0000     		.short	0
 3219 0596 0000     		.short	0
 3220 0598 0000     		.short	0
 3221 059a 0000     		.short	0
 3222 059c 0000     		.short	0
 3223 059e 0000     		.short	0
 3224 05a0 0000     		.short	0
 3225 05a2 0000     		.short	0
 3226 05a4 0000     		.short	0
 3227 05a6 0000     		.short	0
 3228 05a8 0000     		.short	0
 3229 05aa 0000     		.short	0
 3230 05ac 0000     		.short	0
 3231 05ae 0000     		.short	0
 3232 05b0 0800     		.short	8
 3233 05b2 3800     		.short	56
ARM GAS  /var/folders/g9/bbpj86ld7fx45vd1b3pqxmp00000gn/T//cc4EjzoN.s 			page 86


 3234 05b4 F001     		.short	496
 3235 05b6 C007     		.short	1984
 3236 05b8 001F     		.short	7936
 3237 05ba 0018     		.short	6144
 3238 05bc 001F     		.short	7936
 3239 05be C007     		.short	1984
 3240 05c0 F001     		.short	496
 3241 05c2 3800     		.short	56
 3242 05c4 0800     		.short	8
 3243 05c6 0000     		.short	0
 3244 05c8 0000     		.short	0
 3245 05ca 0000     		.short	0
 3246 05cc 0000     		.short	0
 3247 05ce 0000     		.short	0
 3248 05d0 0000     		.short	0
 3249 05d2 E003     		.short	992
 3250 05d4 F80F     		.short	4088
 3251 05d6 180C     		.short	3096
 3252 05d8 0C18     		.short	6156
 3253 05da 0C18     		.short	6156
 3254 05dc 0018     		.short	6144
 3255 05de 000C     		.short	3072
 3256 05e0 0006     		.short	1536
 3257 05e2 0003     		.short	768
 3258 05e4 8001     		.short	384
 3259 05e6 C000     		.short	192
 3260 05e8 C000     		.short	192
 3261 05ea C000     		.short	192
 3262 05ec 0000     		.short	0
 3263 05ee 0000     		.short	0
 3264 05f0 C000     		.short	192
 3265 05f2 C000     		.short	192
 3266 05f4 0000     		.short	0
 3267 05f6 0000     		.short	0
 3268 05f8 0000     		.short	0
 3269 05fa 0000     		.short	0
 3270 05fc 0000     		.short	0
 3271 05fe 0000     		.short	0
 3272 0600 0000     		.short	0
 3273 0602 0000     		.short	0
 3274 0604 E007     		.short	2016
 3275 0606 1818     		.short	6168
 3276 0608 0420     		.short	8196
 3277 060a C229     		.short	10690
 3278 060c 224A     		.short	18978
 3279 060e 1144     		.short	17425
 3280 0610 0944     		.short	17417
 3281 0612 0944     		.short	17417
 3282 0614 0944     		.short	17417
 3283 0616 0922     		.short	8713
 3284 0618 1113     		.short	4881
 3285 061a E20C     		.short	3298
 3286 061c 0240     		.short	16386
 3287 061e 0420     		.short	8196
 3288 0620 1818     		.short	6168
 3289 0622 E007     		.short	2016
 3290 0624 0000     		.short	0
ARM GAS  /var/folders/g9/bbpj86ld7fx45vd1b3pqxmp00000gn/T//cc4EjzoN.s 			page 87


 3291 0626 0000     		.short	0
 3292 0628 0000     		.short	0
 3293 062a 0000     		.short	0
 3294 062c 0000     		.short	0
 3295 062e 0000     		.short	0
 3296 0630 0000     		.short	0
 3297 0632 8003     		.short	896
 3298 0634 8003     		.short	896
 3299 0636 C006     		.short	1728
 3300 0638 C006     		.short	1728
 3301 063a C006     		.short	1728
 3302 063c 600C     		.short	3168
 3303 063e 600C     		.short	3168
 3304 0640 3018     		.short	6192
 3305 0642 3018     		.short	6192
 3306 0644 3018     		.short	6192
 3307 0646 F83F     		.short	16376
 3308 0648 F83F     		.short	16376
 3309 064a 1C70     		.short	28700
 3310 064c 0C60     		.short	24588
 3311 064e 0C60     		.short	24588
 3312 0650 06C0     		.short	-16378
 3313 0652 06C0     		.short	-16378
 3314 0654 0000     		.short	0
 3315 0656 0000     		.short	0
 3316 0658 0000     		.short	0
 3317 065a 0000     		.short	0
 3318 065c 0000     		.short	0
 3319 065e 0000     		.short	0
 3320 0660 0000     		.short	0
 3321 0662 FC03     		.short	1020
 3322 0664 FC0F     		.short	4092
 3323 0666 0C0C     		.short	3084
 3324 0668 0C18     		.short	6156
 3325 066a 0C18     		.short	6156
 3326 066c 0C18     		.short	6156
 3327 066e 0C0C     		.short	3084
 3328 0670 FC07     		.short	2044
 3329 0672 FC0F     		.short	4092
 3330 0674 0C18     		.short	6156
 3331 0676 0C30     		.short	12300
 3332 0678 0C30     		.short	12300
 3333 067a 0C30     		.short	12300
 3334 067c 0C30     		.short	12300
 3335 067e 0C18     		.short	6156
 3336 0680 FC1F     		.short	8188
 3337 0682 FC07     		.short	2044
 3338 0684 0000     		.short	0
 3339 0686 0000     		.short	0
 3340 0688 0000     		.short	0
 3341 068a 0000     		.short	0
 3342 068c 0000     		.short	0
 3343 068e 0000     		.short	0
 3344 0690 0000     		.short	0
 3345 0692 C007     		.short	1984
 3346 0694 F01F     		.short	8176
 3347 0696 3838     		.short	14392
ARM GAS  /var/folders/g9/bbpj86ld7fx45vd1b3pqxmp00000gn/T//cc4EjzoN.s 			page 88


 3348 0698 1C30     		.short	12316
 3349 069a 0C70     		.short	28684
 3350 069c 0660     		.short	24582
 3351 069e 0600     		.short	6
 3352 06a0 0600     		.short	6
 3353 06a2 0600     		.short	6
 3354 06a4 0600     		.short	6
 3355 06a6 0600     		.short	6
 3356 06a8 0600     		.short	6
 3357 06aa 0660     		.short	24582
 3358 06ac 0C70     		.short	28684
 3359 06ae 1C30     		.short	12316
 3360 06b0 F01F     		.short	8176
 3361 06b2 E007     		.short	2016
 3362 06b4 0000     		.short	0
 3363 06b6 0000     		.short	0
 3364 06b8 0000     		.short	0
 3365 06ba 0000     		.short	0
 3366 06bc 0000     		.short	0
 3367 06be 0000     		.short	0
 3368 06c0 0000     		.short	0
 3369 06c2 FE03     		.short	1022
 3370 06c4 FE0F     		.short	4094
 3371 06c6 060E     		.short	3590
 3372 06c8 0618     		.short	6150
 3373 06ca 0618     		.short	6150
 3374 06cc 0630     		.short	12294
 3375 06ce 0630     		.short	12294
 3376 06d0 0630     		.short	12294
 3377 06d2 0630     		.short	12294
 3378 06d4 0630     		.short	12294
 3379 06d6 0630     		.short	12294
 3380 06d8 0630     		.short	12294
 3381 06da 0618     		.short	6150
 3382 06dc 0618     		.short	6150
 3383 06de 060E     		.short	3590
 3384 06e0 FE0F     		.short	4094
 3385 06e2 FE03     		.short	1022
 3386 06e4 0000     		.short	0
 3387 06e6 0000     		.short	0
 3388 06e8 0000     		.short	0
 3389 06ea 0000     		.short	0
 3390 06ec 0000     		.short	0
 3391 06ee 0000     		.short	0
 3392 06f0 0000     		.short	0
 3393 06f2 FC3F     		.short	16380
 3394 06f4 FC3F     		.short	16380
 3395 06f6 0C00     		.short	12
 3396 06f8 0C00     		.short	12
 3397 06fa 0C00     		.short	12
 3398 06fc 0C00     		.short	12
 3399 06fe 0C00     		.short	12
 3400 0700 FC1F     		.short	8188
 3401 0702 FC1F     		.short	8188
 3402 0704 0C00     		.short	12
 3403 0706 0C00     		.short	12
 3404 0708 0C00     		.short	12
ARM GAS  /var/folders/g9/bbpj86ld7fx45vd1b3pqxmp00000gn/T//cc4EjzoN.s 			page 89


 3405 070a 0C00     		.short	12
 3406 070c 0C00     		.short	12
 3407 070e 0C00     		.short	12
 3408 0710 FC3F     		.short	16380
 3409 0712 FC3F     		.short	16380
 3410 0714 0000     		.short	0
 3411 0716 0000     		.short	0
 3412 0718 0000     		.short	0
 3413 071a 0000     		.short	0
 3414 071c 0000     		.short	0
 3415 071e 0000     		.short	0
 3416 0720 0000     		.short	0
 3417 0722 F83F     		.short	16376
 3418 0724 F83F     		.short	16376
 3419 0726 1800     		.short	24
 3420 0728 1800     		.short	24
 3421 072a 1800     		.short	24
 3422 072c 1800     		.short	24
 3423 072e 1800     		.short	24
 3424 0730 F81F     		.short	8184
 3425 0732 F81F     		.short	8184
 3426 0734 1800     		.short	24
 3427 0736 1800     		.short	24
 3428 0738 1800     		.short	24
 3429 073a 1800     		.short	24
 3430 073c 1800     		.short	24
 3431 073e 1800     		.short	24
 3432 0740 1800     		.short	24
 3433 0742 1800     		.short	24
 3434 0744 0000     		.short	0
 3435 0746 0000     		.short	0
 3436 0748 0000     		.short	0
 3437 074a 0000     		.short	0
 3438 074c 0000     		.short	0
 3439 074e 0000     		.short	0
 3440 0750 0000     		.short	0
 3441 0752 E00F     		.short	4064
 3442 0754 F83F     		.short	16376
 3443 0756 3C78     		.short	30780
 3444 0758 0E60     		.short	24590
 3445 075a 06E0     		.short	-8186
 3446 075c 07C0     		.short	-16377
 3447 075e 0300     		.short	3
 3448 0760 0300     		.short	3
 3449 0762 03FE     		.short	-509
 3450 0764 03FE     		.short	-509
 3451 0766 03C0     		.short	-16381
 3452 0768 07C0     		.short	-16377
 3453 076a 06C0     		.short	-16378
 3454 076c 0EC0     		.short	-16370
 3455 076e 3CF0     		.short	-4036
 3456 0770 F83F     		.short	16376
 3457 0772 E00F     		.short	4064
 3458 0774 0000     		.short	0
 3459 0776 0000     		.short	0
 3460 0778 0000     		.short	0
 3461 077a 0000     		.short	0
ARM GAS  /var/folders/g9/bbpj86ld7fx45vd1b3pqxmp00000gn/T//cc4EjzoN.s 			page 90


 3462 077c 0000     		.short	0
 3463 077e 0000     		.short	0
 3464 0780 0000     		.short	0
 3465 0782 0C30     		.short	12300
 3466 0784 0C30     		.short	12300
 3467 0786 0C30     		.short	12300
 3468 0788 0C30     		.short	12300
 3469 078a 0C30     		.short	12300
 3470 078c 0C30     		.short	12300
 3471 078e 0C30     		.short	12300
 3472 0790 FC3F     		.short	16380
 3473 0792 FC3F     		.short	16380
 3474 0794 0C30     		.short	12300
 3475 0796 0C30     		.short	12300
 3476 0798 0C30     		.short	12300
 3477 079a 0C30     		.short	12300
 3478 079c 0C30     		.short	12300
 3479 079e 0C30     		.short	12300
 3480 07a0 0C30     		.short	12300
 3481 07a2 0C30     		.short	12300
 3482 07a4 0000     		.short	0
 3483 07a6 0000     		.short	0
 3484 07a8 0000     		.short	0
 3485 07aa 0000     		.short	0
 3486 07ac 0000     		.short	0
 3487 07ae 0000     		.short	0
 3488 07b0 0000     		.short	0
 3489 07b2 8001     		.short	384
 3490 07b4 8001     		.short	384
 3491 07b6 8001     		.short	384
 3492 07b8 8001     		.short	384
 3493 07ba 8001     		.short	384
 3494 07bc 8001     		.short	384
 3495 07be 8001     		.short	384
 3496 07c0 8001     		.short	384
 3497 07c2 8001     		.short	384
 3498 07c4 8001     		.short	384
 3499 07c6 8001     		.short	384
 3500 07c8 8001     		.short	384
 3501 07ca 8001     		.short	384
 3502 07cc 8001     		.short	384
 3503 07ce 8001     		.short	384
 3504 07d0 8001     		.short	384
 3505 07d2 8001     		.short	384
 3506 07d4 0000     		.short	0
 3507 07d6 0000     		.short	0
 3508 07d8 0000     		.short	0
 3509 07da 0000     		.short	0
 3510 07dc 0000     		.short	0
 3511 07de 0000     		.short	0
 3512 07e0 0000     		.short	0
 3513 07e2 0006     		.short	1536
 3514 07e4 0006     		.short	1536
 3515 07e6 0006     		.short	1536
 3516 07e8 0006     		.short	1536
 3517 07ea 0006     		.short	1536
 3518 07ec 0006     		.short	1536
ARM GAS  /var/folders/g9/bbpj86ld7fx45vd1b3pqxmp00000gn/T//cc4EjzoN.s 			page 91


 3519 07ee 0006     		.short	1536
 3520 07f0 0006     		.short	1536
 3521 07f2 0006     		.short	1536
 3522 07f4 0006     		.short	1536
 3523 07f6 0006     		.short	1536
 3524 07f8 0006     		.short	1536
 3525 07fa 1806     		.short	1560
 3526 07fc 1806     		.short	1560
 3527 07fe 3807     		.short	1848
 3528 0800 F003     		.short	1008
 3529 0802 E001     		.short	480
 3530 0804 0000     		.short	0
 3531 0806 0000     		.short	0
 3532 0808 0000     		.short	0
 3533 080a 0000     		.short	0
 3534 080c 0000     		.short	0
 3535 080e 0000     		.short	0
 3536 0810 0000     		.short	0
 3537 0812 0630     		.short	12294
 3538 0814 0618     		.short	6150
 3539 0816 060C     		.short	3078
 3540 0818 0606     		.short	1542
 3541 081a 0603     		.short	774
 3542 081c 8601     		.short	390
 3543 081e C600     		.short	198
 3544 0820 6600     		.short	102
 3545 0822 7600     		.short	118
 3546 0824 DE00     		.short	222
 3547 0826 8E01     		.short	398
 3548 0828 0603     		.short	774
 3549 082a 0606     		.short	1542
 3550 082c 060C     		.short	3078
 3551 082e 0618     		.short	6150
 3552 0830 0630     		.short	12294
 3553 0832 0660     		.short	24582
 3554 0834 0000     		.short	0
 3555 0836 0000     		.short	0
 3556 0838 0000     		.short	0
 3557 083a 0000     		.short	0
 3558 083c 0000     		.short	0
 3559 083e 0000     		.short	0
 3560 0840 0000     		.short	0
 3561 0842 1800     		.short	24
 3562 0844 1800     		.short	24
 3563 0846 1800     		.short	24
 3564 0848 1800     		.short	24
 3565 084a 1800     		.short	24
 3566 084c 1800     		.short	24
 3567 084e 1800     		.short	24
 3568 0850 1800     		.short	24
 3569 0852 1800     		.short	24
 3570 0854 1800     		.short	24
 3571 0856 1800     		.short	24
 3572 0858 1800     		.short	24
 3573 085a 1800     		.short	24
 3574 085c 1800     		.short	24
 3575 085e 1800     		.short	24
ARM GAS  /var/folders/g9/bbpj86ld7fx45vd1b3pqxmp00000gn/T//cc4EjzoN.s 			page 92


 3576 0860 F81F     		.short	8184
 3577 0862 F81F     		.short	8184
 3578 0864 0000     		.short	0
 3579 0866 0000     		.short	0
 3580 0868 0000     		.short	0
 3581 086a 0000     		.short	0
 3582 086c 0000     		.short	0
 3583 086e 0000     		.short	0
 3584 0870 0000     		.short	0
 3585 0872 0EE0     		.short	-8178
 3586 0874 1EF0     		.short	-4066
 3587 0876 1EF0     		.short	-4066
 3588 0878 1EF0     		.short	-4066
 3589 087a 36D8     		.short	-10186
 3590 087c 36D8     		.short	-10186
 3591 087e 36D8     		.short	-10186
 3592 0880 36D8     		.short	-10186
 3593 0882 66CC     		.short	-13210
 3594 0884 66CC     		.short	-13210
 3595 0886 66CC     		.short	-13210
 3596 0888 C6C6     		.short	-14650
 3597 088a C6C6     		.short	-14650
 3598 088c C6C6     		.short	-14650
 3599 088e C6C6     		.short	-14650
 3600 0890 86C3     		.short	-15482
 3601 0892 86C3     		.short	-15482
 3602 0894 0000     		.short	0
 3603 0896 0000     		.short	0
 3604 0898 0000     		.short	0
 3605 089a 0000     		.short	0
 3606 089c 0000     		.short	0
 3607 089e 0000     		.short	0
 3608 08a0 0000     		.short	0
 3609 08a2 0C30     		.short	12300
 3610 08a4 1C30     		.short	12316
 3611 08a6 3C30     		.short	12348
 3612 08a8 3C30     		.short	12348
 3613 08aa 6C30     		.short	12396
 3614 08ac 6C30     		.short	12396
 3615 08ae CC30     		.short	12492
 3616 08b0 CC30     		.short	12492
 3617 08b2 8C31     		.short	12684
 3618 08b4 0C33     		.short	13068
 3619 08b6 0C33     		.short	13068
 3620 08b8 0C36     		.short	13836
 3621 08ba 0C36     		.short	13836
 3622 08bc 0C3C     		.short	15372
 3623 08be 0C3C     		.short	15372
 3624 08c0 0C38     		.short	14348
 3625 08c2 0C30     		.short	12300
 3626 08c4 0000     		.short	0
 3627 08c6 0000     		.short	0
 3628 08c8 0000     		.short	0
 3629 08ca 0000     		.short	0
 3630 08cc 0000     		.short	0
 3631 08ce 0000     		.short	0
 3632 08d0 0000     		.short	0
ARM GAS  /var/folders/g9/bbpj86ld7fx45vd1b3pqxmp00000gn/T//cc4EjzoN.s 			page 93


 3633 08d2 E007     		.short	2016
 3634 08d4 F81F     		.short	8184
 3635 08d6 1C38     		.short	14364
 3636 08d8 0E70     		.short	28686
 3637 08da 0660     		.short	24582
 3638 08dc 03C0     		.short	-16381
 3639 08de 03C0     		.short	-16381
 3640 08e0 03C0     		.short	-16381
 3641 08e2 03C0     		.short	-16381
 3642 08e4 03C0     		.short	-16381
 3643 08e6 03C0     		.short	-16381
 3644 08e8 03C0     		.short	-16381
 3645 08ea 0660     		.short	24582
 3646 08ec 0E70     		.short	28686
 3647 08ee 1C38     		.short	14364
 3648 08f0 F81F     		.short	8184
 3649 08f2 E007     		.short	2016
 3650 08f4 0000     		.short	0
 3651 08f6 0000     		.short	0
 3652 08f8 0000     		.short	0
 3653 08fa 0000     		.short	0
 3654 08fc 0000     		.short	0
 3655 08fe 0000     		.short	0
 3656 0900 0000     		.short	0
 3657 0902 FC0F     		.short	4092
 3658 0904 FC1F     		.short	8188
 3659 0906 0C38     		.short	14348
 3660 0908 0C30     		.short	12300
 3661 090a 0C30     		.short	12300
 3662 090c 0C30     		.short	12300
 3663 090e 0C30     		.short	12300
 3664 0910 0C18     		.short	6156
 3665 0912 FC1F     		.short	8188
 3666 0914 FC07     		.short	2044
 3667 0916 0C00     		.short	12
 3668 0918 0C00     		.short	12
 3669 091a 0C00     		.short	12
 3670 091c 0C00     		.short	12
 3671 091e 0C00     		.short	12
 3672 0920 0C00     		.short	12
 3673 0922 0C00     		.short	12
 3674 0924 0000     		.short	0
 3675 0926 0000     		.short	0
 3676 0928 0000     		.short	0
 3677 092a 0000     		.short	0
 3678 092c 0000     		.short	0
 3679 092e 0000     		.short	0
 3680 0930 0000     		.short	0
 3681 0932 E007     		.short	2016
 3682 0934 F81F     		.short	8184
 3683 0936 1C38     		.short	14364
 3684 0938 0E70     		.short	28686
 3685 093a 0660     		.short	24582
 3686 093c 03E0     		.short	-8189
 3687 093e 03C0     		.short	-16381
 3688 0940 03C0     		.short	-16381
 3689 0942 03C0     		.short	-16381
ARM GAS  /var/folders/g9/bbpj86ld7fx45vd1b3pqxmp00000gn/T//cc4EjzoN.s 			page 94


 3690 0944 03C0     		.short	-16381
 3691 0946 03C0     		.short	-16381
 3692 0948 07E0     		.short	-8185
 3693 094a 0663     		.short	25350
 3694 094c 0E3F     		.short	16142
 3695 094e 1C3C     		.short	15388
 3696 0950 F83F     		.short	16376
 3697 0952 E0F7     		.short	-2080
 3698 0954 00C0     		.short	-16384
 3699 0956 0000     		.short	0
 3700 0958 0000     		.short	0
 3701 095a 0000     		.short	0
 3702 095c 0000     		.short	0
 3703 095e 0000     		.short	0
 3704 0960 0000     		.short	0
 3705 0962 FE0F     		.short	4094
 3706 0964 FE1F     		.short	8190
 3707 0966 0638     		.short	14342
 3708 0968 0630     		.short	12294
 3709 096a 0630     		.short	12294
 3710 096c 0630     		.short	12294
 3711 096e 0638     		.short	14342
 3712 0970 FE1F     		.short	8190
 3713 0972 FE07     		.short	2046
 3714 0974 0603     		.short	774
 3715 0976 0606     		.short	1542
 3716 0978 060C     		.short	3078
 3717 097a 0618     		.short	6150
 3718 097c 0618     		.short	6150
 3719 097e 0630     		.short	12294
 3720 0980 0630     		.short	12294
 3721 0982 0660     		.short	24582
 3722 0984 0000     		.short	0
 3723 0986 0000     		.short	0
 3724 0988 0000     		.short	0
 3725 098a 0000     		.short	0
 3726 098c 0000     		.short	0
 3727 098e 0000     		.short	0
 3728 0990 0000     		.short	0
 3729 0992 E003     		.short	992
 3730 0994 F80F     		.short	4088
 3731 0996 1C0C     		.short	3100
 3732 0998 0C18     		.short	6156
 3733 099a 0C18     		.short	6156
 3734 099c 0C00     		.short	12
 3735 099e 1C00     		.short	28
 3736 09a0 F803     		.short	1016
 3737 09a2 E00F     		.short	4064
 3738 09a4 001E     		.short	7680
 3739 09a6 0038     		.short	14336
 3740 09a8 0630     		.short	12294
 3741 09aa 0630     		.short	12294
 3742 09ac 0E30     		.short	12302
 3743 09ae 1C1C     		.short	7196
 3744 09b0 F80F     		.short	4088
 3745 09b2 E007     		.short	2016
 3746 09b4 0000     		.short	0
ARM GAS  /var/folders/g9/bbpj86ld7fx45vd1b3pqxmp00000gn/T//cc4EjzoN.s 			page 95


 3747 09b6 0000     		.short	0
 3748 09b8 0000     		.short	0
 3749 09ba 0000     		.short	0
 3750 09bc 0000     		.short	0
 3751 09be 0000     		.short	0
 3752 09c0 0000     		.short	0
 3753 09c2 FE7F     		.short	32766
 3754 09c4 FE7F     		.short	32766
 3755 09c6 8001     		.short	384
 3756 09c8 8001     		.short	384
 3757 09ca 8001     		.short	384
 3758 09cc 8001     		.short	384
 3759 09ce 8001     		.short	384
 3760 09d0 8001     		.short	384
 3761 09d2 8001     		.short	384
 3762 09d4 8001     		.short	384
 3763 09d6 8001     		.short	384
 3764 09d8 8001     		.short	384
 3765 09da 8001     		.short	384
 3766 09dc 8001     		.short	384
 3767 09de 8001     		.short	384
 3768 09e0 8001     		.short	384
 3769 09e2 8001     		.short	384
 3770 09e4 0000     		.short	0
 3771 09e6 0000     		.short	0
 3772 09e8 0000     		.short	0
 3773 09ea 0000     		.short	0
 3774 09ec 0000     		.short	0
 3775 09ee 0000     		.short	0
 3776 09f0 0000     		.short	0
 3777 09f2 0C30     		.short	12300
 3778 09f4 0C30     		.short	12300
 3779 09f6 0C30     		.short	12300
 3780 09f8 0C30     		.short	12300
 3781 09fa 0C30     		.short	12300
 3782 09fc 0C30     		.short	12300
 3783 09fe 0C30     		.short	12300
 3784 0a00 0C30     		.short	12300
 3785 0a02 0C30     		.short	12300
 3786 0a04 0C30     		.short	12300
 3787 0a06 0C30     		.short	12300
 3788 0a08 0C30     		.short	12300
 3789 0a0a 0C30     		.short	12300
 3790 0a0c 0C30     		.short	12300
 3791 0a0e 1818     		.short	6168
 3792 0a10 F81F     		.short	8184
 3793 0a12 E007     		.short	2016
 3794 0a14 0000     		.short	0
 3795 0a16 0000     		.short	0
 3796 0a18 0000     		.short	0
 3797 0a1a 0000     		.short	0
 3798 0a1c 0000     		.short	0
 3799 0a1e 0000     		.short	0
 3800 0a20 0000     		.short	0
 3801 0a22 0360     		.short	24579
 3802 0a24 0630     		.short	12294
 3803 0a26 0630     		.short	12294
ARM GAS  /var/folders/g9/bbpj86ld7fx45vd1b3pqxmp00000gn/T//cc4EjzoN.s 			page 96


 3804 0a28 0630     		.short	12294
 3805 0a2a 0C18     		.short	6156
 3806 0a2c 0C18     		.short	6156
 3807 0a2e 0C18     		.short	6156
 3808 0a30 180C     		.short	3096
 3809 0a32 180C     		.short	3096
 3810 0a34 380E     		.short	3640
 3811 0a36 3006     		.short	1584
 3812 0a38 3006     		.short	1584
 3813 0a3a 7007     		.short	1904
 3814 0a3c 6003     		.short	864
 3815 0a3e 6003     		.short	864
 3816 0a40 C001     		.short	448
 3817 0a42 C001     		.short	448
 3818 0a44 0000     		.short	0
 3819 0a46 0000     		.short	0
 3820 0a48 0000     		.short	0
 3821 0a4a 0000     		.short	0
 3822 0a4c 0000     		.short	0
 3823 0a4e 0000     		.short	0
 3824 0a50 0000     		.short	0
 3825 0a52 0360     		.short	24579
 3826 0a54 C361     		.short	25027
 3827 0a56 C361     		.short	25027
 3828 0a58 C361     		.short	25027
 3829 0a5a 6633     		.short	13158
 3830 0a5c 6633     		.short	13158
 3831 0a5e 6633     		.short	13158
 3832 0a60 6633     		.short	13158
 3833 0a62 6633     		.short	13158
 3834 0a64 6633     		.short	13158
 3835 0a66 6C1B     		.short	7020
 3836 0a68 6C1B     		.short	7020
 3837 0a6a 6C1B     		.short	7020
 3838 0a6c 2C1A     		.short	6700
 3839 0a6e 3C1E     		.short	7740
 3840 0a70 380E     		.short	3640
 3841 0a72 380E     		.short	3640
 3842 0a74 0000     		.short	0
 3843 0a76 0000     		.short	0
 3844 0a78 0000     		.short	0
 3845 0a7a 0000     		.short	0
 3846 0a7c 0000     		.short	0
 3847 0a7e 0000     		.short	0
 3848 0a80 0000     		.short	0
 3849 0a82 0FE0     		.short	-8177
 3850 0a84 0C70     		.short	28684
 3851 0a86 1830     		.short	12312
 3852 0a88 3018     		.short	6192
 3853 0a8a 700C     		.short	3184
 3854 0a8c 600E     		.short	3680
 3855 0a8e C007     		.short	1984
 3856 0a90 8003     		.short	896
 3857 0a92 8003     		.short	896
 3858 0a94 C003     		.short	960
 3859 0a96 E006     		.short	1760
 3860 0a98 700C     		.short	3184
ARM GAS  /var/folders/g9/bbpj86ld7fx45vd1b3pqxmp00000gn/T//cc4EjzoN.s 			page 97


 3861 0a9a 301C     		.short	7216
 3862 0a9c 1818     		.short	6168
 3863 0a9e 0C30     		.short	12300
 3864 0aa0 0E60     		.short	24590
 3865 0aa2 07E0     		.short	-8185
 3866 0aa4 0000     		.short	0
 3867 0aa6 0000     		.short	0
 3868 0aa8 0000     		.short	0
 3869 0aaa 0000     		.short	0
 3870 0aac 0000     		.short	0
 3871 0aae 0000     		.short	0
 3872 0ab0 0000     		.short	0
 3873 0ab2 03C0     		.short	-16381
 3874 0ab4 0660     		.short	24582
 3875 0ab6 0C30     		.short	12300
 3876 0ab8 1C38     		.short	14364
 3877 0aba 3818     		.short	6200
 3878 0abc 300C     		.short	3120
 3879 0abe 6006     		.short	1632
 3880 0ac0 E007     		.short	2016
 3881 0ac2 C003     		.short	960
 3882 0ac4 8001     		.short	384
 3883 0ac6 8001     		.short	384
 3884 0ac8 8001     		.short	384
 3885 0aca 8001     		.short	384
 3886 0acc 8001     		.short	384
 3887 0ace 8001     		.short	384
 3888 0ad0 8001     		.short	384
 3889 0ad2 8001     		.short	384
 3890 0ad4 0000     		.short	0
 3891 0ad6 0000     		.short	0
 3892 0ad8 0000     		.short	0
 3893 0ada 0000     		.short	0
 3894 0adc 0000     		.short	0
 3895 0ade 0000     		.short	0
 3896 0ae0 0000     		.short	0
 3897 0ae2 FC7F     		.short	32764
 3898 0ae4 FC7F     		.short	32764
 3899 0ae6 0060     		.short	24576
 3900 0ae8 0030     		.short	12288
 3901 0aea 0018     		.short	6144
 3902 0aec 000C     		.short	3072
 3903 0aee 0006     		.short	1536
 3904 0af0 0003     		.short	768
 3905 0af2 8001     		.short	384
 3906 0af4 C000     		.short	192
 3907 0af6 6000     		.short	96
 3908 0af8 3000     		.short	48
 3909 0afa 1800     		.short	24
 3910 0afc 0C00     		.short	12
 3911 0afe 0600     		.short	6
 3912 0b00 FE7F     		.short	32766
 3913 0b02 FE7F     		.short	32766
 3914 0b04 0000     		.short	0
 3915 0b06 0000     		.short	0
 3916 0b08 0000     		.short	0
 3917 0b0a 0000     		.short	0
ARM GAS  /var/folders/g9/bbpj86ld7fx45vd1b3pqxmp00000gn/T//cc4EjzoN.s 			page 98


 3918 0b0c 0000     		.short	0
 3919 0b0e 0000     		.short	0
 3920 0b10 0000     		.short	0
 3921 0b12 E003     		.short	992
 3922 0b14 E003     		.short	992
 3923 0b16 6000     		.short	96
 3924 0b18 6000     		.short	96
 3925 0b1a 6000     		.short	96
 3926 0b1c 6000     		.short	96
 3927 0b1e 6000     		.short	96
 3928 0b20 6000     		.short	96
 3929 0b22 6000     		.short	96
 3930 0b24 6000     		.short	96
 3931 0b26 6000     		.short	96
 3932 0b28 6000     		.short	96
 3933 0b2a 6000     		.short	96
 3934 0b2c 6000     		.short	96
 3935 0b2e 6000     		.short	96
 3936 0b30 6000     		.short	96
 3937 0b32 6000     		.short	96
 3938 0b34 6000     		.short	96
 3939 0b36 6000     		.short	96
 3940 0b38 6000     		.short	96
 3941 0b3a E003     		.short	992
 3942 0b3c E003     		.short	992
 3943 0b3e 0000     		.short	0
 3944 0b40 0000     		.short	0
 3945 0b42 3000     		.short	48
 3946 0b44 3000     		.short	48
 3947 0b46 6000     		.short	96
 3948 0b48 6000     		.short	96
 3949 0b4a 6000     		.short	96
 3950 0b4c C000     		.short	192
 3951 0b4e C000     		.short	192
 3952 0b50 C000     		.short	192
 3953 0b52 C001     		.short	448
 3954 0b54 8001     		.short	384
 3955 0b56 8001     		.short	384
 3956 0b58 8001     		.short	384
 3957 0b5a 0003     		.short	768
 3958 0b5c 0003     		.short	768
 3959 0b5e 0003     		.short	768
 3960 0b60 0006     		.short	1536
 3961 0b62 0006     		.short	1536
 3962 0b64 0000     		.short	0
 3963 0b66 0000     		.short	0
 3964 0b68 0000     		.short	0
 3965 0b6a 0000     		.short	0
 3966 0b6c 0000     		.short	0
 3967 0b6e 0000     		.short	0
 3968 0b70 0000     		.short	0
 3969 0b72 E003     		.short	992
 3970 0b74 E003     		.short	992
 3971 0b76 0003     		.short	768
 3972 0b78 0003     		.short	768
 3973 0b7a 0003     		.short	768
 3974 0b7c 0003     		.short	768
ARM GAS  /var/folders/g9/bbpj86ld7fx45vd1b3pqxmp00000gn/T//cc4EjzoN.s 			page 99


 3975 0b7e 0003     		.short	768
 3976 0b80 0003     		.short	768
 3977 0b82 0003     		.short	768
 3978 0b84 0003     		.short	768
 3979 0b86 0003     		.short	768
 3980 0b88 0003     		.short	768
 3981 0b8a 0003     		.short	768
 3982 0b8c 0003     		.short	768
 3983 0b8e 0003     		.short	768
 3984 0b90 0003     		.short	768
 3985 0b92 0003     		.short	768
 3986 0b94 0003     		.short	768
 3987 0b96 0003     		.short	768
 3988 0b98 0003     		.short	768
 3989 0b9a E003     		.short	992
 3990 0b9c E003     		.short	992
 3991 0b9e 0000     		.short	0
 3992 0ba0 0000     		.short	0
 3993 0ba2 0000     		.short	0
 3994 0ba4 C001     		.short	448
 3995 0ba6 C001     		.short	448
 3996 0ba8 6003     		.short	864
 3997 0baa 6003     		.short	864
 3998 0bac 6003     		.short	864
 3999 0bae 3006     		.short	1584
 4000 0bb0 3006     		.short	1584
 4001 0bb2 180C     		.short	3096
 4002 0bb4 180C     		.short	3096
 4003 0bb6 0000     		.short	0
 4004 0bb8 0000     		.short	0
 4005 0bba 0000     		.short	0
 4006 0bbc 0000     		.short	0
 4007 0bbe 0000     		.short	0
 4008 0bc0 0000     		.short	0
 4009 0bc2 0000     		.short	0
 4010 0bc4 0000     		.short	0
 4011 0bc6 0000     		.short	0
 4012 0bc8 0000     		.short	0
 4013 0bca 0000     		.short	0
 4014 0bcc 0000     		.short	0
 4015 0bce 0000     		.short	0
 4016 0bd0 0000     		.short	0
 4017 0bd2 0000     		.short	0
 4018 0bd4 0000     		.short	0
 4019 0bd6 0000     		.short	0
 4020 0bd8 0000     		.short	0
 4021 0bda 0000     		.short	0
 4022 0bdc 0000     		.short	0
 4023 0bde 0000     		.short	0
 4024 0be0 0000     		.short	0
 4025 0be2 0000     		.short	0
 4026 0be4 0000     		.short	0
 4027 0be6 0000     		.short	0
 4028 0be8 0000     		.short	0
 4029 0bea 0000     		.short	0
 4030 0bec 0000     		.short	0
 4031 0bee 0000     		.short	0
ARM GAS  /var/folders/g9/bbpj86ld7fx45vd1b3pqxmp00000gn/T//cc4EjzoN.s 			page 100


 4032 0bf0 0000     		.short	0
 4033 0bf2 FFFF     		.short	-1
 4034 0bf4 FFFF     		.short	-1
 4035 0bf6 0000     		.short	0
 4036 0bf8 0000     		.short	0
 4037 0bfa 0000     		.short	0
 4038 0bfc 0000     		.short	0
 4039 0bfe 0000     		.short	0
 4040 0c00 0000     		.short	0
 4041 0c02 0C00     		.short	12
 4042 0c04 0C00     		.short	12
 4043 0c06 0C00     		.short	12
 4044 0c08 0C00     		.short	12
 4045 0c0a 0C00     		.short	12
 4046 0c0c 0C00     		.short	12
 4047 0c0e 0000     		.short	0
 4048 0c10 0000     		.short	0
 4049 0c12 0000     		.short	0
 4050 0c14 0000     		.short	0
 4051 0c16 0000     		.short	0
 4052 0c18 0000     		.short	0
 4053 0c1a 0000     		.short	0
 4054 0c1c 0000     		.short	0
 4055 0c1e 0000     		.short	0
 4056 0c20 0000     		.short	0
 4057 0c22 0000     		.short	0
 4058 0c24 0000     		.short	0
 4059 0c26 0000     		.short	0
 4060 0c28 0000     		.short	0
 4061 0c2a 0000     		.short	0
 4062 0c2c 0000     		.short	0
 4063 0c2e 0000     		.short	0
 4064 0c30 0000     		.short	0
 4065 0c32 0000     		.short	0
 4066 0c34 0000     		.short	0
 4067 0c36 0000     		.short	0
 4068 0c38 0000     		.short	0
 4069 0c3a 0000     		.short	0
 4070 0c3c F003     		.short	1008
 4071 0c3e F807     		.short	2040
 4072 0c40 1C0C     		.short	3100
 4073 0c42 0C0C     		.short	3084
 4074 0c44 000F     		.short	3840
 4075 0c46 F00F     		.short	4080
 4076 0c48 F80C     		.short	3320
 4077 0c4a 0C0C     		.short	3084
 4078 0c4c 0C0C     		.short	3084
 4079 0c4e 1C0F     		.short	3868
 4080 0c50 F80F     		.short	4088
 4081 0c52 F018     		.short	6384
 4082 0c54 0000     		.short	0
 4083 0c56 0000     		.short	0
 4084 0c58 0000     		.short	0
 4085 0c5a 0000     		.short	0
 4086 0c5c 0000     		.short	0
 4087 0c5e 0000     		.short	0
 4088 0c60 0000     		.short	0
ARM GAS  /var/folders/g9/bbpj86ld7fx45vd1b3pqxmp00000gn/T//cc4EjzoN.s 			page 101


 4089 0c62 1800     		.short	24
 4090 0c64 1800     		.short	24
 4091 0c66 1800     		.short	24
 4092 0c68 1800     		.short	24
 4093 0c6a 1800     		.short	24
 4094 0c6c D803     		.short	984
 4095 0c6e F80F     		.short	4088
 4096 0c70 380C     		.short	3128
 4097 0c72 1818     		.short	6168
 4098 0c74 1818     		.short	6168
 4099 0c76 1818     		.short	6168
 4100 0c78 1818     		.short	6168
 4101 0c7a 1818     		.short	6168
 4102 0c7c 1818     		.short	6168
 4103 0c7e 380C     		.short	3128
 4104 0c80 F80F     		.short	4088
 4105 0c82 D803     		.short	984
 4106 0c84 0000     		.short	0
 4107 0c86 0000     		.short	0
 4108 0c88 0000     		.short	0
 4109 0c8a 0000     		.short	0
 4110 0c8c 0000     		.short	0
 4111 0c8e 0000     		.short	0
 4112 0c90 0000     		.short	0
 4113 0c92 0000     		.short	0
 4114 0c94 0000     		.short	0
 4115 0c96 0000     		.short	0
 4116 0c98 0000     		.short	0
 4117 0c9a 0000     		.short	0
 4118 0c9c C003     		.short	960
 4119 0c9e F007     		.short	2032
 4120 0ca0 300E     		.short	3632
 4121 0ca2 180C     		.short	3096
 4122 0ca4 1800     		.short	24
 4123 0ca6 1800     		.short	24
 4124 0ca8 1800     		.short	24
 4125 0caa 1800     		.short	24
 4126 0cac 180C     		.short	3096
 4127 0cae 300E     		.short	3632
 4128 0cb0 F007     		.short	2032
 4129 0cb2 C003     		.short	960
 4130 0cb4 0000     		.short	0
 4131 0cb6 0000     		.short	0
 4132 0cb8 0000     		.short	0
 4133 0cba 0000     		.short	0
 4134 0cbc 0000     		.short	0
 4135 0cbe 0000     		.short	0
 4136 0cc0 0000     		.short	0
 4137 0cc2 0018     		.short	6144
 4138 0cc4 0018     		.short	6144
 4139 0cc6 0018     		.short	6144
 4140 0cc8 0018     		.short	6144
 4141 0cca 0018     		.short	6144
 4142 0ccc C01B     		.short	7104
 4143 0cce F01F     		.short	8176
 4144 0cd0 301C     		.short	7216
 4145 0cd2 1818     		.short	6168
ARM GAS  /var/folders/g9/bbpj86ld7fx45vd1b3pqxmp00000gn/T//cc4EjzoN.s 			page 102


 4146 0cd4 1818     		.short	6168
 4147 0cd6 1818     		.short	6168
 4148 0cd8 1818     		.short	6168
 4149 0cda 1818     		.short	6168
 4150 0cdc 1818     		.short	6168
 4151 0cde 301C     		.short	7216
 4152 0ce0 F01F     		.short	8176
 4153 0ce2 C01B     		.short	7104
 4154 0ce4 0000     		.short	0
 4155 0ce6 0000     		.short	0
 4156 0ce8 0000     		.short	0
 4157 0cea 0000     		.short	0
 4158 0cec 0000     		.short	0
 4159 0cee 0000     		.short	0
 4160 0cf0 0000     		.short	0
 4161 0cf2 0000     		.short	0
 4162 0cf4 0000     		.short	0
 4163 0cf6 0000     		.short	0
 4164 0cf8 0000     		.short	0
 4165 0cfa 0000     		.short	0
 4166 0cfc C003     		.short	960
 4167 0cfe F00F     		.short	4080
 4168 0d00 300C     		.short	3120
 4169 0d02 1818     		.short	6168
 4170 0d04 F81F     		.short	8184
 4171 0d06 F81F     		.short	8184
 4172 0d08 1800     		.short	24
 4173 0d0a 1800     		.short	24
 4174 0d0c 3818     		.short	6200
 4175 0d0e 301C     		.short	7216
 4176 0d10 F00F     		.short	4080
 4177 0d12 C007     		.short	1984
 4178 0d14 0000     		.short	0
 4179 0d16 0000     		.short	0
 4180 0d18 0000     		.short	0
 4181 0d1a 0000     		.short	0
 4182 0d1c 0000     		.short	0
 4183 0d1e 0000     		.short	0
 4184 0d20 0000     		.short	0
 4185 0d22 800F     		.short	3968
 4186 0d24 C00F     		.short	4032
 4187 0d26 C000     		.short	192
 4188 0d28 C000     		.short	192
 4189 0d2a C000     		.short	192
 4190 0d2c F007     		.short	2032
 4191 0d2e F007     		.short	2032
 4192 0d30 C000     		.short	192
 4193 0d32 C000     		.short	192
 4194 0d34 C000     		.short	192
 4195 0d36 C000     		.short	192
 4196 0d38 C000     		.short	192
 4197 0d3a C000     		.short	192
 4198 0d3c C000     		.short	192
 4199 0d3e C000     		.short	192
 4200 0d40 C000     		.short	192
 4201 0d42 C000     		.short	192
 4202 0d44 0000     		.short	0
ARM GAS  /var/folders/g9/bbpj86ld7fx45vd1b3pqxmp00000gn/T//cc4EjzoN.s 			page 103


 4203 0d46 0000     		.short	0
 4204 0d48 0000     		.short	0
 4205 0d4a 0000     		.short	0
 4206 0d4c 0000     		.short	0
 4207 0d4e 0000     		.short	0
 4208 0d50 0000     		.short	0
 4209 0d52 0000     		.short	0
 4210 0d54 0000     		.short	0
 4211 0d56 0000     		.short	0
 4212 0d58 0000     		.short	0
 4213 0d5a 0000     		.short	0
 4214 0d5c E00D     		.short	3552
 4215 0d5e F80F     		.short	4088
 4216 0d60 180E     		.short	3608
 4217 0d62 0C0C     		.short	3084
 4218 0d64 0C0C     		.short	3084
 4219 0d66 0C0C     		.short	3084
 4220 0d68 0C0C     		.short	3084
 4221 0d6a 0C0C     		.short	3084
 4222 0d6c 0C0C     		.short	3084
 4223 0d6e 180E     		.short	3608
 4224 0d70 F80F     		.short	4088
 4225 0d72 E00D     		.short	3552
 4226 0d74 000C     		.short	3072
 4227 0d76 0C0C     		.short	3084
 4228 0d78 1C06     		.short	1564
 4229 0d7a F807     		.short	2040
 4230 0d7c F001     		.short	496
 4231 0d7e 0000     		.short	0
 4232 0d80 0000     		.short	0
 4233 0d82 1800     		.short	24
 4234 0d84 1800     		.short	24
 4235 0d86 1800     		.short	24
 4236 0d88 1800     		.short	24
 4237 0d8a 1800     		.short	24
 4238 0d8c D807     		.short	2008
 4239 0d8e F80F     		.short	4088
 4240 0d90 381C     		.short	7224
 4241 0d92 1818     		.short	6168
 4242 0d94 1818     		.short	6168
 4243 0d96 1818     		.short	6168
 4244 0d98 1818     		.short	6168
 4245 0d9a 1818     		.short	6168
 4246 0d9c 1818     		.short	6168
 4247 0d9e 1818     		.short	6168
 4248 0da0 1818     		.short	6168
 4249 0da2 1818     		.short	6168
 4250 0da4 0000     		.short	0
 4251 0da6 0000     		.short	0
 4252 0da8 0000     		.short	0
 4253 0daa 0000     		.short	0
 4254 0dac 0000     		.short	0
 4255 0dae 0000     		.short	0
 4256 0db0 0000     		.short	0
 4257 0db2 C000     		.short	192
 4258 0db4 C000     		.short	192
 4259 0db6 0000     		.short	0
ARM GAS  /var/folders/g9/bbpj86ld7fx45vd1b3pqxmp00000gn/T//cc4EjzoN.s 			page 104


 4260 0db8 0000     		.short	0
 4261 0dba 0000     		.short	0
 4262 0dbc C000     		.short	192
 4263 0dbe C000     		.short	192
 4264 0dc0 C000     		.short	192
 4265 0dc2 C000     		.short	192
 4266 0dc4 C000     		.short	192
 4267 0dc6 C000     		.short	192
 4268 0dc8 C000     		.short	192
 4269 0dca C000     		.short	192
 4270 0dcc C000     		.short	192
 4271 0dce C000     		.short	192
 4272 0dd0 C000     		.short	192
 4273 0dd2 C000     		.short	192
 4274 0dd4 0000     		.short	0
 4275 0dd6 0000     		.short	0
 4276 0dd8 0000     		.short	0
 4277 0dda 0000     		.short	0
 4278 0ddc 0000     		.short	0
 4279 0dde 0000     		.short	0
 4280 0de0 0000     		.short	0
 4281 0de2 C000     		.short	192
 4282 0de4 C000     		.short	192
 4283 0de6 0000     		.short	0
 4284 0de8 0000     		.short	0
 4285 0dea 0000     		.short	0
 4286 0dec C000     		.short	192
 4287 0dee C000     		.short	192
 4288 0df0 C000     		.short	192
 4289 0df2 C000     		.short	192
 4290 0df4 C000     		.short	192
 4291 0df6 C000     		.short	192
 4292 0df8 C000     		.short	192
 4293 0dfa C000     		.short	192
 4294 0dfc C000     		.short	192
 4295 0dfe C000     		.short	192
 4296 0e00 C000     		.short	192
 4297 0e02 C000     		.short	192
 4298 0e04 C000     		.short	192
 4299 0e06 C000     		.short	192
 4300 0e08 C000     		.short	192
 4301 0e0a F800     		.short	248
 4302 0e0c 7800     		.short	120
 4303 0e0e 0000     		.short	0
 4304 0e10 0000     		.short	0
 4305 0e12 0C00     		.short	12
 4306 0e14 0C00     		.short	12
 4307 0e16 0C00     		.short	12
 4308 0e18 0C00     		.short	12
 4309 0e1a 0C00     		.short	12
 4310 0e1c 0C0C     		.short	3084
 4311 0e1e 0C06     		.short	1548
 4312 0e20 0C03     		.short	780
 4313 0e22 8C01     		.short	396
 4314 0e24 CC00     		.short	204
 4315 0e26 6C00     		.short	108
 4316 0e28 FC00     		.short	252
ARM GAS  /var/folders/g9/bbpj86ld7fx45vd1b3pqxmp00000gn/T//cc4EjzoN.s 			page 105


 4317 0e2a 9C01     		.short	412
 4318 0e2c 8C03     		.short	908
 4319 0e2e 0C03     		.short	780
 4320 0e30 0C06     		.short	1548
 4321 0e32 0C0C     		.short	3084
 4322 0e34 0000     		.short	0
 4323 0e36 0000     		.short	0
 4324 0e38 0000     		.short	0
 4325 0e3a 0000     		.short	0
 4326 0e3c 0000     		.short	0
 4327 0e3e 0000     		.short	0
 4328 0e40 0000     		.short	0
 4329 0e42 C000     		.short	192
 4330 0e44 C000     		.short	192
 4331 0e46 C000     		.short	192
 4332 0e48 C000     		.short	192
 4333 0e4a C000     		.short	192
 4334 0e4c C000     		.short	192
 4335 0e4e C000     		.short	192
 4336 0e50 C000     		.short	192
 4337 0e52 C000     		.short	192
 4338 0e54 C000     		.short	192
 4339 0e56 C000     		.short	192
 4340 0e58 C000     		.short	192
 4341 0e5a C000     		.short	192
 4342 0e5c C000     		.short	192
 4343 0e5e C000     		.short	192
 4344 0e60 C000     		.short	192
 4345 0e62 C000     		.short	192
 4346 0e64 0000     		.short	0
 4347 0e66 0000     		.short	0
 4348 0e68 0000     		.short	0
 4349 0e6a 0000     		.short	0
 4350 0e6c 0000     		.short	0
 4351 0e6e 0000     		.short	0
 4352 0e70 0000     		.short	0
 4353 0e72 0000     		.short	0
 4354 0e74 0000     		.short	0
 4355 0e76 0000     		.short	0
 4356 0e78 0000     		.short	0
 4357 0e7a 0000     		.short	0
 4358 0e7c 7C3C     		.short	15484
 4359 0e7e FF7E     		.short	32511
 4360 0e80 C7E3     		.short	-7225
 4361 0e82 83C1     		.short	-15997
 4362 0e84 83C1     		.short	-15997
 4363 0e86 83C1     		.short	-15997
 4364 0e88 83C1     		.short	-15997
 4365 0e8a 83C1     		.short	-15997
 4366 0e8c 83C1     		.short	-15997
 4367 0e8e 83C1     		.short	-15997
 4368 0e90 83C1     		.short	-15997
 4369 0e92 83C1     		.short	-15997
 4370 0e94 0000     		.short	0
 4371 0e96 0000     		.short	0
 4372 0e98 0000     		.short	0
 4373 0e9a 0000     		.short	0
ARM GAS  /var/folders/g9/bbpj86ld7fx45vd1b3pqxmp00000gn/T//cc4EjzoN.s 			page 106


 4374 0e9c 0000     		.short	0
 4375 0e9e 0000     		.short	0
 4376 0ea0 0000     		.short	0
 4377 0ea2 0000     		.short	0
 4378 0ea4 0000     		.short	0
 4379 0ea6 0000     		.short	0
 4380 0ea8 0000     		.short	0
 4381 0eaa 0000     		.short	0
 4382 0eac 9807     		.short	1944
 4383 0eae F80F     		.short	4088
 4384 0eb0 381C     		.short	7224
 4385 0eb2 1818     		.short	6168
 4386 0eb4 1818     		.short	6168
 4387 0eb6 1818     		.short	6168
 4388 0eb8 1818     		.short	6168
 4389 0eba 1818     		.short	6168
 4390 0ebc 1818     		.short	6168
 4391 0ebe 1818     		.short	6168
 4392 0ec0 1818     		.short	6168
 4393 0ec2 1818     		.short	6168
 4394 0ec4 0000     		.short	0
 4395 0ec6 0000     		.short	0
 4396 0ec8 0000     		.short	0
 4397 0eca 0000     		.short	0
 4398 0ecc 0000     		.short	0
 4399 0ece 0000     		.short	0
 4400 0ed0 0000     		.short	0
 4401 0ed2 0000     		.short	0
 4402 0ed4 0000     		.short	0
 4403 0ed6 0000     		.short	0
 4404 0ed8 0000     		.short	0
 4405 0eda 0000     		.short	0
 4406 0edc C003     		.short	960
 4407 0ede F00F     		.short	4080
 4408 0ee0 300C     		.short	3120
 4409 0ee2 1818     		.short	6168
 4410 0ee4 1818     		.short	6168
 4411 0ee6 1818     		.short	6168
 4412 0ee8 1818     		.short	6168
 4413 0eea 1818     		.short	6168
 4414 0eec 1818     		.short	6168
 4415 0eee 300C     		.short	3120
 4416 0ef0 F00F     		.short	4080
 4417 0ef2 C003     		.short	960
 4418 0ef4 0000     		.short	0
 4419 0ef6 0000     		.short	0
 4420 0ef8 0000     		.short	0
 4421 0efa 0000     		.short	0
 4422 0efc 0000     		.short	0
 4423 0efe 0000     		.short	0
 4424 0f00 0000     		.short	0
 4425 0f02 0000     		.short	0
 4426 0f04 0000     		.short	0
 4427 0f06 0000     		.short	0
 4428 0f08 0000     		.short	0
 4429 0f0a 0000     		.short	0
 4430 0f0c D803     		.short	984
ARM GAS  /var/folders/g9/bbpj86ld7fx45vd1b3pqxmp00000gn/T//cc4EjzoN.s 			page 107


 4431 0f0e F80F     		.short	4088
 4432 0f10 380C     		.short	3128
 4433 0f12 1818     		.short	6168
 4434 0f14 1818     		.short	6168
 4435 0f16 1818     		.short	6168
 4436 0f18 1818     		.short	6168
 4437 0f1a 1818     		.short	6168
 4438 0f1c 1818     		.short	6168
 4439 0f1e 380C     		.short	3128
 4440 0f20 F80F     		.short	4088
 4441 0f22 D803     		.short	984
 4442 0f24 1800     		.short	24
 4443 0f26 1800     		.short	24
 4444 0f28 1800     		.short	24
 4445 0f2a 1800     		.short	24
 4446 0f2c 1800     		.short	24
 4447 0f2e 0000     		.short	0
 4448 0f30 0000     		.short	0
 4449 0f32 0000     		.short	0
 4450 0f34 0000     		.short	0
 4451 0f36 0000     		.short	0
 4452 0f38 0000     		.short	0
 4453 0f3a 0000     		.short	0
 4454 0f3c C01B     		.short	7104
 4455 0f3e F01F     		.short	8176
 4456 0f40 301C     		.short	7216
 4457 0f42 1818     		.short	6168
 4458 0f44 1818     		.short	6168
 4459 0f46 1818     		.short	6168
 4460 0f48 1818     		.short	6168
 4461 0f4a 1818     		.short	6168
 4462 0f4c 1818     		.short	6168
 4463 0f4e 301C     		.short	7216
 4464 0f50 F01F     		.short	8176
 4465 0f52 C01B     		.short	7104
 4466 0f54 0018     		.short	6144
 4467 0f56 0018     		.short	6144
 4468 0f58 0018     		.short	6144
 4469 0f5a 0018     		.short	6144
 4470 0f5c 0018     		.short	6144
 4471 0f5e 0000     		.short	0
 4472 0f60 0000     		.short	0
 4473 0f62 0000     		.short	0
 4474 0f64 0000     		.short	0
 4475 0f66 0000     		.short	0
 4476 0f68 0000     		.short	0
 4477 0f6a 0000     		.short	0
 4478 0f6c B007     		.short	1968
 4479 0f6e F003     		.short	1008
 4480 0f70 7000     		.short	112
 4481 0f72 3000     		.short	48
 4482 0f74 3000     		.short	48
 4483 0f76 3000     		.short	48
 4484 0f78 3000     		.short	48
 4485 0f7a 3000     		.short	48
 4486 0f7c 3000     		.short	48
 4487 0f7e 3000     		.short	48
ARM GAS  /var/folders/g9/bbpj86ld7fx45vd1b3pqxmp00000gn/T//cc4EjzoN.s 			page 108


 4488 0f80 3000     		.short	48
 4489 0f82 3000     		.short	48
 4490 0f84 0000     		.short	0
 4491 0f86 0000     		.short	0
 4492 0f88 0000     		.short	0
 4493 0f8a 0000     		.short	0
 4494 0f8c 0000     		.short	0
 4495 0f8e 0000     		.short	0
 4496 0f90 0000     		.short	0
 4497 0f92 0000     		.short	0
 4498 0f94 0000     		.short	0
 4499 0f96 0000     		.short	0
 4500 0f98 0000     		.short	0
 4501 0f9a 0000     		.short	0
 4502 0f9c E003     		.short	992
 4503 0f9e F003     		.short	1008
 4504 0fa0 380E     		.short	3640
 4505 0fa2 180C     		.short	3096
 4506 0fa4 3800     		.short	56
 4507 0fa6 F003     		.short	1008
 4508 0fa8 C007     		.short	1984
 4509 0faa 000C     		.short	3072
 4510 0fac 180C     		.short	3096
 4511 0fae 380E     		.short	3640
 4512 0fb0 F007     		.short	2032
 4513 0fb2 E003     		.short	992
 4514 0fb4 0000     		.short	0
 4515 0fb6 0000     		.short	0
 4516 0fb8 0000     		.short	0
 4517 0fba 0000     		.short	0
 4518 0fbc 0000     		.short	0
 4519 0fbe 0000     		.short	0
 4520 0fc0 0000     		.short	0
 4521 0fc2 0000     		.short	0
 4522 0fc4 8000     		.short	128
 4523 0fc6 C000     		.short	192
 4524 0fc8 C000     		.short	192
 4525 0fca C000     		.short	192
 4526 0fcc F007     		.short	2032
 4527 0fce F007     		.short	2032
 4528 0fd0 C000     		.short	192
 4529 0fd2 C000     		.short	192
 4530 0fd4 C000     		.short	192
 4531 0fd6 C000     		.short	192
 4532 0fd8 C000     		.short	192
 4533 0fda C000     		.short	192
 4534 0fdc C000     		.short	192
 4535 0fde C000     		.short	192
 4536 0fe0 C007     		.short	1984
 4537 0fe2 8007     		.short	1920
 4538 0fe4 0000     		.short	0
 4539 0fe6 0000     		.short	0
 4540 0fe8 0000     		.short	0
 4541 0fea 0000     		.short	0
 4542 0fec 0000     		.short	0
 4543 0fee 0000     		.short	0
 4544 0ff0 0000     		.short	0
ARM GAS  /var/folders/g9/bbpj86ld7fx45vd1b3pqxmp00000gn/T//cc4EjzoN.s 			page 109


 4545 0ff2 0000     		.short	0
 4546 0ff4 0000     		.short	0
 4547 0ff6 0000     		.short	0
 4548 0ff8 0000     		.short	0
 4549 0ffa 0000     		.short	0
 4550 0ffc 1818     		.short	6168
 4551 0ffe 1818     		.short	6168
 4552 1000 1818     		.short	6168
 4553 1002 1818     		.short	6168
 4554 1004 1818     		.short	6168
 4555 1006 1818     		.short	6168
 4556 1008 1818     		.short	6168
 4557 100a 1818     		.short	6168
 4558 100c 1818     		.short	6168
 4559 100e 381C     		.short	7224
 4560 1010 F01F     		.short	8176
 4561 1012 E019     		.short	6624
 4562 1014 0000     		.short	0
 4563 1016 0000     		.short	0
 4564 1018 0000     		.short	0
 4565 101a 0000     		.short	0
 4566 101c 0000     		.short	0
 4567 101e 0000     		.short	0
 4568 1020 0000     		.short	0
 4569 1022 0000     		.short	0
 4570 1024 0000     		.short	0
 4571 1026 0000     		.short	0
 4572 1028 0000     		.short	0
 4573 102a 0000     		.short	0
 4574 102c 0C18     		.short	6156
 4575 102e 180C     		.short	3096
 4576 1030 180C     		.short	3096
 4577 1032 180C     		.short	3096
 4578 1034 3006     		.short	1584
 4579 1036 3006     		.short	1584
 4580 1038 3006     		.short	1584
 4581 103a 6003     		.short	864
 4582 103c 6003     		.short	864
 4583 103e 6003     		.short	864
 4584 1040 C001     		.short	448
 4585 1042 C001     		.short	448
 4586 1044 0000     		.short	0
 4587 1046 0000     		.short	0
 4588 1048 0000     		.short	0
 4589 104a 0000     		.short	0
 4590 104c 0000     		.short	0
 4591 104e 0000     		.short	0
 4592 1050 0000     		.short	0
 4593 1052 0000     		.short	0
 4594 1054 0000     		.short	0
 4595 1056 0000     		.short	0
 4596 1058 0000     		.short	0
 4597 105a 0000     		.short	0
 4598 105c C141     		.short	16833
 4599 105e C141     		.short	16833
 4600 1060 C361     		.short	25027
 4601 1062 6363     		.short	25443
ARM GAS  /var/folders/g9/bbpj86ld7fx45vd1b3pqxmp00000gn/T//cc4EjzoN.s 			page 110


 4602 1064 6363     		.short	25443
 4603 1066 6363     		.short	25443
 4604 1068 3636     		.short	13878
 4605 106a 3636     		.short	13878
 4606 106c 3636     		.short	13878
 4607 106e 1C1C     		.short	7196
 4608 1070 1C1C     		.short	7196
 4609 1072 1C1C     		.short	7196
 4610 1074 0000     		.short	0
 4611 1076 0000     		.short	0
 4612 1078 0000     		.short	0
 4613 107a 0000     		.short	0
 4614 107c 0000     		.short	0
 4615 107e 0000     		.short	0
 4616 1080 0000     		.short	0
 4617 1082 0000     		.short	0
 4618 1084 0000     		.short	0
 4619 1086 0000     		.short	0
 4620 1088 0000     		.short	0
 4621 108a 0000     		.short	0
 4622 108c 1C38     		.short	14364
 4623 108e 381C     		.short	7224
 4624 1090 300C     		.short	3120
 4625 1092 6006     		.short	1632
 4626 1094 6003     		.short	864
 4627 1096 6003     		.short	864
 4628 1098 6003     		.short	864
 4629 109a 6003     		.short	864
 4630 109c 6006     		.short	1632
 4631 109e 300C     		.short	3120
 4632 10a0 381C     		.short	7224
 4633 10a2 1C38     		.short	14364
 4634 10a4 0000     		.short	0
 4635 10a6 0000     		.short	0
 4636 10a8 0000     		.short	0
 4637 10aa 0000     		.short	0
 4638 10ac 0000     		.short	0
 4639 10ae 0000     		.short	0
 4640 10b0 0000     		.short	0
 4641 10b2 0000     		.short	0
 4642 10b4 0000     		.short	0
 4643 10b6 0000     		.short	0
 4644 10b8 0000     		.short	0
 4645 10ba 0000     		.short	0
 4646 10bc 1830     		.short	12312
 4647 10be 3018     		.short	6192
 4648 10c0 3018     		.short	6192
 4649 10c2 7018     		.short	6256
 4650 10c4 600C     		.short	3168
 4651 10c6 600C     		.short	3168
 4652 10c8 E00C     		.short	3296
 4653 10ca C006     		.short	1728
 4654 10cc C006     		.short	1728
 4655 10ce 8003     		.short	896
 4656 10d0 8003     		.short	896
 4657 10d2 8003     		.short	896
 4658 10d4 8001     		.short	384
ARM GAS  /var/folders/g9/bbpj86ld7fx45vd1b3pqxmp00000gn/T//cc4EjzoN.s 			page 111


 4659 10d6 8001     		.short	384
 4660 10d8 C001     		.short	448
 4661 10da F000     		.short	240
 4662 10dc 7000     		.short	112
 4663 10de 0000     		.short	0
 4664 10e0 0000     		.short	0
 4665 10e2 0000     		.short	0
 4666 10e4 0000     		.short	0
 4667 10e6 0000     		.short	0
 4668 10e8 0000     		.short	0
 4669 10ea 0000     		.short	0
 4670 10ec FC1F     		.short	8188
 4671 10ee FC1F     		.short	8188
 4672 10f0 000C     		.short	3072
 4673 10f2 0006     		.short	1536
 4674 10f4 0003     		.short	768
 4675 10f6 8001     		.short	384
 4676 10f8 C000     		.short	192
 4677 10fa 6000     		.short	96
 4678 10fc 3000     		.short	48
 4679 10fe 1800     		.short	24
 4680 1100 FC1F     		.short	8188
 4681 1102 FC1F     		.short	8188
 4682 1104 0000     		.short	0
 4683 1106 0000     		.short	0
 4684 1108 0000     		.short	0
 4685 110a 0000     		.short	0
 4686 110c 0000     		.short	0
 4687 110e 0000     		.short	0
 4688 1110 0000     		.short	0
 4689 1112 0003     		.short	768
 4690 1114 8001     		.short	384
 4691 1116 C000     		.short	192
 4692 1118 C000     		.short	192
 4693 111a C000     		.short	192
 4694 111c C000     		.short	192
 4695 111e C000     		.short	192
 4696 1120 C000     		.short	192
 4697 1122 6000     		.short	96
 4698 1124 6000     		.short	96
 4699 1126 3000     		.short	48
 4700 1128 6000     		.short	96
 4701 112a 4000     		.short	64
 4702 112c C000     		.short	192
 4703 112e C000     		.short	192
 4704 1130 C000     		.short	192
 4705 1132 C000     		.short	192
 4706 1134 C000     		.short	192
 4707 1136 C000     		.short	192
 4708 1138 8001     		.short	384
 4709 113a 0003     		.short	768
 4710 113c 0000     		.short	0
 4711 113e 0000     		.short	0
 4712 1140 0000     		.short	0
 4713 1142 8001     		.short	384
 4714 1144 8001     		.short	384
 4715 1146 8001     		.short	384
ARM GAS  /var/folders/g9/bbpj86ld7fx45vd1b3pqxmp00000gn/T//cc4EjzoN.s 			page 112


 4716 1148 8001     		.short	384
 4717 114a 8001     		.short	384
 4718 114c 8001     		.short	384
 4719 114e 8001     		.short	384
 4720 1150 8001     		.short	384
 4721 1152 8001     		.short	384
 4722 1154 8001     		.short	384
 4723 1156 8001     		.short	384
 4724 1158 8001     		.short	384
 4725 115a 8001     		.short	384
 4726 115c 8001     		.short	384
 4727 115e 8001     		.short	384
 4728 1160 8001     		.short	384
 4729 1162 8001     		.short	384
 4730 1164 8001     		.short	384
 4731 1166 8001     		.short	384
 4732 1168 8001     		.short	384
 4733 116a 8001     		.short	384
 4734 116c 8001     		.short	384
 4735 116e 0000     		.short	0
 4736 1170 0000     		.short	0
 4737 1172 6000     		.short	96
 4738 1174 C000     		.short	192
 4739 1176 C001     		.short	448
 4740 1178 8001     		.short	384
 4741 117a 8001     		.short	384
 4742 117c 8001     		.short	384
 4743 117e 8001     		.short	384
 4744 1180 8001     		.short	384
 4745 1182 0003     		.short	768
 4746 1184 0003     		.short	768
 4747 1186 0006     		.short	1536
 4748 1188 0003     		.short	768
 4749 118a 0001     		.short	256
 4750 118c 8001     		.short	384
 4751 118e 8001     		.short	384
 4752 1190 8001     		.short	384
 4753 1192 8001     		.short	384
 4754 1194 8001     		.short	384
 4755 1196 8001     		.short	384
 4756 1198 C000     		.short	192
 4757 119a 6000     		.short	96
 4758 119c 0000     		.short	0
 4759 119e 0000     		.short	0
 4760 11a0 0000     		.short	0
 4761 11a2 0000     		.short	0
 4762 11a4 0000     		.short	0
 4763 11a6 0000     		.short	0
 4764 11a8 0000     		.short	0
 4765 11aa 0000     		.short	0
 4766 11ac 0000     		.short	0
 4767 11ae 0000     		.short	0
 4768 11b0 F010     		.short	4336
 4769 11b2 F81F     		.short	8184
 4770 11b4 080F     		.short	3848
 4771 11b6 0000     		.short	0
 4772 11b8 0000     		.short	0
ARM GAS  /var/folders/g9/bbpj86ld7fx45vd1b3pqxmp00000gn/T//cc4EjzoN.s 			page 113


 4773 11ba 0000     		.short	0
 4774 11bc 0000     		.short	0
 4775 11be 0000     		.short	0
 4776 11c0 0000     		.short	0
 4777 11c2 0000     		.short	0
 4778 11c4 0000     		.short	0
 4779 11c6 0000     		.short	0
 4780 11c8 0000     		.short	0
 4781 11ca 0000     		.short	0
 4782 11cc 0000     		.short	0
 4783 11ce 0000     		.short	0
 4784              		.section	.data.BackColor,"aw",%progbits
 4785              		.align	1
 4786              		.set	.LANCHOR1,. + 0
 4789              	BackColor:
 4790 0000 FFFF     		.short	-1
 4791              		.section	.rodata.str1.4,"aMS",%progbits,1
 4792              		.align	2
 4793              	.LC0:
 4794 0000 20202020 		.ascii	"                    \000"
 4794      20202020 
 4794      20202020 
 4794      20202020 
 4794      20202020 
 4795 0015 000000   		.space	3
 4796              	.LC1:
 4797 0018 20202053 		.ascii	"   String too long  \000"
 4797      7472696E 
 4797      6720746F 
 4797      6F206C6F 
 4797      6E672020 
 4798              		.section	.bss.TextColor,"aw",%nobits
 4799              		.align	1
 4800              		.set	.LANCHOR0,. + 0
 4803              	TextColor:
 4804 0000 0000     		.space	2
 4805              		.text
 4806              	.Letext0:
 4807              		.file 2 "/usr/local/Cellar/gcc-arm-none-eabi/20160926/arm-none-eabi/include/machine/_default_types
 4808              		.file 3 "/usr/local/Cellar/gcc-arm-none-eabi/20160926/arm-none-eabi/include/sys/_stdint.h"
 4809              		.file 4 "CMSIS/Core/CM3/stm32f10x.h"
 4810              		.file 5 "STM32F10x_StdPeriph_Driver/inc/stm32f10x_gpio.h"
 4811              		.file 6 "STM32F10x_StdPeriph_Driver/inc/stm32f10x_spi.h"
 4812              		.file 7 "FreeRTOS/ARM_CM3/portmacro.h"
 4813              		.file 8 "FreeRTOS/Inc/task.h"
 4814              		.file 9 "FreeRTOS/test_Inc/spi_flash.h"
 4815              		.file 10 "STM32F10x_StdPeriph_Driver/inc/stm32f10x_rcc.h"
ARM GAS  /var/folders/g9/bbpj86ld7fx45vd1b3pqxmp00000gn/T//cc4EjzoN.s 			page 114


DEFINED SYMBOLS
                            *ABS*:0000000000000000 lcd.c
/var/folders/g9/bbpj86ld7fx45vd1b3pqxmp00000gn/T//cc4EjzoN.s:20     .text.StrLength:0000000000000000 $t
/var/folders/g9/bbpj86ld7fx45vd1b3pqxmp00000gn/T//cc4EjzoN.s:24     .text.StrLength:0000000000000000 StrLength
/var/folders/g9/bbpj86ld7fx45vd1b3pqxmp00000gn/T//cc4EjzoN.s:57     .text.LCD_SetTextColor:0000000000000000 $t
/var/folders/g9/bbpj86ld7fx45vd1b3pqxmp00000gn/T//cc4EjzoN.s:62     .text.LCD_SetTextColor:0000000000000000 LCD_SetTextColor
/var/folders/g9/bbpj86ld7fx45vd1b3pqxmp00000gn/T//cc4EjzoN.s:88     .text.LCD_SetTextColor:0000000000000014 $d
/var/folders/g9/bbpj86ld7fx45vd1b3pqxmp00000gn/T//cc4EjzoN.s:93     .text.LCD_SetBackColor:0000000000000000 $t
/var/folders/g9/bbpj86ld7fx45vd1b3pqxmp00000gn/T//cc4EjzoN.s:98     .text.LCD_SetBackColor:0000000000000000 LCD_SetBackColor
/var/folders/g9/bbpj86ld7fx45vd1b3pqxmp00000gn/T//cc4EjzoN.s:124    .text.LCD_SetBackColor:0000000000000014 $d
/var/folders/g9/bbpj86ld7fx45vd1b3pqxmp00000gn/T//cc4EjzoN.s:129    .text.LCD_CtrlLinesConfig:0000000000000000 $t
/var/folders/g9/bbpj86ld7fx45vd1b3pqxmp00000gn/T//cc4EjzoN.s:134    .text.LCD_CtrlLinesConfig:0000000000000000 LCD_CtrlLinesConfig
/var/folders/g9/bbpj86ld7fx45vd1b3pqxmp00000gn/T//cc4EjzoN.s:178    .text.LCD_CtrlLinesConfig:0000000000000034 $d
/var/folders/g9/bbpj86ld7fx45vd1b3pqxmp00000gn/T//cc4EjzoN.s:184    .text.LCD_CtrlLinesWrite:0000000000000000 $t
/var/folders/g9/bbpj86ld7fx45vd1b3pqxmp00000gn/T//cc4EjzoN.s:189    .text.LCD_CtrlLinesWrite:0000000000000000 LCD_CtrlLinesWrite
/var/folders/g9/bbpj86ld7fx45vd1b3pqxmp00000gn/T//cc4EjzoN.s:209    .text.LCD_WriteReg:0000000000000000 $t
/var/folders/g9/bbpj86ld7fx45vd1b3pqxmp00000gn/T//cc4EjzoN.s:214    .text.LCD_WriteReg:0000000000000000 LCD_WriteReg
/var/folders/g9/bbpj86ld7fx45vd1b3pqxmp00000gn/T//cc4EjzoN.s:276    .text.LCD_WriteReg:000000000000004c $d
/var/folders/g9/bbpj86ld7fx45vd1b3pqxmp00000gn/T//cc4EjzoN.s:283    .text.LCD_SetCursor:0000000000000000 $t
/var/folders/g9/bbpj86ld7fx45vd1b3pqxmp00000gn/T//cc4EjzoN.s:288    .text.LCD_SetCursor:0000000000000000 LCD_SetCursor
/var/folders/g9/bbpj86ld7fx45vd1b3pqxmp00000gn/T//cc4EjzoN.s:323    .text.LCD_SetDisplayWindow:0000000000000000 $t
/var/folders/g9/bbpj86ld7fx45vd1b3pqxmp00000gn/T//cc4EjzoN.s:328    .text.LCD_SetDisplayWindow:0000000000000000 LCD_SetDisplayWindow
/var/folders/g9/bbpj86ld7fx45vd1b3pqxmp00000gn/T//cc4EjzoN.s:407    .text.LCD_PowerOn:0000000000000000 $t
/var/folders/g9/bbpj86ld7fx45vd1b3pqxmp00000gn/T//cc4EjzoN.s:412    .text.LCD_PowerOn:0000000000000000 LCD_PowerOn
/var/folders/g9/bbpj86ld7fx45vd1b3pqxmp00000gn/T//cc4EjzoN.s:503    .text.LCD_DisplayOn:0000000000000000 $t
/var/folders/g9/bbpj86ld7fx45vd1b3pqxmp00000gn/T//cc4EjzoN.s:508    .text.LCD_DisplayOn:0000000000000000 LCD_DisplayOn
/var/folders/g9/bbpj86ld7fx45vd1b3pqxmp00000gn/T//cc4EjzoN.s:553    .text.LCD_DisplayOff:0000000000000000 $t
/var/folders/g9/bbpj86ld7fx45vd1b3pqxmp00000gn/T//cc4EjzoN.s:558    .text.LCD_DisplayOff:0000000000000000 LCD_DisplayOff
/var/folders/g9/bbpj86ld7fx45vd1b3pqxmp00000gn/T//cc4EjzoN.s:588    .text.LCD_ReadReg:0000000000000000 $t
/var/folders/g9/bbpj86ld7fx45vd1b3pqxmp00000gn/T//cc4EjzoN.s:593    .text.LCD_ReadReg:0000000000000000 LCD_ReadReg
/var/folders/g9/bbpj86ld7fx45vd1b3pqxmp00000gn/T//cc4EjzoN.s:688    .text.LCD_ReadReg:000000000000007c $d
/var/folders/g9/bbpj86ld7fx45vd1b3pqxmp00000gn/T//cc4EjzoN.s:695    .text.LCD_WriteRAM:0000000000000000 $t
/var/folders/g9/bbpj86ld7fx45vd1b3pqxmp00000gn/T//cc4EjzoN.s:700    .text.LCD_WriteRAM:0000000000000000 LCD_WriteRAM
/var/folders/g9/bbpj86ld7fx45vd1b3pqxmp00000gn/T//cc4EjzoN.s:758    .text.LCD_WriteRAM:0000000000000048 $d
/var/folders/g9/bbpj86ld7fx45vd1b3pqxmp00000gn/T//cc4EjzoN.s:765    .text.LCD_Clear:0000000000000000 $t
/var/folders/g9/bbpj86ld7fx45vd1b3pqxmp00000gn/T//cc4EjzoN.s:770    .text.LCD_Clear:0000000000000000 LCD_Clear
/var/folders/g9/bbpj86ld7fx45vd1b3pqxmp00000gn/T//cc4EjzoN.s:809    .text.LCD_DrawChar:0000000000000000 $t
/var/folders/g9/bbpj86ld7fx45vd1b3pqxmp00000gn/T//cc4EjzoN.s:814    .text.LCD_DrawChar:0000000000000000 LCD_DrawChar
/var/folders/g9/bbpj86ld7fx45vd1b3pqxmp00000gn/T//cc4EjzoN.s:897    .text.LCD_DrawChar:0000000000000054 $d
/var/folders/g9/bbpj86ld7fx45vd1b3pqxmp00000gn/T//cc4EjzoN.s:903    .text.LCD_DisplayChar:0000000000000000 $t
/var/folders/g9/bbpj86ld7fx45vd1b3pqxmp00000gn/T//cc4EjzoN.s:908    .text.LCD_DisplayChar:0000000000000000 LCD_DisplayChar
/var/folders/g9/bbpj86ld7fx45vd1b3pqxmp00000gn/T//cc4EjzoN.s:938    .text.LCD_DisplayChar:0000000000000018 $d
/var/folders/g9/bbpj86ld7fx45vd1b3pqxmp00000gn/T//cc4EjzoN.s:943    .text.LCD_DisplayStringLine:0000000000000000 $t
/var/folders/g9/bbpj86ld7fx45vd1b3pqxmp00000gn/T//cc4EjzoN.s:948    .text.LCD_DisplayStringLine:0000000000000000 LCD_DisplayStringLine
/var/folders/g9/bbpj86ld7fx45vd1b3pqxmp00000gn/T//cc4EjzoN.s:1008   .text.LCD_ClearLine:0000000000000000 $t
/var/folders/g9/bbpj86ld7fx45vd1b3pqxmp00000gn/T//cc4EjzoN.s:1013   .text.LCD_ClearLine:0000000000000000 LCD_ClearLine
/var/folders/g9/bbpj86ld7fx45vd1b3pqxmp00000gn/T//cc4EjzoN.s:1033   .text.LCD_ClearLine:000000000000000c $d
/var/folders/g9/bbpj86ld7fx45vd1b3pqxmp00000gn/T//cc4EjzoN.s:1038   .text.LCD_DisplayString:0000000000000000 $t
/var/folders/g9/bbpj86ld7fx45vd1b3pqxmp00000gn/T//cc4EjzoN.s:1043   .text.LCD_DisplayString:0000000000000000 LCD_DisplayString
/var/folders/g9/bbpj86ld7fx45vd1b3pqxmp00000gn/T//cc4EjzoN.s:1227   .text.LCD_DisplayString:00000000000000d4 $d
/var/folders/g9/bbpj86ld7fx45vd1b3pqxmp00000gn/T//cc4EjzoN.s:1232   .text.LCD_ScrollText:0000000000000000 $t
/var/folders/g9/bbpj86ld7fx45vd1b3pqxmp00000gn/T//cc4EjzoN.s:1237   .text.LCD_ScrollText:0000000000000000 LCD_ScrollText
/var/folders/g9/bbpj86ld7fx45vd1b3pqxmp00000gn/T//cc4EjzoN.s:1331   .text.LCD_DrawLine:0000000000000000 $t
/var/folders/g9/bbpj86ld7fx45vd1b3pqxmp00000gn/T//cc4EjzoN.s:1336   .text.LCD_DrawLine:0000000000000000 LCD_DrawLine
/var/folders/g9/bbpj86ld7fx45vd1b3pqxmp00000gn/T//cc4EjzoN.s:1415   .text.LCD_DrawLine:0000000000000048 $d
/var/folders/g9/bbpj86ld7fx45vd1b3pqxmp00000gn/T//cc4EjzoN.s:1420   .text.LCD_DrawRect:0000000000000000 $t
/var/folders/g9/bbpj86ld7fx45vd1b3pqxmp00000gn/T//cc4EjzoN.s:1425   .text.LCD_DrawRect:0000000000000000 LCD_DrawRect
ARM GAS  /var/folders/g9/bbpj86ld7fx45vd1b3pqxmp00000gn/T//cc4EjzoN.s 			page 115


/var/folders/g9/bbpj86ld7fx45vd1b3pqxmp00000gn/T//cc4EjzoN.s:1482   .text.LCD_DrawCircle:0000000000000000 $t
/var/folders/g9/bbpj86ld7fx45vd1b3pqxmp00000gn/T//cc4EjzoN.s:1487   .text.LCD_DrawCircle:0000000000000000 LCD_DrawCircle
/var/folders/g9/bbpj86ld7fx45vd1b3pqxmp00000gn/T//cc4EjzoN.s:1668   .text.LCD_DrawCircle:0000000000000110 $d
/var/folders/g9/bbpj86ld7fx45vd1b3pqxmp00000gn/T//cc4EjzoN.s:1673   .text.LCD_DrawMonoPict:0000000000000000 $t
/var/folders/g9/bbpj86ld7fx45vd1b3pqxmp00000gn/T//cc4EjzoN.s:1678   .text.LCD_DrawMonoPict:0000000000000000 LCD_DrawMonoPict
/var/folders/g9/bbpj86ld7fx45vd1b3pqxmp00000gn/T//cc4EjzoN.s:1751   .text.LCD_DrawMonoPict:0000000000000048 $d
/var/folders/g9/bbpj86ld7fx45vd1b3pqxmp00000gn/T//cc4EjzoN.s:1757   .text.LCD_DrawBMP:0000000000000000 $t
/var/folders/g9/bbpj86ld7fx45vd1b3pqxmp00000gn/T//cc4EjzoN.s:1762   .text.LCD_DrawBMP:0000000000000000 LCD_DrawBMP
/var/folders/g9/bbpj86ld7fx45vd1b3pqxmp00000gn/T//cc4EjzoN.s:1861   .text.LCD_DrawBMP:0000000000000080 $d
/var/folders/g9/bbpj86ld7fx45vd1b3pqxmp00000gn/T//cc4EjzoN.s:1866   .text.LCD_ReadRAM:0000000000000000 $t
/var/folders/g9/bbpj86ld7fx45vd1b3pqxmp00000gn/T//cc4EjzoN.s:1871   .text.LCD_ReadRAM:0000000000000000 LCD_ReadRAM
/var/folders/g9/bbpj86ld7fx45vd1b3pqxmp00000gn/T//cc4EjzoN.s:1942   .text.LCD_ReadRAM:000000000000005c $d
/var/folders/g9/bbpj86ld7fx45vd1b3pqxmp00000gn/T//cc4EjzoN.s:1949   .text.LCD_SPIConfig:0000000000000000 $t
/var/folders/g9/bbpj86ld7fx45vd1b3pqxmp00000gn/T//cc4EjzoN.s:1954   .text.LCD_SPIConfig:0000000000000000 LCD_SPIConfig
/var/folders/g9/bbpj86ld7fx45vd1b3pqxmp00000gn/T//cc4EjzoN.s:2032   .text.LCD_SPIConfig:0000000000000078 $d
/var/folders/g9/bbpj86ld7fx45vd1b3pqxmp00000gn/T//cc4EjzoN.s:2038   .text.LCD_Init:0000000000000000 $t
/var/folders/g9/bbpj86ld7fx45vd1b3pqxmp00000gn/T//cc4EjzoN.s:2043   .text.LCD_Init:0000000000000000 LCD_Init
/var/folders/g9/bbpj86ld7fx45vd1b3pqxmp00000gn/T//cc4EjzoN.s:2503   .rodata.ASCII_Table:0000000000000000 ASCII_Table
/var/folders/g9/bbpj86ld7fx45vd1b3pqxmp00000gn/T//cc4EjzoN.s:2499   .rodata.ASCII_Table:0000000000000000 $d
/var/folders/g9/bbpj86ld7fx45vd1b3pqxmp00000gn/T//cc4EjzoN.s:4785   .data.BackColor:0000000000000000 $d
/var/folders/g9/bbpj86ld7fx45vd1b3pqxmp00000gn/T//cc4EjzoN.s:4789   .data.BackColor:0000000000000000 BackColor
/var/folders/g9/bbpj86ld7fx45vd1b3pqxmp00000gn/T//cc4EjzoN.s:4792   .rodata.str1.4:0000000000000000 $d
/var/folders/g9/bbpj86ld7fx45vd1b3pqxmp00000gn/T//cc4EjzoN.s:4799   .bss.TextColor:0000000000000000 $d
/var/folders/g9/bbpj86ld7fx45vd1b3pqxmp00000gn/T//cc4EjzoN.s:4803   .bss.TextColor:0000000000000000 TextColor
                     .debug_frame:0000000000000010 $d

UNDEFINED SYMBOLS
GPIO_Init
GPIO_WriteBit
SPI_I2S_SendData
SPI_I2S_GetFlagStatus
vTaskDelay
SPI_ReceiveData
SPI_FLASH_StartReadSequence
SPI_Cmd
SPI_DataSizeConfig
SPI_FLASH_SendHalfWord
__REV_HalfWord
SPI_FLASH_ChipSelect
RCC_APB2PeriphClockCmd
RCC_APB1PeriphClockCmd
SPI_Init
