ARM GAS  /var/folders/g9/bbpj86ld7fx45vd1b3pqxmp00000gn/T//cc6DvkXf.s 			page 1


   1              		.syntax unified
   2              		.cpu cortex-m3
   3              		.fpu softvfp
   4              		.eabi_attribute 20, 1
   5              		.eabi_attribute 21, 1
   6              		.eabi_attribute 23, 3
   7              		.eabi_attribute 24, 1
   8              		.eabi_attribute 25, 1
   9              		.eabi_attribute 26, 1
  10              		.eabi_attribute 30, 1
  11              		.eabi_attribute 34, 1
  12              		.eabi_attribute 18, 4
  13              		.thumb
  14              		.syntax unified
  15              		.file	"led.c"
  16              		.text
  17              	.Ltext0:
  18              		.cfi_sections	.debug_frame
  19              		.section	.text.LED_On_Red,"ax",%progbits
  20              		.align	2
  21              		.global	LED_On_Red
  22              		.thumb
  23              		.thumb_func
  25              	LED_On_Red:
  26              	.LFB28:
  27              		.file 1 "src/Hw_driver/led.c"
   1:src/Hw_driver/led.c **** /*
   2:src/Hw_driver/led.c ****  * (C) COPYRIGHT 2009 CRZ
   3:src/Hw_driver/led.c ****  *
   4:src/Hw_driver/led.c ****  * File Name : led.c
   5:src/Hw_driver/led.c ****  * Author    : POOH
   6:src/Hw_driver/led.c ****  * Version   : V1.0
   7:src/Hw_driver/led.c ****  * Date      : 08/13/2009
   8:src/Hw_driver/led.c ****  */
   9:src/Hw_driver/led.c **** 
  10:src/Hw_driver/led.c **** /* includes */
  11:src/Hw_driver/led.c **** 
  12:src/Hw_driver/led.c **** #include "hw_config.h"
  13:src/Hw_driver/led.c **** 
  14:src/Hw_driver/led.c **** /* functions */
  15:src/Hw_driver/led.c **** 
  16:src/Hw_driver/led.c **** /*
  17:src/Hw_driver/led.c ****  * GPIO_LED1_PIN  // RED
  18:src/Hw_driver/led.c ****  * GPIO_LED2_PIN  // YELLOW
  19:src/Hw_driver/led.c ****  * GPIO_LED3_PIN  // BLUE
  20:src/Hw_driver/led.c ****  */
  21:src/Hw_driver/led.c **** 
  22:src/Hw_driver/led.c **** void LED_On_Red (void)
  23:src/Hw_driver/led.c **** {
  28              		.loc 1 23 0
  29              		.cfi_startproc
  30              		@ args = 0, pretend = 0, frame = 0
  31              		@ frame_needed = 0, uses_anonymous_args = 0
  32 0000 08B5     		push	{r3, lr}
  33              	.LCFI0:
  34              		.cfi_def_cfa_offset 8
  35              		.cfi_offset 3, -8
ARM GAS  /var/folders/g9/bbpj86ld7fx45vd1b3pqxmp00000gn/T//cc6DvkXf.s 			page 2


  36              		.cfi_offset 14, -4
  24:src/Hw_driver/led.c ****     GPIO_ResetBits(GPIO_LED, GPIO_LED1_PIN);
  37              		.loc 1 24 0
  38 0002 4FF40071 		mov	r1, #512
  39 0006 0248     		ldr	r0, .L3
  40 0008 FFF7FEFF 		bl	GPIO_ResetBits
  41              	.LVL0:
  42 000c 08BD     		pop	{r3, pc}
  43              	.L4:
  44 000e 00BF     		.align	2
  45              	.L3:
  46 0010 000C0140 		.word	1073810432
  47              		.cfi_endproc
  48              	.LFE28:
  50              		.section	.text.LED_Off_Red,"ax",%progbits
  51              		.align	2
  52              		.global	LED_Off_Red
  53              		.thumb
  54              		.thumb_func
  56              	LED_Off_Red:
  57              	.LFB29:
  25:src/Hw_driver/led.c **** }
  26:src/Hw_driver/led.c **** 
  27:src/Hw_driver/led.c **** void LED_Off_Red (void)
  28:src/Hw_driver/led.c **** {
  58              		.loc 1 28 0
  59              		.cfi_startproc
  60              		@ args = 0, pretend = 0, frame = 0
  61              		@ frame_needed = 0, uses_anonymous_args = 0
  62 0000 08B5     		push	{r3, lr}
  63              	.LCFI1:
  64              		.cfi_def_cfa_offset 8
  65              		.cfi_offset 3, -8
  66              		.cfi_offset 14, -4
  29:src/Hw_driver/led.c ****     GPIO_SetBits(GPIO_LED, GPIO_LED1_PIN);
  67              		.loc 1 29 0
  68 0002 4FF40071 		mov	r1, #512
  69 0006 0248     		ldr	r0, .L7
  70 0008 FFF7FEFF 		bl	GPIO_SetBits
  71              	.LVL1:
  72 000c 08BD     		pop	{r3, pc}
  73              	.L8:
  74 000e 00BF     		.align	2
  75              	.L7:
  76 0010 000C0140 		.word	1073810432
  77              		.cfi_endproc
  78              	.LFE29:
  80              		.section	.text.LED_Toggle_Red,"ax",%progbits
  81              		.align	2
  82              		.global	LED_Toggle_Red
  83              		.thumb
  84              		.thumb_func
  86              	LED_Toggle_Red:
  87              	.LFB30:
  30:src/Hw_driver/led.c **** }
  31:src/Hw_driver/led.c **** 
  32:src/Hw_driver/led.c **** void LED_Toggle_Red (void)
ARM GAS  /var/folders/g9/bbpj86ld7fx45vd1b3pqxmp00000gn/T//cc6DvkXf.s 			page 3


  33:src/Hw_driver/led.c **** {
  88              		.loc 1 33 0
  89              		.cfi_startproc
  90              		@ args = 0, pretend = 0, frame = 0
  91              		@ frame_needed = 0, uses_anonymous_args = 0
  92 0000 10B5     		push	{r4, lr}
  93              	.LCFI2:
  94              		.cfi_def_cfa_offset 8
  95              		.cfi_offset 4, -8
  96              		.cfi_offset 14, -4
  34:src/Hw_driver/led.c ****     GPIO_WriteBit(GPIO_LED, GPIO_LED1_PIN,
  35:src/Hw_driver/led.c ****                   (BitAction)(1-GPIO_ReadOutputDataBit(GPIO_LED, GPIO_LED1_PIN)));
  97              		.loc 1 35 0
  98 0002 074C     		ldr	r4, .L11
  99 0004 4FF40071 		mov	r1, #512
 100 0008 2046     		mov	r0, r4
 101 000a FFF7FEFF 		bl	GPIO_ReadOutputDataBit
 102              	.LVL2:
  34:src/Hw_driver/led.c ****     GPIO_WriteBit(GPIO_LED, GPIO_LED1_PIN,
 103              		.loc 1 34 0
 104 000e C0F10102 		rsb	r2, r0, #1
 105 0012 D2B2     		uxtb	r2, r2
 106 0014 4FF40071 		mov	r1, #512
 107 0018 2046     		mov	r0, r4
 108 001a FFF7FEFF 		bl	GPIO_WriteBit
 109              	.LVL3:
 110 001e 10BD     		pop	{r4, pc}
 111              	.L12:
 112              		.align	2
 113              	.L11:
 114 0020 000C0140 		.word	1073810432
 115              		.cfi_endproc
 116              	.LFE30:
 118              		.section	.text.LED_On_Yellow,"ax",%progbits
 119              		.align	2
 120              		.global	LED_On_Yellow
 121              		.thumb
 122              		.thumb_func
 124              	LED_On_Yellow:
 125              	.LFB31:
  36:src/Hw_driver/led.c **** }
  37:src/Hw_driver/led.c **** 
  38:src/Hw_driver/led.c **** void LED_On_Yellow (void)
  39:src/Hw_driver/led.c **** {
 126              		.loc 1 39 0
 127              		.cfi_startproc
 128              		@ args = 0, pretend = 0, frame = 0
 129              		@ frame_needed = 0, uses_anonymous_args = 0
 130 0000 08B5     		push	{r3, lr}
 131              	.LCFI3:
 132              		.cfi_def_cfa_offset 8
 133              		.cfi_offset 3, -8
 134              		.cfi_offset 14, -4
  40:src/Hw_driver/led.c ****     GPIO_ResetBits(GPIO_LED, GPIO_LED2_PIN);
 135              		.loc 1 40 0
 136 0002 2021     		movs	r1, #32
 137 0004 0148     		ldr	r0, .L15
ARM GAS  /var/folders/g9/bbpj86ld7fx45vd1b3pqxmp00000gn/T//cc6DvkXf.s 			page 4


 138 0006 FFF7FEFF 		bl	GPIO_ResetBits
 139              	.LVL4:
 140 000a 08BD     		pop	{r3, pc}
 141              	.L16:
 142              		.align	2
 143              	.L15:
 144 000c 000C0140 		.word	1073810432
 145              		.cfi_endproc
 146              	.LFE31:
 148              		.section	.text.LED_Off_Yellow,"ax",%progbits
 149              		.align	2
 150              		.global	LED_Off_Yellow
 151              		.thumb
 152              		.thumb_func
 154              	LED_Off_Yellow:
 155              	.LFB32:
  41:src/Hw_driver/led.c **** }
  42:src/Hw_driver/led.c **** 
  43:src/Hw_driver/led.c **** void LED_Off_Yellow (void)
  44:src/Hw_driver/led.c **** {
 156              		.loc 1 44 0
 157              		.cfi_startproc
 158              		@ args = 0, pretend = 0, frame = 0
 159              		@ frame_needed = 0, uses_anonymous_args = 0
 160 0000 08B5     		push	{r3, lr}
 161              	.LCFI4:
 162              		.cfi_def_cfa_offset 8
 163              		.cfi_offset 3, -8
 164              		.cfi_offset 14, -4
  45:src/Hw_driver/led.c ****     GPIO_SetBits(GPIO_LED, GPIO_LED2_PIN);
 165              		.loc 1 45 0
 166 0002 2021     		movs	r1, #32
 167 0004 0148     		ldr	r0, .L19
 168 0006 FFF7FEFF 		bl	GPIO_SetBits
 169              	.LVL5:
 170 000a 08BD     		pop	{r3, pc}
 171              	.L20:
 172              		.align	2
 173              	.L19:
 174 000c 000C0140 		.word	1073810432
 175              		.cfi_endproc
 176              	.LFE32:
 178              		.section	.text.LED_Toggle_Yellow,"ax",%progbits
 179              		.align	2
 180              		.global	LED_Toggle_Yellow
 181              		.thumb
 182              		.thumb_func
 184              	LED_Toggle_Yellow:
 185              	.LFB33:
  46:src/Hw_driver/led.c **** }
  47:src/Hw_driver/led.c **** 
  48:src/Hw_driver/led.c **** void LED_Toggle_Yellow (void)
  49:src/Hw_driver/led.c **** {
 186              		.loc 1 49 0
 187              		.cfi_startproc
 188              		@ args = 0, pretend = 0, frame = 0
 189              		@ frame_needed = 0, uses_anonymous_args = 0
ARM GAS  /var/folders/g9/bbpj86ld7fx45vd1b3pqxmp00000gn/T//cc6DvkXf.s 			page 5


 190 0000 10B5     		push	{r4, lr}
 191              	.LCFI5:
 192              		.cfi_def_cfa_offset 8
 193              		.cfi_offset 4, -8
 194              		.cfi_offset 14, -4
  50:src/Hw_driver/led.c ****     GPIO_WriteBit(GPIO_LED, GPIO_LED2_PIN,
  51:src/Hw_driver/led.c ****                   (BitAction)(1-GPIO_ReadOutputDataBit(GPIO_LED, GPIO_LED2_PIN)));
 195              		.loc 1 51 0
 196 0002 064C     		ldr	r4, .L23
 197 0004 2021     		movs	r1, #32
 198 0006 2046     		mov	r0, r4
 199 0008 FFF7FEFF 		bl	GPIO_ReadOutputDataBit
 200              	.LVL6:
  50:src/Hw_driver/led.c ****     GPIO_WriteBit(GPIO_LED, GPIO_LED2_PIN,
 201              		.loc 1 50 0
 202 000c C0F10102 		rsb	r2, r0, #1
 203 0010 D2B2     		uxtb	r2, r2
 204 0012 2021     		movs	r1, #32
 205 0014 2046     		mov	r0, r4
 206 0016 FFF7FEFF 		bl	GPIO_WriteBit
 207              	.LVL7:
 208 001a 10BD     		pop	{r4, pc}
 209              	.L24:
 210              		.align	2
 211              	.L23:
 212 001c 000C0140 		.word	1073810432
 213              		.cfi_endproc
 214              	.LFE33:
 216              		.section	.text.LED_On_Blue,"ax",%progbits
 217              		.align	2
 218              		.global	LED_On_Blue
 219              		.thumb
 220              		.thumb_func
 222              	LED_On_Blue:
 223              	.LFB34:
  52:src/Hw_driver/led.c **** }
  53:src/Hw_driver/led.c **** 
  54:src/Hw_driver/led.c **** void LED_On_Blue (void)
  55:src/Hw_driver/led.c **** {
 224              		.loc 1 55 0
 225              		.cfi_startproc
 226              		@ args = 0, pretend = 0, frame = 0
 227              		@ frame_needed = 0, uses_anonymous_args = 0
 228 0000 08B5     		push	{r3, lr}
 229              	.LCFI6:
 230              		.cfi_def_cfa_offset 8
 231              		.cfi_offset 3, -8
 232              		.cfi_offset 14, -4
  56:src/Hw_driver/led.c ****     GPIO_ResetBits(GPIO_LED, GPIO_LED3_PIN);
 233              		.loc 1 56 0
 234 0002 4FF48071 		mov	r1, #256
 235 0006 0248     		ldr	r0, .L27
 236 0008 FFF7FEFF 		bl	GPIO_ResetBits
 237              	.LVL8:
 238 000c 08BD     		pop	{r3, pc}
 239              	.L28:
 240 000e 00BF     		.align	2
ARM GAS  /var/folders/g9/bbpj86ld7fx45vd1b3pqxmp00000gn/T//cc6DvkXf.s 			page 6


 241              	.L27:
 242 0010 000C0140 		.word	1073810432
 243              		.cfi_endproc
 244              	.LFE34:
 246              		.section	.text.LED_Off_Blue,"ax",%progbits
 247              		.align	2
 248              		.global	LED_Off_Blue
 249              		.thumb
 250              		.thumb_func
 252              	LED_Off_Blue:
 253              	.LFB35:
  57:src/Hw_driver/led.c **** }
  58:src/Hw_driver/led.c **** 
  59:src/Hw_driver/led.c **** void LED_Off_Blue (void)
  60:src/Hw_driver/led.c **** {
 254              		.loc 1 60 0
 255              		.cfi_startproc
 256              		@ args = 0, pretend = 0, frame = 0
 257              		@ frame_needed = 0, uses_anonymous_args = 0
 258 0000 08B5     		push	{r3, lr}
 259              	.LCFI7:
 260              		.cfi_def_cfa_offset 8
 261              		.cfi_offset 3, -8
 262              		.cfi_offset 14, -4
  61:src/Hw_driver/led.c ****     GPIO_SetBits(GPIO_LED, GPIO_LED3_PIN);
 263              		.loc 1 61 0
 264 0002 4FF48071 		mov	r1, #256
 265 0006 0248     		ldr	r0, .L31
 266 0008 FFF7FEFF 		bl	GPIO_SetBits
 267              	.LVL9:
 268 000c 08BD     		pop	{r3, pc}
 269              	.L32:
 270 000e 00BF     		.align	2
 271              	.L31:
 272 0010 000C0140 		.word	1073810432
 273              		.cfi_endproc
 274              	.LFE35:
 276              		.section	.text.LED_Toggle_Blue,"ax",%progbits
 277              		.align	2
 278              		.global	LED_Toggle_Blue
 279              		.thumb
 280              		.thumb_func
 282              	LED_Toggle_Blue:
 283              	.LFB36:
  62:src/Hw_driver/led.c **** }
  63:src/Hw_driver/led.c **** 
  64:src/Hw_driver/led.c **** void LED_Toggle_Blue (void)
  65:src/Hw_driver/led.c **** {
 284              		.loc 1 65 0
 285              		.cfi_startproc
 286              		@ args = 0, pretend = 0, frame = 0
 287              		@ frame_needed = 0, uses_anonymous_args = 0
 288 0000 10B5     		push	{r4, lr}
 289              	.LCFI8:
 290              		.cfi_def_cfa_offset 8
 291              		.cfi_offset 4, -8
 292              		.cfi_offset 14, -4
ARM GAS  /var/folders/g9/bbpj86ld7fx45vd1b3pqxmp00000gn/T//cc6DvkXf.s 			page 7


  66:src/Hw_driver/led.c ****     GPIO_WriteBit(GPIO_LED, GPIO_LED3_PIN,
  67:src/Hw_driver/led.c ****                   (BitAction)(1-GPIO_ReadOutputDataBit(GPIO_LED, GPIO_LED3_PIN)));
 293              		.loc 1 67 0
 294 0002 074C     		ldr	r4, .L35
 295 0004 4FF48071 		mov	r1, #256
 296 0008 2046     		mov	r0, r4
 297 000a FFF7FEFF 		bl	GPIO_ReadOutputDataBit
 298              	.LVL10:
  66:src/Hw_driver/led.c ****     GPIO_WriteBit(GPIO_LED, GPIO_LED3_PIN,
 299              		.loc 1 66 0
 300 000e C0F10102 		rsb	r2, r0, #1
 301 0012 D2B2     		uxtb	r2, r2
 302 0014 4FF48071 		mov	r1, #256
 303 0018 2046     		mov	r0, r4
 304 001a FFF7FEFF 		bl	GPIO_WriteBit
 305              	.LVL11:
 306 001e 10BD     		pop	{r4, pc}
 307              	.L36:
 308              		.align	2
 309              	.L35:
 310 0020 000C0140 		.word	1073810432
 311              		.cfi_endproc
 312              	.LFE36:
 314              		.section	.text.LED_On_All,"ax",%progbits
 315              		.align	2
 316              		.global	LED_On_All
 317              		.thumb
 318              		.thumb_func
 320              	LED_On_All:
 321              	.LFB37:
  68:src/Hw_driver/led.c **** }
  69:src/Hw_driver/led.c **** 
  70:src/Hw_driver/led.c **** void LED_On_All (void)
  71:src/Hw_driver/led.c **** {
 322              		.loc 1 71 0
 323              		.cfi_startproc
 324              		@ args = 0, pretend = 0, frame = 0
 325              		@ frame_needed = 0, uses_anonymous_args = 0
 326 0000 08B5     		push	{r3, lr}
 327              	.LCFI9:
 328              		.cfi_def_cfa_offset 8
 329              		.cfi_offset 3, -8
 330              		.cfi_offset 14, -4
  72:src/Hw_driver/led.c ****     LED_On_Red();
 331              		.loc 1 72 0
 332 0002 FFF7FEFF 		bl	LED_On_Red
 333              	.LVL12:
  73:src/Hw_driver/led.c ****     LED_On_Yellow();
 334              		.loc 1 73 0
 335 0006 FFF7FEFF 		bl	LED_On_Yellow
 336              	.LVL13:
  74:src/Hw_driver/led.c ****     LED_On_Blue();
 337              		.loc 1 74 0
 338 000a FFF7FEFF 		bl	LED_On_Blue
 339              	.LVL14:
 340 000e 08BD     		pop	{r3, pc}
 341              		.cfi_endproc
ARM GAS  /var/folders/g9/bbpj86ld7fx45vd1b3pqxmp00000gn/T//cc6DvkXf.s 			page 8


 342              	.LFE37:
 344              		.section	.text.LED_Off_All,"ax",%progbits
 345              		.align	2
 346              		.global	LED_Off_All
 347              		.thumb
 348              		.thumb_func
 350              	LED_Off_All:
 351              	.LFB38:
  75:src/Hw_driver/led.c **** }
  76:src/Hw_driver/led.c **** 
  77:src/Hw_driver/led.c **** void LED_Off_All (void)
  78:src/Hw_driver/led.c **** {
 352              		.loc 1 78 0
 353              		.cfi_startproc
 354              		@ args = 0, pretend = 0, frame = 0
 355              		@ frame_needed = 0, uses_anonymous_args = 0
 356 0000 08B5     		push	{r3, lr}
 357              	.LCFI10:
 358              		.cfi_def_cfa_offset 8
 359              		.cfi_offset 3, -8
 360              		.cfi_offset 14, -4
  79:src/Hw_driver/led.c ****     LED_Off_Red();
 361              		.loc 1 79 0
 362 0002 FFF7FEFF 		bl	LED_Off_Red
 363              	.LVL15:
  80:src/Hw_driver/led.c ****     LED_Off_Yellow();
 364              		.loc 1 80 0
 365 0006 FFF7FEFF 		bl	LED_Off_Yellow
 366              	.LVL16:
  81:src/Hw_driver/led.c ****     LED_Off_Blue();
 367              		.loc 1 81 0
 368 000a FFF7FEFF 		bl	LED_Off_Blue
 369              	.LVL17:
 370 000e 08BD     		pop	{r3, pc}
 371              		.cfi_endproc
 372              	.LFE38:
 374              		.section	.text.LED_OnOffAll_Mult,"ax",%progbits
 375              		.align	2
 376              		.global	LED_OnOffAll_Mult
 377              		.thumb
 378              		.thumb_func
 380              	LED_OnOffAll_Mult:
 381              	.LFB39:
  82:src/Hw_driver/led.c **** }
  83:src/Hw_driver/led.c **** 
  84:src/Hw_driver/led.c **** void LED_OnOffAll_Mult(uint32_t count)
  85:src/Hw_driver/led.c **** {
 382              		.loc 1 85 0
 383              		.cfi_startproc
 384              		@ args = 0, pretend = 0, frame = 0
 385              		@ frame_needed = 0, uses_anonymous_args = 0
 386              	.LVL18:
 387 0000 10B5     		push	{r4, lr}
 388              	.LCFI11:
 389              		.cfi_def_cfa_offset 8
 390              		.cfi_offset 4, -8
 391              		.cfi_offset 14, -4
ARM GAS  /var/folders/g9/bbpj86ld7fx45vd1b3pqxmp00000gn/T//cc6DvkXf.s 			page 9


 392 0002 0446     		mov	r4, r0
  86:src/Hw_driver/led.c ****     for(; count > 0; count --)
 393              		.loc 1 86 0
 394 0004 18E0     		b	.L42
 395              	.LVL19:
 396              	.L43:
  87:src/Hw_driver/led.c ****     {
  88:src/Hw_driver/led.c ****         LED_Off_Red();
 397              		.loc 1 88 0 discriminator 2
 398 0006 FFF7FEFF 		bl	LED_Off_Red
 399              	.LVL20:
  89:src/Hw_driver/led.c ****         LED_On_Yellow();
 400              		.loc 1 89 0 discriminator 2
 401 000a FFF7FEFF 		bl	LED_On_Yellow
 402              	.LVL21:
  90:src/Hw_driver/led.c ****         LED_On_Blue();
 403              		.loc 1 90 0 discriminator 2
 404 000e FFF7FEFF 		bl	LED_On_Blue
 405              	.LVL22:
  91:src/Hw_driver/led.c ****         delay_1_second();
 406              		.loc 1 91 0 discriminator 2
 407 0012 FFF7FEFF 		bl	delay_1_second
 408              	.LVL23:
  92:src/Hw_driver/led.c **** 
  93:src/Hw_driver/led.c ****         LED_On_Red();
 409              		.loc 1 93 0 discriminator 2
 410 0016 FFF7FEFF 		bl	LED_On_Red
 411              	.LVL24:
  94:src/Hw_driver/led.c ****         LED_Off_Yellow();
 412              		.loc 1 94 0 discriminator 2
 413 001a FFF7FEFF 		bl	LED_Off_Yellow
 414              	.LVL25:
  95:src/Hw_driver/led.c ****         LED_On_Blue();
 415              		.loc 1 95 0 discriminator 2
 416 001e FFF7FEFF 		bl	LED_On_Blue
 417              	.LVL26:
  96:src/Hw_driver/led.c ****         delay_1_second();
 418              		.loc 1 96 0 discriminator 2
 419 0022 FFF7FEFF 		bl	delay_1_second
 420              	.LVL27:
  97:src/Hw_driver/led.c **** 
  98:src/Hw_driver/led.c ****         LED_On_Red();
 421              		.loc 1 98 0 discriminator 2
 422 0026 FFF7FEFF 		bl	LED_On_Red
 423              	.LVL28:
  99:src/Hw_driver/led.c ****         LED_On_Yellow();
 424              		.loc 1 99 0 discriminator 2
 425 002a FFF7FEFF 		bl	LED_On_Yellow
 426              	.LVL29:
 100:src/Hw_driver/led.c ****         LED_Off_Blue();
 427              		.loc 1 100 0 discriminator 2
 428 002e FFF7FEFF 		bl	LED_Off_Blue
 429              	.LVL30:
 101:src/Hw_driver/led.c ****         delay_1_second();
 430              		.loc 1 101 0 discriminator 2
 431 0032 FFF7FEFF 		bl	delay_1_second
 432              	.LVL31:
ARM GAS  /var/folders/g9/bbpj86ld7fx45vd1b3pqxmp00000gn/T//cc6DvkXf.s 			page 10


  86:src/Hw_driver/led.c ****     {
 433              		.loc 1 86 0 discriminator 2
 434 0036 013C     		subs	r4, r4, #1
 435              	.LVL32:
 436              	.L42:
  86:src/Hw_driver/led.c ****     {
 437              		.loc 1 86 0 is_stmt 0 discriminator 1
 438 0038 002C     		cmp	r4, #0
 439 003a E4D1     		bne	.L43
 102:src/Hw_driver/led.c ****     }
 103:src/Hw_driver/led.c **** }
 440              		.loc 1 103 0 is_stmt 1
 441 003c 10BD     		pop	{r4, pc}
 442              		.cfi_endproc
 443              	.LFE39:
 445 003e 00BF     		.section	.text.LED_Test,"ax",%progbits
 446              		.align	2
 447              		.global	LED_Test
 448              		.thumb
 449              		.thumb_func
 451              	LED_Test:
 452              	.LFB40:
 104:src/Hw_driver/led.c **** 
 105:src/Hw_driver/led.c **** void LED_Test(void)
 106:src/Hw_driver/led.c **** {
 453              		.loc 1 106 0
 454              		.cfi_startproc
 455              		@ args = 0, pretend = 0, frame = 0
 456              		@ frame_needed = 0, uses_anonymous_args = 0
 457 0000 08B5     		push	{r3, lr}
 458              	.LCFI12:
 459              		.cfi_def_cfa_offset 8
 460              		.cfi_offset 3, -8
 461              		.cfi_offset 14, -4
 107:src/Hw_driver/led.c ****     LED_On_All();
 462              		.loc 1 107 0
 463 0002 FFF7FEFF 		bl	LED_On_All
 464              	.LVL33:
 108:src/Hw_driver/led.c ****     delay_1_second();
 465              		.loc 1 108 0
 466 0006 FFF7FEFF 		bl	delay_1_second
 467              	.LVL34:
 109:src/Hw_driver/led.c ****     LED_Off_All();
 468              		.loc 1 109 0
 469 000a FFF7FEFF 		bl	LED_Off_All
 470              	.LVL35:
 110:src/Hw_driver/led.c ****     delay_1_second();
 471              		.loc 1 110 0
 472 000e FFF7FEFF 		bl	delay_1_second
 473              	.LVL36:
 111:src/Hw_driver/led.c **** 
 112:src/Hw_driver/led.c ****     LED_OnOffAll_Mult(3);
 474              		.loc 1 112 0
 475 0012 0320     		movs	r0, #3
 476 0014 FFF7FEFF 		bl	LED_OnOffAll_Mult
 477              	.LVL37:
 478 0018 08BD     		pop	{r3, pc}
ARM GAS  /var/folders/g9/bbpj86ld7fx45vd1b3pqxmp00000gn/T//cc6DvkXf.s 			page 11


 479              		.cfi_endproc
 480              	.LFE40:
 482 001a 00BF     		.text
 483              	.Letext0:
 484              		.file 2 "/usr/local/Cellar/gcc-arm-none-eabi/20160926/arm-none-eabi/include/machine/_default_types
 485              		.file 3 "/usr/local/Cellar/gcc-arm-none-eabi/20160926/arm-none-eabi/include/sys/_stdint.h"
 486              		.file 4 "CMSIS/Core/CM3/stm32f10x.h"
 487              		.file 5 "STM32F10x_StdPeriph_Driver/inc/stm32f10x_gpio.h"
 488              		.file 6 "Inc/hw_config.h"
ARM GAS  /var/folders/g9/bbpj86ld7fx45vd1b3pqxmp00000gn/T//cc6DvkXf.s 			page 12

