ARM GAS  /var/folders/g9/bbpj86ld7fx45vd1b3pqxmp00000gn/T//ccCydqtf.s 			page 1


   1              		.syntax unified
   2              		.cpu cortex-m3
   3              		.fpu softvfp
   4              		.eabi_attribute 20, 1
   5              		.eabi_attribute 21, 1
   6              		.eabi_attribute 23, 3
   7              		.eabi_attribute 24, 1
   8              		.eabi_attribute 25, 1
   9              		.eabi_attribute 26, 1
  10              		.eabi_attribute 30, 1
  11              		.eabi_attribute 34, 1
  12              		.eabi_attribute 18, 4
  13              		.thumb
  14              		.syntax unified
  15              		.file	"led_menu.c"
  16              		.text
  17              	.Ltext0:
  18              		.cfi_sections	.debug_frame
  19              		.section	.text.Command_Led_Main,"ax",%progbits
  20              		.align	2
  21              		.global	Command_Led_Main
  22              		.thumb
  23              		.thumb_func
  25              	Command_Led_Main:
  26              	.LFB28:
  27              		.file 1 "Menu/src/led_menu.c"
   1:Menu/src/led_menu.c **** #define LED_MENU_LOCAL
   2:Menu/src/led_menu.c **** 
   3:Menu/src/led_menu.c **** #include "led_menu.h"
   4:Menu/src/led_menu.c **** 
   5:Menu/src/led_menu.c **** static unsigned short flag;
   6:Menu/src/led_menu.c **** 
   7:Menu/src/led_menu.c **** LED_MENU_DEF int Command_Led_Main(int argc, char **argv);
   8:Menu/src/led_menu.c **** LED_MENU_DEF int Command_Led_Main_Menu(void);
   9:Menu/src/led_menu.c **** 
  10:Menu/src/led_menu.c **** 
  11:Menu/src/led_menu.c **** LED_MENU_DEF int Command_Led_Main(int argc, char **argv)
  12:Menu/src/led_menu.c **** {
  28              		.loc 1 12 0
  29              		.cfi_startproc
  30              		@ args = 0, pretend = 0, frame = 0
  31              		@ frame_needed = 0, uses_anonymous_args = 0
  32              		@ link register save eliminated.
  33              	.LVL0:
  13:Menu/src/led_menu.c ****     int key;
  14:Menu/src/led_menu.c ****     return 0;
  15:Menu/src/led_menu.c **** }
  34              		.loc 1 15 0
  35 0000 0020     		movs	r0, #0
  36              	.LVL1:
  37 0002 7047     		bx	lr
  38              		.cfi_endproc
  39              	.LFE28:
  41              		.section	.text.Command_Led_Main_Menu,"ax",%progbits
  42              		.align	2
  43              		.global	Command_Led_Main_Menu
  44              		.thumb
ARM GAS  /var/folders/g9/bbpj86ld7fx45vd1b3pqxmp00000gn/T//ccCydqtf.s 			page 2


  45              		.thumb_func
  47              	Command_Led_Main_Menu:
  48              	.LFB29:
  16:Menu/src/led_menu.c **** 
  17:Menu/src/led_menu.c **** LED_MENU_DEF int Command_Led_Main_Menu(void)
  18:Menu/src/led_menu.c **** {
  49              		.loc 1 18 0
  50              		.cfi_startproc
  51              		@ args = 0, pretend = 0, frame = 0
  52              		@ frame_needed = 0, uses_anonymous_args = 0
  53 0000 38B5     		push	{r3, r4, r5, lr}
  54              	.LCFI0:
  55              		.cfi_def_cfa_offset 16
  56              		.cfi_offset 3, -16
  57              		.cfi_offset 4, -12
  58              		.cfi_offset 5, -8
  59              		.cfi_offset 14, -4
  19:Menu/src/led_menu.c ****     int key;
  20:Menu/src/led_menu.c **** 
  21:Menu/src/led_menu.c ****     printf("\r\n\r\n");
  60              		.loc 1 21 0
  61 0002 1F4D     		ldr	r5, .L4
  62 0004 2846     		mov	r0, r5
  63 0006 FFF7FEFF 		bl	puts
  64              	.LVL2:
  22:Menu/src/led_menu.c ****     printf("-------------------------------------------------\r\n");
  65              		.loc 1 22 0
  66 000a 1E4C     		ldr	r4, .L4+4
  67 000c 2046     		mov	r0, r4
  68 000e FFF7FEFF 		bl	puts
  69              	.LVL3:
  23:Menu/src/led_menu.c ****     printf("                 LED MAIN MENU\r\n");
  70              		.loc 1 23 0
  71 0012 1D48     		ldr	r0, .L4+8
  72 0014 FFF7FEFF 		bl	puts
  73              	.LVL4:
  24:Menu/src/led_menu.c ****     printf("-------------------------------------------------\r\n");
  74              		.loc 1 24 0
  75 0018 2046     		mov	r0, r4
  76 001a FFF7FEFF 		bl	puts
  77              	.LVL5:
  25:Menu/src/led_menu.c ****     printf(" 1. Red On                                         \r\n");
  78              		.loc 1 25 0
  79 001e 1B48     		ldr	r0, .L4+12
  80 0020 FFF7FEFF 		bl	puts
  81              	.LVL6:
  26:Menu/src/led_menu.c ****     printf(" 2. Red Off                                         \r\n");
  82              		.loc 1 26 0
  83 0024 1A48     		ldr	r0, .L4+16
  84 0026 FFF7FEFF 		bl	puts
  85              	.LVL7:
  27:Menu/src/led_menu.c ****     printf(" 3. Yellow On                                         \r\n");
  86              		.loc 1 27 0
  87 002a 1A48     		ldr	r0, .L4+20
  88 002c FFF7FEFF 		bl	puts
  89              	.LVL8:
  28:Menu/src/led_menu.c ****     printf(" 4. Yellow Off                                         \r\n");
ARM GAS  /var/folders/g9/bbpj86ld7fx45vd1b3pqxmp00000gn/T//ccCydqtf.s 			page 3


  90              		.loc 1 28 0
  91 0030 1948     		ldr	r0, .L4+24
  92 0032 FFF7FEFF 		bl	puts
  93              	.LVL9:
  29:Menu/src/led_menu.c ****     printf(" 5. Blue On                                         \r\n");
  94              		.loc 1 29 0
  95 0036 1948     		ldr	r0, .L4+28
  96 0038 FFF7FEFF 		bl	puts
  97              	.LVL10:
  30:Menu/src/led_menu.c ****     printf(" 6. Blue Off                                         \r\n");
  98              		.loc 1 30 0
  99 003c 1848     		ldr	r0, .L4+32
 100 003e FFF7FEFF 		bl	puts
 101              	.LVL11:
  31:Menu/src/led_menu.c ****     printf(" 7. Led Test                                         \r\n");
 102              		.loc 1 31 0
 103 0042 1848     		ldr	r0, .L4+36
 104 0044 FFF7FEFF 		bl	puts
 105              	.LVL12:
  32:Menu/src/led_menu.c ****     printf(" 8. System_Information                                         \r\n");
 106              		.loc 1 32 0
 107 0048 1748     		ldr	r0, .L4+40
 108 004a FFF7FEFF 		bl	puts
 109              	.LVL13:
  33:Menu/src/led_menu.c ****     printf(" 9. Test                                         \r\n");
 110              		.loc 1 33 0
 111 004e 1748     		ldr	r0, .L4+44
 112 0050 FFF7FEFF 		bl	puts
 113              	.LVL14:
  34:Menu/src/led_menu.c ****     printf(" 0. Test                                         \r\n");
 114              		.loc 1 34 0
 115 0054 1648     		ldr	r0, .L4+48
 116 0056 FFF7FEFF 		bl	puts
 117              	.LVL15:
  35:Menu/src/led_menu.c ****     printf("-------------------------------------------------\r\n");
 118              		.loc 1 35 0
 119 005a 2046     		mov	r0, r4
 120 005c FFF7FEFF 		bl	puts
 121              	.LVL16:
  36:Menu/src/led_menu.c ****     printf(" q. LED Menu QUIT\r\n");
 122              		.loc 1 36 0
 123 0060 1448     		ldr	r0, .L4+52
 124 0062 FFF7FEFF 		bl	puts
 125              	.LVL17:
  37:Menu/src/led_menu.c ****     printf("-------------------------------------------------\r\n");
 126              		.loc 1 37 0
 127 0066 2046     		mov	r0, r4
 128 0068 FFF7FEFF 		bl	puts
 129              	.LVL18:
  38:Menu/src/led_menu.c ****     printf("\r\n\r\n");
 130              		.loc 1 38 0
 131 006c 2846     		mov	r0, r5
 132 006e FFF7FEFF 		bl	puts
 133              	.LVL19:
  39:Menu/src/led_menu.c **** 
  40:Menu/src/led_menu.c ****     printf("SELECT THE COMMAND NUMBER : ");
 134              		.loc 1 40 0
ARM GAS  /var/folders/g9/bbpj86ld7fx45vd1b3pqxmp00000gn/T//ccCydqtf.s 			page 4


 135 0072 1148     		ldr	r0, .L4+56
 136 0074 FFF7FEFF 		bl	printf
 137              	.LVL20:
  41:Menu/src/led_menu.c ****     key=USART_GetCharacter(USART1);
 138              		.loc 1 41 0
 139 0078 1048     		ldr	r0, .L4+60
 140 007a FFF7FEFF 		bl	USART_GetCharacter
 141              	.LVL21:
  42:Menu/src/led_menu.c ****     
  43:Menu/src/led_menu.c ****     return key;    
  44:Menu/src/led_menu.c **** }...
 142              		.loc 1 44 0
 143 007e 38BD     		pop	{r3, r4, r5, pc}
 144              	.L5:
 145              		.align	2
 146              	.L4:
 147 0080 00000000 		.word	.LC0
 148 0084 04000000 		.word	.LC1
 149 0088 38000000 		.word	.LC2
 150 008c 58000000 		.word	.LC3
 151 0090 90000000 		.word	.LC4
 152 0094 C8000000 		.word	.LC5
 153 0098 00010000 		.word	.LC6
 154 009c 3C010000 		.word	.LC7
 155 00a0 74010000 		.word	.LC8
 156 00a4 AC010000 		.word	.LC9
 157 00a8 E4010000 		.word	.LC10
 158 00ac 28020000 		.word	.LC11
 159 00b0 5C020000 		.word	.LC12
 160 00b4 90020000 		.word	.LC13
 161 00b8 A4020000 		.word	.LC14
 162 00bc 00380140 		.word	1073821696
 163              		.cfi_endproc
 164              	.LFE29:
 166              		.section	.rodata.str1.4,"aMS",%progbits,1
 167              		.align	2
 168              	.LC0:
 169 0000 0D0A0D00 		.ascii	"\015\012\015\000"
 170              	.LC1:
 171 0004 2D2D2D2D 		.ascii	"-------------------------------------------------\015"
 171      2D2D2D2D 
 171      2D2D2D2D 
 171      2D2D2D2D 
 171      2D2D2D2D 
 172 0036 00       		.ascii	"\000"
 173 0037 00       		.space	1
 174              	.LC2:
 175 0038 20202020 		.ascii	"                 LED MAIN MENU\015\000"
 175      20202020 
 175      20202020 
 175      20202020 
 175      204C4544 
 176              	.LC3:
 177 0058 20312E20 		.ascii	" 1. Red On                                         "
 177      52656420 
 177      4F6E2020 
 177      20202020 
ARM GAS  /var/folders/g9/bbpj86ld7fx45vd1b3pqxmp00000gn/T//ccCydqtf.s 			page 5


 177      20202020 
 178 008b 0D00     		.ascii	"\015\000"
 179 008d 000000   		.space	3
 180              	.LC4:
 181 0090 20322E20 		.ascii	" 2. Red Off                                        "
 181      52656420 
 181      4F666620 
 181      20202020 
 181      20202020 
 182 00c3 200D00   		.ascii	" \015\000"
 183 00c6 0000     		.space	2
 184              	.LC5:
 185 00c8 20332E20 		.ascii	" 3. Yellow On                                      "
 185      59656C6C 
 185      6F77204F 
 185      6E202020 
 185      20202020 
 186 00fb 2020200D 		.ascii	"   \015\000"
 186      00
 187              	.LC6:
 188 0100 20342E20 		.ascii	" 4. Yellow Off                                     "
 188      59656C6C 
 188      6F77204F 
 188      66662020 
 188      20202020 
 189 0133 20202020 		.ascii	"    \015\000"
 189      0D00
 190 0139 000000   		.space	3
 191              	.LC7:
 192 013c 20352E20 		.ascii	" 5. Blue On                                        "
 192      426C7565 
 192      204F6E20 
 192      20202020 
 192      20202020 
 193 016f 200D00   		.ascii	" \015\000"
 194 0172 0000     		.space	2
 195              	.LC8:
 196 0174 20362E20 		.ascii	" 6. Blue Off                                       "
 196      426C7565 
 196      204F6666 
 196      20202020 
 196      20202020 
 197 01a7 20200D00 		.ascii	"  \015\000"
 198 01ab 00       		.space	1
 199              	.LC9:
 200 01ac 20372E20 		.ascii	" 7. Led Test                                       "
 200      4C656420 
 200      54657374 
 200      20202020 
 200      20202020 
 201 01df 20200D00 		.ascii	"  \015\000"
 202 01e3 00       		.space	1
 203              	.LC10:
 204 01e4 20382E20 		.ascii	" 8. System_Information                             "
 204      53797374 
 204      656D5F49 
 204      6E666F72 
ARM GAS  /var/folders/g9/bbpj86ld7fx45vd1b3pqxmp00000gn/T//ccCydqtf.s 			page 6


 204      6D617469 
 205 0217 20202020 		.ascii	"            \015\000"
 205      20202020 
 205      20202020 
 205      0D00
 206 0225 000000   		.space	3
 207              	.LC11:
 208 0228 20392E20 		.ascii	" 9. Test                                         \015"
 208      54657374 
 208      20202020 
 208      20202020 
 208      20202020 
 209 025a 00       		.ascii	"\000"
 210 025b 00       		.space	1
 211              	.LC12:
 212 025c 20302E20 		.ascii	" 0. Test                                         \015"
 212      54657374 
 212      20202020 
 212      20202020 
 212      20202020 
 213 028e 00       		.ascii	"\000"
 214 028f 00       		.space	1
 215              	.LC13:
 216 0290 20712E20 		.ascii	" q. LED Menu QUIT\015\000"
 216      4C454420 
 216      4D656E75 
 216      20515549 
 216      540D00
 217 02a3 00       		.space	1
 218              	.LC14:
 219 02a4 53454C45 		.ascii	"SELECT THE COMMAND NUMBER : \000"
 219      43542054 
 219      48452043 
 219      4F4D4D41 
 219      4E44204E 
 220              		.text
 221              	.Letext0:
 222              		.file 2 "/usr/local/Cellar/gcc-arm-none-eabi/20160926/arm-none-eabi/include/machine/_default_types
 223              		.file 3 "/usr/local/Cellar/gcc-arm-none-eabi/20160926/arm-none-eabi/include/sys/_stdint.h"
 224              		.file 4 "CMSIS/Core/CM3/stm32f10x.h"
 225              		.file 5 "/usr/local/Cellar/gcc-arm-none-eabi/20160926/arm-none-eabi/include/stdio.h"
 226              		.file 6 "Inc/hw_config.h"
 227              		.file 7 "<built-in>"
ARM GAS  /var/folders/g9/bbpj86ld7fx45vd1b3pqxmp00000gn/T//ccCydqtf.s 			page 7

