ARM GAS  /var/folders/g9/bbpj86ld7fx45vd1b3pqxmp00000gn/T//ccAXm4kS.s 			page 1


   1              		.syntax unified
   2              		.cpu cortex-m3
   3              		.fpu softvfp
   4              		.eabi_attribute 20, 1
   5              		.eabi_attribute 21, 1
   6              		.eabi_attribute 23, 3
   7              		.eabi_attribute 24, 1
   8              		.eabi_attribute 25, 1
   9              		.eabi_attribute 26, 1
  10              		.eabi_attribute 30, 1
  11              		.eabi_attribute 34, 1
  12              		.eabi_attribute 18, 4
  13              		.thumb
  14              		.syntax unified
  15              		.file	"stm32f10x_usart.c"
  16              		.text
  17              	.Ltext0:
  18              		.cfi_sections	.debug_frame
  19              		.section	.text.USART_DeInit,"ax",%progbits
  20              		.align	2
  21              		.global	USART_DeInit
  22              		.thumb
  23              		.thumb_func
  25              	USART_DeInit:
  26              	.LFB27:
  27              		.file 1 "STM32F10x_StdPeriph_Driver/src/stm32f10x_usart.c"
   1:STM32F10x_StdPeriph_Driver/src/stm32f10x_usart.c **** /**
   2:STM32F10x_StdPeriph_Driver/src/stm32f10x_usart.c ****   ******************************************************************************
   3:STM32F10x_StdPeriph_Driver/src/stm32f10x_usart.c ****   * @file    stm32f10x_usart.c
   4:STM32F10x_StdPeriph_Driver/src/stm32f10x_usart.c ****   * @author  MCD Application Team
   5:STM32F10x_StdPeriph_Driver/src/stm32f10x_usart.c ****   * @version V3.1.2
   6:STM32F10x_StdPeriph_Driver/src/stm32f10x_usart.c ****   * @date    09/28/2009
   7:STM32F10x_StdPeriph_Driver/src/stm32f10x_usart.c ****   * @brief   This file provides all the USART firmware functions.
   8:STM32F10x_StdPeriph_Driver/src/stm32f10x_usart.c ****   ******************************************************************************
   9:STM32F10x_StdPeriph_Driver/src/stm32f10x_usart.c ****   * @copy
  10:STM32F10x_StdPeriph_Driver/src/stm32f10x_usart.c ****   *
  11:STM32F10x_StdPeriph_Driver/src/stm32f10x_usart.c ****   * THE PRESENT FIRMWARE WHICH IS FOR GUIDANCE ONLY AIMS AT PROVIDING CUSTOMERS
  12:STM32F10x_StdPeriph_Driver/src/stm32f10x_usart.c ****   * WITH CODING INFORMATION REGARDING THEIR PRODUCTS IN ORDER FOR THEM TO SAVE
  13:STM32F10x_StdPeriph_Driver/src/stm32f10x_usart.c ****   * TIME. AS A RESULT, STMICROELECTRONICS SHALL NOT BE HELD LIABLE FOR ANY
  14:STM32F10x_StdPeriph_Driver/src/stm32f10x_usart.c ****   * DIRECT, INDIRECT OR CONSEQUENTIAL DAMAGES WITH RESPECT TO ANY CLAIMS ARISING
  15:STM32F10x_StdPeriph_Driver/src/stm32f10x_usart.c ****   * FROM THE CONTENT OF SUCH FIRMWARE AND/OR THE USE MADE BY CUSTOMERS OF THE
  16:STM32F10x_StdPeriph_Driver/src/stm32f10x_usart.c ****   * CODING INFORMATION CONTAINED HEREIN IN CONNECTION WITH THEIR PRODUCTS.
  17:STM32F10x_StdPeriph_Driver/src/stm32f10x_usart.c ****   *
  18:STM32F10x_StdPeriph_Driver/src/stm32f10x_usart.c ****   * <h2><center>&copy; COPYRIGHT 2009 STMicroelectronics</center></h2>
  19:STM32F10x_StdPeriph_Driver/src/stm32f10x_usart.c ****   */ 
  20:STM32F10x_StdPeriph_Driver/src/stm32f10x_usart.c **** 
  21:STM32F10x_StdPeriph_Driver/src/stm32f10x_usart.c **** /* Includes ------------------------------------------------------------------*/
  22:STM32F10x_StdPeriph_Driver/src/stm32f10x_usart.c **** #include "stm32f10x_usart.h"
  23:STM32F10x_StdPeriph_Driver/src/stm32f10x_usart.c **** #include "stm32f10x_rcc.h"
  24:STM32F10x_StdPeriph_Driver/src/stm32f10x_usart.c **** 
  25:STM32F10x_StdPeriph_Driver/src/stm32f10x_usart.c **** /** @addtogroup STM32F10x_StdPeriph_Driver
  26:STM32F10x_StdPeriph_Driver/src/stm32f10x_usart.c ****   * @{
  27:STM32F10x_StdPeriph_Driver/src/stm32f10x_usart.c ****   */
  28:STM32F10x_StdPeriph_Driver/src/stm32f10x_usart.c **** 
  29:STM32F10x_StdPeriph_Driver/src/stm32f10x_usart.c **** /** @defgroup USART 
  30:STM32F10x_StdPeriph_Driver/src/stm32f10x_usart.c ****   * @brief USART driver modules
  31:STM32F10x_StdPeriph_Driver/src/stm32f10x_usart.c ****   * @{
ARM GAS  /var/folders/g9/bbpj86ld7fx45vd1b3pqxmp00000gn/T//ccAXm4kS.s 			page 2


  32:STM32F10x_StdPeriph_Driver/src/stm32f10x_usart.c ****   */
  33:STM32F10x_StdPeriph_Driver/src/stm32f10x_usart.c **** 
  34:STM32F10x_StdPeriph_Driver/src/stm32f10x_usart.c **** /** @defgroup USART_Private_TypesDefinitions
  35:STM32F10x_StdPeriph_Driver/src/stm32f10x_usart.c ****   * @{
  36:STM32F10x_StdPeriph_Driver/src/stm32f10x_usart.c ****   */
  37:STM32F10x_StdPeriph_Driver/src/stm32f10x_usart.c **** 
  38:STM32F10x_StdPeriph_Driver/src/stm32f10x_usart.c **** /**
  39:STM32F10x_StdPeriph_Driver/src/stm32f10x_usart.c ****   * @}
  40:STM32F10x_StdPeriph_Driver/src/stm32f10x_usart.c ****   */
  41:STM32F10x_StdPeriph_Driver/src/stm32f10x_usart.c **** 
  42:STM32F10x_StdPeriph_Driver/src/stm32f10x_usart.c **** /** @defgroup USART_Private_Defines
  43:STM32F10x_StdPeriph_Driver/src/stm32f10x_usart.c ****   * @{
  44:STM32F10x_StdPeriph_Driver/src/stm32f10x_usart.c ****   */
  45:STM32F10x_StdPeriph_Driver/src/stm32f10x_usart.c **** 
  46:STM32F10x_StdPeriph_Driver/src/stm32f10x_usart.c **** #define CR1_UE_Set                ((uint16_t)0x2000)  /*!< USART Enable Mask */
  47:STM32F10x_StdPeriph_Driver/src/stm32f10x_usart.c **** #define CR1_UE_Reset              ((uint16_t)0xDFFF)  /*!< USART Disable Mask */
  48:STM32F10x_StdPeriph_Driver/src/stm32f10x_usart.c **** 
  49:STM32F10x_StdPeriph_Driver/src/stm32f10x_usart.c **** #define CR1_WAKE_Mask             ((uint16_t)0xF7FF)  /*!< USART WakeUp Method Mask */
  50:STM32F10x_StdPeriph_Driver/src/stm32f10x_usart.c **** 
  51:STM32F10x_StdPeriph_Driver/src/stm32f10x_usart.c **** #define CR1_RWU_Set               ((uint16_t)0x0002)  /*!< USART mute mode Enable Mask */
  52:STM32F10x_StdPeriph_Driver/src/stm32f10x_usart.c **** #define CR1_RWU_Reset             ((uint16_t)0xFFFD)  /*!< USART mute mode Enable Mask */
  53:STM32F10x_StdPeriph_Driver/src/stm32f10x_usart.c **** #define CR1_SBK_Set               ((uint16_t)0x0001)  /*!< USART Break Character send Mask */
  54:STM32F10x_StdPeriph_Driver/src/stm32f10x_usart.c **** #define CR1_CLEAR_Mask            ((uint16_t)0xE9F3)  /*!< USART CR1 Mask */
  55:STM32F10x_StdPeriph_Driver/src/stm32f10x_usart.c **** #define CR2_Address_Mask          ((uint16_t)0xFFF0)  /*!< USART address Mask */
  56:STM32F10x_StdPeriph_Driver/src/stm32f10x_usart.c **** 
  57:STM32F10x_StdPeriph_Driver/src/stm32f10x_usart.c **** #define CR2_LINEN_Set              ((uint16_t)0x4000)  /*!< USART LIN Enable Mask */
  58:STM32F10x_StdPeriph_Driver/src/stm32f10x_usart.c **** #define CR2_LINEN_Reset            ((uint16_t)0xBFFF)  /*!< USART LIN Disable Mask */
  59:STM32F10x_StdPeriph_Driver/src/stm32f10x_usart.c **** 
  60:STM32F10x_StdPeriph_Driver/src/stm32f10x_usart.c **** #define CR2_LBDL_Mask             ((uint16_t)0xFFDF)  /*!< USART LIN Break detection Mask */
  61:STM32F10x_StdPeriph_Driver/src/stm32f10x_usart.c **** #define CR2_STOP_CLEAR_Mask       ((uint16_t)0xCFFF)  /*!< USART CR2 STOP Bits Mask */
  62:STM32F10x_StdPeriph_Driver/src/stm32f10x_usart.c **** #define CR2_CLOCK_CLEAR_Mask      ((uint16_t)0xF0FF)  /*!< USART CR2 Clock Mask */
  63:STM32F10x_StdPeriph_Driver/src/stm32f10x_usart.c **** 
  64:STM32F10x_StdPeriph_Driver/src/stm32f10x_usart.c **** #define CR3_SCEN_Set              ((uint16_t)0x0020)  /*!< USART SC Enable Mask */
  65:STM32F10x_StdPeriph_Driver/src/stm32f10x_usart.c **** #define CR3_SCEN_Reset            ((uint16_t)0xFFDF)  /*!< USART SC Disable Mask */
  66:STM32F10x_StdPeriph_Driver/src/stm32f10x_usart.c **** 
  67:STM32F10x_StdPeriph_Driver/src/stm32f10x_usart.c **** #define CR3_NACK_Set              ((uint16_t)0x0010)  /*!< USART SC NACK Enable Mask */
  68:STM32F10x_StdPeriph_Driver/src/stm32f10x_usart.c **** #define CR3_NACK_Reset            ((uint16_t)0xFFEF)  /*!< USART SC NACK Disable Mask */
  69:STM32F10x_StdPeriph_Driver/src/stm32f10x_usart.c **** 
  70:STM32F10x_StdPeriph_Driver/src/stm32f10x_usart.c **** #define CR3_HDSEL_Set             ((uint16_t)0x0008)  /*!< USART Half-Duplex Enable Mask */
  71:STM32F10x_StdPeriph_Driver/src/stm32f10x_usart.c **** #define CR3_HDSEL_Reset           ((uint16_t)0xFFF7)  /*!< USART Half-Duplex Disable Mask */
  72:STM32F10x_StdPeriph_Driver/src/stm32f10x_usart.c **** 
  73:STM32F10x_StdPeriph_Driver/src/stm32f10x_usart.c **** #define CR3_IRLP_Mask             ((uint16_t)0xFFFB)  /*!< USART IrDA LowPower mode Mask */
  74:STM32F10x_StdPeriph_Driver/src/stm32f10x_usart.c **** #define CR3_CLEAR_Mask            ((uint16_t)0xFCFF)  /*!< USART CR3 Mask */
  75:STM32F10x_StdPeriph_Driver/src/stm32f10x_usart.c **** 
  76:STM32F10x_StdPeriph_Driver/src/stm32f10x_usart.c **** #define CR3_IREN_Set              ((uint16_t)0x0002)  /*!< USART IrDA Enable Mask */
  77:STM32F10x_StdPeriph_Driver/src/stm32f10x_usart.c **** #define CR3_IREN_Reset            ((uint16_t)0xFFFD)  /*!< USART IrDA Disable Mask */
  78:STM32F10x_StdPeriph_Driver/src/stm32f10x_usart.c **** #define GTPR_LSB_Mask             ((uint16_t)0x00FF)  /*!< Guard Time Register LSB Mask */
  79:STM32F10x_StdPeriph_Driver/src/stm32f10x_usart.c **** #define GTPR_MSB_Mask             ((uint16_t)0xFF00)  /*!< Guard Time Register MSB Mask */
  80:STM32F10x_StdPeriph_Driver/src/stm32f10x_usart.c **** #define IT_Mask                   ((uint16_t)0x001F)  /*!< USART Interrupt Mask */
  81:STM32F10x_StdPeriph_Driver/src/stm32f10x_usart.c **** 
  82:STM32F10x_StdPeriph_Driver/src/stm32f10x_usart.c **** /**
  83:STM32F10x_StdPeriph_Driver/src/stm32f10x_usart.c ****   * @}
  84:STM32F10x_StdPeriph_Driver/src/stm32f10x_usart.c ****   */
  85:STM32F10x_StdPeriph_Driver/src/stm32f10x_usart.c **** 
  86:STM32F10x_StdPeriph_Driver/src/stm32f10x_usart.c **** /** @defgroup USART_Private_Macros
  87:STM32F10x_StdPeriph_Driver/src/stm32f10x_usart.c ****   * @{
  88:STM32F10x_StdPeriph_Driver/src/stm32f10x_usart.c ****   */
ARM GAS  /var/folders/g9/bbpj86ld7fx45vd1b3pqxmp00000gn/T//ccAXm4kS.s 			page 3


  89:STM32F10x_StdPeriph_Driver/src/stm32f10x_usart.c **** 
  90:STM32F10x_StdPeriph_Driver/src/stm32f10x_usart.c **** /**
  91:STM32F10x_StdPeriph_Driver/src/stm32f10x_usart.c ****   * @}
  92:STM32F10x_StdPeriph_Driver/src/stm32f10x_usart.c ****   */
  93:STM32F10x_StdPeriph_Driver/src/stm32f10x_usart.c **** 
  94:STM32F10x_StdPeriph_Driver/src/stm32f10x_usart.c **** /** @defgroup USART_Private_Variables
  95:STM32F10x_StdPeriph_Driver/src/stm32f10x_usart.c ****   * @{
  96:STM32F10x_StdPeriph_Driver/src/stm32f10x_usart.c ****   */
  97:STM32F10x_StdPeriph_Driver/src/stm32f10x_usart.c **** 
  98:STM32F10x_StdPeriph_Driver/src/stm32f10x_usart.c **** /**
  99:STM32F10x_StdPeriph_Driver/src/stm32f10x_usart.c ****   * @}
 100:STM32F10x_StdPeriph_Driver/src/stm32f10x_usart.c ****   */
 101:STM32F10x_StdPeriph_Driver/src/stm32f10x_usart.c **** 
 102:STM32F10x_StdPeriph_Driver/src/stm32f10x_usart.c **** /** @defgroup USART_Private_FunctionPrototypes
 103:STM32F10x_StdPeriph_Driver/src/stm32f10x_usart.c ****   * @{
 104:STM32F10x_StdPeriph_Driver/src/stm32f10x_usart.c ****   */
 105:STM32F10x_StdPeriph_Driver/src/stm32f10x_usart.c **** 
 106:STM32F10x_StdPeriph_Driver/src/stm32f10x_usart.c **** /**
 107:STM32F10x_StdPeriph_Driver/src/stm32f10x_usart.c ****   * @}
 108:STM32F10x_StdPeriph_Driver/src/stm32f10x_usart.c ****   */
 109:STM32F10x_StdPeriph_Driver/src/stm32f10x_usart.c **** 
 110:STM32F10x_StdPeriph_Driver/src/stm32f10x_usart.c **** /** @defgroup USART_Private_Functions
 111:STM32F10x_StdPeriph_Driver/src/stm32f10x_usart.c ****   * @{
 112:STM32F10x_StdPeriph_Driver/src/stm32f10x_usart.c ****   */
 113:STM32F10x_StdPeriph_Driver/src/stm32f10x_usart.c **** 
 114:STM32F10x_StdPeriph_Driver/src/stm32f10x_usart.c **** /**
 115:STM32F10x_StdPeriph_Driver/src/stm32f10x_usart.c ****   * @brief  Deinitializes the USARTx peripheral registers to their default reset values.
 116:STM32F10x_StdPeriph_Driver/src/stm32f10x_usart.c ****   * @param  USARTx: Select the USART or the UART peripheral. 
 117:STM32F10x_StdPeriph_Driver/src/stm32f10x_usart.c ****   *   This parameter can be one of the following values: USART1, USART2, USART3, UART4 or UART5.
 118:STM32F10x_StdPeriph_Driver/src/stm32f10x_usart.c ****   * @retval None
 119:STM32F10x_StdPeriph_Driver/src/stm32f10x_usart.c ****   */
 120:STM32F10x_StdPeriph_Driver/src/stm32f10x_usart.c **** void USART_DeInit(USART_TypeDef* USARTx)
 121:STM32F10x_StdPeriph_Driver/src/stm32f10x_usart.c **** {
  28              		.loc 1 121 0
  29              		.cfi_startproc
  30              		@ args = 0, pretend = 0, frame = 0
  31              		@ frame_needed = 0, uses_anonymous_args = 0
  32              	.LVL0:
  33 0000 10B5     		push	{r4, lr}
  34              	.LCFI0:
  35              		.cfi_def_cfa_offset 8
  36              		.cfi_offset 4, -8
  37              		.cfi_offset 14, -4
  38 0002 0446     		mov	r4, r0
 122:STM32F10x_StdPeriph_Driver/src/stm32f10x_usart.c ****   /* Check the parameters */
 123:STM32F10x_StdPeriph_Driver/src/stm32f10x_usart.c ****   assert_param(IS_USART_ALL_PERIPH(USARTx));
  39              		.loc 1 123 0
  40 0004 2E4B     		ldr	r3, .L9
  41 0006 9842     		cmp	r0, r3
  42 0008 13D0     		beq	.L2
  43              		.loc 1 123 0 is_stmt 0 discriminator 1
  44 000a A3F57443 		sub	r3, r3, #62464
  45 000e 9842     		cmp	r0, r3
  46 0010 0FD0     		beq	.L2
  47              		.loc 1 123 0 discriminator 2
  48 0012 03F58063 		add	r3, r3, #1024
  49 0016 9842     		cmp	r0, r3
ARM GAS  /var/folders/g9/bbpj86ld7fx45vd1b3pqxmp00000gn/T//ccAXm4kS.s 			page 4


  50 0018 0BD0     		beq	.L2
  51              		.loc 1 123 0 discriminator 3
  52 001a 03F58063 		add	r3, r3, #1024
  53 001e 9842     		cmp	r0, r3
  54 0020 07D0     		beq	.L2
  55              		.loc 1 123 0 discriminator 4
  56 0022 03F58063 		add	r3, r3, #1024
  57 0026 9842     		cmp	r0, r3
  58 0028 03D0     		beq	.L2
  59              		.loc 1 123 0 discriminator 5
  60 002a 7B21     		movs	r1, #123
  61 002c 2548     		ldr	r0, .L9+4
  62              	.LVL1:
  63 002e FFF7FEFF 		bl	assert_failed
  64              	.LVL2:
  65              	.L2:
 124:STM32F10x_StdPeriph_Driver/src/stm32f10x_usart.c **** 
 125:STM32F10x_StdPeriph_Driver/src/stm32f10x_usart.c ****   if (USARTx == USART1)
  66              		.loc 1 125 0 is_stmt 1
  67 0032 234B     		ldr	r3, .L9
  68 0034 9C42     		cmp	r4, r3
  69 0036 0AD1     		bne	.L3
 126:STM32F10x_StdPeriph_Driver/src/stm32f10x_usart.c ****   {
 127:STM32F10x_StdPeriph_Driver/src/stm32f10x_usart.c ****     RCC_APB2PeriphResetCmd(RCC_APB2Periph_USART1, ENABLE);
  70              		.loc 1 127 0
  71 0038 0121     		movs	r1, #1
  72 003a 4FF48040 		mov	r0, #16384
  73 003e FFF7FEFF 		bl	RCC_APB2PeriphResetCmd
  74              	.LVL3:
 128:STM32F10x_StdPeriph_Driver/src/stm32f10x_usart.c ****     RCC_APB2PeriphResetCmd(RCC_APB2Periph_USART1, DISABLE);
  75              		.loc 1 128 0
  76 0042 0021     		movs	r1, #0
  77 0044 4FF48040 		mov	r0, #16384
  78 0048 FFF7FEFF 		bl	RCC_APB2PeriphResetCmd
  79              	.LVL4:
  80 004c 10BD     		pop	{r4, pc}
  81              	.LVL5:
  82              	.L3:
 129:STM32F10x_StdPeriph_Driver/src/stm32f10x_usart.c ****   }
 130:STM32F10x_StdPeriph_Driver/src/stm32f10x_usart.c ****   else if (USARTx == USART2)
  83              		.loc 1 130 0
  84 004e 1E4B     		ldr	r3, .L9+8
  85 0050 9C42     		cmp	r4, r3
  86 0052 0AD1     		bne	.L5
 131:STM32F10x_StdPeriph_Driver/src/stm32f10x_usart.c ****   {
 132:STM32F10x_StdPeriph_Driver/src/stm32f10x_usart.c ****     RCC_APB1PeriphResetCmd(RCC_APB1Periph_USART2, ENABLE);
  87              		.loc 1 132 0
  88 0054 0121     		movs	r1, #1
  89 0056 4FF40030 		mov	r0, #131072
  90 005a FFF7FEFF 		bl	RCC_APB1PeriphResetCmd
  91              	.LVL6:
 133:STM32F10x_StdPeriph_Driver/src/stm32f10x_usart.c ****     RCC_APB1PeriphResetCmd(RCC_APB1Periph_USART2, DISABLE);
  92              		.loc 1 133 0
  93 005e 0021     		movs	r1, #0
  94 0060 4FF40030 		mov	r0, #131072
  95 0064 FFF7FEFF 		bl	RCC_APB1PeriphResetCmd
  96              	.LVL7:
ARM GAS  /var/folders/g9/bbpj86ld7fx45vd1b3pqxmp00000gn/T//ccAXm4kS.s 			page 5


  97 0068 10BD     		pop	{r4, pc}
  98              	.LVL8:
  99              	.L5:
 134:STM32F10x_StdPeriph_Driver/src/stm32f10x_usart.c ****   }
 135:STM32F10x_StdPeriph_Driver/src/stm32f10x_usart.c ****   else if (USARTx == USART3)
 100              		.loc 1 135 0
 101 006a 184B     		ldr	r3, .L9+12
 102 006c 9C42     		cmp	r4, r3
 103 006e 0AD1     		bne	.L6
 136:STM32F10x_StdPeriph_Driver/src/stm32f10x_usart.c ****   {
 137:STM32F10x_StdPeriph_Driver/src/stm32f10x_usart.c ****     RCC_APB1PeriphResetCmd(RCC_APB1Periph_USART3, ENABLE);
 104              		.loc 1 137 0
 105 0070 0121     		movs	r1, #1
 106 0072 4FF48020 		mov	r0, #262144
 107 0076 FFF7FEFF 		bl	RCC_APB1PeriphResetCmd
 108              	.LVL9:
 138:STM32F10x_StdPeriph_Driver/src/stm32f10x_usart.c ****     RCC_APB1PeriphResetCmd(RCC_APB1Periph_USART3, DISABLE);
 109              		.loc 1 138 0
 110 007a 0021     		movs	r1, #0
 111 007c 4FF48020 		mov	r0, #262144
 112 0080 FFF7FEFF 		bl	RCC_APB1PeriphResetCmd
 113              	.LVL10:
 114 0084 10BD     		pop	{r4, pc}
 115              	.LVL11:
 116              	.L6:
 139:STM32F10x_StdPeriph_Driver/src/stm32f10x_usart.c ****   }    
 140:STM32F10x_StdPeriph_Driver/src/stm32f10x_usart.c ****   else if (USARTx == UART4)
 117              		.loc 1 140 0
 118 0086 124B     		ldr	r3, .L9+16
 119 0088 9C42     		cmp	r4, r3
 120 008a 0AD1     		bne	.L7
 141:STM32F10x_StdPeriph_Driver/src/stm32f10x_usart.c ****   {
 142:STM32F10x_StdPeriph_Driver/src/stm32f10x_usart.c ****     RCC_APB1PeriphResetCmd(RCC_APB1Periph_UART4, ENABLE);
 121              		.loc 1 142 0
 122 008c 0121     		movs	r1, #1
 123 008e 4FF40020 		mov	r0, #524288
 124 0092 FFF7FEFF 		bl	RCC_APB1PeriphResetCmd
 125              	.LVL12:
 143:STM32F10x_StdPeriph_Driver/src/stm32f10x_usart.c ****     RCC_APB1PeriphResetCmd(RCC_APB1Periph_UART4, DISABLE);
 126              		.loc 1 143 0
 127 0096 0021     		movs	r1, #0
 128 0098 4FF40020 		mov	r0, #524288
 129 009c FFF7FEFF 		bl	RCC_APB1PeriphResetCmd
 130              	.LVL13:
 131 00a0 10BD     		pop	{r4, pc}
 132              	.LVL14:
 133              	.L7:
 144:STM32F10x_StdPeriph_Driver/src/stm32f10x_usart.c ****   }    
 145:STM32F10x_StdPeriph_Driver/src/stm32f10x_usart.c ****   else
 146:STM32F10x_StdPeriph_Driver/src/stm32f10x_usart.c ****   {
 147:STM32F10x_StdPeriph_Driver/src/stm32f10x_usart.c ****     if (USARTx == UART5)
 134              		.loc 1 147 0
 135 00a2 0C4B     		ldr	r3, .L9+20
 136 00a4 9C42     		cmp	r4, r3
 137 00a6 09D1     		bne	.L1
 148:STM32F10x_StdPeriph_Driver/src/stm32f10x_usart.c ****     { 
 149:STM32F10x_StdPeriph_Driver/src/stm32f10x_usart.c ****       RCC_APB1PeriphResetCmd(RCC_APB1Periph_UART5, ENABLE);
ARM GAS  /var/folders/g9/bbpj86ld7fx45vd1b3pqxmp00000gn/T//ccAXm4kS.s 			page 6


 138              		.loc 1 149 0
 139 00a8 0121     		movs	r1, #1
 140 00aa 4FF48010 		mov	r0, #1048576
 141 00ae FFF7FEFF 		bl	RCC_APB1PeriphResetCmd
 142              	.LVL15:
 150:STM32F10x_StdPeriph_Driver/src/stm32f10x_usart.c ****       RCC_APB1PeriphResetCmd(RCC_APB1Periph_UART5, DISABLE);
 143              		.loc 1 150 0
 144 00b2 0021     		movs	r1, #0
 145 00b4 4FF48010 		mov	r0, #1048576
 146 00b8 FFF7FEFF 		bl	RCC_APB1PeriphResetCmd
 147              	.LVL16:
 148              	.L1:
 149 00bc 10BD     		pop	{r4, pc}
 150              	.LVL17:
 151              	.L10:
 152 00be 00BF     		.align	2
 153              	.L9:
 154 00c0 00380140 		.word	1073821696
 155 00c4 00000000 		.word	.LC0
 156 00c8 00440040 		.word	1073759232
 157 00cc 00480040 		.word	1073760256
 158 00d0 004C0040 		.word	1073761280
 159 00d4 00500040 		.word	1073762304
 160              		.cfi_endproc
 161              	.LFE27:
 163              		.section	.text.USART_Init,"ax",%progbits
 164              		.align	2
 165              		.global	USART_Init
 166              		.thumb
 167              		.thumb_func
 169              	USART_Init:
 170              	.LFB28:
 151:STM32F10x_StdPeriph_Driver/src/stm32f10x_usart.c ****     }
 152:STM32F10x_StdPeriph_Driver/src/stm32f10x_usart.c ****   }
 153:STM32F10x_StdPeriph_Driver/src/stm32f10x_usart.c **** }
 154:STM32F10x_StdPeriph_Driver/src/stm32f10x_usart.c **** 
 155:STM32F10x_StdPeriph_Driver/src/stm32f10x_usart.c **** /**
 156:STM32F10x_StdPeriph_Driver/src/stm32f10x_usart.c ****   * @brief  Initializes the USARTx peripheral according to the specified
 157:STM32F10x_StdPeriph_Driver/src/stm32f10x_usart.c ****   *   parameters in the USART_InitStruct .
 158:STM32F10x_StdPeriph_Driver/src/stm32f10x_usart.c ****   * @param  USARTx: Select the USART or the UART peripheral. 
 159:STM32F10x_StdPeriph_Driver/src/stm32f10x_usart.c ****   *   This parameter can be one of the following values:
 160:STM32F10x_StdPeriph_Driver/src/stm32f10x_usart.c ****   *   USART1, USART2, USART3, UART4 or UART5.
 161:STM32F10x_StdPeriph_Driver/src/stm32f10x_usart.c ****   * @param  USART_InitStruct: pointer to a USART_InitTypeDef structure
 162:STM32F10x_StdPeriph_Driver/src/stm32f10x_usart.c ****   *   that contains the configuration information for the specified USART peripheral.
 163:STM32F10x_StdPeriph_Driver/src/stm32f10x_usart.c ****   * @retval None
 164:STM32F10x_StdPeriph_Driver/src/stm32f10x_usart.c ****   */
 165:STM32F10x_StdPeriph_Driver/src/stm32f10x_usart.c **** void USART_Init(USART_TypeDef* USARTx, USART_InitTypeDef* USART_InitStruct)
 166:STM32F10x_StdPeriph_Driver/src/stm32f10x_usart.c **** {
 171              		.loc 1 166 0
 172              		.cfi_startproc
 173              		@ args = 0, pretend = 0, frame = 24
 174              		@ frame_needed = 0, uses_anonymous_args = 0
 175              	.LVL18:
 176 0000 30B5     		push	{r4, r5, lr}
 177              	.LCFI1:
 178              		.cfi_def_cfa_offset 12
 179              		.cfi_offset 4, -12
ARM GAS  /var/folders/g9/bbpj86ld7fx45vd1b3pqxmp00000gn/T//ccAXm4kS.s 			page 7


 180              		.cfi_offset 5, -8
 181              		.cfi_offset 14, -4
 182 0002 87B0     		sub	sp, sp, #28
 183              	.LCFI2:
 184              		.cfi_def_cfa_offset 40
 185 0004 0446     		mov	r4, r0
 186 0006 0D46     		mov	r5, r1
 187              	.LVL19:
 167:STM32F10x_StdPeriph_Driver/src/stm32f10x_usart.c ****   uint32_t tmpreg = 0x00, apbclock = 0x00;
 168:STM32F10x_StdPeriph_Driver/src/stm32f10x_usart.c ****   uint32_t integerdivider = 0x00;
 169:STM32F10x_StdPeriph_Driver/src/stm32f10x_usart.c ****   uint32_t fractionaldivider = 0x00;
 170:STM32F10x_StdPeriph_Driver/src/stm32f10x_usart.c ****   uint32_t usartxbase = 0;
 171:STM32F10x_StdPeriph_Driver/src/stm32f10x_usart.c ****   RCC_ClocksTypeDef RCC_ClocksStatus;
 172:STM32F10x_StdPeriph_Driver/src/stm32f10x_usart.c ****   /* Check the parameters */
 173:STM32F10x_StdPeriph_Driver/src/stm32f10x_usart.c ****   assert_param(IS_USART_ALL_PERIPH(USARTx));
 188              		.loc 1 173 0
 189 0008 564B     		ldr	r3, .L24
 190 000a 9842     		cmp	r0, r3
 191 000c 13D0     		beq	.L12
 192              		.loc 1 173 0 is_stmt 0 discriminator 1
 193 000e A3F57443 		sub	r3, r3, #62464
 194 0012 9842     		cmp	r0, r3
 195 0014 0FD0     		beq	.L12
 196              		.loc 1 173 0 discriminator 2
 197 0016 03F58063 		add	r3, r3, #1024
 198 001a 9842     		cmp	r0, r3
 199 001c 0BD0     		beq	.L12
 200              		.loc 1 173 0 discriminator 3
 201 001e 03F58063 		add	r3, r3, #1024
 202 0022 9842     		cmp	r0, r3
 203 0024 07D0     		beq	.L12
 204              		.loc 1 173 0 discriminator 4
 205 0026 03F58063 		add	r3, r3, #1024
 206 002a 9842     		cmp	r0, r3
 207 002c 03D0     		beq	.L12
 208              		.loc 1 173 0 discriminator 5
 209 002e AD21     		movs	r1, #173
 210              	.LVL20:
 211 0030 4D48     		ldr	r0, .L24+4
 212              	.LVL21:
 213 0032 FFF7FEFF 		bl	assert_failed
 214              	.LVL22:
 215              	.L12:
 174:STM32F10x_StdPeriph_Driver/src/stm32f10x_usart.c ****   assert_param(IS_USART_BAUDRATE(USART_InitStruct->USART_BaudRate));  
 216              		.loc 1 174 0 is_stmt 1
 217 0036 2B68     		ldr	r3, [r5]
 218 0038 013B     		subs	r3, r3, #1
 219 003a 4C4A     		ldr	r2, .L24+8
 220 003c 9342     		cmp	r3, r2
 221 003e 03D9     		bls	.L13
 222              		.loc 1 174 0 is_stmt 0 discriminator 1
 223 0040 AE21     		movs	r1, #174
 224 0042 4948     		ldr	r0, .L24+4
 225 0044 FFF7FEFF 		bl	assert_failed
 226              	.LVL23:
 227              	.L13:
 175:STM32F10x_StdPeriph_Driver/src/stm32f10x_usart.c ****   assert_param(IS_USART_WORD_LENGTH(USART_InitStruct->USART_WordLength));
ARM GAS  /var/folders/g9/bbpj86ld7fx45vd1b3pqxmp00000gn/T//ccAXm4kS.s 			page 8


 228              		.loc 1 175 0 is_stmt 1
 229 0048 AB88     		ldrh	r3, [r5, #4]
 230 004a 33B1     		cbz	r3, .L14
 231              		.loc 1 175 0 is_stmt 0 discriminator 1
 232 004c B3F5805F 		cmp	r3, #4096
 233 0050 03D0     		beq	.L14
 234              		.loc 1 175 0 discriminator 2
 235 0052 AF21     		movs	r1, #175
 236 0054 4448     		ldr	r0, .L24+4
 237 0056 FFF7FEFF 		bl	assert_failed
 238              	.LVL24:
 239              	.L14:
 176:STM32F10x_StdPeriph_Driver/src/stm32f10x_usart.c ****   assert_param(IS_USART_STOPBITS(USART_InitStruct->USART_StopBits));
 240              		.loc 1 176 0 is_stmt 1
 241 005a EB88     		ldrh	r3, [r5, #6]
 242 005c 63B1     		cbz	r3, .L15
 243              		.loc 1 176 0 is_stmt 0 discriminator 1
 244 005e B3F5805F 		cmp	r3, #4096
 245 0062 09D0     		beq	.L15
 246              		.loc 1 176 0 discriminator 2
 247 0064 B3F5005F 		cmp	r3, #8192
 248 0068 06D0     		beq	.L15
 249              		.loc 1 176 0 discriminator 3
 250 006a B3F5405F 		cmp	r3, #12288
 251 006e 03D0     		beq	.L15
 252              		.loc 1 176 0 discriminator 4
 253 0070 B021     		movs	r1, #176
 254 0072 3D48     		ldr	r0, .L24+4
 255 0074 FFF7FEFF 		bl	assert_failed
 256              	.LVL25:
 257              	.L15:
 177:STM32F10x_StdPeriph_Driver/src/stm32f10x_usart.c ****   assert_param(IS_USART_PARITY(USART_InitStruct->USART_Parity));
 258              		.loc 1 177 0 is_stmt 1
 259 0078 2B89     		ldrh	r3, [r5, #8]
 260 007a 4BB1     		cbz	r3, .L16
 261              		.loc 1 177 0 is_stmt 0 discriminator 1
 262 007c B3F5806F 		cmp	r3, #1024
 263 0080 06D0     		beq	.L16
 264              		.loc 1 177 0 discriminator 2
 265 0082 B3F5C06F 		cmp	r3, #1536
 266 0086 03D0     		beq	.L16
 267              		.loc 1 177 0 discriminator 3
 268 0088 B121     		movs	r1, #177
 269 008a 3748     		ldr	r0, .L24+4
 270 008c FFF7FEFF 		bl	assert_failed
 271              	.LVL26:
 272              	.L16:
 178:STM32F10x_StdPeriph_Driver/src/stm32f10x_usart.c ****   assert_param(IS_USART_MODE(USART_InitStruct->USART_Mode));
 273              		.loc 1 178 0 is_stmt 1
 274 0090 6A89     		ldrh	r2, [r5, #10]
 275 0092 22F00C03 		bic	r3, r2, #12
 276 0096 9BB2     		uxth	r3, r3
 277 0098 03B9     		cbnz	r3, .L17
 278              		.loc 1 178 0 is_stmt 0 discriminator 2
 279 009a 1AB9     		cbnz	r2, .L18
 280              	.L17:
 281              		.loc 1 178 0 discriminator 3
ARM GAS  /var/folders/g9/bbpj86ld7fx45vd1b3pqxmp00000gn/T//ccAXm4kS.s 			page 9


 282 009c B221     		movs	r1, #178
 283 009e 3248     		ldr	r0, .L24+4
 284 00a0 FFF7FEFF 		bl	assert_failed
 285              	.LVL27:
 286              	.L18:
 179:STM32F10x_StdPeriph_Driver/src/stm32f10x_usart.c ****   assert_param(IS_USART_HARDWARE_FLOW_CONTROL(USART_InitStruct->USART_HardwareFlowControl));
 287              		.loc 1 179 0 is_stmt 1
 288 00a4 AB89     		ldrh	r3, [r5, #12]
 289 00a6 63B1     		cbz	r3, .L19
 290              		.loc 1 179 0 is_stmt 0 discriminator 1
 291 00a8 B3F5807F 		cmp	r3, #256
 292 00ac 09D0     		beq	.L19
 293              		.loc 1 179 0 discriminator 2
 294 00ae B3F5007F 		cmp	r3, #512
 295 00b2 06D0     		beq	.L19
 296              		.loc 1 179 0 discriminator 3
 297 00b4 B3F5407F 		cmp	r3, #768
 298 00b8 03D0     		beq	.L19
 299              		.loc 1 179 0 discriminator 4
 300 00ba B321     		movs	r1, #179
 301 00bc 2A48     		ldr	r0, .L24+4
 302 00be FFF7FEFF 		bl	assert_failed
 303              	.LVL28:
 304              	.L19:
 180:STM32F10x_StdPeriph_Driver/src/stm32f10x_usart.c ****   /* The hardware flow control is available only for USART1, USART2 and USART3 */
 181:STM32F10x_StdPeriph_Driver/src/stm32f10x_usart.c ****   if (USART_InitStruct->USART_HardwareFlowControl != USART_HardwareFlowControl_None)
 305              		.loc 1 181 0 is_stmt 1
 306 00c2 AB89     		ldrh	r3, [r5, #12]
 307 00c4 73B1     		cbz	r3, .L20
 182:STM32F10x_StdPeriph_Driver/src/stm32f10x_usart.c ****   {
 183:STM32F10x_StdPeriph_Driver/src/stm32f10x_usart.c ****     assert_param(IS_USART_123_PERIPH(USARTx));
 308              		.loc 1 183 0
 309 00c6 274B     		ldr	r3, .L24
 310 00c8 9C42     		cmp	r4, r3
 311 00ca 0BD0     		beq	.L20
 312              		.loc 1 183 0 is_stmt 0 discriminator 1
 313 00cc A3F57443 		sub	r3, r3, #62464
 314 00d0 9C42     		cmp	r4, r3
 315 00d2 07D0     		beq	.L20
 316              		.loc 1 183 0 discriminator 2
 317 00d4 03F58063 		add	r3, r3, #1024
 318 00d8 9C42     		cmp	r4, r3
 319 00da 03D0     		beq	.L20
 320              		.loc 1 183 0 discriminator 3
 321 00dc B721     		movs	r1, #183
 322 00de 2248     		ldr	r0, .L24+4
 323 00e0 FFF7FEFF 		bl	assert_failed
 324              	.LVL29:
 325              	.L20:
 184:STM32F10x_StdPeriph_Driver/src/stm32f10x_usart.c ****   }
 185:STM32F10x_StdPeriph_Driver/src/stm32f10x_usart.c **** 
 186:STM32F10x_StdPeriph_Driver/src/stm32f10x_usart.c ****   usartxbase = (uint32_t)USARTx;
 187:STM32F10x_StdPeriph_Driver/src/stm32f10x_usart.c **** 
 188:STM32F10x_StdPeriph_Driver/src/stm32f10x_usart.c **** /*---------------------------- USART CR2 Configuration -----------------------*/
 189:STM32F10x_StdPeriph_Driver/src/stm32f10x_usart.c ****   tmpreg = USARTx->CR2;
 326              		.loc 1 189 0 is_stmt 1
 327 00e4 238A     		ldrh	r3, [r4, #16]
ARM GAS  /var/folders/g9/bbpj86ld7fx45vd1b3pqxmp00000gn/T//ccAXm4kS.s 			page 10


 328 00e6 9BB2     		uxth	r3, r3
 329              	.LVL30:
 190:STM32F10x_StdPeriph_Driver/src/stm32f10x_usart.c ****   /* Clear STOP[13:12] bits */
 191:STM32F10x_StdPeriph_Driver/src/stm32f10x_usart.c ****   tmpreg &= CR2_STOP_CLEAR_Mask;
 192:STM32F10x_StdPeriph_Driver/src/stm32f10x_usart.c ****   /* Configure the USART Stop Bits, Clock, CPOL, CPHA and LastBit ------------*/
 193:STM32F10x_StdPeriph_Driver/src/stm32f10x_usart.c ****   /* Set STOP[13:12] bits according to USART_StopBits value */
 194:STM32F10x_StdPeriph_Driver/src/stm32f10x_usart.c ****   tmpreg |= (uint32_t)USART_InitStruct->USART_StopBits;
 330              		.loc 1 194 0
 331 00e8 EA88     		ldrh	r2, [r5, #6]
 332 00ea 23F44053 		bic	r3, r3, #12288
 333              	.LVL31:
 334 00ee 1343     		orrs	r3, r3, r2
 335              	.LVL32:
 195:STM32F10x_StdPeriph_Driver/src/stm32f10x_usart.c ****   
 196:STM32F10x_StdPeriph_Driver/src/stm32f10x_usart.c ****   /* Write to USART CR2 */
 197:STM32F10x_StdPeriph_Driver/src/stm32f10x_usart.c ****   USARTx->CR2 = (uint16_t)tmpreg;
 336              		.loc 1 197 0
 337 00f0 2382     		strh	r3, [r4, #16]	@ movhi
 198:STM32F10x_StdPeriph_Driver/src/stm32f10x_usart.c **** 
 199:STM32F10x_StdPeriph_Driver/src/stm32f10x_usart.c **** /*---------------------------- USART CR1 Configuration -----------------------*/
 200:STM32F10x_StdPeriph_Driver/src/stm32f10x_usart.c ****   tmpreg = USARTx->CR1;
 338              		.loc 1 200 0
 339 00f2 A389     		ldrh	r3, [r4, #12]
 340              	.LVL33:
 341 00f4 9BB2     		uxth	r3, r3
 342              	.LVL34:
 201:STM32F10x_StdPeriph_Driver/src/stm32f10x_usart.c ****   /* Clear M, PCE, PS, TE and RE bits */
 202:STM32F10x_StdPeriph_Driver/src/stm32f10x_usart.c ****   tmpreg &= CR1_CLEAR_Mask;
 203:STM32F10x_StdPeriph_Driver/src/stm32f10x_usart.c ****   /* Configure the USART Word Length, Parity and mode ----------------------- */
 204:STM32F10x_StdPeriph_Driver/src/stm32f10x_usart.c ****   /* Set the M bits according to USART_WordLength value */
 205:STM32F10x_StdPeriph_Driver/src/stm32f10x_usart.c ****   /* Set PCE and PS bits according to USART_Parity value */
 206:STM32F10x_StdPeriph_Driver/src/stm32f10x_usart.c ****   /* Set TE and RE bits according to USART_Mode value */
 207:STM32F10x_StdPeriph_Driver/src/stm32f10x_usart.c ****   tmpreg |= (uint32_t)USART_InitStruct->USART_WordLength | USART_InitStruct->USART_Parity |
 343              		.loc 1 207 0
 344 00f6 AA88     		ldrh	r2, [r5, #4]
 345 00f8 2989     		ldrh	r1, [r5, #8]
 208:STM32F10x_StdPeriph_Driver/src/stm32f10x_usart.c ****             USART_InitStruct->USART_Mode;
 346              		.loc 1 208 0
 347 00fa 6889     		ldrh	r0, [r5, #10]
 207:STM32F10x_StdPeriph_Driver/src/stm32f10x_usart.c ****             USART_InitStruct->USART_Mode;
 348              		.loc 1 207 0
 349 00fc 0A43     		orrs	r2, r2, r1
 350 00fe 0243     		orrs	r2, r2, r0
 351 0100 23F4B053 		bic	r3, r3, #5632
 352              	.LVL35:
 353 0104 23F00C03 		bic	r3, r3, #12
 354 0108 1343     		orrs	r3, r3, r2
 355              	.LVL36:
 209:STM32F10x_StdPeriph_Driver/src/stm32f10x_usart.c ****   /* Write to USART CR1 */
 210:STM32F10x_StdPeriph_Driver/src/stm32f10x_usart.c ****   USARTx->CR1 = (uint16_t)tmpreg;
 356              		.loc 1 210 0
 357 010a A381     		strh	r3, [r4, #12]	@ movhi
 211:STM32F10x_StdPeriph_Driver/src/stm32f10x_usart.c **** 
 212:STM32F10x_StdPeriph_Driver/src/stm32f10x_usart.c **** /*---------------------------- USART CR3 Configuration -----------------------*/  
 213:STM32F10x_StdPeriph_Driver/src/stm32f10x_usart.c ****   tmpreg = USARTx->CR3;
 358              		.loc 1 213 0
 359 010c A38A     		ldrh	r3, [r4, #20]
ARM GAS  /var/folders/g9/bbpj86ld7fx45vd1b3pqxmp00000gn/T//ccAXm4kS.s 			page 11


 360              	.LVL37:
 361 010e 9BB2     		uxth	r3, r3
 362              	.LVL38:
 214:STM32F10x_StdPeriph_Driver/src/stm32f10x_usart.c ****   /* Clear CTSE and RTSE bits */
 215:STM32F10x_StdPeriph_Driver/src/stm32f10x_usart.c ****   tmpreg &= CR3_CLEAR_Mask;
 216:STM32F10x_StdPeriph_Driver/src/stm32f10x_usart.c ****   /* Configure the USART HFC -------------------------------------------------*/
 217:STM32F10x_StdPeriph_Driver/src/stm32f10x_usart.c ****   /* Set CTSE and RTSE bits according to USART_HardwareFlowControl value */
 218:STM32F10x_StdPeriph_Driver/src/stm32f10x_usart.c ****   tmpreg |= USART_InitStruct->USART_HardwareFlowControl;
 363              		.loc 1 218 0
 364 0110 AA89     		ldrh	r2, [r5, #12]
 365 0112 23F44073 		bic	r3, r3, #768
 366              	.LVL39:
 367 0116 1343     		orrs	r3, r3, r2
 368              	.LVL40:
 219:STM32F10x_StdPeriph_Driver/src/stm32f10x_usart.c ****   /* Write to USART CR3 */
 220:STM32F10x_StdPeriph_Driver/src/stm32f10x_usart.c ****   USARTx->CR3 = (uint16_t)tmpreg;
 369              		.loc 1 220 0
 370 0118 A382     		strh	r3, [r4, #20]	@ movhi
 221:STM32F10x_StdPeriph_Driver/src/stm32f10x_usart.c **** 
 222:STM32F10x_StdPeriph_Driver/src/stm32f10x_usart.c **** /*---------------------------- USART BRR Configuration -----------------------*/
 223:STM32F10x_StdPeriph_Driver/src/stm32f10x_usart.c ****   /* Configure the USART Baud Rate -------------------------------------------*/
 224:STM32F10x_StdPeriph_Driver/src/stm32f10x_usart.c ****   RCC_GetClocksFreq(&RCC_ClocksStatus);
 371              		.loc 1 224 0
 372 011a 01A8     		add	r0, sp, #4
 373 011c FFF7FEFF 		bl	RCC_GetClocksFreq
 374              	.LVL41:
 225:STM32F10x_StdPeriph_Driver/src/stm32f10x_usart.c ****   if (usartxbase == USART1_BASE)
 375              		.loc 1 225 0
 376 0120 104B     		ldr	r3, .L24
 377 0122 9C42     		cmp	r4, r3
 378 0124 01D1     		bne	.L21
 226:STM32F10x_StdPeriph_Driver/src/stm32f10x_usart.c ****   {
 227:STM32F10x_StdPeriph_Driver/src/stm32f10x_usart.c ****     apbclock = RCC_ClocksStatus.PCLK2_Frequency;
 379              		.loc 1 227 0
 380 0126 049A     		ldr	r2, [sp, #16]
 381              	.LVL42:
 382 0128 00E0     		b	.L22
 383              	.LVL43:
 384              	.L21:
 228:STM32F10x_StdPeriph_Driver/src/stm32f10x_usart.c ****   }
 229:STM32F10x_StdPeriph_Driver/src/stm32f10x_usart.c ****   else
 230:STM32F10x_StdPeriph_Driver/src/stm32f10x_usart.c ****   {
 231:STM32F10x_StdPeriph_Driver/src/stm32f10x_usart.c ****     apbclock = RCC_ClocksStatus.PCLK1_Frequency;
 385              		.loc 1 231 0
 386 012a 039A     		ldr	r2, [sp, #12]
 387              	.LVL44:
 388              	.L22:
 232:STM32F10x_StdPeriph_Driver/src/stm32f10x_usart.c ****   }
 233:STM32F10x_StdPeriph_Driver/src/stm32f10x_usart.c ****   /* Determine the integer part */
 234:STM32F10x_StdPeriph_Driver/src/stm32f10x_usart.c ****   integerdivider = ((0x19 * apbclock) / (0x04 * (USART_InitStruct->USART_BaudRate)));
 389              		.loc 1 234 0
 390 012c 02EB8202 		add	r2, r2, r2, lsl #2
 391              	.LVL45:
 392 0130 02EB8202 		add	r2, r2, r2, lsl #2
 393 0134 2B68     		ldr	r3, [r5]
 394 0136 9B00     		lsls	r3, r3, #2
 395 0138 B2FBF3F2 		udiv	r2, r2, r3
ARM GAS  /var/folders/g9/bbpj86ld7fx45vd1b3pqxmp00000gn/T//ccAXm4kS.s 			page 12


 396              	.LVL46:
 235:STM32F10x_StdPeriph_Driver/src/stm32f10x_usart.c ****   tmpreg = (integerdivider / 0x64) << 0x04;
 397              		.loc 1 235 0
 398 013c 0C4B     		ldr	r3, .L24+12
 399 013e A3FB0210 		umull	r1, r0, r3, r2
 400 0142 4009     		lsrs	r0, r0, #5
 401 0144 0001     		lsls	r0, r0, #4
 402              	.LVL47:
 236:STM32F10x_StdPeriph_Driver/src/stm32f10x_usart.c ****   /* Determine the fractional part */
 237:STM32F10x_StdPeriph_Driver/src/stm32f10x_usart.c ****   fractionaldivider = integerdivider - (0x64 * (tmpreg >> 0x04));
 403              		.loc 1 237 0
 404 0146 0109     		lsrs	r1, r0, #4
 405 0148 6425     		movs	r5, #100
 406              	.LVL48:
 407 014a 05FB1122 		mls	r2, r5, r1, r2
 408              	.LVL49:
 238:STM32F10x_StdPeriph_Driver/src/stm32f10x_usart.c ****   tmpreg |= ((((fractionaldivider * 0x10) + 0x32) / 0x64)) & ((uint8_t)0x0F);
 409              		.loc 1 238 0
 410 014e 1201     		lsls	r2, r2, #4
 411              	.LVL50:
 412 0150 3232     		adds	r2, r2, #50
 413 0152 A3FB0223 		umull	r2, r3, r3, r2
 414 0156 C3F34313 		ubfx	r3, r3, #5, #4
 415 015a 0343     		orrs	r3, r3, r0
 416              	.LVL51:
 239:STM32F10x_StdPeriph_Driver/src/stm32f10x_usart.c ****   /* Write to USART BRR */
 240:STM32F10x_StdPeriph_Driver/src/stm32f10x_usart.c ****   USARTx->BRR = (uint16_t)tmpreg;
 417              		.loc 1 240 0
 418 015c 9BB2     		uxth	r3, r3
 419              	.LVL52:
 420 015e 2381     		strh	r3, [r4, #8]	@ movhi
 241:STM32F10x_StdPeriph_Driver/src/stm32f10x_usart.c **** }
 421              		.loc 1 241 0
 422 0160 07B0     		add	sp, sp, #28
 423              	.LCFI3:
 424              		.cfi_def_cfa_offset 12
 425              		@ sp needed
 426 0162 30BD     		pop	{r4, r5, pc}
 427              	.LVL53:
 428              	.L25:
 429              		.align	2
 430              	.L24:
 431 0164 00380140 		.word	1073821696
 432 0168 00000000 		.word	.LC0
 433 016c 1FAA4400 		.word	4499999
 434 0170 1F85EB51 		.word	1374389535
 435              		.cfi_endproc
 436              	.LFE28:
 438              		.section	.text.USART_StructInit,"ax",%progbits
 439              		.align	2
 440              		.global	USART_StructInit
 441              		.thumb
 442              		.thumb_func
 444              	USART_StructInit:
 445              	.LFB29:
 242:STM32F10x_StdPeriph_Driver/src/stm32f10x_usart.c **** 
 243:STM32F10x_StdPeriph_Driver/src/stm32f10x_usart.c **** /**
ARM GAS  /var/folders/g9/bbpj86ld7fx45vd1b3pqxmp00000gn/T//ccAXm4kS.s 			page 13


 244:STM32F10x_StdPeriph_Driver/src/stm32f10x_usart.c ****   * @brief  Fills each USART_InitStruct member with its default value.
 245:STM32F10x_StdPeriph_Driver/src/stm32f10x_usart.c ****   * @param  USART_InitStruct: pointer to a USART_InitTypeDef structure
 246:STM32F10x_StdPeriph_Driver/src/stm32f10x_usart.c ****   *   which will be initialized.
 247:STM32F10x_StdPeriph_Driver/src/stm32f10x_usart.c ****   * @retval None
 248:STM32F10x_StdPeriph_Driver/src/stm32f10x_usart.c ****   */
 249:STM32F10x_StdPeriph_Driver/src/stm32f10x_usart.c **** void USART_StructInit(USART_InitTypeDef* USART_InitStruct)
 250:STM32F10x_StdPeriph_Driver/src/stm32f10x_usart.c **** {
 446              		.loc 1 250 0
 447              		.cfi_startproc
 448              		@ args = 0, pretend = 0, frame = 0
 449              		@ frame_needed = 0, uses_anonymous_args = 0
 450              		@ link register save eliminated.
 451              	.LVL54:
 251:STM32F10x_StdPeriph_Driver/src/stm32f10x_usart.c ****   /* USART_InitStruct members default value */
 252:STM32F10x_StdPeriph_Driver/src/stm32f10x_usart.c ****   USART_InitStruct->USART_BaudRate = 9600;
 452              		.loc 1 252 0
 453 0000 4FF41653 		mov	r3, #9600
 454 0004 0360     		str	r3, [r0]
 253:STM32F10x_StdPeriph_Driver/src/stm32f10x_usart.c ****   USART_InitStruct->USART_WordLength = USART_WordLength_8b;
 455              		.loc 1 253 0
 456 0006 0023     		movs	r3, #0
 457 0008 8380     		strh	r3, [r0, #4]	@ movhi
 254:STM32F10x_StdPeriph_Driver/src/stm32f10x_usart.c ****   USART_InitStruct->USART_StopBits = USART_StopBits_1;
 458              		.loc 1 254 0
 459 000a C380     		strh	r3, [r0, #6]	@ movhi
 255:STM32F10x_StdPeriph_Driver/src/stm32f10x_usart.c ****   USART_InitStruct->USART_Parity = USART_Parity_No ;
 460              		.loc 1 255 0
 461 000c 0381     		strh	r3, [r0, #8]	@ movhi
 256:STM32F10x_StdPeriph_Driver/src/stm32f10x_usart.c ****   USART_InitStruct->USART_Mode = USART_Mode_Rx | USART_Mode_Tx;
 462              		.loc 1 256 0
 463 000e 0C22     		movs	r2, #12
 464 0010 4281     		strh	r2, [r0, #10]	@ movhi
 257:STM32F10x_StdPeriph_Driver/src/stm32f10x_usart.c ****   USART_InitStruct->USART_HardwareFlowControl = USART_HardwareFlowControl_None;  
 465              		.loc 1 257 0
 466 0012 8381     		strh	r3, [r0, #12]	@ movhi
 467 0014 7047     		bx	lr
 468              		.cfi_endproc
 469              	.LFE29:
 471 0016 00BF     		.section	.text.USART_ClockInit,"ax",%progbits
 472              		.align	2
 473              		.global	USART_ClockInit
 474              		.thumb
 475              		.thumb_func
 477              	USART_ClockInit:
 478              	.LFB30:
 258:STM32F10x_StdPeriph_Driver/src/stm32f10x_usart.c **** }
 259:STM32F10x_StdPeriph_Driver/src/stm32f10x_usart.c **** 
 260:STM32F10x_StdPeriph_Driver/src/stm32f10x_usart.c **** /**
 261:STM32F10x_StdPeriph_Driver/src/stm32f10x_usart.c ****   * @brief  Initializes the USARTx peripheral Clock according to the 
 262:STM32F10x_StdPeriph_Driver/src/stm32f10x_usart.c ****   *   specified parameters in the USART_ClockInitStruct .
 263:STM32F10x_StdPeriph_Driver/src/stm32f10x_usart.c ****   * @param  USARTx: where x can be 1, 2, 3 to select the USART peripheral.
 264:STM32F10x_StdPeriph_Driver/src/stm32f10x_usart.c ****   * @param  USART_ClockInitStruct: pointer to a USART_ClockInitTypeDef
 265:STM32F10x_StdPeriph_Driver/src/stm32f10x_usart.c ****   *   structure that contains the configuration information for the specified 
 266:STM32F10x_StdPeriph_Driver/src/stm32f10x_usart.c ****   *   USART peripheral.  
 267:STM32F10x_StdPeriph_Driver/src/stm32f10x_usart.c ****   * @note The Smart Card mode is not available for UART4 and UART5.
 268:STM32F10x_StdPeriph_Driver/src/stm32f10x_usart.c ****   * @retval None
 269:STM32F10x_StdPeriph_Driver/src/stm32f10x_usart.c ****   */
ARM GAS  /var/folders/g9/bbpj86ld7fx45vd1b3pqxmp00000gn/T//ccAXm4kS.s 			page 14


 270:STM32F10x_StdPeriph_Driver/src/stm32f10x_usart.c **** void USART_ClockInit(USART_TypeDef* USARTx, USART_ClockInitTypeDef* USART_ClockInitStruct)
 271:STM32F10x_StdPeriph_Driver/src/stm32f10x_usart.c **** {
 479              		.loc 1 271 0
 480              		.cfi_startproc
 481              		@ args = 0, pretend = 0, frame = 0
 482              		@ frame_needed = 0, uses_anonymous_args = 0
 483              	.LVL55:
 484 0000 70B5     		push	{r4, r5, r6, lr}
 485              	.LCFI4:
 486              		.cfi_def_cfa_offset 16
 487              		.cfi_offset 4, -16
 488              		.cfi_offset 5, -12
 489              		.cfi_offset 6, -8
 490              		.cfi_offset 14, -4
 491 0002 0546     		mov	r5, r0
 492 0004 0C46     		mov	r4, r1
 493              	.LVL56:
 272:STM32F10x_StdPeriph_Driver/src/stm32f10x_usart.c ****   uint32_t tmpreg = 0x00;
 273:STM32F10x_StdPeriph_Driver/src/stm32f10x_usart.c ****   /* Check the parameters */
 274:STM32F10x_StdPeriph_Driver/src/stm32f10x_usart.c ****   assert_param(IS_USART_123_PERIPH(USARTx));
 494              		.loc 1 274 0
 495 0006 234B     		ldr	r3, .L34
 496 0008 9842     		cmp	r0, r3
 497 000a 0CD0     		beq	.L28
 498              		.loc 1 274 0 is_stmt 0 discriminator 1
 499 000c A3F57443 		sub	r3, r3, #62464
 500 0010 9842     		cmp	r0, r3
 501 0012 08D0     		beq	.L28
 502              		.loc 1 274 0 discriminator 2
 503 0014 03F58063 		add	r3, r3, #1024
 504 0018 9842     		cmp	r0, r3
 505 001a 04D0     		beq	.L28
 506              		.loc 1 274 0 discriminator 3
 507 001c 4FF48971 		mov	r1, #274
 508              	.LVL57:
 509 0020 1D48     		ldr	r0, .L34+4
 510              	.LVL58:
 511 0022 FFF7FEFF 		bl	assert_failed
 512              	.LVL59:
 513              	.L28:
 275:STM32F10x_StdPeriph_Driver/src/stm32f10x_usart.c ****   assert_param(IS_USART_CLOCK(USART_ClockInitStruct->USART_Clock));
 514              		.loc 1 275 0 is_stmt 1
 515 0026 2388     		ldrh	r3, [r4]
 516 0028 3BB1     		cbz	r3, .L29
 517              		.loc 1 275 0 is_stmt 0 discriminator 1
 518 002a B3F5006F 		cmp	r3, #2048
 519 002e 04D0     		beq	.L29
 520              		.loc 1 275 0 discriminator 2
 521 0030 40F21311 		movw	r1, #275
 522 0034 1848     		ldr	r0, .L34+4
 523 0036 FFF7FEFF 		bl	assert_failed
 524              	.LVL60:
 525              	.L29:
 276:STM32F10x_StdPeriph_Driver/src/stm32f10x_usart.c ****   assert_param(IS_USART_CPOL(USART_ClockInitStruct->USART_CPOL));
 526              		.loc 1 276 0 is_stmt 1
 527 003a 6388     		ldrh	r3, [r4, #2]
 528 003c 3BB1     		cbz	r3, .L30
ARM GAS  /var/folders/g9/bbpj86ld7fx45vd1b3pqxmp00000gn/T//ccAXm4kS.s 			page 15


 529              		.loc 1 276 0 is_stmt 0 discriminator 1
 530 003e B3F5806F 		cmp	r3, #1024
 531 0042 04D0     		beq	.L30
 532              		.loc 1 276 0 discriminator 2
 533 0044 4FF48A71 		mov	r1, #276
 534 0048 1348     		ldr	r0, .L34+4
 535 004a FFF7FEFF 		bl	assert_failed
 536              	.LVL61:
 537              	.L30:
 277:STM32F10x_StdPeriph_Driver/src/stm32f10x_usart.c ****   assert_param(IS_USART_CPHA(USART_ClockInitStruct->USART_CPHA));
 538              		.loc 1 277 0 is_stmt 1
 539 004e A388     		ldrh	r3, [r4, #4]
 540 0050 3BB1     		cbz	r3, .L31
 541              		.loc 1 277 0 is_stmt 0 discriminator 1
 542 0052 B3F5007F 		cmp	r3, #512
 543 0056 04D0     		beq	.L31
 544              		.loc 1 277 0 discriminator 2
 545 0058 40F21511 		movw	r1, #277
 546 005c 0E48     		ldr	r0, .L34+4
 547 005e FFF7FEFF 		bl	assert_failed
 548              	.LVL62:
 549              	.L31:
 278:STM32F10x_StdPeriph_Driver/src/stm32f10x_usart.c ****   assert_param(IS_USART_LASTBIT(USART_ClockInitStruct->USART_LastBit));
 550              		.loc 1 278 0 is_stmt 1
 551 0062 E388     		ldrh	r3, [r4, #6]
 552 0064 3BB1     		cbz	r3, .L32
 553              		.loc 1 278 0 is_stmt 0 discriminator 1
 554 0066 B3F5807F 		cmp	r3, #256
 555 006a 04D0     		beq	.L32
 556              		.loc 1 278 0 discriminator 2
 557 006c 4FF48B71 		mov	r1, #278
 558 0070 0948     		ldr	r0, .L34+4
 559 0072 FFF7FEFF 		bl	assert_failed
 560              	.LVL63:
 561              	.L32:
 279:STM32F10x_StdPeriph_Driver/src/stm32f10x_usart.c ****   
 280:STM32F10x_StdPeriph_Driver/src/stm32f10x_usart.c **** /*---------------------------- USART CR2 Configuration -----------------------*/
 281:STM32F10x_StdPeriph_Driver/src/stm32f10x_usart.c ****   tmpreg = USARTx->CR2;
 562              		.loc 1 281 0 is_stmt 1
 563 0076 2B8A     		ldrh	r3, [r5, #16]
 564 0078 9BB2     		uxth	r3, r3
 565              	.LVL64:
 282:STM32F10x_StdPeriph_Driver/src/stm32f10x_usart.c ****   /* Clear CLKEN, CPOL, CPHA and LBCL bits */
 283:STM32F10x_StdPeriph_Driver/src/stm32f10x_usart.c ****   tmpreg &= CR2_CLOCK_CLEAR_Mask;
 284:STM32F10x_StdPeriph_Driver/src/stm32f10x_usart.c ****   /* Configure the USART Clock, CPOL, CPHA and LastBit ------------*/
 285:STM32F10x_StdPeriph_Driver/src/stm32f10x_usart.c ****   /* Set CLKEN bit according to USART_Clock value */
 286:STM32F10x_StdPeriph_Driver/src/stm32f10x_usart.c ****   /* Set CPOL bit according to USART_CPOL value */
 287:STM32F10x_StdPeriph_Driver/src/stm32f10x_usart.c ****   /* Set CPHA bit according to USART_CPHA value */
 288:STM32F10x_StdPeriph_Driver/src/stm32f10x_usart.c ****   /* Set LBCL bit according to USART_LastBit value */
 289:STM32F10x_StdPeriph_Driver/src/stm32f10x_usart.c ****   tmpreg |= (uint32_t)USART_ClockInitStruct->USART_Clock | USART_ClockInitStruct->USART_CPOL | 
 566              		.loc 1 289 0
 567 007a 2688     		ldrh	r6, [r4]
 568 007c 6188     		ldrh	r1, [r4, #2]
 290:STM32F10x_StdPeriph_Driver/src/stm32f10x_usart.c ****                  USART_ClockInitStruct->USART_CPHA | USART_ClockInitStruct->USART_LastBit;
 569              		.loc 1 290 0
 570 007e A288     		ldrh	r2, [r4, #4]
 571 0080 E088     		ldrh	r0, [r4, #6]
ARM GAS  /var/folders/g9/bbpj86ld7fx45vd1b3pqxmp00000gn/T//ccAXm4kS.s 			page 16


 572 0082 3143     		orrs	r1, r1, r6
 573 0084 0A43     		orrs	r2, r2, r1
 574 0086 0243     		orrs	r2, r2, r0
 575 0088 23F47063 		bic	r3, r3, #3840
 576              	.LVL65:
 577 008c 1343     		orrs	r3, r3, r2
 578              	.LVL66:
 291:STM32F10x_StdPeriph_Driver/src/stm32f10x_usart.c ****   /* Write to USART CR2 */
 292:STM32F10x_StdPeriph_Driver/src/stm32f10x_usart.c ****   USARTx->CR2 = (uint16_t)tmpreg;
 579              		.loc 1 292 0
 580 008e 2B82     		strh	r3, [r5, #16]	@ movhi
 581 0090 70BD     		pop	{r4, r5, r6, pc}
 582              	.LVL67:
 583              	.L35:
 584 0092 00BF     		.align	2
 585              	.L34:
 586 0094 00380140 		.word	1073821696
 587 0098 00000000 		.word	.LC0
 588              		.cfi_endproc
 589              	.LFE30:
 591              		.section	.text.USART_ClockStructInit,"ax",%progbits
 592              		.align	2
 593              		.global	USART_ClockStructInit
 594              		.thumb
 595              		.thumb_func
 597              	USART_ClockStructInit:
 598              	.LFB31:
 293:STM32F10x_StdPeriph_Driver/src/stm32f10x_usart.c **** }
 294:STM32F10x_StdPeriph_Driver/src/stm32f10x_usart.c **** 
 295:STM32F10x_StdPeriph_Driver/src/stm32f10x_usart.c **** /**
 296:STM32F10x_StdPeriph_Driver/src/stm32f10x_usart.c ****   * @brief  Fills each USART_ClockInitStruct member with its default value.
 297:STM32F10x_StdPeriph_Driver/src/stm32f10x_usart.c ****   * @param  USART_ClockInitStruct: pointer to a USART_ClockInitTypeDef
 298:STM32F10x_StdPeriph_Driver/src/stm32f10x_usart.c ****   *   structure which will be initialized.
 299:STM32F10x_StdPeriph_Driver/src/stm32f10x_usart.c ****   * @retval None
 300:STM32F10x_StdPeriph_Driver/src/stm32f10x_usart.c ****   */
 301:STM32F10x_StdPeriph_Driver/src/stm32f10x_usart.c **** void USART_ClockStructInit(USART_ClockInitTypeDef* USART_ClockInitStruct)
 302:STM32F10x_StdPeriph_Driver/src/stm32f10x_usart.c **** {
 599              		.loc 1 302 0
 600              		.cfi_startproc
 601              		@ args = 0, pretend = 0, frame = 0
 602              		@ frame_needed = 0, uses_anonymous_args = 0
 603              		@ link register save eliminated.
 604              	.LVL68:
 303:STM32F10x_StdPeriph_Driver/src/stm32f10x_usart.c ****   /* USART_ClockInitStruct members default value */
 304:STM32F10x_StdPeriph_Driver/src/stm32f10x_usart.c ****   USART_ClockInitStruct->USART_Clock = USART_Clock_Disable;
 605              		.loc 1 304 0
 606 0000 0023     		movs	r3, #0
 607 0002 0380     		strh	r3, [r0]	@ movhi
 305:STM32F10x_StdPeriph_Driver/src/stm32f10x_usart.c ****   USART_ClockInitStruct->USART_CPOL = USART_CPOL_Low;
 608              		.loc 1 305 0
 609 0004 4380     		strh	r3, [r0, #2]	@ movhi
 306:STM32F10x_StdPeriph_Driver/src/stm32f10x_usart.c ****   USART_ClockInitStruct->USART_CPHA = USART_CPHA_1Edge;
 610              		.loc 1 306 0
 611 0006 8380     		strh	r3, [r0, #4]	@ movhi
 307:STM32F10x_StdPeriph_Driver/src/stm32f10x_usart.c ****   USART_ClockInitStruct->USART_LastBit = USART_LastBit_Disable;
 612              		.loc 1 307 0
 613 0008 C380     		strh	r3, [r0, #6]	@ movhi
ARM GAS  /var/folders/g9/bbpj86ld7fx45vd1b3pqxmp00000gn/T//ccAXm4kS.s 			page 17


 614 000a 7047     		bx	lr
 615              		.cfi_endproc
 616              	.LFE31:
 618              		.section	.text.USART_Cmd,"ax",%progbits
 619              		.align	2
 620              		.global	USART_Cmd
 621              		.thumb
 622              		.thumb_func
 624              	USART_Cmd:
 625              	.LFB32:
 308:STM32F10x_StdPeriph_Driver/src/stm32f10x_usart.c **** }
 309:STM32F10x_StdPeriph_Driver/src/stm32f10x_usart.c **** 
 310:STM32F10x_StdPeriph_Driver/src/stm32f10x_usart.c **** /**
 311:STM32F10x_StdPeriph_Driver/src/stm32f10x_usart.c ****   * @brief  Enables or disables the specified USART peripheral.
 312:STM32F10x_StdPeriph_Driver/src/stm32f10x_usart.c ****   * @param  USARTx: Select the USART or the UART peripheral. 
 313:STM32F10x_StdPeriph_Driver/src/stm32f10x_usart.c ****   *   This parameter can be one of the following values:
 314:STM32F10x_StdPeriph_Driver/src/stm32f10x_usart.c ****   *   USART1, USART2, USART3, UART4 or UART5.
 315:STM32F10x_StdPeriph_Driver/src/stm32f10x_usart.c ****   * @param  NewState: new state of the USARTx peripheral.
 316:STM32F10x_StdPeriph_Driver/src/stm32f10x_usart.c ****   *   This parameter can be: ENABLE or DISABLE.
 317:STM32F10x_StdPeriph_Driver/src/stm32f10x_usart.c ****   * @retval None
 318:STM32F10x_StdPeriph_Driver/src/stm32f10x_usart.c ****   */
 319:STM32F10x_StdPeriph_Driver/src/stm32f10x_usart.c **** void USART_Cmd(USART_TypeDef* USARTx, FunctionalState NewState)
 320:STM32F10x_StdPeriph_Driver/src/stm32f10x_usart.c **** {
 626              		.loc 1 320 0
 627              		.cfi_startproc
 628              		@ args = 0, pretend = 0, frame = 0
 629              		@ frame_needed = 0, uses_anonymous_args = 0
 630              	.LVL69:
 631 0000 38B5     		push	{r3, r4, r5, lr}
 632              	.LCFI5:
 633              		.cfi_def_cfa_offset 16
 634              		.cfi_offset 3, -16
 635              		.cfi_offset 4, -12
 636              		.cfi_offset 5, -8
 637              		.cfi_offset 14, -4
 638 0002 0446     		mov	r4, r0
 639 0004 0D46     		mov	r5, r1
 321:STM32F10x_StdPeriph_Driver/src/stm32f10x_usart.c ****   /* Check the parameters */
 322:STM32F10x_StdPeriph_Driver/src/stm32f10x_usart.c ****   assert_param(IS_USART_ALL_PERIPH(USARTx));
 640              		.loc 1 322 0
 641 0006 164B     		ldr	r3, .L43
 642 0008 9842     		cmp	r0, r3
 643 000a 14D0     		beq	.L38
 644              		.loc 1 322 0 is_stmt 0 discriminator 1
 645 000c A3F57443 		sub	r3, r3, #62464
 646 0010 9842     		cmp	r0, r3
 647 0012 10D0     		beq	.L38
 648              		.loc 1 322 0 discriminator 2
 649 0014 03F58063 		add	r3, r3, #1024
 650 0018 9842     		cmp	r0, r3
 651 001a 0CD0     		beq	.L38
 652              		.loc 1 322 0 discriminator 3
 653 001c 03F58063 		add	r3, r3, #1024
 654 0020 9842     		cmp	r0, r3
 655 0022 08D0     		beq	.L38
 656              		.loc 1 322 0 discriminator 4
 657 0024 03F58063 		add	r3, r3, #1024
ARM GAS  /var/folders/g9/bbpj86ld7fx45vd1b3pqxmp00000gn/T//ccAXm4kS.s 			page 18


 658 0028 9842     		cmp	r0, r3
 659 002a 04D0     		beq	.L38
 660              		.loc 1 322 0 discriminator 5
 661 002c 4FF4A171 		mov	r1, #322
 662              	.LVL70:
 663 0030 0C48     		ldr	r0, .L43+4
 664              	.LVL71:
 665 0032 FFF7FEFF 		bl	assert_failed
 666              	.LVL72:
 667              	.L38:
 323:STM32F10x_StdPeriph_Driver/src/stm32f10x_usart.c ****   assert_param(IS_FUNCTIONAL_STATE(NewState));
 668              		.loc 1 323 0 is_stmt 1
 669 0036 012D     		cmp	r5, #1
 670 0038 04D9     		bls	.L39
 671              		.loc 1 323 0 is_stmt 0 discriminator 1
 672 003a 40F24311 		movw	r1, #323
 673 003e 0948     		ldr	r0, .L43+4
 674 0040 FFF7FEFF 		bl	assert_failed
 675              	.LVL73:
 676              	.L39:
 324:STM32F10x_StdPeriph_Driver/src/stm32f10x_usart.c ****   
 325:STM32F10x_StdPeriph_Driver/src/stm32f10x_usart.c ****   if (NewState != DISABLE)
 677              		.loc 1 325 0 is_stmt 1
 678 0044 2DB1     		cbz	r5, .L40
 326:STM32F10x_StdPeriph_Driver/src/stm32f10x_usart.c ****   {
 327:STM32F10x_StdPeriph_Driver/src/stm32f10x_usart.c ****     /* Enable the selected USART by setting the UE bit in the CR1 register */
 328:STM32F10x_StdPeriph_Driver/src/stm32f10x_usart.c ****     USARTx->CR1 |= CR1_UE_Set;
 679              		.loc 1 328 0
 680 0046 A389     		ldrh	r3, [r4, #12]
 681 0048 9BB2     		uxth	r3, r3
 682 004a 43F40053 		orr	r3, r3, #8192
 683 004e A381     		strh	r3, [r4, #12]	@ movhi
 684 0050 38BD     		pop	{r3, r4, r5, pc}
 685              	.LVL74:
 686              	.L40:
 329:STM32F10x_StdPeriph_Driver/src/stm32f10x_usart.c ****   }
 330:STM32F10x_StdPeriph_Driver/src/stm32f10x_usart.c ****   else
 331:STM32F10x_StdPeriph_Driver/src/stm32f10x_usart.c ****   {
 332:STM32F10x_StdPeriph_Driver/src/stm32f10x_usart.c ****     /* Disable the selected USART by clearing the UE bit in the CR1 register */
 333:STM32F10x_StdPeriph_Driver/src/stm32f10x_usart.c ****     USARTx->CR1 &= CR1_UE_Reset;
 687              		.loc 1 333 0
 688 0052 A389     		ldrh	r3, [r4, #12]
 689 0054 9BB2     		uxth	r3, r3
 690 0056 23F40053 		bic	r3, r3, #8192
 691 005a 9BB2     		uxth	r3, r3
 692 005c A381     		strh	r3, [r4, #12]	@ movhi
 693 005e 38BD     		pop	{r3, r4, r5, pc}
 694              	.LVL75:
 695              	.L44:
 696              		.align	2
 697              	.L43:
 698 0060 00380140 		.word	1073821696
 699 0064 00000000 		.word	.LC0
 700              		.cfi_endproc
 701              	.LFE32:
 703              		.section	.text.USART_ITConfig,"ax",%progbits
 704              		.align	2
ARM GAS  /var/folders/g9/bbpj86ld7fx45vd1b3pqxmp00000gn/T//ccAXm4kS.s 			page 19


 705              		.global	USART_ITConfig
 706              		.thumb
 707              		.thumb_func
 709              	USART_ITConfig:
 710              	.LFB33:
 334:STM32F10x_StdPeriph_Driver/src/stm32f10x_usart.c ****   }
 335:STM32F10x_StdPeriph_Driver/src/stm32f10x_usart.c **** }
 336:STM32F10x_StdPeriph_Driver/src/stm32f10x_usart.c **** 
 337:STM32F10x_StdPeriph_Driver/src/stm32f10x_usart.c **** /**
 338:STM32F10x_StdPeriph_Driver/src/stm32f10x_usart.c ****   * @brief  Enables or disables the specified USART interrupts.
 339:STM32F10x_StdPeriph_Driver/src/stm32f10x_usart.c ****   * @param  USARTx: Select the USART or the UART peripheral. 
 340:STM32F10x_StdPeriph_Driver/src/stm32f10x_usart.c ****   *   This parameter can be one of the following values:
 341:STM32F10x_StdPeriph_Driver/src/stm32f10x_usart.c ****   *   USART1, USART2, USART3, UART4 or UART5.
 342:STM32F10x_StdPeriph_Driver/src/stm32f10x_usart.c ****   * @param  USART_IT: specifies the USART interrupt sources to be enabled or disabled.
 343:STM32F10x_StdPeriph_Driver/src/stm32f10x_usart.c ****   *   This parameter can be one of the following values:
 344:STM32F10x_StdPeriph_Driver/src/stm32f10x_usart.c ****   *     @arg USART_IT_CTS:  CTS change interrupt (not available for UART4 and UART5)
 345:STM32F10x_StdPeriph_Driver/src/stm32f10x_usart.c ****   *     @arg USART_IT_LBD:  LIN Break detection interrupt
 346:STM32F10x_StdPeriph_Driver/src/stm32f10x_usart.c ****   *     @arg USART_IT_TXE:  Tansmit Data Register empty interrupt
 347:STM32F10x_StdPeriph_Driver/src/stm32f10x_usart.c ****   *     @arg USART_IT_TC:   Transmission complete interrupt
 348:STM32F10x_StdPeriph_Driver/src/stm32f10x_usart.c ****   *     @arg USART_IT_RXNE: Receive Data register not empty interrupt
 349:STM32F10x_StdPeriph_Driver/src/stm32f10x_usart.c ****   *     @arg USART_IT_IDLE: Idle line detection interrupt
 350:STM32F10x_StdPeriph_Driver/src/stm32f10x_usart.c ****   *     @arg USART_IT_PE:   Parity Error interrupt
 351:STM32F10x_StdPeriph_Driver/src/stm32f10x_usart.c ****   *     @arg USART_IT_ERR:  Error interrupt(Frame error, noise error, overrun error)
 352:STM32F10x_StdPeriph_Driver/src/stm32f10x_usart.c ****   * @param  NewState: new state of the specified USARTx interrupts.
 353:STM32F10x_StdPeriph_Driver/src/stm32f10x_usart.c ****   *   This parameter can be: ENABLE or DISABLE.
 354:STM32F10x_StdPeriph_Driver/src/stm32f10x_usart.c ****   * @retval None
 355:STM32F10x_StdPeriph_Driver/src/stm32f10x_usart.c ****   */
 356:STM32F10x_StdPeriph_Driver/src/stm32f10x_usart.c **** void USART_ITConfig(USART_TypeDef* USARTx, uint16_t USART_IT, FunctionalState NewState)
 357:STM32F10x_StdPeriph_Driver/src/stm32f10x_usart.c **** {
 711              		.loc 1 357 0
 712              		.cfi_startproc
 713              		@ args = 0, pretend = 0, frame = 0
 714              		@ frame_needed = 0, uses_anonymous_args = 0
 715              	.LVL76:
 716 0000 70B5     		push	{r4, r5, r6, lr}
 717              	.LCFI6:
 718              		.cfi_def_cfa_offset 16
 719              		.cfi_offset 4, -16
 720              		.cfi_offset 5, -12
 721              		.cfi_offset 6, -8
 722              		.cfi_offset 14, -4
 723 0002 0446     		mov	r4, r0
 724 0004 0D46     		mov	r5, r1
 725 0006 1646     		mov	r6, r2
 726              	.LVL77:
 358:STM32F10x_StdPeriph_Driver/src/stm32f10x_usart.c ****   uint32_t usartreg = 0x00, itpos = 0x00, itmask = 0x00;
 359:STM32F10x_StdPeriph_Driver/src/stm32f10x_usart.c ****   uint32_t usartxbase = 0x00;
 360:STM32F10x_StdPeriph_Driver/src/stm32f10x_usart.c ****   /* Check the parameters */
 361:STM32F10x_StdPeriph_Driver/src/stm32f10x_usart.c ****   assert_param(IS_USART_ALL_PERIPH(USARTx));
 727              		.loc 1 361 0
 728 0008 364B     		ldr	r3, .L56
 729 000a 9842     		cmp	r0, r3
 730 000c 14D0     		beq	.L46
 731              		.loc 1 361 0 is_stmt 0 discriminator 1
 732 000e A3F57443 		sub	r3, r3, #62464
 733 0012 9842     		cmp	r0, r3
 734 0014 10D0     		beq	.L46
ARM GAS  /var/folders/g9/bbpj86ld7fx45vd1b3pqxmp00000gn/T//ccAXm4kS.s 			page 20


 735              		.loc 1 361 0 discriminator 2
 736 0016 03F58063 		add	r3, r3, #1024
 737 001a 9842     		cmp	r0, r3
 738 001c 0CD0     		beq	.L46
 739              		.loc 1 361 0 discriminator 3
 740 001e 03F58063 		add	r3, r3, #1024
 741 0022 9842     		cmp	r0, r3
 742 0024 08D0     		beq	.L46
 743              		.loc 1 361 0 discriminator 4
 744 0026 03F58063 		add	r3, r3, #1024
 745 002a 9842     		cmp	r0, r3
 746 002c 04D0     		beq	.L46
 747              		.loc 1 361 0 discriminator 5
 748 002e 40F26911 		movw	r1, #361
 749              	.LVL78:
 750 0032 2D48     		ldr	r0, .L56+4
 751              	.LVL79:
 752 0034 FFF7FEFF 		bl	assert_failed
 753              	.LVL80:
 754              	.L46:
 362:STM32F10x_StdPeriph_Driver/src/stm32f10x_usart.c ****   assert_param(IS_USART_CONFIG_IT(USART_IT));
 755              		.loc 1 362 0 is_stmt 1
 756 0038 282D     		cmp	r5, #40
 757 003a 1ED0     		beq	.L47
 758              		.loc 1 362 0 is_stmt 0 discriminator 1
 759 003c 40F22773 		movw	r3, #1831
 760 0040 9D42     		cmp	r5, r3
 761 0042 1AD0     		beq	.L47
 762              		.loc 1 362 0 discriminator 2
 763 0044 40F22663 		movw	r3, #1574
 764 0048 9D42     		cmp	r5, r3
 765 004a 16D0     		beq	.L47
 766              		.loc 1 362 0 discriminator 3
 767 004c 40F22553 		movw	r3, #1317
 768 0050 9D42     		cmp	r5, r3
 769 0052 12D0     		beq	.L47
 770              		.loc 1 362 0 discriminator 4
 771 0054 40F22443 		movw	r3, #1060
 772 0058 9D42     		cmp	r5, r3
 773 005a 0ED0     		beq	.L47
 774              		.loc 1 362 0 discriminator 5
 775 005c 40F64603 		movw	r3, #2118
 776 0060 9D42     		cmp	r5, r3
 777 0062 0AD0     		beq	.L47
 778              		.loc 1 362 0 discriminator 6
 779 0064 40F66A13 		movw	r3, #2410
 780 0068 9D42     		cmp	r5, r3
 781 006a 06D0     		beq	.L47
 782              		.loc 1 362 0 discriminator 7
 783 006c 602D     		cmp	r5, #96
 784 006e 04D0     		beq	.L47
 785              		.loc 1 362 0 discriminator 8
 786 0070 4FF4B571 		mov	r1, #362
 787 0074 1C48     		ldr	r0, .L56+4
 788 0076 FFF7FEFF 		bl	assert_failed
 789              	.LVL81:
 790              	.L47:
ARM GAS  /var/folders/g9/bbpj86ld7fx45vd1b3pqxmp00000gn/T//ccAXm4kS.s 			page 21


 363:STM32F10x_StdPeriph_Driver/src/stm32f10x_usart.c ****   assert_param(IS_FUNCTIONAL_STATE(NewState));
 791              		.loc 1 363 0 is_stmt 1
 792 007a 012E     		cmp	r6, #1
 793 007c 04D9     		bls	.L48
 794              		.loc 1 363 0 is_stmt 0 discriminator 1
 795 007e 40F26B11 		movw	r1, #363
 796 0082 1948     		ldr	r0, .L56+4
 797 0084 FFF7FEFF 		bl	assert_failed
 798              	.LVL82:
 799              	.L48:
 364:STM32F10x_StdPeriph_Driver/src/stm32f10x_usart.c ****   /* The CTS interrupt is not available for UART4 and UART5 */
 365:STM32F10x_StdPeriph_Driver/src/stm32f10x_usart.c ****   if (USART_IT == USART_IT_CTS)
 800              		.loc 1 365 0 is_stmt 1
 801 0088 40F66A13 		movw	r3, #2410
 802 008c 9D42     		cmp	r5, r3
 803 008e 0FD1     		bne	.L49
 366:STM32F10x_StdPeriph_Driver/src/stm32f10x_usart.c ****   {
 367:STM32F10x_StdPeriph_Driver/src/stm32f10x_usart.c ****     assert_param(IS_USART_123_PERIPH(USARTx));
 804              		.loc 1 367 0
 805 0090 144B     		ldr	r3, .L56
 806 0092 9C42     		cmp	r4, r3
 807 0094 0CD0     		beq	.L49
 808              		.loc 1 367 0 is_stmt 0 discriminator 1
 809 0096 A3F57443 		sub	r3, r3, #62464
 810 009a 9C42     		cmp	r4, r3
 811 009c 08D0     		beq	.L49
 812              		.loc 1 367 0 discriminator 2
 813 009e 03F58063 		add	r3, r3, #1024
 814 00a2 9C42     		cmp	r4, r3
 815 00a4 04D0     		beq	.L49
 816              		.loc 1 367 0 discriminator 3
 817 00a6 40F26F11 		movw	r1, #367
 818 00aa 0F48     		ldr	r0, .L56+4
 819 00ac FFF7FEFF 		bl	assert_failed
 820              	.LVL83:
 821              	.L49:
 368:STM32F10x_StdPeriph_Driver/src/stm32f10x_usart.c ****   }   
 369:STM32F10x_StdPeriph_Driver/src/stm32f10x_usart.c ****   
 370:STM32F10x_StdPeriph_Driver/src/stm32f10x_usart.c ****   usartxbase = (uint32_t)USARTx;
 371:STM32F10x_StdPeriph_Driver/src/stm32f10x_usart.c **** 
 372:STM32F10x_StdPeriph_Driver/src/stm32f10x_usart.c ****   /* Get the USART register index */
 373:STM32F10x_StdPeriph_Driver/src/stm32f10x_usart.c ****   usartreg = (((uint8_t)USART_IT) >> 0x05);
 822              		.loc 1 373 0 is_stmt 1
 823 00b0 C5F34212 		ubfx	r2, r5, #5, #3
 824              	.LVL84:
 374:STM32F10x_StdPeriph_Driver/src/stm32f10x_usart.c **** 
 375:STM32F10x_StdPeriph_Driver/src/stm32f10x_usart.c ****   /* Get the interrupt position */
 376:STM32F10x_StdPeriph_Driver/src/stm32f10x_usart.c ****   itpos = USART_IT & IT_Mask;
 825              		.loc 1 376 0
 826 00b4 05F01F05 		and	r5, r5, #31
 827              	.LVL85:
 377:STM32F10x_StdPeriph_Driver/src/stm32f10x_usart.c ****   itmask = (((uint32_t)0x01) << itpos);
 828              		.loc 1 377 0
 829 00b8 0123     		movs	r3, #1
 830 00ba 03FA05F5 		lsl	r5, r3, r5
 831              	.LVL86:
 378:STM32F10x_StdPeriph_Driver/src/stm32f10x_usart.c ****     
ARM GAS  /var/folders/g9/bbpj86ld7fx45vd1b3pqxmp00000gn/T//ccAXm4kS.s 			page 22


 379:STM32F10x_StdPeriph_Driver/src/stm32f10x_usart.c ****   if (usartreg == 0x01) /* The IT is in CR1 register */
 832              		.loc 1 379 0
 833 00be 9A42     		cmp	r2, r3
 834 00c0 01D1     		bne	.L50
 380:STM32F10x_StdPeriph_Driver/src/stm32f10x_usart.c ****   {
 381:STM32F10x_StdPeriph_Driver/src/stm32f10x_usart.c ****     usartxbase += 0x0C;
 835              		.loc 1 381 0
 836 00c2 0C34     		adds	r4, r4, #12
 837              	.LVL87:
 838 00c4 04E0     		b	.L51
 839              	.LVL88:
 840              	.L50:
 382:STM32F10x_StdPeriph_Driver/src/stm32f10x_usart.c ****   }
 383:STM32F10x_StdPeriph_Driver/src/stm32f10x_usart.c ****   else if (usartreg == 0x02) /* The IT is in CR2 register */
 841              		.loc 1 383 0
 842 00c6 022A     		cmp	r2, #2
 843 00c8 01D1     		bne	.L52
 384:STM32F10x_StdPeriph_Driver/src/stm32f10x_usart.c ****   {
 385:STM32F10x_StdPeriph_Driver/src/stm32f10x_usart.c ****     usartxbase += 0x10;
 844              		.loc 1 385 0
 845 00ca 1034     		adds	r4, r4, #16
 846              	.LVL89:
 847 00cc 00E0     		b	.L51
 848              	.LVL90:
 849              	.L52:
 386:STM32F10x_StdPeriph_Driver/src/stm32f10x_usart.c ****   }
 387:STM32F10x_StdPeriph_Driver/src/stm32f10x_usart.c ****   else /* The IT is in CR3 register */
 388:STM32F10x_StdPeriph_Driver/src/stm32f10x_usart.c ****   {
 389:STM32F10x_StdPeriph_Driver/src/stm32f10x_usart.c ****     usartxbase += 0x14; 
 850              		.loc 1 389 0
 851 00ce 1434     		adds	r4, r4, #20
 852              	.LVL91:
 853              	.L51:
 390:STM32F10x_StdPeriph_Driver/src/stm32f10x_usart.c ****   }
 391:STM32F10x_StdPeriph_Driver/src/stm32f10x_usart.c ****   if (NewState != DISABLE)
 854              		.loc 1 391 0
 855 00d0 1EB1     		cbz	r6, .L53
 392:STM32F10x_StdPeriph_Driver/src/stm32f10x_usart.c ****   {
 393:STM32F10x_StdPeriph_Driver/src/stm32f10x_usart.c ****     *(__IO uint32_t*)usartxbase  |= itmask;
 856              		.loc 1 393 0
 857 00d2 2368     		ldr	r3, [r4]
 858 00d4 1D43     		orrs	r5, r5, r3
 859              	.LVL92:
 860 00d6 2560     		str	r5, [r4]
 861 00d8 70BD     		pop	{r4, r5, r6, pc}
 862              	.LVL93:
 863              	.L53:
 394:STM32F10x_StdPeriph_Driver/src/stm32f10x_usart.c ****   }
 395:STM32F10x_StdPeriph_Driver/src/stm32f10x_usart.c ****   else
 396:STM32F10x_StdPeriph_Driver/src/stm32f10x_usart.c ****   {
 397:STM32F10x_StdPeriph_Driver/src/stm32f10x_usart.c ****     *(__IO uint32_t*)usartxbase &= ~itmask;
 864              		.loc 1 397 0
 865 00da 2368     		ldr	r3, [r4]
 866 00dc 23EA0505 		bic	r5, r3, r5
 867              	.LVL94:
 868 00e0 2560     		str	r5, [r4]
 869 00e2 70BD     		pop	{r4, r5, r6, pc}
ARM GAS  /var/folders/g9/bbpj86ld7fx45vd1b3pqxmp00000gn/T//ccAXm4kS.s 			page 23


 870              	.LVL95:
 871              	.L57:
 872              		.align	2
 873              	.L56:
 874 00e4 00380140 		.word	1073821696
 875 00e8 00000000 		.word	.LC0
 876              		.cfi_endproc
 877              	.LFE33:
 879              		.section	.text.USART_DMACmd,"ax",%progbits
 880              		.align	2
 881              		.global	USART_DMACmd
 882              		.thumb
 883              		.thumb_func
 885              	USART_DMACmd:
 886              	.LFB34:
 398:STM32F10x_StdPeriph_Driver/src/stm32f10x_usart.c ****   }
 399:STM32F10x_StdPeriph_Driver/src/stm32f10x_usart.c **** }
 400:STM32F10x_StdPeriph_Driver/src/stm32f10x_usart.c **** 
 401:STM32F10x_StdPeriph_Driver/src/stm32f10x_usart.c **** /**
 402:STM32F10x_StdPeriph_Driver/src/stm32f10x_usart.c ****   * @brief  Enables or disables the USARTs DMA interface.
 403:STM32F10x_StdPeriph_Driver/src/stm32f10x_usart.c ****   * @param  USARTx: Select the USART or the UART peripheral. 
 404:STM32F10x_StdPeriph_Driver/src/stm32f10x_usart.c ****   *   This parameter can be one of the following values:
 405:STM32F10x_StdPeriph_Driver/src/stm32f10x_usart.c ****   *   USART1, USART2, USART3 or UART4.  
 406:STM32F10x_StdPeriph_Driver/src/stm32f10x_usart.c ****   * @param  USART_DMAReq: specifies the DMA request.
 407:STM32F10x_StdPeriph_Driver/src/stm32f10x_usart.c ****   *   This parameter can be any combination of the following values:
 408:STM32F10x_StdPeriph_Driver/src/stm32f10x_usart.c ****   *     @arg USART_DMAReq_Tx: USART DMA transmit request
 409:STM32F10x_StdPeriph_Driver/src/stm32f10x_usart.c ****   *     @arg USART_DMAReq_Rx: USART DMA receive request
 410:STM32F10x_StdPeriph_Driver/src/stm32f10x_usart.c ****   * @param  NewState: new state of the DMA Request sources.
 411:STM32F10x_StdPeriph_Driver/src/stm32f10x_usart.c ****   *   This parameter can be: ENABLE or DISABLE.
 412:STM32F10x_StdPeriph_Driver/src/stm32f10x_usart.c ****   * @note The DMA mode is not available for UART5.  
 413:STM32F10x_StdPeriph_Driver/src/stm32f10x_usart.c ****   * @retval None
 414:STM32F10x_StdPeriph_Driver/src/stm32f10x_usart.c ****   */
 415:STM32F10x_StdPeriph_Driver/src/stm32f10x_usart.c **** void USART_DMACmd(USART_TypeDef* USARTx, uint16_t USART_DMAReq, FunctionalState NewState)
 416:STM32F10x_StdPeriph_Driver/src/stm32f10x_usart.c **** {
 887              		.loc 1 416 0
 888              		.cfi_startproc
 889              		@ args = 0, pretend = 0, frame = 0
 890              		@ frame_needed = 0, uses_anonymous_args = 0
 891              	.LVL96:
 892 0000 70B5     		push	{r4, r5, r6, lr}
 893              	.LCFI7:
 894              		.cfi_def_cfa_offset 16
 895              		.cfi_offset 4, -16
 896              		.cfi_offset 5, -12
 897              		.cfi_offset 6, -8
 898              		.cfi_offset 14, -4
 899 0002 0446     		mov	r4, r0
 900 0004 0D46     		mov	r5, r1
 901 0006 1646     		mov	r6, r2
 417:STM32F10x_StdPeriph_Driver/src/stm32f10x_usart.c ****   /* Check the parameters */
 418:STM32F10x_StdPeriph_Driver/src/stm32f10x_usart.c ****   assert_param(IS_USART_1234_PERIPH(USARTx));
 902              		.loc 1 418 0
 903 0008 184B     		ldr	r3, .L66
 904 000a 9842     		cmp	r0, r3
 905 000c 10D0     		beq	.L59
 906              		.loc 1 418 0 is_stmt 0 discriminator 1
 907 000e A3F57443 		sub	r3, r3, #62464
ARM GAS  /var/folders/g9/bbpj86ld7fx45vd1b3pqxmp00000gn/T//ccAXm4kS.s 			page 24


 908 0012 9842     		cmp	r0, r3
 909 0014 0CD0     		beq	.L59
 910              		.loc 1 418 0 discriminator 2
 911 0016 03F58063 		add	r3, r3, #1024
 912 001a 9842     		cmp	r0, r3
 913 001c 08D0     		beq	.L59
 914              		.loc 1 418 0 discriminator 3
 915 001e 03F58063 		add	r3, r3, #1024
 916 0022 9842     		cmp	r0, r3
 917 0024 04D0     		beq	.L59
 918              		.loc 1 418 0 discriminator 4
 919 0026 4FF4D171 		mov	r1, #418
 920              	.LVL97:
 921 002a 1148     		ldr	r0, .L66+4
 922              	.LVL98:
 923 002c FFF7FEFF 		bl	assert_failed
 924              	.LVL99:
 925              	.L59:
 419:STM32F10x_StdPeriph_Driver/src/stm32f10x_usart.c ****   assert_param(IS_USART_DMAREQ(USART_DMAReq));  
 926              		.loc 1 419 0 is_stmt 1
 927 0030 25F0C003 		bic	r3, r5, #192
 928 0034 9BB2     		uxth	r3, r3
 929 0036 03B9     		cbnz	r3, .L60
 930              		.loc 1 419 0 is_stmt 0 discriminator 2
 931 0038 25B9     		cbnz	r5, .L61
 932              	.L60:
 933              		.loc 1 419 0 discriminator 3
 934 003a 40F2A311 		movw	r1, #419
 935 003e 0C48     		ldr	r0, .L66+4
 936 0040 FFF7FEFF 		bl	assert_failed
 937              	.LVL100:
 938              	.L61:
 420:STM32F10x_StdPeriph_Driver/src/stm32f10x_usart.c ****   assert_param(IS_FUNCTIONAL_STATE(NewState)); 
 939              		.loc 1 420 0 is_stmt 1
 940 0044 012E     		cmp	r6, #1
 941 0046 04D9     		bls	.L62
 942              		.loc 1 420 0 is_stmt 0 discriminator 1
 943 0048 4FF4D271 		mov	r1, #420
 944 004c 0848     		ldr	r0, .L66+4
 945 004e FFF7FEFF 		bl	assert_failed
 946              	.LVL101:
 947              	.L62:
 421:STM32F10x_StdPeriph_Driver/src/stm32f10x_usart.c ****   if (NewState != DISABLE)
 948              		.loc 1 421 0 is_stmt 1
 949 0052 26B1     		cbz	r6, .L63
 422:STM32F10x_StdPeriph_Driver/src/stm32f10x_usart.c ****   {
 423:STM32F10x_StdPeriph_Driver/src/stm32f10x_usart.c ****     /* Enable the DMA transfer for selected requests by setting the DMAT and/or
 424:STM32F10x_StdPeriph_Driver/src/stm32f10x_usart.c ****        DMAR bits in the USART CR3 register */
 425:STM32F10x_StdPeriph_Driver/src/stm32f10x_usart.c ****     USARTx->CR3 |= USART_DMAReq;
 950              		.loc 1 425 0
 951 0054 A38A     		ldrh	r3, [r4, #20]
 952 0056 9BB2     		uxth	r3, r3
 953 0058 1D43     		orrs	r5, r5, r3
 954 005a A582     		strh	r5, [r4, #20]	@ movhi
 955 005c 70BD     		pop	{r4, r5, r6, pc}
 956              	.LVL102:
 957              	.L63:
ARM GAS  /var/folders/g9/bbpj86ld7fx45vd1b3pqxmp00000gn/T//ccAXm4kS.s 			page 25


 426:STM32F10x_StdPeriph_Driver/src/stm32f10x_usart.c ****   }
 427:STM32F10x_StdPeriph_Driver/src/stm32f10x_usart.c ****   else
 428:STM32F10x_StdPeriph_Driver/src/stm32f10x_usart.c ****   {
 429:STM32F10x_StdPeriph_Driver/src/stm32f10x_usart.c ****     /* Disable the DMA transfer for selected requests by clearing the DMAT and/or
 430:STM32F10x_StdPeriph_Driver/src/stm32f10x_usart.c ****        DMAR bits in the USART CR3 register */
 431:STM32F10x_StdPeriph_Driver/src/stm32f10x_usart.c ****     USARTx->CR3 &= (uint16_t)~USART_DMAReq;
 958              		.loc 1 431 0
 959 005e A38A     		ldrh	r3, [r4, #20]
 960 0060 ED43     		mvns	r5, r5
 961 0062 ADB2     		uxth	r5, r5
 962 0064 1D40     		ands	r5, r5, r3
 963 0066 A582     		strh	r5, [r4, #20]	@ movhi
 964 0068 70BD     		pop	{r4, r5, r6, pc}
 965              	.LVL103:
 966              	.L67:
 967 006a 00BF     		.align	2
 968              	.L66:
 969 006c 00380140 		.word	1073821696
 970 0070 00000000 		.word	.LC0
 971              		.cfi_endproc
 972              	.LFE34:
 974              		.section	.text.USART_SetAddress,"ax",%progbits
 975              		.align	2
 976              		.global	USART_SetAddress
 977              		.thumb
 978              		.thumb_func
 980              	USART_SetAddress:
 981              	.LFB35:
 432:STM32F10x_StdPeriph_Driver/src/stm32f10x_usart.c ****   }
 433:STM32F10x_StdPeriph_Driver/src/stm32f10x_usart.c **** }
 434:STM32F10x_StdPeriph_Driver/src/stm32f10x_usart.c **** 
 435:STM32F10x_StdPeriph_Driver/src/stm32f10x_usart.c **** /**
 436:STM32F10x_StdPeriph_Driver/src/stm32f10x_usart.c ****   * @brief  Sets the address of the USART node.
 437:STM32F10x_StdPeriph_Driver/src/stm32f10x_usart.c ****   * @param  USARTx: Select the USART or the UART peripheral. 
 438:STM32F10x_StdPeriph_Driver/src/stm32f10x_usart.c ****   *   This parameter can be one of the following values:
 439:STM32F10x_StdPeriph_Driver/src/stm32f10x_usart.c ****   *   USART1, USART2, USART3, UART4 or UART5.
 440:STM32F10x_StdPeriph_Driver/src/stm32f10x_usart.c ****   * @param  USART_Address: Indicates the address of the USART node.
 441:STM32F10x_StdPeriph_Driver/src/stm32f10x_usart.c ****   * @retval None
 442:STM32F10x_StdPeriph_Driver/src/stm32f10x_usart.c ****   */
 443:STM32F10x_StdPeriph_Driver/src/stm32f10x_usart.c **** void USART_SetAddress(USART_TypeDef* USARTx, uint8_t USART_Address)
 444:STM32F10x_StdPeriph_Driver/src/stm32f10x_usart.c **** {
 982              		.loc 1 444 0
 983              		.cfi_startproc
 984              		@ args = 0, pretend = 0, frame = 0
 985              		@ frame_needed = 0, uses_anonymous_args = 0
 986              	.LVL104:
 987 0000 38B5     		push	{r3, r4, r5, lr}
 988              	.LCFI8:
 989              		.cfi_def_cfa_offset 16
 990              		.cfi_offset 3, -16
 991              		.cfi_offset 4, -12
 992              		.cfi_offset 5, -8
 993              		.cfi_offset 14, -4
 994 0002 0446     		mov	r4, r0
 995 0004 0D46     		mov	r5, r1
 445:STM32F10x_StdPeriph_Driver/src/stm32f10x_usart.c ****   /* Check the parameters */
 446:STM32F10x_StdPeriph_Driver/src/stm32f10x_usart.c ****   assert_param(IS_USART_ALL_PERIPH(USARTx));
ARM GAS  /var/folders/g9/bbpj86ld7fx45vd1b3pqxmp00000gn/T//ccAXm4kS.s 			page 26


 996              		.loc 1 446 0
 997 0006 154B     		ldr	r3, .L72
 998 0008 9842     		cmp	r0, r3
 999 000a 14D0     		beq	.L69
 1000              		.loc 1 446 0 is_stmt 0 discriminator 1
 1001 000c A3F57443 		sub	r3, r3, #62464
 1002 0010 9842     		cmp	r0, r3
 1003 0012 10D0     		beq	.L69
 1004              		.loc 1 446 0 discriminator 2
 1005 0014 03F58063 		add	r3, r3, #1024
 1006 0018 9842     		cmp	r0, r3
 1007 001a 0CD0     		beq	.L69
 1008              		.loc 1 446 0 discriminator 3
 1009 001c 03F58063 		add	r3, r3, #1024
 1010 0020 9842     		cmp	r0, r3
 1011 0022 08D0     		beq	.L69
 1012              		.loc 1 446 0 discriminator 4
 1013 0024 03F58063 		add	r3, r3, #1024
 1014 0028 9842     		cmp	r0, r3
 1015 002a 04D0     		beq	.L69
 1016              		.loc 1 446 0 discriminator 5
 1017 002c 4FF4DF71 		mov	r1, #446
 1018              	.LVL105:
 1019 0030 0B48     		ldr	r0, .L72+4
 1020              	.LVL106:
 1021 0032 FFF7FEFF 		bl	assert_failed
 1022              	.LVL107:
 1023              	.L69:
 447:STM32F10x_StdPeriph_Driver/src/stm32f10x_usart.c ****   assert_param(IS_USART_ADDRESS(USART_Address)); 
 1024              		.loc 1 447 0 is_stmt 1
 1025 0036 0F2D     		cmp	r5, #15
 1026 0038 04D9     		bls	.L70
 1027              		.loc 1 447 0 is_stmt 0 discriminator 1
 1028 003a 40F2BF11 		movw	r1, #447
 1029 003e 0848     		ldr	r0, .L72+4
 1030 0040 FFF7FEFF 		bl	assert_failed
 1031              	.LVL108:
 1032              	.L70:
 448:STM32F10x_StdPeriph_Driver/src/stm32f10x_usart.c ****     
 449:STM32F10x_StdPeriph_Driver/src/stm32f10x_usart.c ****   /* Clear the USART address */
 450:STM32F10x_StdPeriph_Driver/src/stm32f10x_usart.c ****   USARTx->CR2 &= CR2_Address_Mask;
 1033              		.loc 1 450 0 is_stmt 1
 1034 0044 238A     		ldrh	r3, [r4, #16]
 1035 0046 9BB2     		uxth	r3, r3
 1036 0048 23F00F03 		bic	r3, r3, #15
 1037 004c 9BB2     		uxth	r3, r3
 1038 004e 2382     		strh	r3, [r4, #16]	@ movhi
 451:STM32F10x_StdPeriph_Driver/src/stm32f10x_usart.c ****   /* Set the USART address node */
 452:STM32F10x_StdPeriph_Driver/src/stm32f10x_usart.c ****   USARTx->CR2 |= USART_Address;
 1039              		.loc 1 452 0
 1040 0050 238A     		ldrh	r3, [r4, #16]
 1041 0052 9BB2     		uxth	r3, r3
 1042 0054 1D43     		orrs	r5, r5, r3
 1043 0056 2582     		strh	r5, [r4, #16]	@ movhi
 1044 0058 38BD     		pop	{r3, r4, r5, pc}
 1045              	.LVL109:
 1046              	.L73:
ARM GAS  /var/folders/g9/bbpj86ld7fx45vd1b3pqxmp00000gn/T//ccAXm4kS.s 			page 27


 1047 005a 00BF     		.align	2
 1048              	.L72:
 1049 005c 00380140 		.word	1073821696
 1050 0060 00000000 		.word	.LC0
 1051              		.cfi_endproc
 1052              	.LFE35:
 1054              		.section	.text.USART_WakeUpConfig,"ax",%progbits
 1055              		.align	2
 1056              		.global	USART_WakeUpConfig
 1057              		.thumb
 1058              		.thumb_func
 1060              	USART_WakeUpConfig:
 1061              	.LFB36:
 453:STM32F10x_StdPeriph_Driver/src/stm32f10x_usart.c **** }
 454:STM32F10x_StdPeriph_Driver/src/stm32f10x_usart.c **** 
 455:STM32F10x_StdPeriph_Driver/src/stm32f10x_usart.c **** /**
 456:STM32F10x_StdPeriph_Driver/src/stm32f10x_usart.c ****   * @brief  Selects the USART WakeUp method.
 457:STM32F10x_StdPeriph_Driver/src/stm32f10x_usart.c ****   * @param  USARTx: Select the USART or the UART peripheral. 
 458:STM32F10x_StdPeriph_Driver/src/stm32f10x_usart.c ****   *   This parameter can be one of the following values:
 459:STM32F10x_StdPeriph_Driver/src/stm32f10x_usart.c ****   *   USART1, USART2, USART3, UART4 or UART5.
 460:STM32F10x_StdPeriph_Driver/src/stm32f10x_usart.c ****   * @param  USART_WakeUp: specifies the USART wakeup method.
 461:STM32F10x_StdPeriph_Driver/src/stm32f10x_usart.c ****   *   This parameter can be one of the following values:
 462:STM32F10x_StdPeriph_Driver/src/stm32f10x_usart.c ****   *     @arg USART_WakeUp_IdleLine: WakeUp by an idle line detection
 463:STM32F10x_StdPeriph_Driver/src/stm32f10x_usart.c ****   *     @arg USART_WakeUp_AddressMark: WakeUp by an address mark
 464:STM32F10x_StdPeriph_Driver/src/stm32f10x_usart.c ****   * @retval None
 465:STM32F10x_StdPeriph_Driver/src/stm32f10x_usart.c ****   */
 466:STM32F10x_StdPeriph_Driver/src/stm32f10x_usart.c **** void USART_WakeUpConfig(USART_TypeDef* USARTx, uint16_t USART_WakeUp)
 467:STM32F10x_StdPeriph_Driver/src/stm32f10x_usart.c **** {
 1062              		.loc 1 467 0
 1063              		.cfi_startproc
 1064              		@ args = 0, pretend = 0, frame = 0
 1065              		@ frame_needed = 0, uses_anonymous_args = 0
 1066              	.LVL110:
 1067 0000 38B5     		push	{r3, r4, r5, lr}
 1068              	.LCFI9:
 1069              		.cfi_def_cfa_offset 16
 1070              		.cfi_offset 3, -16
 1071              		.cfi_offset 4, -12
 1072              		.cfi_offset 5, -8
 1073              		.cfi_offset 14, -4
 1074 0002 0446     		mov	r4, r0
 1075 0004 0D46     		mov	r5, r1
 468:STM32F10x_StdPeriph_Driver/src/stm32f10x_usart.c ****   /* Check the parameters */
 469:STM32F10x_StdPeriph_Driver/src/stm32f10x_usart.c ****   assert_param(IS_USART_ALL_PERIPH(USARTx));
 1076              		.loc 1 469 0
 1077 0006 164B     		ldr	r3, .L78
 1078 0008 9842     		cmp	r0, r3
 1079 000a 14D0     		beq	.L75
 1080              		.loc 1 469 0 is_stmt 0 discriminator 1
 1081 000c A3F57443 		sub	r3, r3, #62464
 1082 0010 9842     		cmp	r0, r3
 1083 0012 10D0     		beq	.L75
 1084              		.loc 1 469 0 discriminator 2
 1085 0014 03F58063 		add	r3, r3, #1024
 1086 0018 9842     		cmp	r0, r3
 1087 001a 0CD0     		beq	.L75
 1088              		.loc 1 469 0 discriminator 3
ARM GAS  /var/folders/g9/bbpj86ld7fx45vd1b3pqxmp00000gn/T//ccAXm4kS.s 			page 28


 1089 001c 03F58063 		add	r3, r3, #1024
 1090 0020 9842     		cmp	r0, r3
 1091 0022 08D0     		beq	.L75
 1092              		.loc 1 469 0 discriminator 4
 1093 0024 03F58063 		add	r3, r3, #1024
 1094 0028 9842     		cmp	r0, r3
 1095 002a 04D0     		beq	.L75
 1096              		.loc 1 469 0 discriminator 5
 1097 002c 40F2D511 		movw	r1, #469
 1098              	.LVL111:
 1099 0030 0C48     		ldr	r0, .L78+4
 1100              	.LVL112:
 1101 0032 FFF7FEFF 		bl	assert_failed
 1102              	.LVL113:
 1103              	.L75:
 470:STM32F10x_StdPeriph_Driver/src/stm32f10x_usart.c ****   assert_param(IS_USART_WAKEUP(USART_WakeUp));
 1104              		.loc 1 470 0 is_stmt 1
 1105 0036 3DB1     		cbz	r5, .L76
 1106              		.loc 1 470 0 is_stmt 0 discriminator 1
 1107 0038 B5F5006F 		cmp	r5, #2048
 1108 003c 04D0     		beq	.L76
 1109              		.loc 1 470 0 discriminator 2
 1110 003e 4FF4EB71 		mov	r1, #470
 1111 0042 0848     		ldr	r0, .L78+4
 1112 0044 FFF7FEFF 		bl	assert_failed
 1113              	.LVL114:
 1114              	.L76:
 471:STM32F10x_StdPeriph_Driver/src/stm32f10x_usart.c ****   
 472:STM32F10x_StdPeriph_Driver/src/stm32f10x_usart.c ****   USARTx->CR1 &= CR1_WAKE_Mask;
 1115              		.loc 1 472 0 is_stmt 1
 1116 0048 A389     		ldrh	r3, [r4, #12]
 1117 004a 9BB2     		uxth	r3, r3
 1118 004c 23F40063 		bic	r3, r3, #2048
 1119 0050 9BB2     		uxth	r3, r3
 1120 0052 A381     		strh	r3, [r4, #12]	@ movhi
 473:STM32F10x_StdPeriph_Driver/src/stm32f10x_usart.c ****   USARTx->CR1 |= USART_WakeUp;
 1121              		.loc 1 473 0
 1122 0054 A189     		ldrh	r1, [r4, #12]
 1123 0056 89B2     		uxth	r1, r1
 1124 0058 2943     		orrs	r1, r1, r5
 1125 005a A181     		strh	r1, [r4, #12]	@ movhi
 1126 005c 38BD     		pop	{r3, r4, r5, pc}
 1127              	.LVL115:
 1128              	.L79:
 1129 005e 00BF     		.align	2
 1130              	.L78:
 1131 0060 00380140 		.word	1073821696
 1132 0064 00000000 		.word	.LC0
 1133              		.cfi_endproc
 1134              	.LFE36:
 1136              		.section	.text.USART_ReceiverWakeUpCmd,"ax",%progbits
 1137              		.align	2
 1138              		.global	USART_ReceiverWakeUpCmd
 1139              		.thumb
 1140              		.thumb_func
 1142              	USART_ReceiverWakeUpCmd:
 1143              	.LFB37:
ARM GAS  /var/folders/g9/bbpj86ld7fx45vd1b3pqxmp00000gn/T//ccAXm4kS.s 			page 29


 474:STM32F10x_StdPeriph_Driver/src/stm32f10x_usart.c **** }
 475:STM32F10x_StdPeriph_Driver/src/stm32f10x_usart.c **** 
 476:STM32F10x_StdPeriph_Driver/src/stm32f10x_usart.c **** /**
 477:STM32F10x_StdPeriph_Driver/src/stm32f10x_usart.c ****   * @brief  Determines if the USART is in mute mode or not.
 478:STM32F10x_StdPeriph_Driver/src/stm32f10x_usart.c ****   * @param  USARTx: Select the USART or the UART peripheral. 
 479:STM32F10x_StdPeriph_Driver/src/stm32f10x_usart.c ****   *   This parameter can be one of the following values:
 480:STM32F10x_StdPeriph_Driver/src/stm32f10x_usart.c ****   *   USART1, USART2, USART3, UART4 or UART5.
 481:STM32F10x_StdPeriph_Driver/src/stm32f10x_usart.c ****   * @param  NewState: new state of the USART mute mode.
 482:STM32F10x_StdPeriph_Driver/src/stm32f10x_usart.c ****   *   This parameter can be: ENABLE or DISABLE.
 483:STM32F10x_StdPeriph_Driver/src/stm32f10x_usart.c ****   * @retval None
 484:STM32F10x_StdPeriph_Driver/src/stm32f10x_usart.c ****   */
 485:STM32F10x_StdPeriph_Driver/src/stm32f10x_usart.c **** void USART_ReceiverWakeUpCmd(USART_TypeDef* USARTx, FunctionalState NewState)
 486:STM32F10x_StdPeriph_Driver/src/stm32f10x_usart.c **** {
 1144              		.loc 1 486 0
 1145              		.cfi_startproc
 1146              		@ args = 0, pretend = 0, frame = 0
 1147              		@ frame_needed = 0, uses_anonymous_args = 0
 1148              	.LVL116:
 1149 0000 38B5     		push	{r3, r4, r5, lr}
 1150              	.LCFI10:
 1151              		.cfi_def_cfa_offset 16
 1152              		.cfi_offset 3, -16
 1153              		.cfi_offset 4, -12
 1154              		.cfi_offset 5, -8
 1155              		.cfi_offset 14, -4
 1156 0002 0446     		mov	r4, r0
 1157 0004 0D46     		mov	r5, r1
 487:STM32F10x_StdPeriph_Driver/src/stm32f10x_usart.c ****   /* Check the parameters */
 488:STM32F10x_StdPeriph_Driver/src/stm32f10x_usart.c ****   assert_param(IS_USART_ALL_PERIPH(USARTx));
 1158              		.loc 1 488 0
 1159 0006 164B     		ldr	r3, .L86
 1160 0008 9842     		cmp	r0, r3
 1161 000a 14D0     		beq	.L81
 1162              		.loc 1 488 0 is_stmt 0 discriminator 1
 1163 000c A3F57443 		sub	r3, r3, #62464
 1164 0010 9842     		cmp	r0, r3
 1165 0012 10D0     		beq	.L81
 1166              		.loc 1 488 0 discriminator 2
 1167 0014 03F58063 		add	r3, r3, #1024
 1168 0018 9842     		cmp	r0, r3
 1169 001a 0CD0     		beq	.L81
 1170              		.loc 1 488 0 discriminator 3
 1171 001c 03F58063 		add	r3, r3, #1024
 1172 0020 9842     		cmp	r0, r3
 1173 0022 08D0     		beq	.L81
 1174              		.loc 1 488 0 discriminator 4
 1175 0024 03F58063 		add	r3, r3, #1024
 1176 0028 9842     		cmp	r0, r3
 1177 002a 04D0     		beq	.L81
 1178              		.loc 1 488 0 discriminator 5
 1179 002c 4FF4F471 		mov	r1, #488
 1180              	.LVL117:
 1181 0030 0C48     		ldr	r0, .L86+4
 1182              	.LVL118:
 1183 0032 FFF7FEFF 		bl	assert_failed
 1184              	.LVL119:
 1185              	.L81:
ARM GAS  /var/folders/g9/bbpj86ld7fx45vd1b3pqxmp00000gn/T//ccAXm4kS.s 			page 30


 489:STM32F10x_StdPeriph_Driver/src/stm32f10x_usart.c ****   assert_param(IS_FUNCTIONAL_STATE(NewState)); 
 1186              		.loc 1 489 0 is_stmt 1
 1187 0036 012D     		cmp	r5, #1
 1188 0038 04D9     		bls	.L82
 1189              		.loc 1 489 0 is_stmt 0 discriminator 1
 1190 003a 40F2E911 		movw	r1, #489
 1191 003e 0948     		ldr	r0, .L86+4
 1192 0040 FFF7FEFF 		bl	assert_failed
 1193              	.LVL120:
 1194              	.L82:
 490:STM32F10x_StdPeriph_Driver/src/stm32f10x_usart.c ****   
 491:STM32F10x_StdPeriph_Driver/src/stm32f10x_usart.c ****   if (NewState != DISABLE)
 1195              		.loc 1 491 0 is_stmt 1
 1196 0044 2DB1     		cbz	r5, .L83
 492:STM32F10x_StdPeriph_Driver/src/stm32f10x_usart.c ****   {
 493:STM32F10x_StdPeriph_Driver/src/stm32f10x_usart.c ****     /* Enable the USART mute mode  by setting the RWU bit in the CR1 register */
 494:STM32F10x_StdPeriph_Driver/src/stm32f10x_usart.c ****     USARTx->CR1 |= CR1_RWU_Set;
 1197              		.loc 1 494 0
 1198 0046 A389     		ldrh	r3, [r4, #12]
 1199 0048 9BB2     		uxth	r3, r3
 1200 004a 43F00203 		orr	r3, r3, #2
 1201 004e A381     		strh	r3, [r4, #12]	@ movhi
 1202 0050 38BD     		pop	{r3, r4, r5, pc}
 1203              	.LVL121:
 1204              	.L83:
 495:STM32F10x_StdPeriph_Driver/src/stm32f10x_usart.c ****   }
 496:STM32F10x_StdPeriph_Driver/src/stm32f10x_usart.c ****   else
 497:STM32F10x_StdPeriph_Driver/src/stm32f10x_usart.c ****   {
 498:STM32F10x_StdPeriph_Driver/src/stm32f10x_usart.c ****     /* Disable the USART mute mode by clearing the RWU bit in the CR1 register */
 499:STM32F10x_StdPeriph_Driver/src/stm32f10x_usart.c ****     USARTx->CR1 &= CR1_RWU_Reset;
 1205              		.loc 1 499 0
 1206 0052 A389     		ldrh	r3, [r4, #12]
 1207 0054 9BB2     		uxth	r3, r3
 1208 0056 23F00203 		bic	r3, r3, #2
 1209 005a 9BB2     		uxth	r3, r3
 1210 005c A381     		strh	r3, [r4, #12]	@ movhi
 1211 005e 38BD     		pop	{r3, r4, r5, pc}
 1212              	.LVL122:
 1213              	.L87:
 1214              		.align	2
 1215              	.L86:
 1216 0060 00380140 		.word	1073821696
 1217 0064 00000000 		.word	.LC0
 1218              		.cfi_endproc
 1219              	.LFE37:
 1221              		.section	.text.USART_LINBreakDetectLengthConfig,"ax",%progbits
 1222              		.align	2
 1223              		.global	USART_LINBreakDetectLengthConfig
 1224              		.thumb
 1225              		.thumb_func
 1227              	USART_LINBreakDetectLengthConfig:
 1228              	.LFB38:
 500:STM32F10x_StdPeriph_Driver/src/stm32f10x_usart.c ****   }
 501:STM32F10x_StdPeriph_Driver/src/stm32f10x_usart.c **** }
 502:STM32F10x_StdPeriph_Driver/src/stm32f10x_usart.c **** 
 503:STM32F10x_StdPeriph_Driver/src/stm32f10x_usart.c **** /**
 504:STM32F10x_StdPeriph_Driver/src/stm32f10x_usart.c ****   * @brief  Sets the USART LIN Break detection length.
ARM GAS  /var/folders/g9/bbpj86ld7fx45vd1b3pqxmp00000gn/T//ccAXm4kS.s 			page 31


 505:STM32F10x_StdPeriph_Driver/src/stm32f10x_usart.c ****   * @param  USARTx: Select the USART or the UART peripheral. 
 506:STM32F10x_StdPeriph_Driver/src/stm32f10x_usart.c ****   *   This parameter can be one of the following values:
 507:STM32F10x_StdPeriph_Driver/src/stm32f10x_usart.c ****   *   USART1, USART2, USART3, UART4 or UART5.
 508:STM32F10x_StdPeriph_Driver/src/stm32f10x_usart.c ****   * @param  USART_LINBreakDetectLength: specifies the LIN break detection length.
 509:STM32F10x_StdPeriph_Driver/src/stm32f10x_usart.c ****   *   This parameter can be one of the following values:
 510:STM32F10x_StdPeriph_Driver/src/stm32f10x_usart.c ****   *     @arg USART_LINBreakDetectLength_10b: 10-bit break detection
 511:STM32F10x_StdPeriph_Driver/src/stm32f10x_usart.c ****   *     @arg USART_LINBreakDetectLength_11b: 11-bit break detection
 512:STM32F10x_StdPeriph_Driver/src/stm32f10x_usart.c ****   * @retval None
 513:STM32F10x_StdPeriph_Driver/src/stm32f10x_usart.c ****   */
 514:STM32F10x_StdPeriph_Driver/src/stm32f10x_usart.c **** void USART_LINBreakDetectLengthConfig(USART_TypeDef* USARTx, uint16_t USART_LINBreakDetectLength)
 515:STM32F10x_StdPeriph_Driver/src/stm32f10x_usart.c **** {
 1229              		.loc 1 515 0
 1230              		.cfi_startproc
 1231              		@ args = 0, pretend = 0, frame = 0
 1232              		@ frame_needed = 0, uses_anonymous_args = 0
 1233              	.LVL123:
 1234 0000 38B5     		push	{r3, r4, r5, lr}
 1235              	.LCFI11:
 1236              		.cfi_def_cfa_offset 16
 1237              		.cfi_offset 3, -16
 1238              		.cfi_offset 4, -12
 1239              		.cfi_offset 5, -8
 1240              		.cfi_offset 14, -4
 1241 0002 0446     		mov	r4, r0
 1242 0004 0D46     		mov	r5, r1
 516:STM32F10x_StdPeriph_Driver/src/stm32f10x_usart.c ****   /* Check the parameters */
 517:STM32F10x_StdPeriph_Driver/src/stm32f10x_usart.c ****   assert_param(IS_USART_ALL_PERIPH(USARTx));
 1243              		.loc 1 517 0
 1244 0006 154B     		ldr	r3, .L92
 1245 0008 9842     		cmp	r0, r3
 1246 000a 14D0     		beq	.L89
 1247              		.loc 1 517 0 is_stmt 0 discriminator 1
 1248 000c A3F57443 		sub	r3, r3, #62464
 1249 0010 9842     		cmp	r0, r3
 1250 0012 10D0     		beq	.L89
 1251              		.loc 1 517 0 discriminator 2
 1252 0014 03F58063 		add	r3, r3, #1024
 1253 0018 9842     		cmp	r0, r3
 1254 001a 0CD0     		beq	.L89
 1255              		.loc 1 517 0 discriminator 3
 1256 001c 03F58063 		add	r3, r3, #1024
 1257 0020 9842     		cmp	r0, r3
 1258 0022 08D0     		beq	.L89
 1259              		.loc 1 517 0 discriminator 4
 1260 0024 03F58063 		add	r3, r3, #1024
 1261 0028 9842     		cmp	r0, r3
 1262 002a 04D0     		beq	.L89
 1263              		.loc 1 517 0 discriminator 5
 1264 002c 40F20521 		movw	r1, #517
 1265              	.LVL124:
 1266 0030 0B48     		ldr	r0, .L92+4
 1267              	.LVL125:
 1268 0032 FFF7FEFF 		bl	assert_failed
 1269              	.LVL126:
 1270              	.L89:
 518:STM32F10x_StdPeriph_Driver/src/stm32f10x_usart.c ****   assert_param(IS_USART_LIN_BREAK_DETECT_LENGTH(USART_LINBreakDetectLength));
 1271              		.loc 1 518 0 is_stmt 1
ARM GAS  /var/folders/g9/bbpj86ld7fx45vd1b3pqxmp00000gn/T//ccAXm4kS.s 			page 32


 1272 0036 35B1     		cbz	r5, .L90
 1273              		.loc 1 518 0 is_stmt 0 discriminator 1
 1274 0038 202D     		cmp	r5, #32
 1275 003a 04D0     		beq	.L90
 1276              		.loc 1 518 0 discriminator 2
 1277 003c 40F20621 		movw	r1, #518
 1278 0040 0748     		ldr	r0, .L92+4
 1279 0042 FFF7FEFF 		bl	assert_failed
 1280              	.LVL127:
 1281              	.L90:
 519:STM32F10x_StdPeriph_Driver/src/stm32f10x_usart.c ****   
 520:STM32F10x_StdPeriph_Driver/src/stm32f10x_usart.c ****   USARTx->CR2 &= CR2_LBDL_Mask;
 1282              		.loc 1 520 0 is_stmt 1
 1283 0046 238A     		ldrh	r3, [r4, #16]
 1284 0048 9BB2     		uxth	r3, r3
 1285 004a 23F02003 		bic	r3, r3, #32
 1286 004e 9BB2     		uxth	r3, r3
 1287 0050 2382     		strh	r3, [r4, #16]	@ movhi
 521:STM32F10x_StdPeriph_Driver/src/stm32f10x_usart.c ****   USARTx->CR2 |= USART_LINBreakDetectLength;  
 1288              		.loc 1 521 0
 1289 0052 218A     		ldrh	r1, [r4, #16]
 1290 0054 89B2     		uxth	r1, r1
 1291 0056 2943     		orrs	r1, r1, r5
 1292 0058 2182     		strh	r1, [r4, #16]	@ movhi
 1293 005a 38BD     		pop	{r3, r4, r5, pc}
 1294              	.LVL128:
 1295              	.L93:
 1296              		.align	2
 1297              	.L92:
 1298 005c 00380140 		.word	1073821696
 1299 0060 00000000 		.word	.LC0
 1300              		.cfi_endproc
 1301              	.LFE38:
 1303              		.section	.text.USART_LINCmd,"ax",%progbits
 1304              		.align	2
 1305              		.global	USART_LINCmd
 1306              		.thumb
 1307              		.thumb_func
 1309              	USART_LINCmd:
 1310              	.LFB39:
 522:STM32F10x_StdPeriph_Driver/src/stm32f10x_usart.c **** }
 523:STM32F10x_StdPeriph_Driver/src/stm32f10x_usart.c **** 
 524:STM32F10x_StdPeriph_Driver/src/stm32f10x_usart.c **** /**
 525:STM32F10x_StdPeriph_Driver/src/stm32f10x_usart.c ****   * @brief  Enables or disables the USARTs LIN mode.
 526:STM32F10x_StdPeriph_Driver/src/stm32f10x_usart.c ****   * @param  USARTx: Select the USART or the UART peripheral. 
 527:STM32F10x_StdPeriph_Driver/src/stm32f10x_usart.c ****   *   This parameter can be one of the following values:
 528:STM32F10x_StdPeriph_Driver/src/stm32f10x_usart.c ****   *   USART1, USART2, USART3, UART4 or UART5.
 529:STM32F10x_StdPeriph_Driver/src/stm32f10x_usart.c ****   * @param  NewState: new state of the USART LIN mode.
 530:STM32F10x_StdPeriph_Driver/src/stm32f10x_usart.c ****   *   This parameter can be: ENABLE or DISABLE.
 531:STM32F10x_StdPeriph_Driver/src/stm32f10x_usart.c ****   * @retval None
 532:STM32F10x_StdPeriph_Driver/src/stm32f10x_usart.c ****   */
 533:STM32F10x_StdPeriph_Driver/src/stm32f10x_usart.c **** void USART_LINCmd(USART_TypeDef* USARTx, FunctionalState NewState)
 534:STM32F10x_StdPeriph_Driver/src/stm32f10x_usart.c **** {
 1311              		.loc 1 534 0
 1312              		.cfi_startproc
 1313              		@ args = 0, pretend = 0, frame = 0
 1314              		@ frame_needed = 0, uses_anonymous_args = 0
ARM GAS  /var/folders/g9/bbpj86ld7fx45vd1b3pqxmp00000gn/T//ccAXm4kS.s 			page 33


 1315              	.LVL129:
 1316 0000 38B5     		push	{r3, r4, r5, lr}
 1317              	.LCFI12:
 1318              		.cfi_def_cfa_offset 16
 1319              		.cfi_offset 3, -16
 1320              		.cfi_offset 4, -12
 1321              		.cfi_offset 5, -8
 1322              		.cfi_offset 14, -4
 1323 0002 0446     		mov	r4, r0
 1324 0004 0D46     		mov	r5, r1
 535:STM32F10x_StdPeriph_Driver/src/stm32f10x_usart.c ****   /* Check the parameters */
 536:STM32F10x_StdPeriph_Driver/src/stm32f10x_usart.c ****   assert_param(IS_USART_ALL_PERIPH(USARTx));
 1325              		.loc 1 536 0
 1326 0006 164B     		ldr	r3, .L100
 1327 0008 9842     		cmp	r0, r3
 1328 000a 14D0     		beq	.L95
 1329              		.loc 1 536 0 is_stmt 0 discriminator 1
 1330 000c A3F57443 		sub	r3, r3, #62464
 1331 0010 9842     		cmp	r0, r3
 1332 0012 10D0     		beq	.L95
 1333              		.loc 1 536 0 discriminator 2
 1334 0014 03F58063 		add	r3, r3, #1024
 1335 0018 9842     		cmp	r0, r3
 1336 001a 0CD0     		beq	.L95
 1337              		.loc 1 536 0 discriminator 3
 1338 001c 03F58063 		add	r3, r3, #1024
 1339 0020 9842     		cmp	r0, r3
 1340 0022 08D0     		beq	.L95
 1341              		.loc 1 536 0 discriminator 4
 1342 0024 03F58063 		add	r3, r3, #1024
 1343 0028 9842     		cmp	r0, r3
 1344 002a 04D0     		beq	.L95
 1345              		.loc 1 536 0 discriminator 5
 1346 002c 4FF40671 		mov	r1, #536
 1347              	.LVL130:
 1348 0030 0C48     		ldr	r0, .L100+4
 1349              	.LVL131:
 1350 0032 FFF7FEFF 		bl	assert_failed
 1351              	.LVL132:
 1352              	.L95:
 537:STM32F10x_StdPeriph_Driver/src/stm32f10x_usart.c ****   assert_param(IS_FUNCTIONAL_STATE(NewState));
 1353              		.loc 1 537 0 is_stmt 1
 1354 0036 012D     		cmp	r5, #1
 1355 0038 04D9     		bls	.L96
 1356              		.loc 1 537 0 is_stmt 0 discriminator 1
 1357 003a 40F21921 		movw	r1, #537
 1358 003e 0948     		ldr	r0, .L100+4
 1359 0040 FFF7FEFF 		bl	assert_failed
 1360              	.LVL133:
 1361              	.L96:
 538:STM32F10x_StdPeriph_Driver/src/stm32f10x_usart.c ****   
 539:STM32F10x_StdPeriph_Driver/src/stm32f10x_usart.c ****   if (NewState != DISABLE)
 1362              		.loc 1 539 0 is_stmt 1
 1363 0044 2DB1     		cbz	r5, .L97
 540:STM32F10x_StdPeriph_Driver/src/stm32f10x_usart.c ****   {
 541:STM32F10x_StdPeriph_Driver/src/stm32f10x_usart.c ****     /* Enable the LIN mode by setting the LINEN bit in the CR2 register */
 542:STM32F10x_StdPeriph_Driver/src/stm32f10x_usart.c ****     USARTx->CR2 |= CR2_LINEN_Set;
ARM GAS  /var/folders/g9/bbpj86ld7fx45vd1b3pqxmp00000gn/T//ccAXm4kS.s 			page 34


 1364              		.loc 1 542 0
 1365 0046 238A     		ldrh	r3, [r4, #16]
 1366 0048 9BB2     		uxth	r3, r3
 1367 004a 43F48043 		orr	r3, r3, #16384
 1368 004e 2382     		strh	r3, [r4, #16]	@ movhi
 1369 0050 38BD     		pop	{r3, r4, r5, pc}
 1370              	.LVL134:
 1371              	.L97:
 543:STM32F10x_StdPeriph_Driver/src/stm32f10x_usart.c ****   }
 544:STM32F10x_StdPeriph_Driver/src/stm32f10x_usart.c ****   else
 545:STM32F10x_StdPeriph_Driver/src/stm32f10x_usart.c ****   {
 546:STM32F10x_StdPeriph_Driver/src/stm32f10x_usart.c ****     /* Disable the LIN mode by clearing the LINEN bit in the CR2 register */
 547:STM32F10x_StdPeriph_Driver/src/stm32f10x_usart.c ****     USARTx->CR2 &= CR2_LINEN_Reset;
 1372              		.loc 1 547 0
 1373 0052 238A     		ldrh	r3, [r4, #16]
 1374 0054 9BB2     		uxth	r3, r3
 1375 0056 23F48043 		bic	r3, r3, #16384
 1376 005a 9BB2     		uxth	r3, r3
 1377 005c 2382     		strh	r3, [r4, #16]	@ movhi
 1378 005e 38BD     		pop	{r3, r4, r5, pc}
 1379              	.LVL135:
 1380              	.L101:
 1381              		.align	2
 1382              	.L100:
 1383 0060 00380140 		.word	1073821696
 1384 0064 00000000 		.word	.LC0
 1385              		.cfi_endproc
 1386              	.LFE39:
 1388              		.section	.text.USART_SendData,"ax",%progbits
 1389              		.align	2
 1390              		.global	USART_SendData
 1391              		.thumb
 1392              		.thumb_func
 1394              	USART_SendData:
 1395              	.LFB40:
 548:STM32F10x_StdPeriph_Driver/src/stm32f10x_usart.c ****   }
 549:STM32F10x_StdPeriph_Driver/src/stm32f10x_usart.c **** }
 550:STM32F10x_StdPeriph_Driver/src/stm32f10x_usart.c **** 
 551:STM32F10x_StdPeriph_Driver/src/stm32f10x_usart.c **** /**
 552:STM32F10x_StdPeriph_Driver/src/stm32f10x_usart.c ****   * @brief  Transmits single data through the USARTx peripheral.
 553:STM32F10x_StdPeriph_Driver/src/stm32f10x_usart.c ****   * @param  USARTx: Select the USART or the UART peripheral. 
 554:STM32F10x_StdPeriph_Driver/src/stm32f10x_usart.c ****   *   This parameter can be one of the following values:
 555:STM32F10x_StdPeriph_Driver/src/stm32f10x_usart.c ****   *   USART1, USART2, USART3, UART4 or UART5.
 556:STM32F10x_StdPeriph_Driver/src/stm32f10x_usart.c ****   * @param  Data: the data to transmit.
 557:STM32F10x_StdPeriph_Driver/src/stm32f10x_usart.c ****   * @retval None
 558:STM32F10x_StdPeriph_Driver/src/stm32f10x_usart.c ****   */
 559:STM32F10x_StdPeriph_Driver/src/stm32f10x_usart.c **** void USART_SendData(USART_TypeDef* USARTx, uint16_t Data)
 560:STM32F10x_StdPeriph_Driver/src/stm32f10x_usart.c **** {
 1396              		.loc 1 560 0
 1397              		.cfi_startproc
 1398              		@ args = 0, pretend = 0, frame = 0
 1399              		@ frame_needed = 0, uses_anonymous_args = 0
 1400              	.LVL136:
 1401 0000 38B5     		push	{r3, r4, r5, lr}
 1402              	.LCFI13:
 1403              		.cfi_def_cfa_offset 16
 1404              		.cfi_offset 3, -16
ARM GAS  /var/folders/g9/bbpj86ld7fx45vd1b3pqxmp00000gn/T//ccAXm4kS.s 			page 35


 1405              		.cfi_offset 4, -12
 1406              		.cfi_offset 5, -8
 1407              		.cfi_offset 14, -4
 1408 0002 0446     		mov	r4, r0
 1409 0004 0D46     		mov	r5, r1
 561:STM32F10x_StdPeriph_Driver/src/stm32f10x_usart.c ****   /* Check the parameters */
 562:STM32F10x_StdPeriph_Driver/src/stm32f10x_usart.c ****   assert_param(IS_USART_ALL_PERIPH(USARTx));
 1410              		.loc 1 562 0
 1411 0006 124B     		ldr	r3, .L106
 1412 0008 9842     		cmp	r0, r3
 1413 000a 14D0     		beq	.L103
 1414              		.loc 1 562 0 is_stmt 0 discriminator 1
 1415 000c A3F57443 		sub	r3, r3, #62464
 1416 0010 9842     		cmp	r0, r3
 1417 0012 10D0     		beq	.L103
 1418              		.loc 1 562 0 discriminator 2
 1419 0014 03F58063 		add	r3, r3, #1024
 1420 0018 9842     		cmp	r0, r3
 1421 001a 0CD0     		beq	.L103
 1422              		.loc 1 562 0 discriminator 3
 1423 001c 03F58063 		add	r3, r3, #1024
 1424 0020 9842     		cmp	r0, r3
 1425 0022 08D0     		beq	.L103
 1426              		.loc 1 562 0 discriminator 4
 1427 0024 03F58063 		add	r3, r3, #1024
 1428 0028 9842     		cmp	r0, r3
 1429 002a 04D0     		beq	.L103
 1430              		.loc 1 562 0 discriminator 5
 1431 002c 40F23221 		movw	r1, #562
 1432              	.LVL137:
 1433 0030 0848     		ldr	r0, .L106+4
 1434              	.LVL138:
 1435 0032 FFF7FEFF 		bl	assert_failed
 1436              	.LVL139:
 1437              	.L103:
 563:STM32F10x_StdPeriph_Driver/src/stm32f10x_usart.c ****   assert_param(IS_USART_DATA(Data)); 
 1438              		.loc 1 563 0 is_stmt 1
 1439 0036 B5F5007F 		cmp	r5, #512
 1440 003a 04D3     		bcc	.L104
 1441              		.loc 1 563 0 is_stmt 0 discriminator 1
 1442 003c 40F23321 		movw	r1, #563
 1443 0040 0448     		ldr	r0, .L106+4
 1444 0042 FFF7FEFF 		bl	assert_failed
 1445              	.LVL140:
 1446              	.L104:
 564:STM32F10x_StdPeriph_Driver/src/stm32f10x_usart.c ****     
 565:STM32F10x_StdPeriph_Driver/src/stm32f10x_usart.c ****   /* Transmit Data */
 566:STM32F10x_StdPeriph_Driver/src/stm32f10x_usart.c ****   USARTx->DR = (Data & (uint16_t)0x01FF);
 1447              		.loc 1 566 0 is_stmt 1
 1448 0046 C5F30805 		ubfx	r5, r5, #0, #9
 1449 004a A580     		strh	r5, [r4, #4]	@ movhi
 1450 004c 38BD     		pop	{r3, r4, r5, pc}
 1451              	.LVL141:
 1452              	.L107:
 1453 004e 00BF     		.align	2
 1454              	.L106:
 1455 0050 00380140 		.word	1073821696
ARM GAS  /var/folders/g9/bbpj86ld7fx45vd1b3pqxmp00000gn/T//ccAXm4kS.s 			page 36


 1456 0054 00000000 		.word	.LC0
 1457              		.cfi_endproc
 1458              	.LFE40:
 1460              		.section	.text.USART_ReceiveData,"ax",%progbits
 1461              		.align	2
 1462              		.global	USART_ReceiveData
 1463              		.thumb
 1464              		.thumb_func
 1466              	USART_ReceiveData:
 1467              	.LFB41:
 567:STM32F10x_StdPeriph_Driver/src/stm32f10x_usart.c **** }
 568:STM32F10x_StdPeriph_Driver/src/stm32f10x_usart.c **** 
 569:STM32F10x_StdPeriph_Driver/src/stm32f10x_usart.c **** /**
 570:STM32F10x_StdPeriph_Driver/src/stm32f10x_usart.c ****   * @brief  Returns the most recent received data by the USARTx peripheral.
 571:STM32F10x_StdPeriph_Driver/src/stm32f10x_usart.c ****   * @param  USARTx: Select the USART or the UART peripheral. 
 572:STM32F10x_StdPeriph_Driver/src/stm32f10x_usart.c ****   *   This parameter can be one of the following values:
 573:STM32F10x_StdPeriph_Driver/src/stm32f10x_usart.c ****   *   USART1, USART2, USART3, UART4 or UART5.
 574:STM32F10x_StdPeriph_Driver/src/stm32f10x_usart.c ****   * @retval The received data.
 575:STM32F10x_StdPeriph_Driver/src/stm32f10x_usart.c ****   */
 576:STM32F10x_StdPeriph_Driver/src/stm32f10x_usart.c **** uint16_t USART_ReceiveData(USART_TypeDef* USARTx)
 577:STM32F10x_StdPeriph_Driver/src/stm32f10x_usart.c **** {
 1468              		.loc 1 577 0
 1469              		.cfi_startproc
 1470              		@ args = 0, pretend = 0, frame = 0
 1471              		@ frame_needed = 0, uses_anonymous_args = 0
 1472              	.LVL142:
 1473 0000 10B5     		push	{r4, lr}
 1474              	.LCFI14:
 1475              		.cfi_def_cfa_offset 8
 1476              		.cfi_offset 4, -8
 1477              		.cfi_offset 14, -4
 1478 0002 0446     		mov	r4, r0
 578:STM32F10x_StdPeriph_Driver/src/stm32f10x_usart.c ****   /* Check the parameters */
 579:STM32F10x_StdPeriph_Driver/src/stm32f10x_usart.c ****   assert_param(IS_USART_ALL_PERIPH(USARTx));
 1479              		.loc 1 579 0
 1480 0004 0D4B     		ldr	r3, .L111
 1481 0006 9842     		cmp	r0, r3
 1482 0008 14D0     		beq	.L109
 1483              		.loc 1 579 0 is_stmt 0 discriminator 1
 1484 000a A3F57443 		sub	r3, r3, #62464
 1485 000e 9842     		cmp	r0, r3
 1486 0010 10D0     		beq	.L109
 1487              		.loc 1 579 0 discriminator 2
 1488 0012 03F58063 		add	r3, r3, #1024
 1489 0016 9842     		cmp	r0, r3
 1490 0018 0CD0     		beq	.L109
 1491              		.loc 1 579 0 discriminator 3
 1492 001a 03F58063 		add	r3, r3, #1024
 1493 001e 9842     		cmp	r0, r3
 1494 0020 08D0     		beq	.L109
 1495              		.loc 1 579 0 discriminator 4
 1496 0022 03F58063 		add	r3, r3, #1024
 1497 0026 9842     		cmp	r0, r3
 1498 0028 04D0     		beq	.L109
 1499              		.loc 1 579 0 discriminator 5
 1500 002a 40F24321 		movw	r1, #579
 1501 002e 0448     		ldr	r0, .L111+4
ARM GAS  /var/folders/g9/bbpj86ld7fx45vd1b3pqxmp00000gn/T//ccAXm4kS.s 			page 37


 1502              	.LVL143:
 1503 0030 FFF7FEFF 		bl	assert_failed
 1504              	.LVL144:
 1505              	.L109:
 580:STM32F10x_StdPeriph_Driver/src/stm32f10x_usart.c ****   
 581:STM32F10x_StdPeriph_Driver/src/stm32f10x_usart.c ****   /* Receive Data */
 582:STM32F10x_StdPeriph_Driver/src/stm32f10x_usart.c ****   return (uint16_t)(USARTx->DR & (uint16_t)0x01FF);
 1506              		.loc 1 582 0 is_stmt 1
 1507 0034 A088     		ldrh	r0, [r4, #4]
 583:STM32F10x_StdPeriph_Driver/src/stm32f10x_usart.c **** }
 1508              		.loc 1 583 0
 1509 0036 C0F30800 		ubfx	r0, r0, #0, #9
 1510 003a 10BD     		pop	{r4, pc}
 1511              	.LVL145:
 1512              	.L112:
 1513              		.align	2
 1514              	.L111:
 1515 003c 00380140 		.word	1073821696
 1516 0040 00000000 		.word	.LC0
 1517              		.cfi_endproc
 1518              	.LFE41:
 1520              		.section	.text.USART_SendBreak,"ax",%progbits
 1521              		.align	2
 1522              		.global	USART_SendBreak
 1523              		.thumb
 1524              		.thumb_func
 1526              	USART_SendBreak:
 1527              	.LFB42:
 584:STM32F10x_StdPeriph_Driver/src/stm32f10x_usart.c **** 
 585:STM32F10x_StdPeriph_Driver/src/stm32f10x_usart.c **** /**
 586:STM32F10x_StdPeriph_Driver/src/stm32f10x_usart.c ****   * @brief  Transmits break characters.
 587:STM32F10x_StdPeriph_Driver/src/stm32f10x_usart.c ****   * @param  USARTx: Select the USART or the UART peripheral. 
 588:STM32F10x_StdPeriph_Driver/src/stm32f10x_usart.c ****   *   This parameter can be one of the following values:
 589:STM32F10x_StdPeriph_Driver/src/stm32f10x_usart.c ****   *   USART1, USART2, USART3, UART4 or UART5.
 590:STM32F10x_StdPeriph_Driver/src/stm32f10x_usart.c ****   * @retval None
 591:STM32F10x_StdPeriph_Driver/src/stm32f10x_usart.c ****   */
 592:STM32F10x_StdPeriph_Driver/src/stm32f10x_usart.c **** void USART_SendBreak(USART_TypeDef* USARTx)
 593:STM32F10x_StdPeriph_Driver/src/stm32f10x_usart.c **** {
 1528              		.loc 1 593 0
 1529              		.cfi_startproc
 1530              		@ args = 0, pretend = 0, frame = 0
 1531              		@ frame_needed = 0, uses_anonymous_args = 0
 1532              	.LVL146:
 1533 0000 10B5     		push	{r4, lr}
 1534              	.LCFI15:
 1535              		.cfi_def_cfa_offset 8
 1536              		.cfi_offset 4, -8
 1537              		.cfi_offset 14, -4
 1538 0002 0446     		mov	r4, r0
 594:STM32F10x_StdPeriph_Driver/src/stm32f10x_usart.c ****   /* Check the parameters */
 595:STM32F10x_StdPeriph_Driver/src/stm32f10x_usart.c ****   assert_param(IS_USART_ALL_PERIPH(USARTx));
 1539              		.loc 1 595 0
 1540 0004 0E4B     		ldr	r3, .L116
 1541 0006 9842     		cmp	r0, r3
 1542 0008 14D0     		beq	.L114
 1543              		.loc 1 595 0 is_stmt 0 discriminator 1
 1544 000a A3F57443 		sub	r3, r3, #62464
ARM GAS  /var/folders/g9/bbpj86ld7fx45vd1b3pqxmp00000gn/T//ccAXm4kS.s 			page 38


 1545 000e 9842     		cmp	r0, r3
 1546 0010 10D0     		beq	.L114
 1547              		.loc 1 595 0 discriminator 2
 1548 0012 03F58063 		add	r3, r3, #1024
 1549 0016 9842     		cmp	r0, r3
 1550 0018 0CD0     		beq	.L114
 1551              		.loc 1 595 0 discriminator 3
 1552 001a 03F58063 		add	r3, r3, #1024
 1553 001e 9842     		cmp	r0, r3
 1554 0020 08D0     		beq	.L114
 1555              		.loc 1 595 0 discriminator 4
 1556 0022 03F58063 		add	r3, r3, #1024
 1557 0026 9842     		cmp	r0, r3
 1558 0028 04D0     		beq	.L114
 1559              		.loc 1 595 0 discriminator 5
 1560 002a 40F25321 		movw	r1, #595
 1561 002e 0548     		ldr	r0, .L116+4
 1562              	.LVL147:
 1563 0030 FFF7FEFF 		bl	assert_failed
 1564              	.LVL148:
 1565              	.L114:
 596:STM32F10x_StdPeriph_Driver/src/stm32f10x_usart.c ****   
 597:STM32F10x_StdPeriph_Driver/src/stm32f10x_usart.c ****   /* Send break characters */
 598:STM32F10x_StdPeriph_Driver/src/stm32f10x_usart.c ****   USARTx->CR1 |= CR1_SBK_Set;
 1566              		.loc 1 598 0 is_stmt 1
 1567 0034 A389     		ldrh	r3, [r4, #12]
 1568 0036 9BB2     		uxth	r3, r3
 1569 0038 43F00103 		orr	r3, r3, #1
 1570 003c A381     		strh	r3, [r4, #12]	@ movhi
 1571 003e 10BD     		pop	{r4, pc}
 1572              	.LVL149:
 1573              	.L117:
 1574              		.align	2
 1575              	.L116:
 1576 0040 00380140 		.word	1073821696
 1577 0044 00000000 		.word	.LC0
 1578              		.cfi_endproc
 1579              	.LFE42:
 1581              		.section	.text.USART_SetGuardTime,"ax",%progbits
 1582              		.align	2
 1583              		.global	USART_SetGuardTime
 1584              		.thumb
 1585              		.thumb_func
 1587              	USART_SetGuardTime:
 1588              	.LFB43:
 599:STM32F10x_StdPeriph_Driver/src/stm32f10x_usart.c **** }
 600:STM32F10x_StdPeriph_Driver/src/stm32f10x_usart.c **** 
 601:STM32F10x_StdPeriph_Driver/src/stm32f10x_usart.c **** /**
 602:STM32F10x_StdPeriph_Driver/src/stm32f10x_usart.c ****   * @brief  Sets the specified USART guard time.
 603:STM32F10x_StdPeriph_Driver/src/stm32f10x_usart.c ****   * @param  USARTx: where x can be 1, 2 or 3 to select the USART peripheral.
 604:STM32F10x_StdPeriph_Driver/src/stm32f10x_usart.c ****   * @param  USART_GuardTime: specifies the guard time.
 605:STM32F10x_StdPeriph_Driver/src/stm32f10x_usart.c ****   * @note The guard time bits are not available for UART4 and UART5.   
 606:STM32F10x_StdPeriph_Driver/src/stm32f10x_usart.c ****   * @retval None
 607:STM32F10x_StdPeriph_Driver/src/stm32f10x_usart.c ****   */
 608:STM32F10x_StdPeriph_Driver/src/stm32f10x_usart.c **** void USART_SetGuardTime(USART_TypeDef* USARTx, uint8_t USART_GuardTime)
 609:STM32F10x_StdPeriph_Driver/src/stm32f10x_usart.c **** {    
 1589              		.loc 1 609 0
ARM GAS  /var/folders/g9/bbpj86ld7fx45vd1b3pqxmp00000gn/T//ccAXm4kS.s 			page 39


 1590              		.cfi_startproc
 1591              		@ args = 0, pretend = 0, frame = 0
 1592              		@ frame_needed = 0, uses_anonymous_args = 0
 1593              	.LVL150:
 1594 0000 38B5     		push	{r3, r4, r5, lr}
 1595              	.LCFI16:
 1596              		.cfi_def_cfa_offset 16
 1597              		.cfi_offset 3, -16
 1598              		.cfi_offset 4, -12
 1599              		.cfi_offset 5, -8
 1600              		.cfi_offset 14, -4
 1601 0002 0446     		mov	r4, r0
 1602 0004 0D46     		mov	r5, r1
 610:STM32F10x_StdPeriph_Driver/src/stm32f10x_usart.c ****   /* Check the parameters */
 611:STM32F10x_StdPeriph_Driver/src/stm32f10x_usart.c ****   assert_param(IS_USART_123_PERIPH(USARTx));
 1603              		.loc 1 611 0
 1604 0006 0C4B     		ldr	r3, .L121
 1605 0008 9842     		cmp	r0, r3
 1606 000a 0CD0     		beq	.L119
 1607              		.loc 1 611 0 is_stmt 0 discriminator 1
 1608 000c A3F57443 		sub	r3, r3, #62464
 1609 0010 9842     		cmp	r0, r3
 1610 0012 08D0     		beq	.L119
 1611              		.loc 1 611 0 discriminator 2
 1612 0014 03F58063 		add	r3, r3, #1024
 1613 0018 9842     		cmp	r0, r3
 1614 001a 04D0     		beq	.L119
 1615              		.loc 1 611 0 discriminator 3
 1616 001c 40F26321 		movw	r1, #611
 1617              	.LVL151:
 1618 0020 0648     		ldr	r0, .L121+4
 1619              	.LVL152:
 1620 0022 FFF7FEFF 		bl	assert_failed
 1621              	.LVL153:
 1622              	.L119:
 612:STM32F10x_StdPeriph_Driver/src/stm32f10x_usart.c ****   
 613:STM32F10x_StdPeriph_Driver/src/stm32f10x_usart.c ****   /* Clear the USART Guard time */
 614:STM32F10x_StdPeriph_Driver/src/stm32f10x_usart.c ****   USARTx->GTPR &= GTPR_LSB_Mask;
 1623              		.loc 1 614 0 is_stmt 1
 1624 0026 238B     		ldrh	r3, [r4, #24]
 1625 0028 DBB2     		uxtb	r3, r3
 1626 002a 2383     		strh	r3, [r4, #24]	@ movhi
 615:STM32F10x_StdPeriph_Driver/src/stm32f10x_usart.c ****   /* Set the USART guard time */
 616:STM32F10x_StdPeriph_Driver/src/stm32f10x_usart.c ****   USARTx->GTPR |= (uint16_t)((uint16_t)USART_GuardTime << 0x08);
 1627              		.loc 1 616 0
 1628 002c 218B     		ldrh	r1, [r4, #24]
 1629 002e 89B2     		uxth	r1, r1
 1630 0030 41EA0521 		orr	r1, r1, r5, lsl #8
 1631 0034 2183     		strh	r1, [r4, #24]	@ movhi
 1632 0036 38BD     		pop	{r3, r4, r5, pc}
 1633              	.LVL154:
 1634              	.L122:
 1635              		.align	2
 1636              	.L121:
 1637 0038 00380140 		.word	1073821696
 1638 003c 00000000 		.word	.LC0
 1639              		.cfi_endproc
ARM GAS  /var/folders/g9/bbpj86ld7fx45vd1b3pqxmp00000gn/T//ccAXm4kS.s 			page 40


 1640              	.LFE43:
 1642              		.section	.text.USART_SetPrescaler,"ax",%progbits
 1643              		.align	2
 1644              		.global	USART_SetPrescaler
 1645              		.thumb
 1646              		.thumb_func
 1648              	USART_SetPrescaler:
 1649              	.LFB44:
 617:STM32F10x_StdPeriph_Driver/src/stm32f10x_usart.c **** }
 618:STM32F10x_StdPeriph_Driver/src/stm32f10x_usart.c **** 
 619:STM32F10x_StdPeriph_Driver/src/stm32f10x_usart.c **** /**
 620:STM32F10x_StdPeriph_Driver/src/stm32f10x_usart.c ****   * @brief  Sets the system clock prescaler.
 621:STM32F10x_StdPeriph_Driver/src/stm32f10x_usart.c ****   * @param  USARTx: Select the USART or the UART peripheral. 
 622:STM32F10x_StdPeriph_Driver/src/stm32f10x_usart.c ****   *   This parameter can be one of the following values:
 623:STM32F10x_StdPeriph_Driver/src/stm32f10x_usart.c ****   *   USART1, USART2, USART3, UART4 or UART5.
 624:STM32F10x_StdPeriph_Driver/src/stm32f10x_usart.c ****   * @param  USART_Prescaler: specifies the prescaler clock.  
 625:STM32F10x_StdPeriph_Driver/src/stm32f10x_usart.c ****   * @note   The function is used for IrDA mode with UART4 and UART5.
 626:STM32F10x_StdPeriph_Driver/src/stm32f10x_usart.c ****   * @retval None
 627:STM32F10x_StdPeriph_Driver/src/stm32f10x_usart.c ****   */
 628:STM32F10x_StdPeriph_Driver/src/stm32f10x_usart.c **** void USART_SetPrescaler(USART_TypeDef* USARTx, uint8_t USART_Prescaler)
 629:STM32F10x_StdPeriph_Driver/src/stm32f10x_usart.c **** { 
 1650              		.loc 1 629 0
 1651              		.cfi_startproc
 1652              		@ args = 0, pretend = 0, frame = 0
 1653              		@ frame_needed = 0, uses_anonymous_args = 0
 1654              	.LVL155:
 1655 0000 38B5     		push	{r3, r4, r5, lr}
 1656              	.LCFI17:
 1657              		.cfi_def_cfa_offset 16
 1658              		.cfi_offset 3, -16
 1659              		.cfi_offset 4, -12
 1660              		.cfi_offset 5, -8
 1661              		.cfi_offset 14, -4
 1662 0002 0446     		mov	r4, r0
 1663 0004 0D46     		mov	r5, r1
 630:STM32F10x_StdPeriph_Driver/src/stm32f10x_usart.c ****   /* Check the parameters */
 631:STM32F10x_StdPeriph_Driver/src/stm32f10x_usart.c ****   assert_param(IS_USART_ALL_PERIPH(USARTx));
 1664              		.loc 1 631 0
 1665 0006 104B     		ldr	r3, .L126
 1666 0008 9842     		cmp	r0, r3
 1667 000a 14D0     		beq	.L124
 1668              		.loc 1 631 0 is_stmt 0 discriminator 1
 1669 000c A3F57443 		sub	r3, r3, #62464
 1670 0010 9842     		cmp	r0, r3
 1671 0012 10D0     		beq	.L124
 1672              		.loc 1 631 0 discriminator 2
 1673 0014 03F58063 		add	r3, r3, #1024
 1674 0018 9842     		cmp	r0, r3
 1675 001a 0CD0     		beq	.L124
 1676              		.loc 1 631 0 discriminator 3
 1677 001c 03F58063 		add	r3, r3, #1024
 1678 0020 9842     		cmp	r0, r3
 1679 0022 08D0     		beq	.L124
 1680              		.loc 1 631 0 discriminator 4
 1681 0024 03F58063 		add	r3, r3, #1024
 1682 0028 9842     		cmp	r0, r3
 1683 002a 04D0     		beq	.L124
ARM GAS  /var/folders/g9/bbpj86ld7fx45vd1b3pqxmp00000gn/T//ccAXm4kS.s 			page 41


 1684              		.loc 1 631 0 discriminator 5
 1685 002c 40F27721 		movw	r1, #631
 1686              	.LVL156:
 1687 0030 0648     		ldr	r0, .L126+4
 1688              	.LVL157:
 1689 0032 FFF7FEFF 		bl	assert_failed
 1690              	.LVL158:
 1691              	.L124:
 632:STM32F10x_StdPeriph_Driver/src/stm32f10x_usart.c ****   
 633:STM32F10x_StdPeriph_Driver/src/stm32f10x_usart.c ****   /* Clear the USART prescaler */
 634:STM32F10x_StdPeriph_Driver/src/stm32f10x_usart.c ****   USARTx->GTPR &= GTPR_MSB_Mask;
 1692              		.loc 1 634 0 is_stmt 1
 1693 0036 238B     		ldrh	r3, [r4, #24]
 1694 0038 03F47F43 		and	r3, r3, #65280
 1695 003c 2383     		strh	r3, [r4, #24]	@ movhi
 635:STM32F10x_StdPeriph_Driver/src/stm32f10x_usart.c ****   /* Set the USART prescaler */
 636:STM32F10x_StdPeriph_Driver/src/stm32f10x_usart.c ****   USARTx->GTPR |= USART_Prescaler;
 1696              		.loc 1 636 0
 1697 003e 238B     		ldrh	r3, [r4, #24]
 1698 0040 9BB2     		uxth	r3, r3
 1699 0042 1D43     		orrs	r5, r5, r3
 1700 0044 2583     		strh	r5, [r4, #24]	@ movhi
 1701 0046 38BD     		pop	{r3, r4, r5, pc}
 1702              	.LVL159:
 1703              	.L127:
 1704              		.align	2
 1705              	.L126:
 1706 0048 00380140 		.word	1073821696
 1707 004c 00000000 		.word	.LC0
 1708              		.cfi_endproc
 1709              	.LFE44:
 1711              		.section	.text.USART_SmartCardCmd,"ax",%progbits
 1712              		.align	2
 1713              		.global	USART_SmartCardCmd
 1714              		.thumb
 1715              		.thumb_func
 1717              	USART_SmartCardCmd:
 1718              	.LFB45:
 637:STM32F10x_StdPeriph_Driver/src/stm32f10x_usart.c **** }
 638:STM32F10x_StdPeriph_Driver/src/stm32f10x_usart.c **** 
 639:STM32F10x_StdPeriph_Driver/src/stm32f10x_usart.c **** /**
 640:STM32F10x_StdPeriph_Driver/src/stm32f10x_usart.c ****   * @brief  Enables or disables the USARTs Smart Card mode.
 641:STM32F10x_StdPeriph_Driver/src/stm32f10x_usart.c ****   * @param  USARTx: where x can be 1, 2 or 3 to select the USART peripheral.
 642:STM32F10x_StdPeriph_Driver/src/stm32f10x_usart.c ****   * @param  NewState: new state of the Smart Card mode.
 643:STM32F10x_StdPeriph_Driver/src/stm32f10x_usart.c ****   *   This parameter can be: ENABLE or DISABLE.     
 644:STM32F10x_StdPeriph_Driver/src/stm32f10x_usart.c ****   * @note The Smart Card mode is not available for UART4 and UART5. 
 645:STM32F10x_StdPeriph_Driver/src/stm32f10x_usart.c ****   * @retval None
 646:STM32F10x_StdPeriph_Driver/src/stm32f10x_usart.c ****   */
 647:STM32F10x_StdPeriph_Driver/src/stm32f10x_usart.c **** void USART_SmartCardCmd(USART_TypeDef* USARTx, FunctionalState NewState)
 648:STM32F10x_StdPeriph_Driver/src/stm32f10x_usart.c **** {
 1719              		.loc 1 648 0
 1720              		.cfi_startproc
 1721              		@ args = 0, pretend = 0, frame = 0
 1722              		@ frame_needed = 0, uses_anonymous_args = 0
 1723              	.LVL160:
 1724 0000 38B5     		push	{r3, r4, r5, lr}
 1725              	.LCFI18:
ARM GAS  /var/folders/g9/bbpj86ld7fx45vd1b3pqxmp00000gn/T//ccAXm4kS.s 			page 42


 1726              		.cfi_def_cfa_offset 16
 1727              		.cfi_offset 3, -16
 1728              		.cfi_offset 4, -12
 1729              		.cfi_offset 5, -8
 1730              		.cfi_offset 14, -4
 1731 0002 0446     		mov	r4, r0
 1732 0004 0D46     		mov	r5, r1
 649:STM32F10x_StdPeriph_Driver/src/stm32f10x_usart.c ****   /* Check the parameters */
 650:STM32F10x_StdPeriph_Driver/src/stm32f10x_usart.c ****   assert_param(IS_USART_123_PERIPH(USARTx));
 1733              		.loc 1 650 0
 1734 0006 124B     		ldr	r3, .L134
 1735 0008 9842     		cmp	r0, r3
 1736 000a 0CD0     		beq	.L129
 1737              		.loc 1 650 0 is_stmt 0 discriminator 1
 1738 000c A3F57443 		sub	r3, r3, #62464
 1739 0010 9842     		cmp	r0, r3
 1740 0012 08D0     		beq	.L129
 1741              		.loc 1 650 0 discriminator 2
 1742 0014 03F58063 		add	r3, r3, #1024
 1743 0018 9842     		cmp	r0, r3
 1744 001a 04D0     		beq	.L129
 1745              		.loc 1 650 0 discriminator 3
 1746 001c 40F28A21 		movw	r1, #650
 1747              	.LVL161:
 1748 0020 0C48     		ldr	r0, .L134+4
 1749              	.LVL162:
 1750 0022 FFF7FEFF 		bl	assert_failed
 1751              	.LVL163:
 1752              	.L129:
 651:STM32F10x_StdPeriph_Driver/src/stm32f10x_usart.c ****   assert_param(IS_FUNCTIONAL_STATE(NewState));
 1753              		.loc 1 651 0 is_stmt 1
 1754 0026 012D     		cmp	r5, #1
 1755 0028 04D9     		bls	.L130
 1756              		.loc 1 651 0 is_stmt 0 discriminator 1
 1757 002a 40F28B21 		movw	r1, #651
 1758 002e 0948     		ldr	r0, .L134+4
 1759 0030 FFF7FEFF 		bl	assert_failed
 1760              	.LVL164:
 1761              	.L130:
 652:STM32F10x_StdPeriph_Driver/src/stm32f10x_usart.c ****   if (NewState != DISABLE)
 1762              		.loc 1 652 0 is_stmt 1
 1763 0034 2DB1     		cbz	r5, .L131
 653:STM32F10x_StdPeriph_Driver/src/stm32f10x_usart.c ****   {
 654:STM32F10x_StdPeriph_Driver/src/stm32f10x_usart.c ****     /* Enable the SC mode by setting the SCEN bit in the CR3 register */
 655:STM32F10x_StdPeriph_Driver/src/stm32f10x_usart.c ****     USARTx->CR3 |= CR3_SCEN_Set;
 1764              		.loc 1 655 0
 1765 0036 A38A     		ldrh	r3, [r4, #20]
 1766 0038 9BB2     		uxth	r3, r3
 1767 003a 43F02003 		orr	r3, r3, #32
 1768 003e A382     		strh	r3, [r4, #20]	@ movhi
 1769 0040 38BD     		pop	{r3, r4, r5, pc}
 1770              	.LVL165:
 1771              	.L131:
 656:STM32F10x_StdPeriph_Driver/src/stm32f10x_usart.c ****   }
 657:STM32F10x_StdPeriph_Driver/src/stm32f10x_usart.c ****   else
 658:STM32F10x_StdPeriph_Driver/src/stm32f10x_usart.c ****   {
 659:STM32F10x_StdPeriph_Driver/src/stm32f10x_usart.c ****     /* Disable the SC mode by clearing the SCEN bit in the CR3 register */
ARM GAS  /var/folders/g9/bbpj86ld7fx45vd1b3pqxmp00000gn/T//ccAXm4kS.s 			page 43


 660:STM32F10x_StdPeriph_Driver/src/stm32f10x_usart.c ****     USARTx->CR3 &= CR3_SCEN_Reset;
 1772              		.loc 1 660 0
 1773 0042 A38A     		ldrh	r3, [r4, #20]
 1774 0044 9BB2     		uxth	r3, r3
 1775 0046 23F02003 		bic	r3, r3, #32
 1776 004a 9BB2     		uxth	r3, r3
 1777 004c A382     		strh	r3, [r4, #20]	@ movhi
 1778 004e 38BD     		pop	{r3, r4, r5, pc}
 1779              	.LVL166:
 1780              	.L135:
 1781              		.align	2
 1782              	.L134:
 1783 0050 00380140 		.word	1073821696
 1784 0054 00000000 		.word	.LC0
 1785              		.cfi_endproc
 1786              	.LFE45:
 1788              		.section	.text.USART_SmartCardNACKCmd,"ax",%progbits
 1789              		.align	2
 1790              		.global	USART_SmartCardNACKCmd
 1791              		.thumb
 1792              		.thumb_func
 1794              	USART_SmartCardNACKCmd:
 1795              	.LFB46:
 661:STM32F10x_StdPeriph_Driver/src/stm32f10x_usart.c ****   }
 662:STM32F10x_StdPeriph_Driver/src/stm32f10x_usart.c **** }
 663:STM32F10x_StdPeriph_Driver/src/stm32f10x_usart.c **** 
 664:STM32F10x_StdPeriph_Driver/src/stm32f10x_usart.c **** /**
 665:STM32F10x_StdPeriph_Driver/src/stm32f10x_usart.c ****   * @brief  Enables or disables NACK transmission.
 666:STM32F10x_StdPeriph_Driver/src/stm32f10x_usart.c ****   * @param  USARTx: where x can be 1, 2 or 3 to select the USART peripheral. 
 667:STM32F10x_StdPeriph_Driver/src/stm32f10x_usart.c ****   * @param  NewState: new state of the NACK transmission.
 668:STM32F10x_StdPeriph_Driver/src/stm32f10x_usart.c ****   *   This parameter can be: ENABLE or DISABLE.  
 669:STM32F10x_StdPeriph_Driver/src/stm32f10x_usart.c ****   * @note The Smart Card mode is not available for UART4 and UART5.
 670:STM32F10x_StdPeriph_Driver/src/stm32f10x_usart.c ****   * @retval None
 671:STM32F10x_StdPeriph_Driver/src/stm32f10x_usart.c ****   */
 672:STM32F10x_StdPeriph_Driver/src/stm32f10x_usart.c **** void USART_SmartCardNACKCmd(USART_TypeDef* USARTx, FunctionalState NewState)
 673:STM32F10x_StdPeriph_Driver/src/stm32f10x_usart.c **** {
 1796              		.loc 1 673 0
 1797              		.cfi_startproc
 1798              		@ args = 0, pretend = 0, frame = 0
 1799              		@ frame_needed = 0, uses_anonymous_args = 0
 1800              	.LVL167:
 1801 0000 38B5     		push	{r3, r4, r5, lr}
 1802              	.LCFI19:
 1803              		.cfi_def_cfa_offset 16
 1804              		.cfi_offset 3, -16
 1805              		.cfi_offset 4, -12
 1806              		.cfi_offset 5, -8
 1807              		.cfi_offset 14, -4
 1808 0002 0446     		mov	r4, r0
 1809 0004 0D46     		mov	r5, r1
 674:STM32F10x_StdPeriph_Driver/src/stm32f10x_usart.c ****   /* Check the parameters */
 675:STM32F10x_StdPeriph_Driver/src/stm32f10x_usart.c ****   assert_param(IS_USART_123_PERIPH(USARTx));  
 1810              		.loc 1 675 0
 1811 0006 124B     		ldr	r3, .L142
 1812 0008 9842     		cmp	r0, r3
 1813 000a 0CD0     		beq	.L137
 1814              		.loc 1 675 0 is_stmt 0 discriminator 1
ARM GAS  /var/folders/g9/bbpj86ld7fx45vd1b3pqxmp00000gn/T//ccAXm4kS.s 			page 44


 1815 000c A3F57443 		sub	r3, r3, #62464
 1816 0010 9842     		cmp	r0, r3
 1817 0012 08D0     		beq	.L137
 1818              		.loc 1 675 0 discriminator 2
 1819 0014 03F58063 		add	r3, r3, #1024
 1820 0018 9842     		cmp	r0, r3
 1821 001a 04D0     		beq	.L137
 1822              		.loc 1 675 0 discriminator 3
 1823 001c 40F2A321 		movw	r1, #675
 1824              	.LVL168:
 1825 0020 0C48     		ldr	r0, .L142+4
 1826              	.LVL169:
 1827 0022 FFF7FEFF 		bl	assert_failed
 1828              	.LVL170:
 1829              	.L137:
 676:STM32F10x_StdPeriph_Driver/src/stm32f10x_usart.c ****   assert_param(IS_FUNCTIONAL_STATE(NewState));
 1830              		.loc 1 676 0 is_stmt 1
 1831 0026 012D     		cmp	r5, #1
 1832 0028 04D9     		bls	.L138
 1833              		.loc 1 676 0 is_stmt 0 discriminator 1
 1834 002a 4FF42971 		mov	r1, #676
 1835 002e 0948     		ldr	r0, .L142+4
 1836 0030 FFF7FEFF 		bl	assert_failed
 1837              	.LVL171:
 1838              	.L138:
 677:STM32F10x_StdPeriph_Driver/src/stm32f10x_usart.c ****   if (NewState != DISABLE)
 1839              		.loc 1 677 0 is_stmt 1
 1840 0034 2DB1     		cbz	r5, .L139
 678:STM32F10x_StdPeriph_Driver/src/stm32f10x_usart.c ****   {
 679:STM32F10x_StdPeriph_Driver/src/stm32f10x_usart.c ****     /* Enable the NACK transmission by setting the NACK bit in the CR3 register */
 680:STM32F10x_StdPeriph_Driver/src/stm32f10x_usart.c ****     USARTx->CR3 |= CR3_NACK_Set;
 1841              		.loc 1 680 0
 1842 0036 A38A     		ldrh	r3, [r4, #20]
 1843 0038 9BB2     		uxth	r3, r3
 1844 003a 43F01003 		orr	r3, r3, #16
 1845 003e A382     		strh	r3, [r4, #20]	@ movhi
 1846 0040 38BD     		pop	{r3, r4, r5, pc}
 1847              	.LVL172:
 1848              	.L139:
 681:STM32F10x_StdPeriph_Driver/src/stm32f10x_usart.c ****   }
 682:STM32F10x_StdPeriph_Driver/src/stm32f10x_usart.c ****   else
 683:STM32F10x_StdPeriph_Driver/src/stm32f10x_usart.c ****   {
 684:STM32F10x_StdPeriph_Driver/src/stm32f10x_usart.c ****     /* Disable the NACK transmission by clearing the NACK bit in the CR3 register */
 685:STM32F10x_StdPeriph_Driver/src/stm32f10x_usart.c ****     USARTx->CR3 &= CR3_NACK_Reset;
 1849              		.loc 1 685 0
 1850 0042 A38A     		ldrh	r3, [r4, #20]
 1851 0044 9BB2     		uxth	r3, r3
 1852 0046 23F01003 		bic	r3, r3, #16
 1853 004a 9BB2     		uxth	r3, r3
 1854 004c A382     		strh	r3, [r4, #20]	@ movhi
 1855 004e 38BD     		pop	{r3, r4, r5, pc}
 1856              	.LVL173:
 1857              	.L143:
 1858              		.align	2
 1859              	.L142:
 1860 0050 00380140 		.word	1073821696
 1861 0054 00000000 		.word	.LC0
ARM GAS  /var/folders/g9/bbpj86ld7fx45vd1b3pqxmp00000gn/T//ccAXm4kS.s 			page 45


 1862              		.cfi_endproc
 1863              	.LFE46:
 1865              		.section	.text.USART_HalfDuplexCmd,"ax",%progbits
 1866              		.align	2
 1867              		.global	USART_HalfDuplexCmd
 1868              		.thumb
 1869              		.thumb_func
 1871              	USART_HalfDuplexCmd:
 1872              	.LFB47:
 686:STM32F10x_StdPeriph_Driver/src/stm32f10x_usart.c ****   }
 687:STM32F10x_StdPeriph_Driver/src/stm32f10x_usart.c **** }
 688:STM32F10x_StdPeriph_Driver/src/stm32f10x_usart.c **** 
 689:STM32F10x_StdPeriph_Driver/src/stm32f10x_usart.c **** /**
 690:STM32F10x_StdPeriph_Driver/src/stm32f10x_usart.c ****   * @brief  Enables or disables the USARTs Half Duplex communication.
 691:STM32F10x_StdPeriph_Driver/src/stm32f10x_usart.c ****   * @param  USARTx: Select the USART or the UART peripheral. 
 692:STM32F10x_StdPeriph_Driver/src/stm32f10x_usart.c ****   *   This parameter can be one of the following values:
 693:STM32F10x_StdPeriph_Driver/src/stm32f10x_usart.c ****   *   USART1, USART2, USART3, UART4 or UART5.
 694:STM32F10x_StdPeriph_Driver/src/stm32f10x_usart.c ****   * @param  NewState: new state of the USART Communication.
 695:STM32F10x_StdPeriph_Driver/src/stm32f10x_usart.c ****   *   This parameter can be: ENABLE or DISABLE.
 696:STM32F10x_StdPeriph_Driver/src/stm32f10x_usart.c ****   * @retval None
 697:STM32F10x_StdPeriph_Driver/src/stm32f10x_usart.c ****   */
 698:STM32F10x_StdPeriph_Driver/src/stm32f10x_usart.c **** void USART_HalfDuplexCmd(USART_TypeDef* USARTx, FunctionalState NewState)
 699:STM32F10x_StdPeriph_Driver/src/stm32f10x_usart.c **** {
 1873              		.loc 1 699 0
 1874              		.cfi_startproc
 1875              		@ args = 0, pretend = 0, frame = 0
 1876              		@ frame_needed = 0, uses_anonymous_args = 0
 1877              	.LVL174:
 1878 0000 38B5     		push	{r3, r4, r5, lr}
 1879              	.LCFI20:
 1880              		.cfi_def_cfa_offset 16
 1881              		.cfi_offset 3, -16
 1882              		.cfi_offset 4, -12
 1883              		.cfi_offset 5, -8
 1884              		.cfi_offset 14, -4
 1885 0002 0446     		mov	r4, r0
 1886 0004 0D46     		mov	r5, r1
 700:STM32F10x_StdPeriph_Driver/src/stm32f10x_usart.c ****   /* Check the parameters */
 701:STM32F10x_StdPeriph_Driver/src/stm32f10x_usart.c ****   assert_param(IS_USART_ALL_PERIPH(USARTx));
 1887              		.loc 1 701 0
 1888 0006 164B     		ldr	r3, .L150
 1889 0008 9842     		cmp	r0, r3
 1890 000a 14D0     		beq	.L145
 1891              		.loc 1 701 0 is_stmt 0 discriminator 1
 1892 000c A3F57443 		sub	r3, r3, #62464
 1893 0010 9842     		cmp	r0, r3
 1894 0012 10D0     		beq	.L145
 1895              		.loc 1 701 0 discriminator 2
 1896 0014 03F58063 		add	r3, r3, #1024
 1897 0018 9842     		cmp	r0, r3
 1898 001a 0CD0     		beq	.L145
 1899              		.loc 1 701 0 discriminator 3
 1900 001c 03F58063 		add	r3, r3, #1024
 1901 0020 9842     		cmp	r0, r3
 1902 0022 08D0     		beq	.L145
 1903              		.loc 1 701 0 discriminator 4
 1904 0024 03F58063 		add	r3, r3, #1024
ARM GAS  /var/folders/g9/bbpj86ld7fx45vd1b3pqxmp00000gn/T//ccAXm4kS.s 			page 46


 1905 0028 9842     		cmp	r0, r3
 1906 002a 04D0     		beq	.L145
 1907              		.loc 1 701 0 discriminator 5
 1908 002c 40F2BD21 		movw	r1, #701
 1909              	.LVL175:
 1910 0030 0C48     		ldr	r0, .L150+4
 1911              	.LVL176:
 1912 0032 FFF7FEFF 		bl	assert_failed
 1913              	.LVL177:
 1914              	.L145:
 702:STM32F10x_StdPeriph_Driver/src/stm32f10x_usart.c ****   assert_param(IS_FUNCTIONAL_STATE(NewState));
 1915              		.loc 1 702 0 is_stmt 1
 1916 0036 012D     		cmp	r5, #1
 1917 0038 04D9     		bls	.L146
 1918              		.loc 1 702 0 is_stmt 0 discriminator 1
 1919 003a 40F2BE21 		movw	r1, #702
 1920 003e 0948     		ldr	r0, .L150+4
 1921 0040 FFF7FEFF 		bl	assert_failed
 1922              	.LVL178:
 1923              	.L146:
 703:STM32F10x_StdPeriph_Driver/src/stm32f10x_usart.c ****   
 704:STM32F10x_StdPeriph_Driver/src/stm32f10x_usart.c ****   if (NewState != DISABLE)
 1924              		.loc 1 704 0 is_stmt 1
 1925 0044 2DB1     		cbz	r5, .L147
 705:STM32F10x_StdPeriph_Driver/src/stm32f10x_usart.c ****   {
 706:STM32F10x_StdPeriph_Driver/src/stm32f10x_usart.c ****     /* Enable the Half-Duplex mode by setting the HDSEL bit in the CR3 register */
 707:STM32F10x_StdPeriph_Driver/src/stm32f10x_usart.c ****     USARTx->CR3 |= CR3_HDSEL_Set;
 1926              		.loc 1 707 0
 1927 0046 A38A     		ldrh	r3, [r4, #20]
 1928 0048 9BB2     		uxth	r3, r3
 1929 004a 43F00803 		orr	r3, r3, #8
 1930 004e A382     		strh	r3, [r4, #20]	@ movhi
 1931 0050 38BD     		pop	{r3, r4, r5, pc}
 1932              	.LVL179:
 1933              	.L147:
 708:STM32F10x_StdPeriph_Driver/src/stm32f10x_usart.c ****   }
 709:STM32F10x_StdPeriph_Driver/src/stm32f10x_usart.c ****   else
 710:STM32F10x_StdPeriph_Driver/src/stm32f10x_usart.c ****   {
 711:STM32F10x_StdPeriph_Driver/src/stm32f10x_usart.c ****     /* Disable the Half-Duplex mode by clearing the HDSEL bit in the CR3 register */
 712:STM32F10x_StdPeriph_Driver/src/stm32f10x_usart.c ****     USARTx->CR3 &= CR3_HDSEL_Reset;
 1934              		.loc 1 712 0
 1935 0052 A38A     		ldrh	r3, [r4, #20]
 1936 0054 9BB2     		uxth	r3, r3
 1937 0056 23F00803 		bic	r3, r3, #8
 1938 005a 9BB2     		uxth	r3, r3
 1939 005c A382     		strh	r3, [r4, #20]	@ movhi
 1940 005e 38BD     		pop	{r3, r4, r5, pc}
 1941              	.LVL180:
 1942              	.L151:
 1943              		.align	2
 1944              	.L150:
 1945 0060 00380140 		.word	1073821696
 1946 0064 00000000 		.word	.LC0
 1947              		.cfi_endproc
 1948              	.LFE47:
 1950              		.section	.text.USART_IrDAConfig,"ax",%progbits
 1951              		.align	2
ARM GAS  /var/folders/g9/bbpj86ld7fx45vd1b3pqxmp00000gn/T//ccAXm4kS.s 			page 47


 1952              		.global	USART_IrDAConfig
 1953              		.thumb
 1954              		.thumb_func
 1956              	USART_IrDAConfig:
 1957              	.LFB48:
 713:STM32F10x_StdPeriph_Driver/src/stm32f10x_usart.c ****   }
 714:STM32F10x_StdPeriph_Driver/src/stm32f10x_usart.c **** }
 715:STM32F10x_StdPeriph_Driver/src/stm32f10x_usart.c **** 
 716:STM32F10x_StdPeriph_Driver/src/stm32f10x_usart.c **** /**
 717:STM32F10x_StdPeriph_Driver/src/stm32f10x_usart.c ****   * @brief  Configures the USARTs IrDA interface.
 718:STM32F10x_StdPeriph_Driver/src/stm32f10x_usart.c ****   * @param  USARTx: Select the USART or the UART peripheral. 
 719:STM32F10x_StdPeriph_Driver/src/stm32f10x_usart.c ****   *   This parameter can be one of the following values:
 720:STM32F10x_StdPeriph_Driver/src/stm32f10x_usart.c ****   *   USART1, USART2, USART3, UART4 or UART5.
 721:STM32F10x_StdPeriph_Driver/src/stm32f10x_usart.c ****   * @param  USART_IrDAMode: specifies the IrDA mode.
 722:STM32F10x_StdPeriph_Driver/src/stm32f10x_usart.c ****   *   This parameter can be one of the following values:
 723:STM32F10x_StdPeriph_Driver/src/stm32f10x_usart.c ****   *     @arg USART_IrDAMode_LowPower
 724:STM32F10x_StdPeriph_Driver/src/stm32f10x_usart.c ****   *     @arg USART_IrDAMode_Normal
 725:STM32F10x_StdPeriph_Driver/src/stm32f10x_usart.c ****   * @retval None
 726:STM32F10x_StdPeriph_Driver/src/stm32f10x_usart.c ****   */
 727:STM32F10x_StdPeriph_Driver/src/stm32f10x_usart.c **** void USART_IrDAConfig(USART_TypeDef* USARTx, uint16_t USART_IrDAMode)
 728:STM32F10x_StdPeriph_Driver/src/stm32f10x_usart.c **** {
 1958              		.loc 1 728 0
 1959              		.cfi_startproc
 1960              		@ args = 0, pretend = 0, frame = 0
 1961              		@ frame_needed = 0, uses_anonymous_args = 0
 1962              	.LVL181:
 1963 0000 38B5     		push	{r3, r4, r5, lr}
 1964              	.LCFI21:
 1965              		.cfi_def_cfa_offset 16
 1966              		.cfi_offset 3, -16
 1967              		.cfi_offset 4, -12
 1968              		.cfi_offset 5, -8
 1969              		.cfi_offset 14, -4
 1970 0002 0446     		mov	r4, r0
 1971 0004 0D46     		mov	r5, r1
 729:STM32F10x_StdPeriph_Driver/src/stm32f10x_usart.c ****   /* Check the parameters */
 730:STM32F10x_StdPeriph_Driver/src/stm32f10x_usart.c ****   assert_param(IS_USART_ALL_PERIPH(USARTx));
 1972              		.loc 1 730 0
 1973 0006 154B     		ldr	r3, .L156
 1974 0008 9842     		cmp	r0, r3
 1975 000a 14D0     		beq	.L153
 1976              		.loc 1 730 0 is_stmt 0 discriminator 1
 1977 000c A3F57443 		sub	r3, r3, #62464
 1978 0010 9842     		cmp	r0, r3
 1979 0012 10D0     		beq	.L153
 1980              		.loc 1 730 0 discriminator 2
 1981 0014 03F58063 		add	r3, r3, #1024
 1982 0018 9842     		cmp	r0, r3
 1983 001a 0CD0     		beq	.L153
 1984              		.loc 1 730 0 discriminator 3
 1985 001c 03F58063 		add	r3, r3, #1024
 1986 0020 9842     		cmp	r0, r3
 1987 0022 08D0     		beq	.L153
 1988              		.loc 1 730 0 discriminator 4
 1989 0024 03F58063 		add	r3, r3, #1024
 1990 0028 9842     		cmp	r0, r3
 1991 002a 04D0     		beq	.L153
ARM GAS  /var/folders/g9/bbpj86ld7fx45vd1b3pqxmp00000gn/T//ccAXm4kS.s 			page 48


 1992              		.loc 1 730 0 discriminator 5
 1993 002c 40F2DA21 		movw	r1, #730
 1994              	.LVL182:
 1995 0030 0B48     		ldr	r0, .L156+4
 1996              	.LVL183:
 1997 0032 FFF7FEFF 		bl	assert_failed
 1998              	.LVL184:
 1999              	.L153:
 731:STM32F10x_StdPeriph_Driver/src/stm32f10x_usart.c ****   assert_param(IS_USART_IRDA_MODE(USART_IrDAMode));
 2000              		.loc 1 731 0 is_stmt 1
 2001 0036 042D     		cmp	r5, #4
 2002 0038 05D0     		beq	.L154
 2003              		.loc 1 731 0 is_stmt 0 discriminator 1
 2004 003a 25B1     		cbz	r5, .L154
 2005              		.loc 1 731 0 discriminator 2
 2006 003c 40F2DB21 		movw	r1, #731
 2007 0040 0748     		ldr	r0, .L156+4
 2008 0042 FFF7FEFF 		bl	assert_failed
 2009              	.LVL185:
 2010              	.L154:
 732:STM32F10x_StdPeriph_Driver/src/stm32f10x_usart.c ****     
 733:STM32F10x_StdPeriph_Driver/src/stm32f10x_usart.c ****   USARTx->CR3 &= CR3_IRLP_Mask;
 2011              		.loc 1 733 0 is_stmt 1
 2012 0046 A38A     		ldrh	r3, [r4, #20]
 2013 0048 9BB2     		uxth	r3, r3
 2014 004a 23F00403 		bic	r3, r3, #4
 2015 004e 9BB2     		uxth	r3, r3
 2016 0050 A382     		strh	r3, [r4, #20]	@ movhi
 734:STM32F10x_StdPeriph_Driver/src/stm32f10x_usart.c ****   USARTx->CR3 |= USART_IrDAMode;
 2017              		.loc 1 734 0
 2018 0052 A18A     		ldrh	r1, [r4, #20]
 2019 0054 89B2     		uxth	r1, r1
 2020 0056 2943     		orrs	r1, r1, r5
 2021 0058 A182     		strh	r1, [r4, #20]	@ movhi
 2022 005a 38BD     		pop	{r3, r4, r5, pc}
 2023              	.LVL186:
 2024              	.L157:
 2025              		.align	2
 2026              	.L156:
 2027 005c 00380140 		.word	1073821696
 2028 0060 00000000 		.word	.LC0
 2029              		.cfi_endproc
 2030              	.LFE48:
 2032              		.section	.text.USART_IrDACmd,"ax",%progbits
 2033              		.align	2
 2034              		.global	USART_IrDACmd
 2035              		.thumb
 2036              		.thumb_func
 2038              	USART_IrDACmd:
 2039              	.LFB49:
 735:STM32F10x_StdPeriph_Driver/src/stm32f10x_usart.c **** }
 736:STM32F10x_StdPeriph_Driver/src/stm32f10x_usart.c **** 
 737:STM32F10x_StdPeriph_Driver/src/stm32f10x_usart.c **** /**
 738:STM32F10x_StdPeriph_Driver/src/stm32f10x_usart.c ****   * @brief  Enables or disables the USARTs IrDA interface.
 739:STM32F10x_StdPeriph_Driver/src/stm32f10x_usart.c ****   * @param  USARTx: Select the USART or the UART peripheral. 
 740:STM32F10x_StdPeriph_Driver/src/stm32f10x_usart.c ****   *   This parameter can be one of the following values:
 741:STM32F10x_StdPeriph_Driver/src/stm32f10x_usart.c ****   *   USART1, USART2, USART3, UART4 or UART5.
ARM GAS  /var/folders/g9/bbpj86ld7fx45vd1b3pqxmp00000gn/T//ccAXm4kS.s 			page 49


 742:STM32F10x_StdPeriph_Driver/src/stm32f10x_usart.c ****   * @param  NewState: new state of the IrDA mode.
 743:STM32F10x_StdPeriph_Driver/src/stm32f10x_usart.c ****   *   This parameter can be: ENABLE or DISABLE.
 744:STM32F10x_StdPeriph_Driver/src/stm32f10x_usart.c ****   * @retval None
 745:STM32F10x_StdPeriph_Driver/src/stm32f10x_usart.c ****   */
 746:STM32F10x_StdPeriph_Driver/src/stm32f10x_usart.c **** void USART_IrDACmd(USART_TypeDef* USARTx, FunctionalState NewState)
 747:STM32F10x_StdPeriph_Driver/src/stm32f10x_usart.c **** {
 2040              		.loc 1 747 0
 2041              		.cfi_startproc
 2042              		@ args = 0, pretend = 0, frame = 0
 2043              		@ frame_needed = 0, uses_anonymous_args = 0
 2044              	.LVL187:
 2045 0000 38B5     		push	{r3, r4, r5, lr}
 2046              	.LCFI22:
 2047              		.cfi_def_cfa_offset 16
 2048              		.cfi_offset 3, -16
 2049              		.cfi_offset 4, -12
 2050              		.cfi_offset 5, -8
 2051              		.cfi_offset 14, -4
 2052 0002 0446     		mov	r4, r0
 2053 0004 0D46     		mov	r5, r1
 748:STM32F10x_StdPeriph_Driver/src/stm32f10x_usart.c ****   /* Check the parameters */
 749:STM32F10x_StdPeriph_Driver/src/stm32f10x_usart.c ****   assert_param(IS_USART_ALL_PERIPH(USARTx));
 2054              		.loc 1 749 0
 2055 0006 164B     		ldr	r3, .L164
 2056 0008 9842     		cmp	r0, r3
 2057 000a 14D0     		beq	.L159
 2058              		.loc 1 749 0 is_stmt 0 discriminator 1
 2059 000c A3F57443 		sub	r3, r3, #62464
 2060 0010 9842     		cmp	r0, r3
 2061 0012 10D0     		beq	.L159
 2062              		.loc 1 749 0 discriminator 2
 2063 0014 03F58063 		add	r3, r3, #1024
 2064 0018 9842     		cmp	r0, r3
 2065 001a 0CD0     		beq	.L159
 2066              		.loc 1 749 0 discriminator 3
 2067 001c 03F58063 		add	r3, r3, #1024
 2068 0020 9842     		cmp	r0, r3
 2069 0022 08D0     		beq	.L159
 2070              		.loc 1 749 0 discriminator 4
 2071 0024 03F58063 		add	r3, r3, #1024
 2072 0028 9842     		cmp	r0, r3
 2073 002a 04D0     		beq	.L159
 2074              		.loc 1 749 0 discriminator 5
 2075 002c 40F2ED21 		movw	r1, #749
 2076              	.LVL188:
 2077 0030 0C48     		ldr	r0, .L164+4
 2078              	.LVL189:
 2079 0032 FFF7FEFF 		bl	assert_failed
 2080              	.LVL190:
 2081              	.L159:
 750:STM32F10x_StdPeriph_Driver/src/stm32f10x_usart.c ****   assert_param(IS_FUNCTIONAL_STATE(NewState));
 2082              		.loc 1 750 0 is_stmt 1
 2083 0036 012D     		cmp	r5, #1
 2084 0038 04D9     		bls	.L160
 2085              		.loc 1 750 0 is_stmt 0 discriminator 1
 2086 003a 40F2EE21 		movw	r1, #750
 2087 003e 0948     		ldr	r0, .L164+4
ARM GAS  /var/folders/g9/bbpj86ld7fx45vd1b3pqxmp00000gn/T//ccAXm4kS.s 			page 50


 2088 0040 FFF7FEFF 		bl	assert_failed
 2089              	.LVL191:
 2090              	.L160:
 751:STM32F10x_StdPeriph_Driver/src/stm32f10x_usart.c ****     
 752:STM32F10x_StdPeriph_Driver/src/stm32f10x_usart.c ****   if (NewState != DISABLE)
 2091              		.loc 1 752 0 is_stmt 1
 2092 0044 2DB1     		cbz	r5, .L161
 753:STM32F10x_StdPeriph_Driver/src/stm32f10x_usart.c ****   {
 754:STM32F10x_StdPeriph_Driver/src/stm32f10x_usart.c ****     /* Enable the IrDA mode by setting the IREN bit in the CR3 register */
 755:STM32F10x_StdPeriph_Driver/src/stm32f10x_usart.c ****     USARTx->CR3 |= CR3_IREN_Set;
 2093              		.loc 1 755 0
 2094 0046 A38A     		ldrh	r3, [r4, #20]
 2095 0048 9BB2     		uxth	r3, r3
 2096 004a 43F00203 		orr	r3, r3, #2
 2097 004e A382     		strh	r3, [r4, #20]	@ movhi
 2098 0050 38BD     		pop	{r3, r4, r5, pc}
 2099              	.LVL192:
 2100              	.L161:
 756:STM32F10x_StdPeriph_Driver/src/stm32f10x_usart.c ****   }
 757:STM32F10x_StdPeriph_Driver/src/stm32f10x_usart.c ****   else
 758:STM32F10x_StdPeriph_Driver/src/stm32f10x_usart.c ****   {
 759:STM32F10x_StdPeriph_Driver/src/stm32f10x_usart.c ****     /* Disable the IrDA mode by clearing the IREN bit in the CR3 register */
 760:STM32F10x_StdPeriph_Driver/src/stm32f10x_usart.c ****     USARTx->CR3 &= CR3_IREN_Reset;
 2101              		.loc 1 760 0
 2102 0052 A38A     		ldrh	r3, [r4, #20]
 2103 0054 9BB2     		uxth	r3, r3
 2104 0056 23F00203 		bic	r3, r3, #2
 2105 005a 9BB2     		uxth	r3, r3
 2106 005c A382     		strh	r3, [r4, #20]	@ movhi
 2107 005e 38BD     		pop	{r3, r4, r5, pc}
 2108              	.LVL193:
 2109              	.L165:
 2110              		.align	2
 2111              	.L164:
 2112 0060 00380140 		.word	1073821696
 2113 0064 00000000 		.word	.LC0
 2114              		.cfi_endproc
 2115              	.LFE49:
 2117              		.section	.text.USART_GetFlagStatus,"ax",%progbits
 2118              		.align	2
 2119              		.global	USART_GetFlagStatus
 2120              		.thumb
 2121              		.thumb_func
 2123              	USART_GetFlagStatus:
 2124              	.LFB50:
 761:STM32F10x_StdPeriph_Driver/src/stm32f10x_usart.c ****   }
 762:STM32F10x_StdPeriph_Driver/src/stm32f10x_usart.c **** }
 763:STM32F10x_StdPeriph_Driver/src/stm32f10x_usart.c **** 
 764:STM32F10x_StdPeriph_Driver/src/stm32f10x_usart.c **** /**
 765:STM32F10x_StdPeriph_Driver/src/stm32f10x_usart.c ****   * @brief  Checks whether the specified USART flag is set or not.
 766:STM32F10x_StdPeriph_Driver/src/stm32f10x_usart.c ****   * @param  USARTx: Select the USART or the UART peripheral. 
 767:STM32F10x_StdPeriph_Driver/src/stm32f10x_usart.c ****   *   This parameter can be one of the following values:
 768:STM32F10x_StdPeriph_Driver/src/stm32f10x_usart.c ****   *   USART1, USART2, USART3, UART4 or UART5.
 769:STM32F10x_StdPeriph_Driver/src/stm32f10x_usart.c ****   * @param  USART_FLAG: specifies the flag to check.
 770:STM32F10x_StdPeriph_Driver/src/stm32f10x_usart.c ****   *   This parameter can be one of the following values:
 771:STM32F10x_StdPeriph_Driver/src/stm32f10x_usart.c ****   *     @arg USART_FLAG_CTS:  CTS Change flag (not available for UART4 and UART5)
 772:STM32F10x_StdPeriph_Driver/src/stm32f10x_usart.c ****   *     @arg USART_FLAG_LBD:  LIN Break detection flag
ARM GAS  /var/folders/g9/bbpj86ld7fx45vd1b3pqxmp00000gn/T//ccAXm4kS.s 			page 51


 773:STM32F10x_StdPeriph_Driver/src/stm32f10x_usart.c ****   *     @arg USART_FLAG_TXE:  Transmit data register empty flag
 774:STM32F10x_StdPeriph_Driver/src/stm32f10x_usart.c ****   *     @arg USART_FLAG_TC:   Transmission Complete flag
 775:STM32F10x_StdPeriph_Driver/src/stm32f10x_usart.c ****   *     @arg USART_FLAG_RXNE: Receive data register not empty flag
 776:STM32F10x_StdPeriph_Driver/src/stm32f10x_usart.c ****   *     @arg USART_FLAG_IDLE: Idle Line detection flag
 777:STM32F10x_StdPeriph_Driver/src/stm32f10x_usart.c ****   *     @arg USART_FLAG_ORE:  OverRun Error flag
 778:STM32F10x_StdPeriph_Driver/src/stm32f10x_usart.c ****   *     @arg USART_FLAG_NE:   Noise Error flag
 779:STM32F10x_StdPeriph_Driver/src/stm32f10x_usart.c ****   *     @arg USART_FLAG_FE:   Framing Error flag
 780:STM32F10x_StdPeriph_Driver/src/stm32f10x_usart.c ****   *     @arg USART_FLAG_PE:   Parity Error flag
 781:STM32F10x_StdPeriph_Driver/src/stm32f10x_usart.c ****   * @retval The new state of USART_FLAG (SET or RESET).
 782:STM32F10x_StdPeriph_Driver/src/stm32f10x_usart.c ****   */
 783:STM32F10x_StdPeriph_Driver/src/stm32f10x_usart.c **** FlagStatus USART_GetFlagStatus(USART_TypeDef* USARTx, uint16_t USART_FLAG)
 784:STM32F10x_StdPeriph_Driver/src/stm32f10x_usart.c **** {
 2125              		.loc 1 784 0
 2126              		.cfi_startproc
 2127              		@ args = 0, pretend = 0, frame = 0
 2128              		@ frame_needed = 0, uses_anonymous_args = 0
 2129              	.LVL194:
 2130 0000 38B5     		push	{r3, r4, r5, lr}
 2131              	.LCFI23:
 2132              		.cfi_def_cfa_offset 16
 2133              		.cfi_offset 3, -16
 2134              		.cfi_offset 4, -12
 2135              		.cfi_offset 5, -8
 2136              		.cfi_offset 14, -4
 2137 0002 0546     		mov	r5, r0
 2138 0004 0C46     		mov	r4, r1
 2139              	.LVL195:
 785:STM32F10x_StdPeriph_Driver/src/stm32f10x_usart.c ****   FlagStatus bitstatus = RESET;
 786:STM32F10x_StdPeriph_Driver/src/stm32f10x_usart.c ****   /* Check the parameters */
 787:STM32F10x_StdPeriph_Driver/src/stm32f10x_usart.c ****   assert_param(IS_USART_ALL_PERIPH(USARTx));
 2140              		.loc 1 787 0
 2141 0006 264B     		ldr	r3, .L173
 2142 0008 9842     		cmp	r0, r3
 2143 000a 14D0     		beq	.L167
 2144              		.loc 1 787 0 is_stmt 0 discriminator 1
 2145 000c A3F57443 		sub	r3, r3, #62464
 2146 0010 9842     		cmp	r0, r3
 2147 0012 10D0     		beq	.L167
 2148              		.loc 1 787 0 discriminator 2
 2149 0014 03F58063 		add	r3, r3, #1024
 2150 0018 9842     		cmp	r0, r3
 2151 001a 0CD0     		beq	.L167
 2152              		.loc 1 787 0 discriminator 3
 2153 001c 03F58063 		add	r3, r3, #1024
 2154 0020 9842     		cmp	r0, r3
 2155 0022 08D0     		beq	.L167
 2156              		.loc 1 787 0 discriminator 4
 2157 0024 03F58063 		add	r3, r3, #1024
 2158 0028 9842     		cmp	r0, r3
 2159 002a 04D0     		beq	.L167
 2160              		.loc 1 787 0 discriminator 5
 2161 002c 40F21331 		movw	r1, #787
 2162              	.LVL196:
 2163 0030 1C48     		ldr	r0, .L173+4
 2164              	.LVL197:
 2165 0032 FFF7FEFF 		bl	assert_failed
 2166              	.LVL198:
ARM GAS  /var/folders/g9/bbpj86ld7fx45vd1b3pqxmp00000gn/T//ccAXm4kS.s 			page 52


 2167              	.L167:
 788:STM32F10x_StdPeriph_Driver/src/stm32f10x_usart.c ****   assert_param(IS_USART_FLAG(USART_FLAG));
 2168              		.loc 1 788 0 is_stmt 1
 2169 0036 012C     		cmp	r4, #1
 2170 0038 18D0     		beq	.L168
 2171              		.loc 1 788 0 is_stmt 0 discriminator 1
 2172 003a 802C     		cmp	r4, #128
 2173 003c 16D0     		beq	.L168
 2174              		.loc 1 788 0 discriminator 2
 2175 003e 402C     		cmp	r4, #64
 2176 0040 14D0     		beq	.L168
 2177              		.loc 1 788 0 discriminator 3
 2178 0042 202C     		cmp	r4, #32
 2179 0044 12D0     		beq	.L168
 2180              		.loc 1 788 0 discriminator 4
 2181 0046 102C     		cmp	r4, #16
 2182 0048 10D0     		beq	.L168
 2183              		.loc 1 788 0 discriminator 5
 2184 004a B4F5807F 		cmp	r4, #256
 2185 004e 0DD0     		beq	.L168
 2186              		.loc 1 788 0 discriminator 6
 2187 0050 B4F5007F 		cmp	r4, #512
 2188 0054 0AD0     		beq	.L168
 2189              		.loc 1 788 0 discriminator 7
 2190 0056 082C     		cmp	r4, #8
 2191 0058 08D0     		beq	.L168
 2192              		.loc 1 788 0 discriminator 8
 2193 005a 042C     		cmp	r4, #4
 2194 005c 06D0     		beq	.L168
 2195              		.loc 1 788 0 discriminator 9
 2196 005e 022C     		cmp	r4, #2
 2197 0060 04D0     		beq	.L168
 2198              		.loc 1 788 0 discriminator 10
 2199 0062 4FF44571 		mov	r1, #788
 2200 0066 0F48     		ldr	r0, .L173+4
 2201 0068 FFF7FEFF 		bl	assert_failed
 2202              	.LVL199:
 2203              	.L168:
 789:STM32F10x_StdPeriph_Driver/src/stm32f10x_usart.c ****   /* The CTS flag is not available for UART4 and UART5 */
 790:STM32F10x_StdPeriph_Driver/src/stm32f10x_usart.c ****   if (USART_FLAG == USART_FLAG_CTS)
 2204              		.loc 1 790 0 is_stmt 1
 2205 006c B4F5007F 		cmp	r4, #512
 2206 0070 0FD1     		bne	.L169
 791:STM32F10x_StdPeriph_Driver/src/stm32f10x_usart.c ****   {
 792:STM32F10x_StdPeriph_Driver/src/stm32f10x_usart.c ****     assert_param(IS_USART_123_PERIPH(USARTx));
 2207              		.loc 1 792 0
 2208 0072 0B4B     		ldr	r3, .L173
 2209 0074 9D42     		cmp	r5, r3
 2210 0076 0CD0     		beq	.L169
 2211              		.loc 1 792 0 is_stmt 0 discriminator 1
 2212 0078 A3F57443 		sub	r3, r3, #62464
 2213 007c 9D42     		cmp	r5, r3
 2214 007e 08D0     		beq	.L169
 2215              		.loc 1 792 0 discriminator 2
 2216 0080 03F58063 		add	r3, r3, #1024
 2217 0084 9D42     		cmp	r5, r3
 2218 0086 04D0     		beq	.L169
ARM GAS  /var/folders/g9/bbpj86ld7fx45vd1b3pqxmp00000gn/T//ccAXm4kS.s 			page 53


 2219              		.loc 1 792 0 discriminator 3
 2220 0088 4FF44671 		mov	r1, #792
 2221 008c 0548     		ldr	r0, .L173+4
 2222 008e FFF7FEFF 		bl	assert_failed
 2223              	.LVL200:
 2224              	.L169:
 793:STM32F10x_StdPeriph_Driver/src/stm32f10x_usart.c ****   }  
 794:STM32F10x_StdPeriph_Driver/src/stm32f10x_usart.c ****   
 795:STM32F10x_StdPeriph_Driver/src/stm32f10x_usart.c ****   if ((USARTx->SR & USART_FLAG) != (uint16_t)RESET)
 2225              		.loc 1 795 0 is_stmt 1
 2226 0092 2B88     		ldrh	r3, [r5]
 2227 0094 1C42     		tst	r4, r3
 2228 0096 01D0     		beq	.L171
 796:STM32F10x_StdPeriph_Driver/src/stm32f10x_usart.c ****   {
 797:STM32F10x_StdPeriph_Driver/src/stm32f10x_usart.c ****     bitstatus = SET;
 2229              		.loc 1 797 0
 2230 0098 0120     		movs	r0, #1
 2231 009a 38BD     		pop	{r3, r4, r5, pc}
 2232              	.LVL201:
 2233              	.L171:
 798:STM32F10x_StdPeriph_Driver/src/stm32f10x_usart.c ****   }
 799:STM32F10x_StdPeriph_Driver/src/stm32f10x_usart.c ****   else
 800:STM32F10x_StdPeriph_Driver/src/stm32f10x_usart.c ****   {
 801:STM32F10x_StdPeriph_Driver/src/stm32f10x_usart.c ****     bitstatus = RESET;
 2234              		.loc 1 801 0
 2235 009c 0020     		movs	r0, #0
 2236              	.LVL202:
 802:STM32F10x_StdPeriph_Driver/src/stm32f10x_usart.c ****   }
 803:STM32F10x_StdPeriph_Driver/src/stm32f10x_usart.c ****   return bitstatus;
 804:STM32F10x_StdPeriph_Driver/src/stm32f10x_usart.c **** }
 2237              		.loc 1 804 0
 2238 009e 38BD     		pop	{r3, r4, r5, pc}
 2239              	.LVL203:
 2240              	.L174:
 2241              		.align	2
 2242              	.L173:
 2243 00a0 00380140 		.word	1073821696
 2244 00a4 00000000 		.word	.LC0
 2245              		.cfi_endproc
 2246              	.LFE50:
 2248              		.section	.text.USART_ClearFlag,"ax",%progbits
 2249              		.align	2
 2250              		.global	USART_ClearFlag
 2251              		.thumb
 2252              		.thumb_func
 2254              	USART_ClearFlag:
 2255              	.LFB51:
 805:STM32F10x_StdPeriph_Driver/src/stm32f10x_usart.c **** 
 806:STM32F10x_StdPeriph_Driver/src/stm32f10x_usart.c **** /**
 807:STM32F10x_StdPeriph_Driver/src/stm32f10x_usart.c ****   * @brief  Clears the USARTx's pending flags.
 808:STM32F10x_StdPeriph_Driver/src/stm32f10x_usart.c ****   * @param  USARTx: Select the USART or the UART peripheral. 
 809:STM32F10x_StdPeriph_Driver/src/stm32f10x_usart.c ****   *   This parameter can be one of the following values:
 810:STM32F10x_StdPeriph_Driver/src/stm32f10x_usart.c ****   *   USART1, USART2, USART3, UART4 or UART5.
 811:STM32F10x_StdPeriph_Driver/src/stm32f10x_usart.c ****   * @param  USART_FLAG: specifies the flag to clear.
 812:STM32F10x_StdPeriph_Driver/src/stm32f10x_usart.c ****   *   This parameter can be any combination of the following values:
 813:STM32F10x_StdPeriph_Driver/src/stm32f10x_usart.c ****   *     @arg USART_FLAG_CTS:  CTS Change flag (not available for UART4 and UART5).
 814:STM32F10x_StdPeriph_Driver/src/stm32f10x_usart.c ****   *     @arg USART_FLAG_LBD:  LIN Break detection flag.
ARM GAS  /var/folders/g9/bbpj86ld7fx45vd1b3pqxmp00000gn/T//ccAXm4kS.s 			page 54


 815:STM32F10x_StdPeriph_Driver/src/stm32f10x_usart.c ****   *     @arg USART_FLAG_TC:   Transmission Complete flag.
 816:STM32F10x_StdPeriph_Driver/src/stm32f10x_usart.c ****   *     @arg USART_FLAG_RXNE: Receive data register not empty flag.
 817:STM32F10x_StdPeriph_Driver/src/stm32f10x_usart.c ****   *   
 818:STM32F10x_StdPeriph_Driver/src/stm32f10x_usart.c ****   * @note
 819:STM32F10x_StdPeriph_Driver/src/stm32f10x_usart.c ****   *   - PE (Parity error), FE (Framing error), NE (Noise error), ORE (OverRun 
 820:STM32F10x_StdPeriph_Driver/src/stm32f10x_usart.c ****   *     error) and IDLE (Idle line detected) flags are cleared by software 
 821:STM32F10x_StdPeriph_Driver/src/stm32f10x_usart.c ****   *     sequence: a read operation to USART_SR register (USART_GetFlagStatus()) 
 822:STM32F10x_StdPeriph_Driver/src/stm32f10x_usart.c ****   *     followed by a read operation to USART_DR register (USART_ReceiveData()).
 823:STM32F10x_StdPeriph_Driver/src/stm32f10x_usart.c ****   *   - RXNE flag can be also cleared by a read to the USART_DR register 
 824:STM32F10x_StdPeriph_Driver/src/stm32f10x_usart.c ****   *     (USART_ReceiveData()).
 825:STM32F10x_StdPeriph_Driver/src/stm32f10x_usart.c ****   *   - TC flag can be also cleared by software sequence: a read operation to 
 826:STM32F10x_StdPeriph_Driver/src/stm32f10x_usart.c ****   *     USART_SR register (USART_GetFlagStatus()) followed by a write operation
 827:STM32F10x_StdPeriph_Driver/src/stm32f10x_usart.c ****   *     to USART_DR register (USART_SendData()).
 828:STM32F10x_StdPeriph_Driver/src/stm32f10x_usart.c ****   *   - TXE flag is cleared only by a write to the USART_DR register 
 829:STM32F10x_StdPeriph_Driver/src/stm32f10x_usart.c ****   *     (USART_SendData()).
 830:STM32F10x_StdPeriph_Driver/src/stm32f10x_usart.c ****   * @retval None
 831:STM32F10x_StdPeriph_Driver/src/stm32f10x_usart.c ****   */
 832:STM32F10x_StdPeriph_Driver/src/stm32f10x_usart.c **** void USART_ClearFlag(USART_TypeDef* USARTx, uint16_t USART_FLAG)
 833:STM32F10x_StdPeriph_Driver/src/stm32f10x_usart.c **** {
 2256              		.loc 1 833 0
 2257              		.cfi_startproc
 2258              		@ args = 0, pretend = 0, frame = 0
 2259              		@ frame_needed = 0, uses_anonymous_args = 0
 2260              	.LVL204:
 2261 0000 38B5     		push	{r3, r4, r5, lr}
 2262              	.LCFI24:
 2263              		.cfi_def_cfa_offset 16
 2264              		.cfi_offset 3, -16
 2265              		.cfi_offset 4, -12
 2266              		.cfi_offset 5, -8
 2267              		.cfi_offset 14, -4
 2268 0002 0546     		mov	r5, r0
 2269 0004 0C46     		mov	r4, r1
 834:STM32F10x_StdPeriph_Driver/src/stm32f10x_usart.c ****   /* Check the parameters */
 835:STM32F10x_StdPeriph_Driver/src/stm32f10x_usart.c ****   assert_param(IS_USART_ALL_PERIPH(USARTx));
 2270              		.loc 1 835 0
 2271 0006 1D4B     		ldr	r3, .L181
 2272 0008 9842     		cmp	r0, r3
 2273 000a 14D0     		beq	.L176
 2274              		.loc 1 835 0 is_stmt 0 discriminator 1
 2275 000c A3F57443 		sub	r3, r3, #62464
 2276 0010 9842     		cmp	r0, r3
 2277 0012 10D0     		beq	.L176
 2278              		.loc 1 835 0 discriminator 2
 2279 0014 03F58063 		add	r3, r3, #1024
 2280 0018 9842     		cmp	r0, r3
 2281 001a 0CD0     		beq	.L176
 2282              		.loc 1 835 0 discriminator 3
 2283 001c 03F58063 		add	r3, r3, #1024
 2284 0020 9842     		cmp	r0, r3
 2285 0022 08D0     		beq	.L176
 2286              		.loc 1 835 0 discriminator 4
 2287 0024 03F58063 		add	r3, r3, #1024
 2288 0028 9842     		cmp	r0, r3
 2289 002a 04D0     		beq	.L176
 2290              		.loc 1 835 0 discriminator 5
 2291 002c 40F24331 		movw	r1, #835
ARM GAS  /var/folders/g9/bbpj86ld7fx45vd1b3pqxmp00000gn/T//ccAXm4kS.s 			page 55


 2292              	.LVL205:
 2293 0030 1348     		ldr	r0, .L181+4
 2294              	.LVL206:
 2295 0032 FFF7FEFF 		bl	assert_failed
 2296              	.LVL207:
 2297              	.L176:
 836:STM32F10x_StdPeriph_Driver/src/stm32f10x_usart.c ****   assert_param(IS_USART_CLEAR_FLAG(USART_FLAG));
 2298              		.loc 1 836 0 is_stmt 1
 2299 0036 24F45873 		bic	r3, r4, #864
 2300 003a 9BB2     		uxth	r3, r3
 2301 003c 03B9     		cbnz	r3, .L177
 2302              		.loc 1 836 0 is_stmt 0 discriminator 2
 2303 003e 24B9     		cbnz	r4, .L178
 2304              	.L177:
 2305              		.loc 1 836 0 discriminator 3
 2306 0040 4FF45171 		mov	r1, #836
 2307 0044 0E48     		ldr	r0, .L181+4
 2308 0046 FFF7FEFF 		bl	assert_failed
 2309              	.LVL208:
 2310              	.L178:
 837:STM32F10x_StdPeriph_Driver/src/stm32f10x_usart.c ****   /* The CTS flag is not available for UART4 and UART5 */
 838:STM32F10x_StdPeriph_Driver/src/stm32f10x_usart.c ****   if ((USART_FLAG & USART_FLAG_CTS) == USART_FLAG_CTS)
 2311              		.loc 1 838 0 is_stmt 1
 2312 004a 04F40073 		and	r3, r4, #512
 2313 004e 9BB2     		uxth	r3, r3
 2314 0050 7BB1     		cbz	r3, .L179
 839:STM32F10x_StdPeriph_Driver/src/stm32f10x_usart.c ****   {
 840:STM32F10x_StdPeriph_Driver/src/stm32f10x_usart.c ****     assert_param(IS_USART_123_PERIPH(USARTx));
 2315              		.loc 1 840 0
 2316 0052 0A4B     		ldr	r3, .L181
 2317 0054 9D42     		cmp	r5, r3
 2318 0056 0CD0     		beq	.L179
 2319              		.loc 1 840 0 is_stmt 0 discriminator 1
 2320 0058 A3F57443 		sub	r3, r3, #62464
 2321 005c 9D42     		cmp	r5, r3
 2322 005e 08D0     		beq	.L179
 2323              		.loc 1 840 0 discriminator 2
 2324 0060 03F58063 		add	r3, r3, #1024
 2325 0064 9D42     		cmp	r5, r3
 2326 0066 04D0     		beq	.L179
 2327              		.loc 1 840 0 discriminator 3
 2328 0068 4FF45271 		mov	r1, #840
 2329 006c 0448     		ldr	r0, .L181+4
 2330 006e FFF7FEFF 		bl	assert_failed
 2331              	.LVL209:
 2332              	.L179:
 841:STM32F10x_StdPeriph_Driver/src/stm32f10x_usart.c ****   } 
 842:STM32F10x_StdPeriph_Driver/src/stm32f10x_usart.c ****    
 843:STM32F10x_StdPeriph_Driver/src/stm32f10x_usart.c ****   USARTx->SR = (uint16_t)~USART_FLAG;
 2333              		.loc 1 843 0 is_stmt 1
 2334 0072 E443     		mvns	r4, r4
 2335 0074 A4B2     		uxth	r4, r4
 2336 0076 2C80     		strh	r4, [r5]	@ movhi
 2337 0078 38BD     		pop	{r3, r4, r5, pc}
 2338              	.LVL210:
 2339              	.L182:
 2340 007a 00BF     		.align	2
ARM GAS  /var/folders/g9/bbpj86ld7fx45vd1b3pqxmp00000gn/T//ccAXm4kS.s 			page 56


 2341              	.L181:
 2342 007c 00380140 		.word	1073821696
 2343 0080 00000000 		.word	.LC0
 2344              		.cfi_endproc
 2345              	.LFE51:
 2347              		.section	.text.USART_GetITStatus,"ax",%progbits
 2348              		.align	2
 2349              		.global	USART_GetITStatus
 2350              		.thumb
 2351              		.thumb_func
 2353              	USART_GetITStatus:
 2354              	.LFB52:
 844:STM32F10x_StdPeriph_Driver/src/stm32f10x_usart.c **** }
 845:STM32F10x_StdPeriph_Driver/src/stm32f10x_usart.c **** 
 846:STM32F10x_StdPeriph_Driver/src/stm32f10x_usart.c **** /**
 847:STM32F10x_StdPeriph_Driver/src/stm32f10x_usart.c ****   * @brief  Checks whether the specified USART interrupt has occurred or not.
 848:STM32F10x_StdPeriph_Driver/src/stm32f10x_usart.c ****   * @param  USARTx: Select the USART or the UART peripheral. 
 849:STM32F10x_StdPeriph_Driver/src/stm32f10x_usart.c ****   *   This parameter can be one of the following values:
 850:STM32F10x_StdPeriph_Driver/src/stm32f10x_usart.c ****   *   USART1, USART2, USART3, UART4 or UART5.
 851:STM32F10x_StdPeriph_Driver/src/stm32f10x_usart.c ****   * @param  USART_IT: specifies the USART interrupt source to check.
 852:STM32F10x_StdPeriph_Driver/src/stm32f10x_usart.c ****   *   This parameter can be one of the following values:
 853:STM32F10x_StdPeriph_Driver/src/stm32f10x_usart.c ****   *     @arg USART_IT_CTS:  CTS change interrupt (not available for UART4 and UART5)
 854:STM32F10x_StdPeriph_Driver/src/stm32f10x_usart.c ****   *     @arg USART_IT_LBD:  LIN Break detection interrupt
 855:STM32F10x_StdPeriph_Driver/src/stm32f10x_usart.c ****   *     @arg USART_IT_TXE:  Tansmit Data Register empty interrupt
 856:STM32F10x_StdPeriph_Driver/src/stm32f10x_usart.c ****   *     @arg USART_IT_TC:   Transmission complete interrupt
 857:STM32F10x_StdPeriph_Driver/src/stm32f10x_usart.c ****   *     @arg USART_IT_RXNE: Receive Data register not empty interrupt
 858:STM32F10x_StdPeriph_Driver/src/stm32f10x_usart.c ****   *     @arg USART_IT_IDLE: Idle line detection interrupt
 859:STM32F10x_StdPeriph_Driver/src/stm32f10x_usart.c ****   *     @arg USART_IT_ORE:  OverRun Error interrupt
 860:STM32F10x_StdPeriph_Driver/src/stm32f10x_usart.c ****   *     @arg USART_IT_NE:   Noise Error interrupt
 861:STM32F10x_StdPeriph_Driver/src/stm32f10x_usart.c ****   *     @arg USART_IT_FE:   Framing Error interrupt
 862:STM32F10x_StdPeriph_Driver/src/stm32f10x_usart.c ****   *     @arg USART_IT_PE:   Parity Error interrupt
 863:STM32F10x_StdPeriph_Driver/src/stm32f10x_usart.c ****   * @retval The new state of USART_IT (SET or RESET).
 864:STM32F10x_StdPeriph_Driver/src/stm32f10x_usart.c ****   */
 865:STM32F10x_StdPeriph_Driver/src/stm32f10x_usart.c **** ITStatus USART_GetITStatus(USART_TypeDef* USARTx, uint16_t USART_IT)
 866:STM32F10x_StdPeriph_Driver/src/stm32f10x_usart.c **** {
 2355              		.loc 1 866 0
 2356              		.cfi_startproc
 2357              		@ args = 0, pretend = 0, frame = 0
 2358              		@ frame_needed = 0, uses_anonymous_args = 0
 2359              	.LVL211:
 2360 0000 38B5     		push	{r3, r4, r5, lr}
 2361              	.LCFI25:
 2362              		.cfi_def_cfa_offset 16
 2363              		.cfi_offset 3, -16
 2364              		.cfi_offset 4, -12
 2365              		.cfi_offset 5, -8
 2366              		.cfi_offset 14, -4
 2367 0002 0546     		mov	r5, r0
 2368 0004 0C46     		mov	r4, r1
 2369              	.LVL212:
 867:STM32F10x_StdPeriph_Driver/src/stm32f10x_usart.c ****   uint32_t bitpos = 0x00, itmask = 0x00, usartreg = 0x00;
 868:STM32F10x_StdPeriph_Driver/src/stm32f10x_usart.c ****   ITStatus bitstatus = RESET;
 869:STM32F10x_StdPeriph_Driver/src/stm32f10x_usart.c ****   /* Check the parameters */
 870:STM32F10x_StdPeriph_Driver/src/stm32f10x_usart.c ****   assert_param(IS_USART_ALL_PERIPH(USARTx));
 2370              		.loc 1 870 0
 2371 0006 3C4B     		ldr	r3, .L194
 2372 0008 9842     		cmp	r0, r3
ARM GAS  /var/folders/g9/bbpj86ld7fx45vd1b3pqxmp00000gn/T//ccAXm4kS.s 			page 57


 2373 000a 14D0     		beq	.L184
 2374              		.loc 1 870 0 is_stmt 0 discriminator 1
 2375 000c A3F57443 		sub	r3, r3, #62464
 2376 0010 9842     		cmp	r0, r3
 2377 0012 10D0     		beq	.L184
 2378              		.loc 1 870 0 discriminator 2
 2379 0014 03F58063 		add	r3, r3, #1024
 2380 0018 9842     		cmp	r0, r3
 2381 001a 0CD0     		beq	.L184
 2382              		.loc 1 870 0 discriminator 3
 2383 001c 03F58063 		add	r3, r3, #1024
 2384 0020 9842     		cmp	r0, r3
 2385 0022 08D0     		beq	.L184
 2386              		.loc 1 870 0 discriminator 4
 2387 0024 03F58063 		add	r3, r3, #1024
 2388 0028 9842     		cmp	r0, r3
 2389 002a 04D0     		beq	.L184
 2390              		.loc 1 870 0 discriminator 5
 2391 002c 40F26631 		movw	r1, #870
 2392              	.LVL213:
 2393 0030 3248     		ldr	r0, .L194+4
 2394              	.LVL214:
 2395 0032 FFF7FEFF 		bl	assert_failed
 2396              	.LVL215:
 2397              	.L184:
 871:STM32F10x_StdPeriph_Driver/src/stm32f10x_usart.c ****   assert_param(IS_USART_GET_IT(USART_IT));
 2398              		.loc 1 871 0 is_stmt 1
 2399 0036 282C     		cmp	r4, #40
 2400 0038 25D0     		beq	.L185
 2401              		.loc 1 871 0 is_stmt 0 discriminator 1
 2402 003a 40F22773 		movw	r3, #1831
 2403 003e 9C42     		cmp	r4, r3
 2404 0040 21D0     		beq	.L185
 2405              		.loc 1 871 0 discriminator 2
 2406 0042 40F22663 		movw	r3, #1574
 2407 0046 9C42     		cmp	r4, r3
 2408 0048 1DD0     		beq	.L185
 2409              		.loc 1 871 0 discriminator 3
 2410 004a 40F22553 		movw	r3, #1317
 2411 004e 9C42     		cmp	r4, r3
 2412 0050 19D0     		beq	.L185
 2413              		.loc 1 871 0 discriminator 4
 2414 0052 40F22443 		movw	r3, #1060
 2415 0056 9C42     		cmp	r4, r3
 2416 0058 15D0     		beq	.L185
 2417              		.loc 1 871 0 discriminator 5
 2418 005a 40F64603 		movw	r3, #2118
 2419 005e 9C42     		cmp	r4, r3
 2420 0060 11D0     		beq	.L185
 2421              		.loc 1 871 0 discriminator 6
 2422 0062 40F66A13 		movw	r3, #2410
 2423 0066 9C42     		cmp	r4, r3
 2424 0068 0DD0     		beq	.L185
 2425              		.loc 1 871 0 discriminator 7
 2426 006a B4F5587F 		cmp	r4, #864
 2427 006e 0AD0     		beq	.L185
 2428              		.loc 1 871 0 discriminator 8
ARM GAS  /var/folders/g9/bbpj86ld7fx45vd1b3pqxmp00000gn/T//ccAXm4kS.s 			page 58


 2429 0070 B4F5187F 		cmp	r4, #608
 2430 0074 07D0     		beq	.L185
 2431              		.loc 1 871 0 discriminator 9
 2432 0076 B4F5B07F 		cmp	r4, #352
 2433 007a 04D0     		beq	.L185
 2434              		.loc 1 871 0 discriminator 10
 2435 007c 40F26731 		movw	r1, #871
 2436 0080 1E48     		ldr	r0, .L194+4
 2437 0082 FFF7FEFF 		bl	assert_failed
 2438              	.LVL216:
 2439              	.L185:
 872:STM32F10x_StdPeriph_Driver/src/stm32f10x_usart.c ****   /* The CTS interrupt is not available for UART4 and UART5 */ 
 873:STM32F10x_StdPeriph_Driver/src/stm32f10x_usart.c ****   if (USART_IT == USART_IT_CTS)
 2440              		.loc 1 873 0 is_stmt 1
 2441 0086 40F66A13 		movw	r3, #2410
 2442 008a 9C42     		cmp	r4, r3
 2443 008c 0FD1     		bne	.L186
 874:STM32F10x_StdPeriph_Driver/src/stm32f10x_usart.c ****   {
 875:STM32F10x_StdPeriph_Driver/src/stm32f10x_usart.c ****     assert_param(IS_USART_123_PERIPH(USARTx));
 2444              		.loc 1 875 0
 2445 008e 1A4B     		ldr	r3, .L194
 2446 0090 9D42     		cmp	r5, r3
 2447 0092 0CD0     		beq	.L186
 2448              		.loc 1 875 0 is_stmt 0 discriminator 1
 2449 0094 A3F57443 		sub	r3, r3, #62464
 2450 0098 9D42     		cmp	r5, r3
 2451 009a 08D0     		beq	.L186
 2452              		.loc 1 875 0 discriminator 2
 2453 009c 03F58063 		add	r3, r3, #1024
 2454 00a0 9D42     		cmp	r5, r3
 2455 00a2 04D0     		beq	.L186
 2456              		.loc 1 875 0 discriminator 3
 2457 00a4 40F26B31 		movw	r1, #875
 2458 00a8 1448     		ldr	r0, .L194+4
 2459 00aa FFF7FEFF 		bl	assert_failed
 2460              	.LVL217:
 2461              	.L186:
 876:STM32F10x_StdPeriph_Driver/src/stm32f10x_usart.c ****   }   
 877:STM32F10x_StdPeriph_Driver/src/stm32f10x_usart.c ****   
 878:STM32F10x_StdPeriph_Driver/src/stm32f10x_usart.c ****   /* Get the USART register index */
 879:STM32F10x_StdPeriph_Driver/src/stm32f10x_usart.c ****   usartreg = (((uint8_t)USART_IT) >> 0x05);
 2462              		.loc 1 879 0 is_stmt 1
 2463 00ae C4F34212 		ubfx	r2, r4, #5, #3
 2464              	.LVL218:
 880:STM32F10x_StdPeriph_Driver/src/stm32f10x_usart.c ****   /* Get the interrupt position */
 881:STM32F10x_StdPeriph_Driver/src/stm32f10x_usart.c ****   itmask = USART_IT & IT_Mask;
 2465              		.loc 1 881 0
 2466 00b2 04F01F01 		and	r1, r4, #31
 2467              	.LVL219:
 882:STM32F10x_StdPeriph_Driver/src/stm32f10x_usart.c ****   itmask = (uint32_t)0x01 << itmask;
 2468              		.loc 1 882 0
 2469 00b6 0123     		movs	r3, #1
 2470 00b8 8B40     		lsls	r3, r3, r1
 2471              	.LVL220:
 883:STM32F10x_StdPeriph_Driver/src/stm32f10x_usart.c ****   
 884:STM32F10x_StdPeriph_Driver/src/stm32f10x_usart.c ****   if (usartreg == 0x01) /* The IT  is in CR1 register */
 2472              		.loc 1 884 0
ARM GAS  /var/folders/g9/bbpj86ld7fx45vd1b3pqxmp00000gn/T//ccAXm4kS.s 			page 59


 2473 00ba 012A     		cmp	r2, #1
 2474 00bc 03D1     		bne	.L187
 885:STM32F10x_StdPeriph_Driver/src/stm32f10x_usart.c ****   {
 886:STM32F10x_StdPeriph_Driver/src/stm32f10x_usart.c ****     itmask &= USARTx->CR1;
 2475              		.loc 1 886 0
 2476 00be AA89     		ldrh	r2, [r5, #12]
 2477              	.LVL221:
 2478 00c0 92B2     		uxth	r2, r2
 2479 00c2 1340     		ands	r3, r3, r2
 2480              	.LVL222:
 2481 00c4 08E0     		b	.L188
 2482              	.LVL223:
 2483              	.L187:
 887:STM32F10x_StdPeriph_Driver/src/stm32f10x_usart.c ****   }
 888:STM32F10x_StdPeriph_Driver/src/stm32f10x_usart.c ****   else if (usartreg == 0x02) /* The IT  is in CR2 register */
 2484              		.loc 1 888 0
 2485 00c6 022A     		cmp	r2, #2
 2486 00c8 03D1     		bne	.L189
 889:STM32F10x_StdPeriph_Driver/src/stm32f10x_usart.c ****   {
 890:STM32F10x_StdPeriph_Driver/src/stm32f10x_usart.c ****     itmask &= USARTx->CR2;
 2487              		.loc 1 890 0
 2488 00ca 2A8A     		ldrh	r2, [r5, #16]
 2489              	.LVL224:
 2490 00cc 92B2     		uxth	r2, r2
 2491 00ce 1340     		ands	r3, r3, r2
 2492              	.LVL225:
 2493 00d0 02E0     		b	.L188
 2494              	.LVL226:
 2495              	.L189:
 891:STM32F10x_StdPeriph_Driver/src/stm32f10x_usart.c ****   }
 892:STM32F10x_StdPeriph_Driver/src/stm32f10x_usart.c ****   else /* The IT  is in CR3 register */
 893:STM32F10x_StdPeriph_Driver/src/stm32f10x_usart.c ****   {
 894:STM32F10x_StdPeriph_Driver/src/stm32f10x_usart.c ****     itmask &= USARTx->CR3;
 2496              		.loc 1 894 0
 2497 00d2 AA8A     		ldrh	r2, [r5, #20]
 2498              	.LVL227:
 2499 00d4 92B2     		uxth	r2, r2
 2500 00d6 1340     		ands	r3, r3, r2
 2501              	.LVL228:
 2502              	.L188:
 895:STM32F10x_StdPeriph_Driver/src/stm32f10x_usart.c ****   }
 896:STM32F10x_StdPeriph_Driver/src/stm32f10x_usart.c ****   
 897:STM32F10x_StdPeriph_Driver/src/stm32f10x_usart.c ****   bitpos = USART_IT >> 0x08;
 2503              		.loc 1 897 0
 2504 00d8 240A     		lsrs	r4, r4, #8
 2505              	.LVL229:
 898:STM32F10x_StdPeriph_Driver/src/stm32f10x_usart.c ****   bitpos = (uint32_t)0x01 << bitpos;
 2506              		.loc 1 898 0
 2507 00da 0122     		movs	r2, #1
 2508 00dc 02FA04F4 		lsl	r4, r2, r4
 2509              	.LVL230:
 899:STM32F10x_StdPeriph_Driver/src/stm32f10x_usart.c ****   bitpos &= USARTx->SR;
 2510              		.loc 1 899 0
 2511 00e0 2A88     		ldrh	r2, [r5]
 2512 00e2 92B2     		uxth	r2, r2
 2513 00e4 1440     		ands	r4, r4, r2
 2514              	.LVL231:
ARM GAS  /var/folders/g9/bbpj86ld7fx45vd1b3pqxmp00000gn/T//ccAXm4kS.s 			page 60


 900:STM32F10x_StdPeriph_Driver/src/stm32f10x_usart.c ****   if ((itmask != (uint16_t)RESET)&&(bitpos != (uint16_t)RESET))
 2515              		.loc 1 900 0
 2516 00e6 13B1     		cbz	r3, .L191
 2517              		.loc 1 900 0 is_stmt 0 discriminator 1
 2518 00e8 1CB9     		cbnz	r4, .L192
 901:STM32F10x_StdPeriph_Driver/src/stm32f10x_usart.c ****   {
 902:STM32F10x_StdPeriph_Driver/src/stm32f10x_usart.c ****     bitstatus = SET;
 903:STM32F10x_StdPeriph_Driver/src/stm32f10x_usart.c ****   }
 904:STM32F10x_StdPeriph_Driver/src/stm32f10x_usart.c ****   else
 905:STM32F10x_StdPeriph_Driver/src/stm32f10x_usart.c ****   {
 906:STM32F10x_StdPeriph_Driver/src/stm32f10x_usart.c ****     bitstatus = RESET;
 2519              		.loc 1 906 0 is_stmt 1
 2520 00ea 0020     		movs	r0, #0
 2521 00ec 38BD     		pop	{r3, r4, r5, pc}
 2522              	.LVL232:
 2523              	.L191:
 2524 00ee 0020     		movs	r0, #0
 2525 00f0 38BD     		pop	{r3, r4, r5, pc}
 2526              	.LVL233:
 2527              	.L192:
 902:STM32F10x_StdPeriph_Driver/src/stm32f10x_usart.c ****   }
 2528              		.loc 1 902 0
 2529 00f2 0120     		movs	r0, #1
 2530              	.LVL234:
 907:STM32F10x_StdPeriph_Driver/src/stm32f10x_usart.c ****   }
 908:STM32F10x_StdPeriph_Driver/src/stm32f10x_usart.c ****   
 909:STM32F10x_StdPeriph_Driver/src/stm32f10x_usart.c ****   return bitstatus;  
 910:STM32F10x_StdPeriph_Driver/src/stm32f10x_usart.c **** }
 2531              		.loc 1 910 0
 2532 00f4 38BD     		pop	{r3, r4, r5, pc}
 2533              	.LVL235:
 2534              	.L195:
 2535 00f6 00BF     		.align	2
 2536              	.L194:
 2537 00f8 00380140 		.word	1073821696
 2538 00fc 00000000 		.word	.LC0
 2539              		.cfi_endproc
 2540              	.LFE52:
 2542              		.section	.text.USART_ClearITPendingBit,"ax",%progbits
 2543              		.align	2
 2544              		.global	USART_ClearITPendingBit
 2545              		.thumb
 2546              		.thumb_func
 2548              	USART_ClearITPendingBit:
 2549              	.LFB53:
 911:STM32F10x_StdPeriph_Driver/src/stm32f10x_usart.c **** 
 912:STM32F10x_StdPeriph_Driver/src/stm32f10x_usart.c **** /**
 913:STM32F10x_StdPeriph_Driver/src/stm32f10x_usart.c ****   * @brief  Clears the USARTxs interrupt pending bits.
 914:STM32F10x_StdPeriph_Driver/src/stm32f10x_usart.c ****   * @param  USARTx: Select the USART or the UART peripheral. 
 915:STM32F10x_StdPeriph_Driver/src/stm32f10x_usart.c ****   *   This parameter can be one of the following values:
 916:STM32F10x_StdPeriph_Driver/src/stm32f10x_usart.c ****   *   USART1, USART2, USART3, UART4 or UART5.
 917:STM32F10x_StdPeriph_Driver/src/stm32f10x_usart.c ****   * @param  USART_IT: specifies the interrupt pending bit to clear.
 918:STM32F10x_StdPeriph_Driver/src/stm32f10x_usart.c ****   *   This parameter can be one of the following values:
 919:STM32F10x_StdPeriph_Driver/src/stm32f10x_usart.c ****   *     @arg USART_IT_CTS:  CTS change interrupt (not available for UART4 and UART5)
 920:STM32F10x_StdPeriph_Driver/src/stm32f10x_usart.c ****   *     @arg USART_IT_LBD:  LIN Break detection interrupt
 921:STM32F10x_StdPeriph_Driver/src/stm32f10x_usart.c ****   *     @arg USART_IT_TC:   Transmission complete interrupt. 
 922:STM32F10x_StdPeriph_Driver/src/stm32f10x_usart.c ****   *     @arg USART_IT_RXNE: Receive Data register not empty interrupt.
ARM GAS  /var/folders/g9/bbpj86ld7fx45vd1b3pqxmp00000gn/T//ccAXm4kS.s 			page 61


 923:STM32F10x_StdPeriph_Driver/src/stm32f10x_usart.c ****   *   
 924:STM32F10x_StdPeriph_Driver/src/stm32f10x_usart.c ****   * @note
 925:STM32F10x_StdPeriph_Driver/src/stm32f10x_usart.c ****   *   - PE (Parity error), FE (Framing error), NE (Noise error), ORE (OverRun 
 926:STM32F10x_StdPeriph_Driver/src/stm32f10x_usart.c ****   *     error) and IDLE (Idle line detected) pending bits are cleared by 
 927:STM32F10x_StdPeriph_Driver/src/stm32f10x_usart.c ****   *     software sequence: a read operation to USART_SR register 
 928:STM32F10x_StdPeriph_Driver/src/stm32f10x_usart.c ****   *     (USART_GetITStatus()) followed by a read operation to USART_DR register 
 929:STM32F10x_StdPeriph_Driver/src/stm32f10x_usart.c ****   *     (USART_ReceiveData()).
 930:STM32F10x_StdPeriph_Driver/src/stm32f10x_usart.c ****   *   - RXNE pending bit can be also cleared by a read to the USART_DR register 
 931:STM32F10x_StdPeriph_Driver/src/stm32f10x_usart.c ****   *     (USART_ReceiveData()).
 932:STM32F10x_StdPeriph_Driver/src/stm32f10x_usart.c ****   *   - TC pending bit can be also cleared by software sequence: a read 
 933:STM32F10x_StdPeriph_Driver/src/stm32f10x_usart.c ****   *     operation to USART_SR register (USART_GetITStatus()) followed by a write 
 934:STM32F10x_StdPeriph_Driver/src/stm32f10x_usart.c ****   *     operation to USART_DR register (USART_SendData()).
 935:STM32F10x_StdPeriph_Driver/src/stm32f10x_usart.c ****   *   - TXE pending bit is cleared only by a write to the USART_DR register 
 936:STM32F10x_StdPeriph_Driver/src/stm32f10x_usart.c ****   *     (USART_SendData()).
 937:STM32F10x_StdPeriph_Driver/src/stm32f10x_usart.c ****   * @retval None
 938:STM32F10x_StdPeriph_Driver/src/stm32f10x_usart.c ****   */
 939:STM32F10x_StdPeriph_Driver/src/stm32f10x_usart.c **** void USART_ClearITPendingBit(USART_TypeDef* USARTx, uint16_t USART_IT)
 940:STM32F10x_StdPeriph_Driver/src/stm32f10x_usart.c **** {
 2550              		.loc 1 940 0
 2551              		.cfi_startproc
 2552              		@ args = 0, pretend = 0, frame = 0
 2553              		@ frame_needed = 0, uses_anonymous_args = 0
 2554              	.LVL236:
 2555 0000 38B5     		push	{r3, r4, r5, lr}
 2556              	.LCFI26:
 2557              		.cfi_def_cfa_offset 16
 2558              		.cfi_offset 3, -16
 2559              		.cfi_offset 4, -12
 2560              		.cfi_offset 5, -8
 2561              		.cfi_offset 14, -4
 2562 0002 0546     		mov	r5, r0
 2563 0004 0C46     		mov	r4, r1
 2564              	.LVL237:
 941:STM32F10x_StdPeriph_Driver/src/stm32f10x_usart.c ****   uint16_t bitpos = 0x00, itmask = 0x00;
 942:STM32F10x_StdPeriph_Driver/src/stm32f10x_usart.c ****   /* Check the parameters */
 943:STM32F10x_StdPeriph_Driver/src/stm32f10x_usart.c ****   assert_param(IS_USART_ALL_PERIPH(USARTx));
 2565              		.loc 1 943 0
 2566 0006 244B     		ldr	r3, .L201
 2567 0008 9842     		cmp	r0, r3
 2568 000a 14D0     		beq	.L197
 2569              		.loc 1 943 0 is_stmt 0 discriminator 1
 2570 000c A3F57443 		sub	r3, r3, #62464
 2571 0010 9842     		cmp	r0, r3
 2572 0012 10D0     		beq	.L197
 2573              		.loc 1 943 0 discriminator 2
 2574 0014 03F58063 		add	r3, r3, #1024
 2575 0018 9842     		cmp	r0, r3
 2576 001a 0CD0     		beq	.L197
 2577              		.loc 1 943 0 discriminator 3
 2578 001c 03F58063 		add	r3, r3, #1024
 2579 0020 9842     		cmp	r0, r3
 2580 0022 08D0     		beq	.L197
 2581              		.loc 1 943 0 discriminator 4
 2582 0024 03F58063 		add	r3, r3, #1024
 2583 0028 9842     		cmp	r0, r3
 2584 002a 04D0     		beq	.L197
 2585              		.loc 1 943 0 discriminator 5
ARM GAS  /var/folders/g9/bbpj86ld7fx45vd1b3pqxmp00000gn/T//ccAXm4kS.s 			page 62


 2586 002c 40F2AF31 		movw	r1, #943
 2587              	.LVL238:
 2588 0030 1A48     		ldr	r0, .L201+4
 2589              	.LVL239:
 2590 0032 FFF7FEFF 		bl	assert_failed
 2591              	.LVL240:
 2592              	.L197:
 944:STM32F10x_StdPeriph_Driver/src/stm32f10x_usart.c ****   assert_param(IS_USART_CLEAR_IT(USART_IT));
 2593              		.loc 1 944 0 is_stmt 1
 2594 0036 40F22663 		movw	r3, #1574
 2595 003a 9C42     		cmp	r4, r3
 2596 003c 10D0     		beq	.L198
 2597              		.loc 1 944 0 is_stmt 0 discriminator 1
 2598 003e 40F22553 		movw	r3, #1317
 2599 0042 9C42     		cmp	r4, r3
 2600 0044 0CD0     		beq	.L198
 2601              		.loc 1 944 0 discriminator 2
 2602 0046 40F64603 		movw	r3, #2118
 2603 004a 9C42     		cmp	r4, r3
 2604 004c 08D0     		beq	.L198
 2605              		.loc 1 944 0 discriminator 3
 2606 004e 40F66A13 		movw	r3, #2410
 2607 0052 9C42     		cmp	r4, r3
 2608 0054 04D0     		beq	.L198
 2609              		.loc 1 944 0 discriminator 4
 2610 0056 4FF46C71 		mov	r1, #944
 2611 005a 1048     		ldr	r0, .L201+4
 2612 005c FFF7FEFF 		bl	assert_failed
 2613              	.LVL241:
 2614              	.L198:
 945:STM32F10x_StdPeriph_Driver/src/stm32f10x_usart.c ****   /* The CTS interrupt is not available for UART4 and UART5 */
 946:STM32F10x_StdPeriph_Driver/src/stm32f10x_usart.c ****   if (USART_IT == USART_IT_CTS)
 2615              		.loc 1 946 0 is_stmt 1
 2616 0060 40F66A13 		movw	r3, #2410
 2617 0064 9C42     		cmp	r4, r3
 2618 0066 0FD1     		bne	.L199
 947:STM32F10x_StdPeriph_Driver/src/stm32f10x_usart.c ****   {
 948:STM32F10x_StdPeriph_Driver/src/stm32f10x_usart.c ****     assert_param(IS_USART_123_PERIPH(USARTx));
 2619              		.loc 1 948 0
 2620 0068 0B4B     		ldr	r3, .L201
 2621 006a 9D42     		cmp	r5, r3
 2622 006c 0CD0     		beq	.L199
 2623              		.loc 1 948 0 is_stmt 0 discriminator 1
 2624 006e A3F57443 		sub	r3, r3, #62464
 2625 0072 9D42     		cmp	r5, r3
 2626 0074 08D0     		beq	.L199
 2627              		.loc 1 948 0 discriminator 2
 2628 0076 03F58063 		add	r3, r3, #1024
 2629 007a 9D42     		cmp	r5, r3
 2630 007c 04D0     		beq	.L199
 2631              		.loc 1 948 0 discriminator 3
 2632 007e 4FF46D71 		mov	r1, #948
 2633 0082 0648     		ldr	r0, .L201+4
 2634 0084 FFF7FEFF 		bl	assert_failed
 2635              	.LVL242:
 2636              	.L199:
 949:STM32F10x_StdPeriph_Driver/src/stm32f10x_usart.c ****   }   
ARM GAS  /var/folders/g9/bbpj86ld7fx45vd1b3pqxmp00000gn/T//ccAXm4kS.s 			page 63


 950:STM32F10x_StdPeriph_Driver/src/stm32f10x_usart.c ****   
 951:STM32F10x_StdPeriph_Driver/src/stm32f10x_usart.c ****   bitpos = USART_IT >> 0x08;
 2637              		.loc 1 951 0 is_stmt 1
 2638 0088 240A     		lsrs	r4, r4, #8
 2639              	.LVL243:
 952:STM32F10x_StdPeriph_Driver/src/stm32f10x_usart.c ****   itmask = ((uint16_t)0x01 << (uint16_t)bitpos);
 2640              		.loc 1 952 0
 2641 008a 0123     		movs	r3, #1
 2642 008c A340     		lsls	r3, r3, r4
 2643 008e 9BB2     		uxth	r3, r3
 2644              	.LVL244:
 953:STM32F10x_StdPeriph_Driver/src/stm32f10x_usart.c ****   USARTx->SR = (uint16_t)~itmask;
 2645              		.loc 1 953 0
 2646 0090 DB43     		mvns	r3, r3
 2647              	.LVL245:
 2648 0092 9BB2     		uxth	r3, r3
 2649              	.LVL246:
 2650 0094 2B80     		strh	r3, [r5]	@ movhi
 2651 0096 38BD     		pop	{r3, r4, r5, pc}
 2652              	.LVL247:
 2653              	.L202:
 2654              		.align	2
 2655              	.L201:
 2656 0098 00380140 		.word	1073821696
 2657 009c 00000000 		.word	.LC0
 2658              		.cfi_endproc
 2659              	.LFE53:
 2661              		.section	.rodata.str1.4,"aMS",%progbits,1
 2662              		.align	2
 2663              	.LC0:
 2664 0000 53544D33 		.ascii	"STM32F10x_StdPeriph_Driver/src/stm32f10x_usart.c\000"
 2664      32463130 
 2664      785F5374 
 2664      64506572 
 2664      6970685F 
 2665              		.text
 2666              	.Letext0:
 2667              		.file 2 "/usr/local/Cellar/gcc-arm-none-eabi/20160926/arm-none-eabi/include/machine/_default_types
 2668              		.file 3 "/usr/local/Cellar/gcc-arm-none-eabi/20160926/arm-none-eabi/include/sys/_stdint.h"
 2669              		.file 4 "CMSIS/Core/CM3/stm32f10x.h"
 2670              		.file 5 "STM32F10x_StdPeriph_Driver/inc/stm32f10x_rcc.h"
 2671              		.file 6 "STM32F10x_StdPeriph_Driver/inc/stm32f10x_usart.h"
 2672              		.file 7 "Inc/stm32f10x_conf.h"
ARM GAS  /var/folders/g9/bbpj86ld7fx45vd1b3pqxmp00000gn/T//ccAXm4kS.s 			page 64

