ARM GAS  /var/folders/g9/bbpj86ld7fx45vd1b3pqxmp00000gn/T//ccXBJrXf.s 			page 1


   1              		.syntax unified
   2              		.cpu cortex-m3
   3              		.fpu softvfp
   4              		.eabi_attribute 20, 1
   5              		.eabi_attribute 21, 1
   6              		.eabi_attribute 23, 3
   7              		.eabi_attribute 24, 1
   8              		.eabi_attribute 25, 1
   9              		.eabi_attribute 26, 1
  10              		.eabi_attribute 30, 1
  11              		.eabi_attribute 34, 1
  12              		.eabi_attribute 18, 4
  13              		.thumb
  14              		.syntax unified
  15              		.file	"stm32f10x_can.c"
  16              		.text
  17              	.Ltext0:
  18              		.cfi_sections	.debug_frame
  19              		.section	.text.CheckITStatus,"ax",%progbits
  20              		.align	2
  21              		.thumb
  22              		.thumb_func
  24              	CheckITStatus:
  25              	.LFB46:
  26              		.file 1 "STM32F10x_StdPeriph_Driver/src/stm32f10x_can.c"
   1:STM32F10x_StdPeriph_Driver/src/stm32f10x_can.c **** /**
   2:STM32F10x_StdPeriph_Driver/src/stm32f10x_can.c ****   ******************************************************************************
   3:STM32F10x_StdPeriph_Driver/src/stm32f10x_can.c ****   * @file    stm32f10x_can.c
   4:STM32F10x_StdPeriph_Driver/src/stm32f10x_can.c ****   * @author  MCD Application Team
   5:STM32F10x_StdPeriph_Driver/src/stm32f10x_can.c ****   * @version V3.1.2
   6:STM32F10x_StdPeriph_Driver/src/stm32f10x_can.c ****   * @date    09/28/2009
   7:STM32F10x_StdPeriph_Driver/src/stm32f10x_can.c ****   * @brief   This file provides all the CAN firmware functions.
   8:STM32F10x_StdPeriph_Driver/src/stm32f10x_can.c ****   ******************************************************************************
   9:STM32F10x_StdPeriph_Driver/src/stm32f10x_can.c ****   * @copy
  10:STM32F10x_StdPeriph_Driver/src/stm32f10x_can.c ****   *
  11:STM32F10x_StdPeriph_Driver/src/stm32f10x_can.c ****   * THE PRESENT FIRMWARE WHICH IS FOR GUIDANCE ONLY AIMS AT PROVIDING CUSTOMERS
  12:STM32F10x_StdPeriph_Driver/src/stm32f10x_can.c ****   * WITH CODING INFORMATION REGARDING THEIR PRODUCTS IN ORDER FOR THEM TO SAVE
  13:STM32F10x_StdPeriph_Driver/src/stm32f10x_can.c ****   * TIME. AS A RESULT, STMICROELECTRONICS SHALL NOT BE HELD LIABLE FOR ANY
  14:STM32F10x_StdPeriph_Driver/src/stm32f10x_can.c ****   * DIRECT, INDIRECT OR CONSEQUENTIAL DAMAGES WITH RESPECT TO ANY CLAIMS ARISING
  15:STM32F10x_StdPeriph_Driver/src/stm32f10x_can.c ****   * FROM THE CONTENT OF SUCH FIRMWARE AND/OR THE USE MADE BY CUSTOMERS OF THE
  16:STM32F10x_StdPeriph_Driver/src/stm32f10x_can.c ****   * CODING INFORMATION CONTAINED HEREIN IN CONNECTION WITH THEIR PRODUCTS.
  17:STM32F10x_StdPeriph_Driver/src/stm32f10x_can.c ****   *
  18:STM32F10x_StdPeriph_Driver/src/stm32f10x_can.c ****   * <h2><center>&copy; COPYRIGHT 2009 STMicroelectronics</center></h2>
  19:STM32F10x_StdPeriph_Driver/src/stm32f10x_can.c ****   */ 
  20:STM32F10x_StdPeriph_Driver/src/stm32f10x_can.c **** 
  21:STM32F10x_StdPeriph_Driver/src/stm32f10x_can.c **** /* Includes ------------------------------------------------------------------*/
  22:STM32F10x_StdPeriph_Driver/src/stm32f10x_can.c **** #include "stm32f10x_can.h"
  23:STM32F10x_StdPeriph_Driver/src/stm32f10x_can.c **** #include "stm32f10x_rcc.h"
  24:STM32F10x_StdPeriph_Driver/src/stm32f10x_can.c **** 
  25:STM32F10x_StdPeriph_Driver/src/stm32f10x_can.c **** /** @addtogroup STM32F10x_StdPeriph_Driver
  26:STM32F10x_StdPeriph_Driver/src/stm32f10x_can.c ****   * @{
  27:STM32F10x_StdPeriph_Driver/src/stm32f10x_can.c ****   */
  28:STM32F10x_StdPeriph_Driver/src/stm32f10x_can.c **** 
  29:STM32F10x_StdPeriph_Driver/src/stm32f10x_can.c **** /** @defgroup CAN 
  30:STM32F10x_StdPeriph_Driver/src/stm32f10x_can.c ****   * @brief CAN driver modules
  31:STM32F10x_StdPeriph_Driver/src/stm32f10x_can.c ****   * @{
  32:STM32F10x_StdPeriph_Driver/src/stm32f10x_can.c ****   */ 
ARM GAS  /var/folders/g9/bbpj86ld7fx45vd1b3pqxmp00000gn/T//ccXBJrXf.s 			page 2


  33:STM32F10x_StdPeriph_Driver/src/stm32f10x_can.c **** 
  34:STM32F10x_StdPeriph_Driver/src/stm32f10x_can.c **** /** @defgroup CAN_Private_TypesDefinitions
  35:STM32F10x_StdPeriph_Driver/src/stm32f10x_can.c ****   * @{
  36:STM32F10x_StdPeriph_Driver/src/stm32f10x_can.c ****   */
  37:STM32F10x_StdPeriph_Driver/src/stm32f10x_can.c **** 
  38:STM32F10x_StdPeriph_Driver/src/stm32f10x_can.c **** /**
  39:STM32F10x_StdPeriph_Driver/src/stm32f10x_can.c ****   * @}
  40:STM32F10x_StdPeriph_Driver/src/stm32f10x_can.c ****   */
  41:STM32F10x_StdPeriph_Driver/src/stm32f10x_can.c **** 
  42:STM32F10x_StdPeriph_Driver/src/stm32f10x_can.c **** /** @defgroup CAN_Private_Defines
  43:STM32F10x_StdPeriph_Driver/src/stm32f10x_can.c ****   * @{
  44:STM32F10x_StdPeriph_Driver/src/stm32f10x_can.c ****   */
  45:STM32F10x_StdPeriph_Driver/src/stm32f10x_can.c **** 
  46:STM32F10x_StdPeriph_Driver/src/stm32f10x_can.c **** /* CAN Master Control Register bits */
  47:STM32F10x_StdPeriph_Driver/src/stm32f10x_can.c **** #define MCR_INRQ     ((uint32_t)0x00000001) /* Initialization request */
  48:STM32F10x_StdPeriph_Driver/src/stm32f10x_can.c **** #define MCR_SLEEP    ((uint32_t)0x00000002) /* Sleep mode request */
  49:STM32F10x_StdPeriph_Driver/src/stm32f10x_can.c **** #define MCR_TXFP     ((uint32_t)0x00000004) /* Transmit FIFO priority */
  50:STM32F10x_StdPeriph_Driver/src/stm32f10x_can.c **** #define MCR_RFLM     ((uint32_t)0x00000008) /* Receive FIFO locked mode */
  51:STM32F10x_StdPeriph_Driver/src/stm32f10x_can.c **** #define MCR_NART     ((uint32_t)0x00000010) /* No automatic retransmission */
  52:STM32F10x_StdPeriph_Driver/src/stm32f10x_can.c **** #define MCR_AWUM     ((uint32_t)0x00000020) /* Automatic wake up mode */
  53:STM32F10x_StdPeriph_Driver/src/stm32f10x_can.c **** #define MCR_ABOM     ((uint32_t)0x00000040) /* Automatic bus-off management */
  54:STM32F10x_StdPeriph_Driver/src/stm32f10x_can.c **** #define MCR_TTCM     ((uint32_t)0x00000080) /* time triggered communication */
  55:STM32F10x_StdPeriph_Driver/src/stm32f10x_can.c **** #define MCR_RESET    ((uint32_t)0x00008000) /* time triggered communication */
  56:STM32F10x_StdPeriph_Driver/src/stm32f10x_can.c **** #define MCR_DBF      ((uint32_t)0x00010000) /* software master reset */
  57:STM32F10x_StdPeriph_Driver/src/stm32f10x_can.c **** 
  58:STM32F10x_StdPeriph_Driver/src/stm32f10x_can.c **** /* CAN Master Status Register bits */
  59:STM32F10x_StdPeriph_Driver/src/stm32f10x_can.c **** #define MSR_INAK     ((uint32_t)0x00000001)    /* Initialization acknowledge */
  60:STM32F10x_StdPeriph_Driver/src/stm32f10x_can.c **** #define MSR_WKUI     ((uint32_t)0x00000008)    /* Wake-up interrupt */
  61:STM32F10x_StdPeriph_Driver/src/stm32f10x_can.c **** #define MSR_SLAKI    ((uint32_t)0x00000010)    /* Sleep acknowledge interrupt */
  62:STM32F10x_StdPeriph_Driver/src/stm32f10x_can.c **** 
  63:STM32F10x_StdPeriph_Driver/src/stm32f10x_can.c **** /* CAN Transmit Status Register bits */
  64:STM32F10x_StdPeriph_Driver/src/stm32f10x_can.c **** #define TSR_RQCP0    ((uint32_t)0x00000001)    /* Request completed mailbox0 */
  65:STM32F10x_StdPeriph_Driver/src/stm32f10x_can.c **** #define TSR_TXOK0    ((uint32_t)0x00000002)    /* Transmission OK of mailbox0 */
  66:STM32F10x_StdPeriph_Driver/src/stm32f10x_can.c **** #define TSR_ABRQ0    ((uint32_t)0x00000080)    /* Abort request for mailbox0 */
  67:STM32F10x_StdPeriph_Driver/src/stm32f10x_can.c **** #define TSR_RQCP1    ((uint32_t)0x00000100)    /* Request completed mailbox1 */
  68:STM32F10x_StdPeriph_Driver/src/stm32f10x_can.c **** #define TSR_TXOK1    ((uint32_t)0x00000200)    /* Transmission OK of mailbox1 */
  69:STM32F10x_StdPeriph_Driver/src/stm32f10x_can.c **** #define TSR_ABRQ1    ((uint32_t)0x00008000)    /* Abort request for mailbox1 */
  70:STM32F10x_StdPeriph_Driver/src/stm32f10x_can.c **** #define TSR_RQCP2    ((uint32_t)0x00010000)    /* Request completed mailbox2 */
  71:STM32F10x_StdPeriph_Driver/src/stm32f10x_can.c **** #define TSR_TXOK2    ((uint32_t)0x00020000)    /* Transmission OK of mailbox2 */
  72:STM32F10x_StdPeriph_Driver/src/stm32f10x_can.c **** #define TSR_ABRQ2    ((uint32_t)0x00800000)    /* Abort request for mailbox2 */
  73:STM32F10x_StdPeriph_Driver/src/stm32f10x_can.c **** #define TSR_TME0     ((uint32_t)0x04000000)    /* Transmit mailbox 0 empty */
  74:STM32F10x_StdPeriph_Driver/src/stm32f10x_can.c **** #define TSR_TME1     ((uint32_t)0x08000000)    /* Transmit mailbox 1 empty */
  75:STM32F10x_StdPeriph_Driver/src/stm32f10x_can.c **** #define TSR_TME2     ((uint32_t)0x10000000)    /* Transmit mailbox 2 empty */
  76:STM32F10x_StdPeriph_Driver/src/stm32f10x_can.c **** 
  77:STM32F10x_StdPeriph_Driver/src/stm32f10x_can.c **** /* CAN Receive FIFO 0 Register bits */
  78:STM32F10x_StdPeriph_Driver/src/stm32f10x_can.c **** #define RF0R_FULL0   ((uint32_t)0x00000008)    /* FIFO 0 full */
  79:STM32F10x_StdPeriph_Driver/src/stm32f10x_can.c **** #define RF0R_FOVR0   ((uint32_t)0x00000010)    /* FIFO 0 overrun */
  80:STM32F10x_StdPeriph_Driver/src/stm32f10x_can.c **** #define RF0R_RFOM0   ((uint32_t)0x00000020)    /* Release FIFO 0 output mailbox */
  81:STM32F10x_StdPeriph_Driver/src/stm32f10x_can.c **** 
  82:STM32F10x_StdPeriph_Driver/src/stm32f10x_can.c **** /* CAN Receive FIFO 1 Register bits */
  83:STM32F10x_StdPeriph_Driver/src/stm32f10x_can.c **** #define RF1R_FULL1   ((uint32_t)0x00000008)    /* FIFO 1 full */
  84:STM32F10x_StdPeriph_Driver/src/stm32f10x_can.c **** #define RF1R_FOVR1   ((uint32_t)0x00000010)    /* FIFO 1 overrun */
  85:STM32F10x_StdPeriph_Driver/src/stm32f10x_can.c **** #define RF1R_RFOM1   ((uint32_t)0x00000020)    /* Release FIFO 1 output mailbox */
  86:STM32F10x_StdPeriph_Driver/src/stm32f10x_can.c **** 
  87:STM32F10x_StdPeriph_Driver/src/stm32f10x_can.c **** /* CAN Error Status Register bits */
  88:STM32F10x_StdPeriph_Driver/src/stm32f10x_can.c **** #define ESR_EWGF     ((uint32_t)0x00000001)    /* Error warning flag */
  89:STM32F10x_StdPeriph_Driver/src/stm32f10x_can.c **** #define ESR_EPVF     ((uint32_t)0x00000002)    /* Error passive flag */
ARM GAS  /var/folders/g9/bbpj86ld7fx45vd1b3pqxmp00000gn/T//ccXBJrXf.s 			page 3


  90:STM32F10x_StdPeriph_Driver/src/stm32f10x_can.c **** #define ESR_BOFF     ((uint32_t)0x00000004)    /* Bus-off flag */
  91:STM32F10x_StdPeriph_Driver/src/stm32f10x_can.c **** 
  92:STM32F10x_StdPeriph_Driver/src/stm32f10x_can.c **** /* CAN Mailbox Transmit Request */
  93:STM32F10x_StdPeriph_Driver/src/stm32f10x_can.c **** #define TMIDxR_TXRQ  ((uint32_t)0x00000001) /* Transmit mailbox request */
  94:STM32F10x_StdPeriph_Driver/src/stm32f10x_can.c **** 
  95:STM32F10x_StdPeriph_Driver/src/stm32f10x_can.c **** /* CAN Filter Master Register bits */
  96:STM32F10x_StdPeriph_Driver/src/stm32f10x_can.c **** #define FMR_FINIT    ((uint32_t)0x00000001) /* Filter init mode */
  97:STM32F10x_StdPeriph_Driver/src/stm32f10x_can.c **** 
  98:STM32F10x_StdPeriph_Driver/src/stm32f10x_can.c **** /* Time out for INAK bit */
  99:STM32F10x_StdPeriph_Driver/src/stm32f10x_can.c **** #define INAK_TimeOut        ((uint32_t)0x0000FFFF)
 100:STM32F10x_StdPeriph_Driver/src/stm32f10x_can.c **** 
 101:STM32F10x_StdPeriph_Driver/src/stm32f10x_can.c **** /* Time out for SLAK bit */
 102:STM32F10x_StdPeriph_Driver/src/stm32f10x_can.c **** #define SLAK_TimeOut        ((uint32_t)0x0000FFFF)
 103:STM32F10x_StdPeriph_Driver/src/stm32f10x_can.c **** 
 104:STM32F10x_StdPeriph_Driver/src/stm32f10x_can.c **** /**
 105:STM32F10x_StdPeriph_Driver/src/stm32f10x_can.c ****   * @}
 106:STM32F10x_StdPeriph_Driver/src/stm32f10x_can.c ****   */
 107:STM32F10x_StdPeriph_Driver/src/stm32f10x_can.c **** 
 108:STM32F10x_StdPeriph_Driver/src/stm32f10x_can.c **** /** @defgroup CAN_Private_Macros
 109:STM32F10x_StdPeriph_Driver/src/stm32f10x_can.c ****   * @{
 110:STM32F10x_StdPeriph_Driver/src/stm32f10x_can.c ****   */
 111:STM32F10x_StdPeriph_Driver/src/stm32f10x_can.c **** 
 112:STM32F10x_StdPeriph_Driver/src/stm32f10x_can.c **** /**
 113:STM32F10x_StdPeriph_Driver/src/stm32f10x_can.c ****   * @}
 114:STM32F10x_StdPeriph_Driver/src/stm32f10x_can.c ****   */
 115:STM32F10x_StdPeriph_Driver/src/stm32f10x_can.c **** 
 116:STM32F10x_StdPeriph_Driver/src/stm32f10x_can.c **** /** @defgroup CAN_Private_Variables
 117:STM32F10x_StdPeriph_Driver/src/stm32f10x_can.c ****   * @{
 118:STM32F10x_StdPeriph_Driver/src/stm32f10x_can.c ****   */
 119:STM32F10x_StdPeriph_Driver/src/stm32f10x_can.c **** 
 120:STM32F10x_StdPeriph_Driver/src/stm32f10x_can.c **** /**
 121:STM32F10x_StdPeriph_Driver/src/stm32f10x_can.c ****   * @}
 122:STM32F10x_StdPeriph_Driver/src/stm32f10x_can.c ****   */
 123:STM32F10x_StdPeriph_Driver/src/stm32f10x_can.c **** 
 124:STM32F10x_StdPeriph_Driver/src/stm32f10x_can.c **** /** @defgroup CAN_Private_FunctionPrototypes
 125:STM32F10x_StdPeriph_Driver/src/stm32f10x_can.c ****   * @{
 126:STM32F10x_StdPeriph_Driver/src/stm32f10x_can.c ****   */
 127:STM32F10x_StdPeriph_Driver/src/stm32f10x_can.c **** 
 128:STM32F10x_StdPeriph_Driver/src/stm32f10x_can.c **** static ITStatus CheckITStatus(uint32_t CAN_Reg, uint32_t It_Bit);
 129:STM32F10x_StdPeriph_Driver/src/stm32f10x_can.c **** 
 130:STM32F10x_StdPeriph_Driver/src/stm32f10x_can.c **** /**
 131:STM32F10x_StdPeriph_Driver/src/stm32f10x_can.c ****   * @}
 132:STM32F10x_StdPeriph_Driver/src/stm32f10x_can.c ****   */
 133:STM32F10x_StdPeriph_Driver/src/stm32f10x_can.c **** 
 134:STM32F10x_StdPeriph_Driver/src/stm32f10x_can.c **** /** @defgroup CAN_Private_Functions
 135:STM32F10x_StdPeriph_Driver/src/stm32f10x_can.c ****   * @{
 136:STM32F10x_StdPeriph_Driver/src/stm32f10x_can.c ****   */
 137:STM32F10x_StdPeriph_Driver/src/stm32f10x_can.c **** 
 138:STM32F10x_StdPeriph_Driver/src/stm32f10x_can.c **** /**
 139:STM32F10x_StdPeriph_Driver/src/stm32f10x_can.c ****   * @brief  Deinitializes the CAN peripheral registers to their default reset values.
 140:STM32F10x_StdPeriph_Driver/src/stm32f10x_can.c ****   * @param  CANx: where x can be 1 or 2 to select the CAN peripheral.
 141:STM32F10x_StdPeriph_Driver/src/stm32f10x_can.c ****   * @retval None.
 142:STM32F10x_StdPeriph_Driver/src/stm32f10x_can.c ****   */
 143:STM32F10x_StdPeriph_Driver/src/stm32f10x_can.c **** void CAN_DeInit(CAN_TypeDef* CANx)
 144:STM32F10x_StdPeriph_Driver/src/stm32f10x_can.c **** {
 145:STM32F10x_StdPeriph_Driver/src/stm32f10x_can.c ****   /* Check the parameters */
 146:STM32F10x_StdPeriph_Driver/src/stm32f10x_can.c ****   assert_param(IS_CAN_ALL_PERIPH(CANx));
ARM GAS  /var/folders/g9/bbpj86ld7fx45vd1b3pqxmp00000gn/T//ccXBJrXf.s 			page 4


 147:STM32F10x_StdPeriph_Driver/src/stm32f10x_can.c ****  
 148:STM32F10x_StdPeriph_Driver/src/stm32f10x_can.c ****   if (CANx == CAN1)
 149:STM32F10x_StdPeriph_Driver/src/stm32f10x_can.c ****   {
 150:STM32F10x_StdPeriph_Driver/src/stm32f10x_can.c ****     /* Enable CAN1 reset state */
 151:STM32F10x_StdPeriph_Driver/src/stm32f10x_can.c ****     RCC_APB1PeriphResetCmd(RCC_APB1Periph_CAN1, ENABLE);
 152:STM32F10x_StdPeriph_Driver/src/stm32f10x_can.c ****     /* Release CAN1 from reset state */
 153:STM32F10x_StdPeriph_Driver/src/stm32f10x_can.c ****     RCC_APB1PeriphResetCmd(RCC_APB1Periph_CAN1, DISABLE);
 154:STM32F10x_StdPeriph_Driver/src/stm32f10x_can.c ****   }
 155:STM32F10x_StdPeriph_Driver/src/stm32f10x_can.c ****   else
 156:STM32F10x_StdPeriph_Driver/src/stm32f10x_can.c ****   {  
 157:STM32F10x_StdPeriph_Driver/src/stm32f10x_can.c ****     /* Enable CAN2 reset state */
 158:STM32F10x_StdPeriph_Driver/src/stm32f10x_can.c ****     RCC_APB1PeriphResetCmd(RCC_APB1Periph_CAN2, ENABLE);
 159:STM32F10x_StdPeriph_Driver/src/stm32f10x_can.c ****     /* Release CAN2 from reset state */
 160:STM32F10x_StdPeriph_Driver/src/stm32f10x_can.c ****     RCC_APB1PeriphResetCmd(RCC_APB1Periph_CAN2, DISABLE);
 161:STM32F10x_StdPeriph_Driver/src/stm32f10x_can.c ****   }
 162:STM32F10x_StdPeriph_Driver/src/stm32f10x_can.c **** }
 163:STM32F10x_StdPeriph_Driver/src/stm32f10x_can.c **** 
 164:STM32F10x_StdPeriph_Driver/src/stm32f10x_can.c **** /**
 165:STM32F10x_StdPeriph_Driver/src/stm32f10x_can.c ****   * @brief  Initializes the CAN peripheral according to the specified
 166:STM32F10x_StdPeriph_Driver/src/stm32f10x_can.c ****   *   parameters in the CAN_InitStruct.
 167:STM32F10x_StdPeriph_Driver/src/stm32f10x_can.c ****   * @param  CANx: where x can be 1 or 2 to to select the CAN peripheral.
 168:STM32F10x_StdPeriph_Driver/src/stm32f10x_can.c ****   * @param  CAN_InitStruct: pointer to a CAN_InitTypeDef structure that
 169:STM32F10x_StdPeriph_Driver/src/stm32f10x_can.c ****   *   contains the configuration information for the CAN peripheral.
 170:STM32F10x_StdPeriph_Driver/src/stm32f10x_can.c ****   * @retval Constant indicates initialization succeed which will be 
 171:STM32F10x_StdPeriph_Driver/src/stm32f10x_can.c ****   *   CANINITFAILED or CANINITOK.
 172:STM32F10x_StdPeriph_Driver/src/stm32f10x_can.c ****   */
 173:STM32F10x_StdPeriph_Driver/src/stm32f10x_can.c **** uint8_t CAN_Init(CAN_TypeDef* CANx, CAN_InitTypeDef* CAN_InitStruct)
 174:STM32F10x_StdPeriph_Driver/src/stm32f10x_can.c **** {
 175:STM32F10x_StdPeriph_Driver/src/stm32f10x_can.c ****   uint8_t InitStatus = CANINITFAILED;
 176:STM32F10x_StdPeriph_Driver/src/stm32f10x_can.c ****   uint32_t wait_ack = 0x00000000;
 177:STM32F10x_StdPeriph_Driver/src/stm32f10x_can.c ****   /* Check the parameters */
 178:STM32F10x_StdPeriph_Driver/src/stm32f10x_can.c ****   assert_param(IS_CAN_ALL_PERIPH(CANx));
 179:STM32F10x_StdPeriph_Driver/src/stm32f10x_can.c ****   assert_param(IS_FUNCTIONAL_STATE(CAN_InitStruct->CAN_TTCM));
 180:STM32F10x_StdPeriph_Driver/src/stm32f10x_can.c ****   assert_param(IS_FUNCTIONAL_STATE(CAN_InitStruct->CAN_ABOM));
 181:STM32F10x_StdPeriph_Driver/src/stm32f10x_can.c ****   assert_param(IS_FUNCTIONAL_STATE(CAN_InitStruct->CAN_AWUM));
 182:STM32F10x_StdPeriph_Driver/src/stm32f10x_can.c ****   assert_param(IS_FUNCTIONAL_STATE(CAN_InitStruct->CAN_NART));
 183:STM32F10x_StdPeriph_Driver/src/stm32f10x_can.c ****   assert_param(IS_FUNCTIONAL_STATE(CAN_InitStruct->CAN_RFLM));
 184:STM32F10x_StdPeriph_Driver/src/stm32f10x_can.c ****   assert_param(IS_FUNCTIONAL_STATE(CAN_InitStruct->CAN_TXFP));
 185:STM32F10x_StdPeriph_Driver/src/stm32f10x_can.c ****   assert_param(IS_CAN_MODE(CAN_InitStruct->CAN_Mode));
 186:STM32F10x_StdPeriph_Driver/src/stm32f10x_can.c ****   assert_param(IS_CAN_SJW(CAN_InitStruct->CAN_SJW));
 187:STM32F10x_StdPeriph_Driver/src/stm32f10x_can.c ****   assert_param(IS_CAN_BS1(CAN_InitStruct->CAN_BS1));
 188:STM32F10x_StdPeriph_Driver/src/stm32f10x_can.c ****   assert_param(IS_CAN_BS2(CAN_InitStruct->CAN_BS2));
 189:STM32F10x_StdPeriph_Driver/src/stm32f10x_can.c ****   assert_param(IS_CAN_PRESCALER(CAN_InitStruct->CAN_Prescaler));
 190:STM32F10x_StdPeriph_Driver/src/stm32f10x_can.c **** 
 191:STM32F10x_StdPeriph_Driver/src/stm32f10x_can.c ****   /* exit from sleep mode */
 192:STM32F10x_StdPeriph_Driver/src/stm32f10x_can.c ****   CANx->MCR &= ~MCR_SLEEP;
 193:STM32F10x_StdPeriph_Driver/src/stm32f10x_can.c **** 
 194:STM32F10x_StdPeriph_Driver/src/stm32f10x_can.c ****   /* Request initialisation */
 195:STM32F10x_StdPeriph_Driver/src/stm32f10x_can.c ****   CANx->MCR |= MCR_INRQ ;
 196:STM32F10x_StdPeriph_Driver/src/stm32f10x_can.c **** 
 197:STM32F10x_StdPeriph_Driver/src/stm32f10x_can.c ****   /* Wait the acknowledge */
 198:STM32F10x_StdPeriph_Driver/src/stm32f10x_can.c ****   while (((CANx->MSR & MSR_INAK) != MSR_INAK) && (wait_ack != INAK_TimeOut))
 199:STM32F10x_StdPeriph_Driver/src/stm32f10x_can.c ****   {
 200:STM32F10x_StdPeriph_Driver/src/stm32f10x_can.c ****     wait_ack++;
 201:STM32F10x_StdPeriph_Driver/src/stm32f10x_can.c ****   }
 202:STM32F10x_StdPeriph_Driver/src/stm32f10x_can.c **** 
 203:STM32F10x_StdPeriph_Driver/src/stm32f10x_can.c ****   /* ...and check acknowledged */
ARM GAS  /var/folders/g9/bbpj86ld7fx45vd1b3pqxmp00000gn/T//ccXBJrXf.s 			page 5


 204:STM32F10x_StdPeriph_Driver/src/stm32f10x_can.c ****   if ((CANx->MSR & MSR_INAK) != MSR_INAK)
 205:STM32F10x_StdPeriph_Driver/src/stm32f10x_can.c ****   {
 206:STM32F10x_StdPeriph_Driver/src/stm32f10x_can.c ****     InitStatus = CANINITFAILED;
 207:STM32F10x_StdPeriph_Driver/src/stm32f10x_can.c ****   }
 208:STM32F10x_StdPeriph_Driver/src/stm32f10x_can.c ****   else 
 209:STM32F10x_StdPeriph_Driver/src/stm32f10x_can.c ****   {
 210:STM32F10x_StdPeriph_Driver/src/stm32f10x_can.c ****     /* Set the time triggered communication mode */
 211:STM32F10x_StdPeriph_Driver/src/stm32f10x_can.c ****     if (CAN_InitStruct->CAN_TTCM == ENABLE)
 212:STM32F10x_StdPeriph_Driver/src/stm32f10x_can.c ****     {
 213:STM32F10x_StdPeriph_Driver/src/stm32f10x_can.c ****       CANx->MCR |= MCR_TTCM;
 214:STM32F10x_StdPeriph_Driver/src/stm32f10x_can.c ****     }
 215:STM32F10x_StdPeriph_Driver/src/stm32f10x_can.c ****     else
 216:STM32F10x_StdPeriph_Driver/src/stm32f10x_can.c ****     {
 217:STM32F10x_StdPeriph_Driver/src/stm32f10x_can.c ****       CANx->MCR &= ~MCR_TTCM;
 218:STM32F10x_StdPeriph_Driver/src/stm32f10x_can.c ****     }
 219:STM32F10x_StdPeriph_Driver/src/stm32f10x_can.c **** 
 220:STM32F10x_StdPeriph_Driver/src/stm32f10x_can.c ****     /* Set the automatic bus-off management */
 221:STM32F10x_StdPeriph_Driver/src/stm32f10x_can.c ****     if (CAN_InitStruct->CAN_ABOM == ENABLE)
 222:STM32F10x_StdPeriph_Driver/src/stm32f10x_can.c ****     {
 223:STM32F10x_StdPeriph_Driver/src/stm32f10x_can.c ****       CANx->MCR |= MCR_ABOM;
 224:STM32F10x_StdPeriph_Driver/src/stm32f10x_can.c ****     }
 225:STM32F10x_StdPeriph_Driver/src/stm32f10x_can.c ****     else
 226:STM32F10x_StdPeriph_Driver/src/stm32f10x_can.c ****     {
 227:STM32F10x_StdPeriph_Driver/src/stm32f10x_can.c ****       CANx->MCR &= ~MCR_ABOM;
 228:STM32F10x_StdPeriph_Driver/src/stm32f10x_can.c ****     }
 229:STM32F10x_StdPeriph_Driver/src/stm32f10x_can.c **** 
 230:STM32F10x_StdPeriph_Driver/src/stm32f10x_can.c ****     /* Set the automatic wake-up mode */
 231:STM32F10x_StdPeriph_Driver/src/stm32f10x_can.c ****     if (CAN_InitStruct->CAN_AWUM == ENABLE)
 232:STM32F10x_StdPeriph_Driver/src/stm32f10x_can.c ****     {
 233:STM32F10x_StdPeriph_Driver/src/stm32f10x_can.c ****       CANx->MCR |= MCR_AWUM;
 234:STM32F10x_StdPeriph_Driver/src/stm32f10x_can.c ****     }
 235:STM32F10x_StdPeriph_Driver/src/stm32f10x_can.c ****     else
 236:STM32F10x_StdPeriph_Driver/src/stm32f10x_can.c ****     {
 237:STM32F10x_StdPeriph_Driver/src/stm32f10x_can.c ****       CANx->MCR &= ~MCR_AWUM;
 238:STM32F10x_StdPeriph_Driver/src/stm32f10x_can.c ****     }
 239:STM32F10x_StdPeriph_Driver/src/stm32f10x_can.c **** 
 240:STM32F10x_StdPeriph_Driver/src/stm32f10x_can.c ****     /* Set the no automatic retransmission */
 241:STM32F10x_StdPeriph_Driver/src/stm32f10x_can.c ****     if (CAN_InitStruct->CAN_NART == ENABLE)
 242:STM32F10x_StdPeriph_Driver/src/stm32f10x_can.c ****     {
 243:STM32F10x_StdPeriph_Driver/src/stm32f10x_can.c ****       CANx->MCR |= MCR_NART;
 244:STM32F10x_StdPeriph_Driver/src/stm32f10x_can.c ****     }
 245:STM32F10x_StdPeriph_Driver/src/stm32f10x_can.c ****     else
 246:STM32F10x_StdPeriph_Driver/src/stm32f10x_can.c ****     {
 247:STM32F10x_StdPeriph_Driver/src/stm32f10x_can.c ****       CANx->MCR &= ~MCR_NART;
 248:STM32F10x_StdPeriph_Driver/src/stm32f10x_can.c ****     }
 249:STM32F10x_StdPeriph_Driver/src/stm32f10x_can.c **** 
 250:STM32F10x_StdPeriph_Driver/src/stm32f10x_can.c ****     /* Set the receive FIFO locked mode */
 251:STM32F10x_StdPeriph_Driver/src/stm32f10x_can.c ****     if (CAN_InitStruct->CAN_RFLM == ENABLE)
 252:STM32F10x_StdPeriph_Driver/src/stm32f10x_can.c ****     {
 253:STM32F10x_StdPeriph_Driver/src/stm32f10x_can.c ****       CANx->MCR |= MCR_RFLM;
 254:STM32F10x_StdPeriph_Driver/src/stm32f10x_can.c ****     }
 255:STM32F10x_StdPeriph_Driver/src/stm32f10x_can.c ****     else
 256:STM32F10x_StdPeriph_Driver/src/stm32f10x_can.c ****     {
 257:STM32F10x_StdPeriph_Driver/src/stm32f10x_can.c ****       CANx->MCR &= ~MCR_RFLM;
 258:STM32F10x_StdPeriph_Driver/src/stm32f10x_can.c ****     }
 259:STM32F10x_StdPeriph_Driver/src/stm32f10x_can.c **** 
 260:STM32F10x_StdPeriph_Driver/src/stm32f10x_can.c ****     /* Set the transmit FIFO priority */
ARM GAS  /var/folders/g9/bbpj86ld7fx45vd1b3pqxmp00000gn/T//ccXBJrXf.s 			page 6


 261:STM32F10x_StdPeriph_Driver/src/stm32f10x_can.c ****     if (CAN_InitStruct->CAN_TXFP == ENABLE)
 262:STM32F10x_StdPeriph_Driver/src/stm32f10x_can.c ****     {
 263:STM32F10x_StdPeriph_Driver/src/stm32f10x_can.c ****       CANx->MCR |= MCR_TXFP;
 264:STM32F10x_StdPeriph_Driver/src/stm32f10x_can.c ****     }
 265:STM32F10x_StdPeriph_Driver/src/stm32f10x_can.c ****     else
 266:STM32F10x_StdPeriph_Driver/src/stm32f10x_can.c ****     {
 267:STM32F10x_StdPeriph_Driver/src/stm32f10x_can.c ****       CANx->MCR &= ~MCR_TXFP;
 268:STM32F10x_StdPeriph_Driver/src/stm32f10x_can.c ****     }
 269:STM32F10x_StdPeriph_Driver/src/stm32f10x_can.c **** 
 270:STM32F10x_StdPeriph_Driver/src/stm32f10x_can.c ****     /* Set the bit timing register */
 271:STM32F10x_StdPeriph_Driver/src/stm32f10x_can.c ****     CANx->BTR = (uint32_t)((uint32_t)CAN_InitStruct->CAN_Mode << 30) | ((uint32_t)CAN_InitStruct->C
 272:STM32F10x_StdPeriph_Driver/src/stm32f10x_can.c ****                ((uint32_t)CAN_InitStruct->CAN_BS1 << 16) | ((uint32_t)CAN_InitStruct->CAN_BS2 << 20
 273:STM32F10x_StdPeriph_Driver/src/stm32f10x_can.c ****                ((uint32_t)CAN_InitStruct->CAN_Prescaler - 1);
 274:STM32F10x_StdPeriph_Driver/src/stm32f10x_can.c **** 
 275:STM32F10x_StdPeriph_Driver/src/stm32f10x_can.c ****     /* Request leave initialisation */
 276:STM32F10x_StdPeriph_Driver/src/stm32f10x_can.c ****     CANx->MCR &= ~MCR_INRQ;
 277:STM32F10x_StdPeriph_Driver/src/stm32f10x_can.c **** 
 278:STM32F10x_StdPeriph_Driver/src/stm32f10x_can.c ****    /* Wait the acknowledge */
 279:STM32F10x_StdPeriph_Driver/src/stm32f10x_can.c ****    wait_ack = 0x00;
 280:STM32F10x_StdPeriph_Driver/src/stm32f10x_can.c **** 
 281:STM32F10x_StdPeriph_Driver/src/stm32f10x_can.c ****    while (((CANx->MSR & MSR_INAK) == MSR_INAK) && (wait_ack != INAK_TimeOut))
 282:STM32F10x_StdPeriph_Driver/src/stm32f10x_can.c ****    {
 283:STM32F10x_StdPeriph_Driver/src/stm32f10x_can.c ****      wait_ack++;
 284:STM32F10x_StdPeriph_Driver/src/stm32f10x_can.c ****    }
 285:STM32F10x_StdPeriph_Driver/src/stm32f10x_can.c **** 
 286:STM32F10x_StdPeriph_Driver/src/stm32f10x_can.c ****     /* ...and check acknowledged */
 287:STM32F10x_StdPeriph_Driver/src/stm32f10x_can.c ****     if ((CANx->MSR & MSR_INAK) == MSR_INAK)
 288:STM32F10x_StdPeriph_Driver/src/stm32f10x_can.c ****     {
 289:STM32F10x_StdPeriph_Driver/src/stm32f10x_can.c ****       InitStatus = CANINITFAILED;
 290:STM32F10x_StdPeriph_Driver/src/stm32f10x_can.c ****     }
 291:STM32F10x_StdPeriph_Driver/src/stm32f10x_can.c ****     else
 292:STM32F10x_StdPeriph_Driver/src/stm32f10x_can.c ****     {
 293:STM32F10x_StdPeriph_Driver/src/stm32f10x_can.c ****       InitStatus = CANINITOK ;
 294:STM32F10x_StdPeriph_Driver/src/stm32f10x_can.c ****     }
 295:STM32F10x_StdPeriph_Driver/src/stm32f10x_can.c ****   }
 296:STM32F10x_StdPeriph_Driver/src/stm32f10x_can.c **** 
 297:STM32F10x_StdPeriph_Driver/src/stm32f10x_can.c ****   /* At this step, return the status of initialization */
 298:STM32F10x_StdPeriph_Driver/src/stm32f10x_can.c ****   return InitStatus;
 299:STM32F10x_StdPeriph_Driver/src/stm32f10x_can.c **** }
 300:STM32F10x_StdPeriph_Driver/src/stm32f10x_can.c **** 
 301:STM32F10x_StdPeriph_Driver/src/stm32f10x_can.c **** /**
 302:STM32F10x_StdPeriph_Driver/src/stm32f10x_can.c ****   * @brief  Initializes the CAN peripheral according to the specified
 303:STM32F10x_StdPeriph_Driver/src/stm32f10x_can.c ****   *   parameters in the CAN_FilterInitStruct.
 304:STM32F10x_StdPeriph_Driver/src/stm32f10x_can.c ****   * @param  CAN_FilterInitStruct: pointer to a CAN_FilterInitTypeDef
 305:STM32F10x_StdPeriph_Driver/src/stm32f10x_can.c ****   *   structure that contains the configuration information.
 306:STM32F10x_StdPeriph_Driver/src/stm32f10x_can.c ****   * @retval None.
 307:STM32F10x_StdPeriph_Driver/src/stm32f10x_can.c ****   */
 308:STM32F10x_StdPeriph_Driver/src/stm32f10x_can.c **** void CAN_FilterInit(CAN_FilterInitTypeDef* CAN_FilterInitStruct)
 309:STM32F10x_StdPeriph_Driver/src/stm32f10x_can.c **** {
 310:STM32F10x_StdPeriph_Driver/src/stm32f10x_can.c ****   uint32_t filter_number_bit_pos = 0;
 311:STM32F10x_StdPeriph_Driver/src/stm32f10x_can.c ****   /* Check the parameters */
 312:STM32F10x_StdPeriph_Driver/src/stm32f10x_can.c ****   assert_param(IS_CAN_FILTER_NUMBER(CAN_FilterInitStruct->CAN_FilterNumber));
 313:STM32F10x_StdPeriph_Driver/src/stm32f10x_can.c ****   assert_param(IS_CAN_FILTER_MODE(CAN_FilterInitStruct->CAN_FilterMode));
 314:STM32F10x_StdPeriph_Driver/src/stm32f10x_can.c ****   assert_param(IS_CAN_FILTER_SCALE(CAN_FilterInitStruct->CAN_FilterScale));
 315:STM32F10x_StdPeriph_Driver/src/stm32f10x_can.c ****   assert_param(IS_CAN_FILTER_FIFO(CAN_FilterInitStruct->CAN_FilterFIFOAssignment));
 316:STM32F10x_StdPeriph_Driver/src/stm32f10x_can.c ****   assert_param(IS_FUNCTIONAL_STATE(CAN_FilterInitStruct->CAN_FilterActivation));
 317:STM32F10x_StdPeriph_Driver/src/stm32f10x_can.c **** 
ARM GAS  /var/folders/g9/bbpj86ld7fx45vd1b3pqxmp00000gn/T//ccXBJrXf.s 			page 7


 318:STM32F10x_StdPeriph_Driver/src/stm32f10x_can.c ****   filter_number_bit_pos = ((uint32_t)0x00000001) << CAN_FilterInitStruct->CAN_FilterNumber;
 319:STM32F10x_StdPeriph_Driver/src/stm32f10x_can.c **** 
 320:STM32F10x_StdPeriph_Driver/src/stm32f10x_can.c ****   /* Initialisation mode for the filter */
 321:STM32F10x_StdPeriph_Driver/src/stm32f10x_can.c ****   CAN1->FMR |= FMR_FINIT;
 322:STM32F10x_StdPeriph_Driver/src/stm32f10x_can.c **** 
 323:STM32F10x_StdPeriph_Driver/src/stm32f10x_can.c ****   /* Filter Deactivation */
 324:STM32F10x_StdPeriph_Driver/src/stm32f10x_can.c ****   CAN1->FA1R &= ~(uint32_t)filter_number_bit_pos;
 325:STM32F10x_StdPeriph_Driver/src/stm32f10x_can.c **** 
 326:STM32F10x_StdPeriph_Driver/src/stm32f10x_can.c ****   /* Filter Scale */
 327:STM32F10x_StdPeriph_Driver/src/stm32f10x_can.c ****   if (CAN_FilterInitStruct->CAN_FilterScale == CAN_FilterScale_16bit)
 328:STM32F10x_StdPeriph_Driver/src/stm32f10x_can.c ****   {
 329:STM32F10x_StdPeriph_Driver/src/stm32f10x_can.c ****     /* 16-bit scale for the filter */
 330:STM32F10x_StdPeriph_Driver/src/stm32f10x_can.c ****     CAN1->FS1R &= ~(uint32_t)filter_number_bit_pos;
 331:STM32F10x_StdPeriph_Driver/src/stm32f10x_can.c **** 
 332:STM32F10x_StdPeriph_Driver/src/stm32f10x_can.c ****     /* First 16-bit identifier and First 16-bit mask */
 333:STM32F10x_StdPeriph_Driver/src/stm32f10x_can.c ****     /* Or First 16-bit identifier and Second 16-bit identifier */
 334:STM32F10x_StdPeriph_Driver/src/stm32f10x_can.c ****     CAN1->sFilterRegister[CAN_FilterInitStruct->CAN_FilterNumber].FR1 = 
 335:STM32F10x_StdPeriph_Driver/src/stm32f10x_can.c ****     ((0x0000FFFF & (uint32_t)CAN_FilterInitStruct->CAN_FilterMaskIdLow) << 16) |
 336:STM32F10x_StdPeriph_Driver/src/stm32f10x_can.c ****         (0x0000FFFF & (uint32_t)CAN_FilterInitStruct->CAN_FilterIdLow);
 337:STM32F10x_StdPeriph_Driver/src/stm32f10x_can.c **** 
 338:STM32F10x_StdPeriph_Driver/src/stm32f10x_can.c ****     /* Second 16-bit identifier and Second 16-bit mask */
 339:STM32F10x_StdPeriph_Driver/src/stm32f10x_can.c ****     /* Or Third 16-bit identifier and Fourth 16-bit identifier */
 340:STM32F10x_StdPeriph_Driver/src/stm32f10x_can.c ****     CAN1->sFilterRegister[CAN_FilterInitStruct->CAN_FilterNumber].FR2 = 
 341:STM32F10x_StdPeriph_Driver/src/stm32f10x_can.c ****     ((0x0000FFFF & (uint32_t)CAN_FilterInitStruct->CAN_FilterMaskIdHigh) << 16) |
 342:STM32F10x_StdPeriph_Driver/src/stm32f10x_can.c ****         (0x0000FFFF & (uint32_t)CAN_FilterInitStruct->CAN_FilterIdHigh);
 343:STM32F10x_StdPeriph_Driver/src/stm32f10x_can.c ****   }
 344:STM32F10x_StdPeriph_Driver/src/stm32f10x_can.c **** 
 345:STM32F10x_StdPeriph_Driver/src/stm32f10x_can.c ****   if (CAN_FilterInitStruct->CAN_FilterScale == CAN_FilterScale_32bit)
 346:STM32F10x_StdPeriph_Driver/src/stm32f10x_can.c ****   {
 347:STM32F10x_StdPeriph_Driver/src/stm32f10x_can.c ****     /* 32-bit scale for the filter */
 348:STM32F10x_StdPeriph_Driver/src/stm32f10x_can.c ****     CAN1->FS1R |= filter_number_bit_pos;
 349:STM32F10x_StdPeriph_Driver/src/stm32f10x_can.c ****     /* 32-bit identifier or First 32-bit identifier */
 350:STM32F10x_StdPeriph_Driver/src/stm32f10x_can.c ****     CAN1->sFilterRegister[CAN_FilterInitStruct->CAN_FilterNumber].FR1 = 
 351:STM32F10x_StdPeriph_Driver/src/stm32f10x_can.c ****     ((0x0000FFFF & (uint32_t)CAN_FilterInitStruct->CAN_FilterIdHigh) << 16) |
 352:STM32F10x_StdPeriph_Driver/src/stm32f10x_can.c ****         (0x0000FFFF & (uint32_t)CAN_FilterInitStruct->CAN_FilterIdLow);
 353:STM32F10x_StdPeriph_Driver/src/stm32f10x_can.c ****     /* 32-bit mask or Second 32-bit identifier */
 354:STM32F10x_StdPeriph_Driver/src/stm32f10x_can.c ****     CAN1->sFilterRegister[CAN_FilterInitStruct->CAN_FilterNumber].FR2 = 
 355:STM32F10x_StdPeriph_Driver/src/stm32f10x_can.c ****     ((0x0000FFFF & (uint32_t)CAN_FilterInitStruct->CAN_FilterMaskIdHigh) << 16) |
 356:STM32F10x_StdPeriph_Driver/src/stm32f10x_can.c ****         (0x0000FFFF & (uint32_t)CAN_FilterInitStruct->CAN_FilterMaskIdLow);
 357:STM32F10x_StdPeriph_Driver/src/stm32f10x_can.c ****   }
 358:STM32F10x_StdPeriph_Driver/src/stm32f10x_can.c **** 
 359:STM32F10x_StdPeriph_Driver/src/stm32f10x_can.c ****   /* Filter Mode */
 360:STM32F10x_StdPeriph_Driver/src/stm32f10x_can.c ****   if (CAN_FilterInitStruct->CAN_FilterMode == CAN_FilterMode_IdMask)
 361:STM32F10x_StdPeriph_Driver/src/stm32f10x_can.c ****   {
 362:STM32F10x_StdPeriph_Driver/src/stm32f10x_can.c ****     /*Id/Mask mode for the filter*/
 363:STM32F10x_StdPeriph_Driver/src/stm32f10x_can.c ****     CAN1->FM1R &= ~(uint32_t)filter_number_bit_pos;
 364:STM32F10x_StdPeriph_Driver/src/stm32f10x_can.c ****   }
 365:STM32F10x_StdPeriph_Driver/src/stm32f10x_can.c ****   else /* CAN_FilterInitStruct->CAN_FilterMode == CAN_FilterMode_IdList */
 366:STM32F10x_StdPeriph_Driver/src/stm32f10x_can.c ****   {
 367:STM32F10x_StdPeriph_Driver/src/stm32f10x_can.c ****     /*Identifier list mode for the filter*/
 368:STM32F10x_StdPeriph_Driver/src/stm32f10x_can.c ****     CAN1->FM1R |= (uint32_t)filter_number_bit_pos;
 369:STM32F10x_StdPeriph_Driver/src/stm32f10x_can.c ****   }
 370:STM32F10x_StdPeriph_Driver/src/stm32f10x_can.c **** 
 371:STM32F10x_StdPeriph_Driver/src/stm32f10x_can.c ****   /* Filter FIFO assignment */
 372:STM32F10x_StdPeriph_Driver/src/stm32f10x_can.c ****   if (CAN_FilterInitStruct->CAN_FilterFIFOAssignment == CAN_FilterFIFO0)
 373:STM32F10x_StdPeriph_Driver/src/stm32f10x_can.c ****   {
 374:STM32F10x_StdPeriph_Driver/src/stm32f10x_can.c ****     /* FIFO 0 assignation for the filter */
ARM GAS  /var/folders/g9/bbpj86ld7fx45vd1b3pqxmp00000gn/T//ccXBJrXf.s 			page 8


 375:STM32F10x_StdPeriph_Driver/src/stm32f10x_can.c ****     CAN1->FFA1R &= ~(uint32_t)filter_number_bit_pos;
 376:STM32F10x_StdPeriph_Driver/src/stm32f10x_can.c ****   }
 377:STM32F10x_StdPeriph_Driver/src/stm32f10x_can.c **** 
 378:STM32F10x_StdPeriph_Driver/src/stm32f10x_can.c ****   if (CAN_FilterInitStruct->CAN_FilterFIFOAssignment == CAN_FilterFIFO1)
 379:STM32F10x_StdPeriph_Driver/src/stm32f10x_can.c ****   {
 380:STM32F10x_StdPeriph_Driver/src/stm32f10x_can.c ****     /* FIFO 1 assignation for the filter */
 381:STM32F10x_StdPeriph_Driver/src/stm32f10x_can.c ****     CAN1->FFA1R |= (uint32_t)filter_number_bit_pos;
 382:STM32F10x_StdPeriph_Driver/src/stm32f10x_can.c ****   }
 383:STM32F10x_StdPeriph_Driver/src/stm32f10x_can.c ****   
 384:STM32F10x_StdPeriph_Driver/src/stm32f10x_can.c ****   /* Filter activation */
 385:STM32F10x_StdPeriph_Driver/src/stm32f10x_can.c ****   if (CAN_FilterInitStruct->CAN_FilterActivation == ENABLE)
 386:STM32F10x_StdPeriph_Driver/src/stm32f10x_can.c ****   {
 387:STM32F10x_StdPeriph_Driver/src/stm32f10x_can.c ****     CAN1->FA1R |= filter_number_bit_pos;
 388:STM32F10x_StdPeriph_Driver/src/stm32f10x_can.c ****   }
 389:STM32F10x_StdPeriph_Driver/src/stm32f10x_can.c **** 
 390:STM32F10x_StdPeriph_Driver/src/stm32f10x_can.c ****   /* Leave the initialisation mode for the filter */
 391:STM32F10x_StdPeriph_Driver/src/stm32f10x_can.c ****   CAN1->FMR &= ~FMR_FINIT;
 392:STM32F10x_StdPeriph_Driver/src/stm32f10x_can.c **** }
 393:STM32F10x_StdPeriph_Driver/src/stm32f10x_can.c **** 
 394:STM32F10x_StdPeriph_Driver/src/stm32f10x_can.c **** /**
 395:STM32F10x_StdPeriph_Driver/src/stm32f10x_can.c ****   * @brief  Fills each CAN_InitStruct member with its default value.
 396:STM32F10x_StdPeriph_Driver/src/stm32f10x_can.c ****   * @param  CAN_InitStruct: pointer to a CAN_InitTypeDef structure which
 397:STM32F10x_StdPeriph_Driver/src/stm32f10x_can.c ****   *   will be initialized.
 398:STM32F10x_StdPeriph_Driver/src/stm32f10x_can.c ****   * @retval None.
 399:STM32F10x_StdPeriph_Driver/src/stm32f10x_can.c ****   */
 400:STM32F10x_StdPeriph_Driver/src/stm32f10x_can.c **** void CAN_StructInit(CAN_InitTypeDef* CAN_InitStruct)
 401:STM32F10x_StdPeriph_Driver/src/stm32f10x_can.c **** {
 402:STM32F10x_StdPeriph_Driver/src/stm32f10x_can.c ****   /* Reset CAN init structure parameters values */
 403:STM32F10x_StdPeriph_Driver/src/stm32f10x_can.c ****   /* Initialize the time triggered communication mode */
 404:STM32F10x_StdPeriph_Driver/src/stm32f10x_can.c ****   CAN_InitStruct->CAN_TTCM = DISABLE;
 405:STM32F10x_StdPeriph_Driver/src/stm32f10x_can.c ****   /* Initialize the automatic bus-off management */
 406:STM32F10x_StdPeriph_Driver/src/stm32f10x_can.c ****   CAN_InitStruct->CAN_ABOM = DISABLE;
 407:STM32F10x_StdPeriph_Driver/src/stm32f10x_can.c ****   /* Initialize the automatic wake-up mode */
 408:STM32F10x_StdPeriph_Driver/src/stm32f10x_can.c ****   CAN_InitStruct->CAN_AWUM = DISABLE;
 409:STM32F10x_StdPeriph_Driver/src/stm32f10x_can.c ****   /* Initialize the no automatic retransmission */
 410:STM32F10x_StdPeriph_Driver/src/stm32f10x_can.c ****   CAN_InitStruct->CAN_NART = DISABLE;
 411:STM32F10x_StdPeriph_Driver/src/stm32f10x_can.c ****   /* Initialize the receive FIFO locked mode */
 412:STM32F10x_StdPeriph_Driver/src/stm32f10x_can.c ****   CAN_InitStruct->CAN_RFLM = DISABLE;
 413:STM32F10x_StdPeriph_Driver/src/stm32f10x_can.c ****   /* Initialize the transmit FIFO priority */
 414:STM32F10x_StdPeriph_Driver/src/stm32f10x_can.c ****   CAN_InitStruct->CAN_TXFP = DISABLE;
 415:STM32F10x_StdPeriph_Driver/src/stm32f10x_can.c ****   /* Initialize the CAN_Mode member */
 416:STM32F10x_StdPeriph_Driver/src/stm32f10x_can.c ****   CAN_InitStruct->CAN_Mode = CAN_Mode_Normal;
 417:STM32F10x_StdPeriph_Driver/src/stm32f10x_can.c ****   /* Initialize the CAN_SJW member */
 418:STM32F10x_StdPeriph_Driver/src/stm32f10x_can.c ****   CAN_InitStruct->CAN_SJW = CAN_SJW_1tq;
 419:STM32F10x_StdPeriph_Driver/src/stm32f10x_can.c ****   /* Initialize the CAN_BS1 member */
 420:STM32F10x_StdPeriph_Driver/src/stm32f10x_can.c ****   CAN_InitStruct->CAN_BS1 = CAN_BS1_4tq;
 421:STM32F10x_StdPeriph_Driver/src/stm32f10x_can.c ****   /* Initialize the CAN_BS2 member */
 422:STM32F10x_StdPeriph_Driver/src/stm32f10x_can.c ****   CAN_InitStruct->CAN_BS2 = CAN_BS2_3tq;
 423:STM32F10x_StdPeriph_Driver/src/stm32f10x_can.c ****   /* Initialize the CAN_Prescaler member */
 424:STM32F10x_StdPeriph_Driver/src/stm32f10x_can.c ****   CAN_InitStruct->CAN_Prescaler = 1;
 425:STM32F10x_StdPeriph_Driver/src/stm32f10x_can.c **** }
 426:STM32F10x_StdPeriph_Driver/src/stm32f10x_can.c **** 
 427:STM32F10x_StdPeriph_Driver/src/stm32f10x_can.c **** /**
 428:STM32F10x_StdPeriph_Driver/src/stm32f10x_can.c ****   * @brief  Select the start bank filter for slave CAN.
 429:STM32F10x_StdPeriph_Driver/src/stm32f10x_can.c ****   * @note   This function applies only to STM32 Connectivity line devices.
 430:STM32F10x_StdPeriph_Driver/src/stm32f10x_can.c ****   * @param  CAN_BankNumber: Select the start slave bank filter from 1..27.
 431:STM32F10x_StdPeriph_Driver/src/stm32f10x_can.c ****   * @retval None.
ARM GAS  /var/folders/g9/bbpj86ld7fx45vd1b3pqxmp00000gn/T//ccXBJrXf.s 			page 9


 432:STM32F10x_StdPeriph_Driver/src/stm32f10x_can.c ****   */
 433:STM32F10x_StdPeriph_Driver/src/stm32f10x_can.c **** void CAN_SlaveStartBank(uint8_t CAN_BankNumber) 
 434:STM32F10x_StdPeriph_Driver/src/stm32f10x_can.c **** {
 435:STM32F10x_StdPeriph_Driver/src/stm32f10x_can.c ****   /* Check the parameters */
 436:STM32F10x_StdPeriph_Driver/src/stm32f10x_can.c ****   assert_param(IS_CAN_BANKNUMBER(CAN_BankNumber));
 437:STM32F10x_StdPeriph_Driver/src/stm32f10x_can.c ****   /* enter Initialisation mode for the filter */
 438:STM32F10x_StdPeriph_Driver/src/stm32f10x_can.c ****   CAN1->FMR |= FMR_FINIT;
 439:STM32F10x_StdPeriph_Driver/src/stm32f10x_can.c ****   /* Select the start slave bank */
 440:STM32F10x_StdPeriph_Driver/src/stm32f10x_can.c ****   CAN1->FMR &= (uint32_t)0xFFFFC0F1 ;
 441:STM32F10x_StdPeriph_Driver/src/stm32f10x_can.c ****   CAN1->FMR |= (uint32_t)(CAN_BankNumber)<<8;
 442:STM32F10x_StdPeriph_Driver/src/stm32f10x_can.c ****   /* Leave Initialisation mode for the filter */
 443:STM32F10x_StdPeriph_Driver/src/stm32f10x_can.c ****   CAN1->FMR &= ~FMR_FINIT;
 444:STM32F10x_StdPeriph_Driver/src/stm32f10x_can.c **** }
 445:STM32F10x_StdPeriph_Driver/src/stm32f10x_can.c **** 
 446:STM32F10x_StdPeriph_Driver/src/stm32f10x_can.c **** /**
 447:STM32F10x_StdPeriph_Driver/src/stm32f10x_can.c ****   * @brief  Enables or disables the specified CAN interrupts.
 448:STM32F10x_StdPeriph_Driver/src/stm32f10x_can.c ****   * @param  CANx: where x can be 1 or 2 to to select the CAN peripheral.
 449:STM32F10x_StdPeriph_Driver/src/stm32f10x_can.c ****   * @param  CAN_IT: specifies the CAN interrupt sources to be enabled or disabled.
 450:STM32F10x_StdPeriph_Driver/src/stm32f10x_can.c ****   *   This parameter can be: CAN_IT_TME, CAN_IT_FMP0, CAN_IT_FF0,
 451:STM32F10x_StdPeriph_Driver/src/stm32f10x_can.c ****   *   CAN_IT_FOV0, CAN_IT_FMP1, CAN_IT_FF1,
 452:STM32F10x_StdPeriph_Driver/src/stm32f10x_can.c ****   *   CAN_IT_FOV1, CAN_IT_EWG, CAN_IT_EPV,
 453:STM32F10x_StdPeriph_Driver/src/stm32f10x_can.c ****   *   CAN_IT_LEC, CAN_IT_ERR, CAN_IT_WKU or
 454:STM32F10x_StdPeriph_Driver/src/stm32f10x_can.c ****   *   CAN_IT_SLK.
 455:STM32F10x_StdPeriph_Driver/src/stm32f10x_can.c ****   * @param  NewState: new state of the CAN interrupts.
 456:STM32F10x_StdPeriph_Driver/src/stm32f10x_can.c ****   *   This parameter can be: ENABLE or DISABLE.
 457:STM32F10x_StdPeriph_Driver/src/stm32f10x_can.c ****   * @retval None.
 458:STM32F10x_StdPeriph_Driver/src/stm32f10x_can.c ****   */
 459:STM32F10x_StdPeriph_Driver/src/stm32f10x_can.c **** void CAN_ITConfig(CAN_TypeDef* CANx, uint32_t CAN_IT, FunctionalState NewState)
 460:STM32F10x_StdPeriph_Driver/src/stm32f10x_can.c **** {
 461:STM32F10x_StdPeriph_Driver/src/stm32f10x_can.c ****   /* Check the parameters */
 462:STM32F10x_StdPeriph_Driver/src/stm32f10x_can.c ****   assert_param(IS_CAN_ALL_PERIPH(CANx));
 463:STM32F10x_StdPeriph_Driver/src/stm32f10x_can.c ****   assert_param(IS_CAN_ITConfig(CAN_IT));
 464:STM32F10x_StdPeriph_Driver/src/stm32f10x_can.c ****   assert_param(IS_FUNCTIONAL_STATE(NewState));
 465:STM32F10x_StdPeriph_Driver/src/stm32f10x_can.c **** 
 466:STM32F10x_StdPeriph_Driver/src/stm32f10x_can.c ****   if (NewState != DISABLE)
 467:STM32F10x_StdPeriph_Driver/src/stm32f10x_can.c ****   {
 468:STM32F10x_StdPeriph_Driver/src/stm32f10x_can.c ****     /* Enable the selected CAN interrupt */
 469:STM32F10x_StdPeriph_Driver/src/stm32f10x_can.c ****     CANx->IER |= CAN_IT;
 470:STM32F10x_StdPeriph_Driver/src/stm32f10x_can.c ****   }
 471:STM32F10x_StdPeriph_Driver/src/stm32f10x_can.c ****   else
 472:STM32F10x_StdPeriph_Driver/src/stm32f10x_can.c ****   {
 473:STM32F10x_StdPeriph_Driver/src/stm32f10x_can.c ****     /* Disable the selected CAN interrupt */
 474:STM32F10x_StdPeriph_Driver/src/stm32f10x_can.c ****     CANx->IER &= ~CAN_IT;
 475:STM32F10x_StdPeriph_Driver/src/stm32f10x_can.c ****   }
 476:STM32F10x_StdPeriph_Driver/src/stm32f10x_can.c **** }
 477:STM32F10x_StdPeriph_Driver/src/stm32f10x_can.c **** 
 478:STM32F10x_StdPeriph_Driver/src/stm32f10x_can.c **** /**
 479:STM32F10x_StdPeriph_Driver/src/stm32f10x_can.c ****   * @brief  Initiates the transmission of a message.
 480:STM32F10x_StdPeriph_Driver/src/stm32f10x_can.c ****   * @param  CANx: where x can be 1 or 2 to to select the CAN peripheral.
 481:STM32F10x_StdPeriph_Driver/src/stm32f10x_can.c ****   * @param  TxMessage: pointer to a structure which contains CAN Id, CAN
 482:STM32F10x_StdPeriph_Driver/src/stm32f10x_can.c ****   *   DLC and CAN datas.
 483:STM32F10x_StdPeriph_Driver/src/stm32f10x_can.c ****   * @retval The number of the mailbox that is used for transmission
 484:STM32F10x_StdPeriph_Driver/src/stm32f10x_can.c ****   *   or CAN_NO_MB if there is no empty mailbox.
 485:STM32F10x_StdPeriph_Driver/src/stm32f10x_can.c ****   */
 486:STM32F10x_StdPeriph_Driver/src/stm32f10x_can.c **** uint8_t CAN_Transmit(CAN_TypeDef* CANx, CanTxMsg* TxMessage)
 487:STM32F10x_StdPeriph_Driver/src/stm32f10x_can.c **** {
 488:STM32F10x_StdPeriph_Driver/src/stm32f10x_can.c ****   uint8_t transmit_mailbox = 0;
ARM GAS  /var/folders/g9/bbpj86ld7fx45vd1b3pqxmp00000gn/T//ccXBJrXf.s 			page 10


 489:STM32F10x_StdPeriph_Driver/src/stm32f10x_can.c ****   /* Check the parameters */
 490:STM32F10x_StdPeriph_Driver/src/stm32f10x_can.c ****   assert_param(IS_CAN_ALL_PERIPH(CANx));
 491:STM32F10x_StdPeriph_Driver/src/stm32f10x_can.c ****   assert_param(IS_CAN_IDTYPE(TxMessage->IDE));
 492:STM32F10x_StdPeriph_Driver/src/stm32f10x_can.c ****   assert_param(IS_CAN_RTR(TxMessage->RTR));
 493:STM32F10x_StdPeriph_Driver/src/stm32f10x_can.c ****   assert_param(IS_CAN_DLC(TxMessage->DLC));
 494:STM32F10x_StdPeriph_Driver/src/stm32f10x_can.c **** 
 495:STM32F10x_StdPeriph_Driver/src/stm32f10x_can.c ****   /* Select one empty transmit mailbox */
 496:STM32F10x_StdPeriph_Driver/src/stm32f10x_can.c ****   if ((CANx->TSR&TSR_TME0) == TSR_TME0)
 497:STM32F10x_StdPeriph_Driver/src/stm32f10x_can.c ****   {
 498:STM32F10x_StdPeriph_Driver/src/stm32f10x_can.c ****     transmit_mailbox = 0;
 499:STM32F10x_StdPeriph_Driver/src/stm32f10x_can.c ****   }
 500:STM32F10x_StdPeriph_Driver/src/stm32f10x_can.c ****   else if ((CANx->TSR&TSR_TME1) == TSR_TME1)
 501:STM32F10x_StdPeriph_Driver/src/stm32f10x_can.c ****   {
 502:STM32F10x_StdPeriph_Driver/src/stm32f10x_can.c ****     transmit_mailbox = 1;
 503:STM32F10x_StdPeriph_Driver/src/stm32f10x_can.c ****   }
 504:STM32F10x_StdPeriph_Driver/src/stm32f10x_can.c ****   else if ((CANx->TSR&TSR_TME2) == TSR_TME2)
 505:STM32F10x_StdPeriph_Driver/src/stm32f10x_can.c ****   {
 506:STM32F10x_StdPeriph_Driver/src/stm32f10x_can.c ****     transmit_mailbox = 2;
 507:STM32F10x_StdPeriph_Driver/src/stm32f10x_can.c ****   }
 508:STM32F10x_StdPeriph_Driver/src/stm32f10x_can.c ****   else
 509:STM32F10x_StdPeriph_Driver/src/stm32f10x_can.c ****   {
 510:STM32F10x_StdPeriph_Driver/src/stm32f10x_can.c ****     transmit_mailbox = CAN_NO_MB;
 511:STM32F10x_StdPeriph_Driver/src/stm32f10x_can.c ****   }
 512:STM32F10x_StdPeriph_Driver/src/stm32f10x_can.c **** 
 513:STM32F10x_StdPeriph_Driver/src/stm32f10x_can.c ****   if (transmit_mailbox != CAN_NO_MB)
 514:STM32F10x_StdPeriph_Driver/src/stm32f10x_can.c ****   {
 515:STM32F10x_StdPeriph_Driver/src/stm32f10x_can.c ****     /* Set up the Id */
 516:STM32F10x_StdPeriph_Driver/src/stm32f10x_can.c ****     CANx->sTxMailBox[transmit_mailbox].TIR &= TMIDxR_TXRQ;
 517:STM32F10x_StdPeriph_Driver/src/stm32f10x_can.c ****     if (TxMessage->IDE == CAN_ID_STD)
 518:STM32F10x_StdPeriph_Driver/src/stm32f10x_can.c ****     {
 519:STM32F10x_StdPeriph_Driver/src/stm32f10x_can.c ****       assert_param(IS_CAN_STDID(TxMessage->StdId));  
 520:STM32F10x_StdPeriph_Driver/src/stm32f10x_can.c ****       CANx->sTxMailBox[transmit_mailbox].TIR |= ((TxMessage->StdId << 21) | TxMessage->RTR);
 521:STM32F10x_StdPeriph_Driver/src/stm32f10x_can.c ****     }
 522:STM32F10x_StdPeriph_Driver/src/stm32f10x_can.c ****     else
 523:STM32F10x_StdPeriph_Driver/src/stm32f10x_can.c ****     {
 524:STM32F10x_StdPeriph_Driver/src/stm32f10x_can.c ****       assert_param(IS_CAN_EXTID(TxMessage->ExtId));
 525:STM32F10x_StdPeriph_Driver/src/stm32f10x_can.c ****       CANx->sTxMailBox[transmit_mailbox].TIR |= ((TxMessage->ExtId<<3) | TxMessage->IDE | 
 526:STM32F10x_StdPeriph_Driver/src/stm32f10x_can.c ****                                                TxMessage->RTR);
 527:STM32F10x_StdPeriph_Driver/src/stm32f10x_can.c ****     }
 528:STM32F10x_StdPeriph_Driver/src/stm32f10x_can.c ****     
 529:STM32F10x_StdPeriph_Driver/src/stm32f10x_can.c **** 
 530:STM32F10x_StdPeriph_Driver/src/stm32f10x_can.c ****     /* Set up the DLC */
 531:STM32F10x_StdPeriph_Driver/src/stm32f10x_can.c ****     TxMessage->DLC &= (uint8_t)0x0000000F;
 532:STM32F10x_StdPeriph_Driver/src/stm32f10x_can.c ****     CANx->sTxMailBox[transmit_mailbox].TDTR &= (uint32_t)0xFFFFFFF0;
 533:STM32F10x_StdPeriph_Driver/src/stm32f10x_can.c ****     CANx->sTxMailBox[transmit_mailbox].TDTR |= TxMessage->DLC;
 534:STM32F10x_StdPeriph_Driver/src/stm32f10x_can.c **** 
 535:STM32F10x_StdPeriph_Driver/src/stm32f10x_can.c ****     /* Set up the data field */
 536:STM32F10x_StdPeriph_Driver/src/stm32f10x_can.c ****     CANx->sTxMailBox[transmit_mailbox].TDLR = (((uint32_t)TxMessage->Data[3] << 24) | 
 537:STM32F10x_StdPeriph_Driver/src/stm32f10x_can.c ****                                              ((uint32_t)TxMessage->Data[2] << 16) |
 538:STM32F10x_StdPeriph_Driver/src/stm32f10x_can.c ****                                              ((uint32_t)TxMessage->Data[1] << 8) | 
 539:STM32F10x_StdPeriph_Driver/src/stm32f10x_can.c ****                                              ((uint32_t)TxMessage->Data[0]));
 540:STM32F10x_StdPeriph_Driver/src/stm32f10x_can.c ****     CANx->sTxMailBox[transmit_mailbox].TDHR = (((uint32_t)TxMessage->Data[7] << 24) | 
 541:STM32F10x_StdPeriph_Driver/src/stm32f10x_can.c ****                                              ((uint32_t)TxMessage->Data[6] << 16) |
 542:STM32F10x_StdPeriph_Driver/src/stm32f10x_can.c ****                                              ((uint32_t)TxMessage->Data[5] << 8) |
 543:STM32F10x_StdPeriph_Driver/src/stm32f10x_can.c ****                                              ((uint32_t)TxMessage->Data[4]));
 544:STM32F10x_StdPeriph_Driver/src/stm32f10x_can.c ****     /* Request transmission */
 545:STM32F10x_StdPeriph_Driver/src/stm32f10x_can.c ****     CANx->sTxMailBox[transmit_mailbox].TIR |= TMIDxR_TXRQ;
ARM GAS  /var/folders/g9/bbpj86ld7fx45vd1b3pqxmp00000gn/T//ccXBJrXf.s 			page 11


 546:STM32F10x_StdPeriph_Driver/src/stm32f10x_can.c ****   }
 547:STM32F10x_StdPeriph_Driver/src/stm32f10x_can.c ****   return transmit_mailbox;
 548:STM32F10x_StdPeriph_Driver/src/stm32f10x_can.c **** }
 549:STM32F10x_StdPeriph_Driver/src/stm32f10x_can.c **** 
 550:STM32F10x_StdPeriph_Driver/src/stm32f10x_can.c **** /**
 551:STM32F10x_StdPeriph_Driver/src/stm32f10x_can.c ****   * @brief  Checks the transmission of a message.
 552:STM32F10x_StdPeriph_Driver/src/stm32f10x_can.c ****   * @param  CANx: where x can be 1 or 2 to to select the CAN peripheral.
 553:STM32F10x_StdPeriph_Driver/src/stm32f10x_can.c ****   * @param  TransmitMailbox: the number of the mailbox that is used for transmission.
 554:STM32F10x_StdPeriph_Driver/src/stm32f10x_can.c ****   * @retval CANTXOK if the CAN driver transmits the message, CANTXFAILED in an other case.
 555:STM32F10x_StdPeriph_Driver/src/stm32f10x_can.c ****   */
 556:STM32F10x_StdPeriph_Driver/src/stm32f10x_can.c **** uint8_t CAN_TransmitStatus(CAN_TypeDef* CANx, uint8_t TransmitMailbox)
 557:STM32F10x_StdPeriph_Driver/src/stm32f10x_can.c **** {
 558:STM32F10x_StdPeriph_Driver/src/stm32f10x_can.c ****   /* RQCP, TXOK and TME bits */
 559:STM32F10x_StdPeriph_Driver/src/stm32f10x_can.c ****   uint8_t state = 0;
 560:STM32F10x_StdPeriph_Driver/src/stm32f10x_can.c ****   /* Check the parameters */
 561:STM32F10x_StdPeriph_Driver/src/stm32f10x_can.c ****   assert_param(IS_CAN_ALL_PERIPH(CANx));
 562:STM32F10x_StdPeriph_Driver/src/stm32f10x_can.c ****   assert_param(IS_CAN_TRANSMITMAILBOX(TransmitMailbox));
 563:STM32F10x_StdPeriph_Driver/src/stm32f10x_can.c ****   switch (TransmitMailbox)
 564:STM32F10x_StdPeriph_Driver/src/stm32f10x_can.c ****   {
 565:STM32F10x_StdPeriph_Driver/src/stm32f10x_can.c ****     case (0): state |= (uint8_t)((CANx->TSR & TSR_RQCP0) << 2);
 566:STM32F10x_StdPeriph_Driver/src/stm32f10x_can.c ****       state |= (uint8_t)((CANx->TSR & TSR_TXOK0) >> 0);
 567:STM32F10x_StdPeriph_Driver/src/stm32f10x_can.c ****       state |= (uint8_t)((CANx->TSR & TSR_TME0) >> 26);
 568:STM32F10x_StdPeriph_Driver/src/stm32f10x_can.c ****       break;
 569:STM32F10x_StdPeriph_Driver/src/stm32f10x_can.c ****     case (1): state |= (uint8_t)((CANx->TSR & TSR_RQCP1) >> 6);
 570:STM32F10x_StdPeriph_Driver/src/stm32f10x_can.c ****       state |= (uint8_t)((CANx->TSR & TSR_TXOK1) >> 8);
 571:STM32F10x_StdPeriph_Driver/src/stm32f10x_can.c ****       state |= (uint8_t)((CANx->TSR & TSR_TME1) >> 27);
 572:STM32F10x_StdPeriph_Driver/src/stm32f10x_can.c ****       break;
 573:STM32F10x_StdPeriph_Driver/src/stm32f10x_can.c ****     case (2): state |= (uint8_t)((CANx->TSR & TSR_RQCP2) >> 14);
 574:STM32F10x_StdPeriph_Driver/src/stm32f10x_can.c ****       state |= (uint8_t)((CANx->TSR & TSR_TXOK2) >> 16);
 575:STM32F10x_StdPeriph_Driver/src/stm32f10x_can.c ****       state |= (uint8_t)((CANx->TSR & TSR_TME2) >> 28);
 576:STM32F10x_StdPeriph_Driver/src/stm32f10x_can.c ****       break;
 577:STM32F10x_StdPeriph_Driver/src/stm32f10x_can.c ****     default:
 578:STM32F10x_StdPeriph_Driver/src/stm32f10x_can.c ****       state = CANTXFAILED;
 579:STM32F10x_StdPeriph_Driver/src/stm32f10x_can.c ****       break;
 580:STM32F10x_StdPeriph_Driver/src/stm32f10x_can.c ****   }
 581:STM32F10x_StdPeriph_Driver/src/stm32f10x_can.c ****   switch (state)
 582:STM32F10x_StdPeriph_Driver/src/stm32f10x_can.c ****   {
 583:STM32F10x_StdPeriph_Driver/src/stm32f10x_can.c ****       /* transmit pending  */
 584:STM32F10x_StdPeriph_Driver/src/stm32f10x_can.c ****     case (0x0): state = CANTXPENDING;
 585:STM32F10x_StdPeriph_Driver/src/stm32f10x_can.c ****       break;
 586:STM32F10x_StdPeriph_Driver/src/stm32f10x_can.c ****       /* transmit failed  */
 587:STM32F10x_StdPeriph_Driver/src/stm32f10x_can.c ****     case (0x5): state = CANTXFAILED;
 588:STM32F10x_StdPeriph_Driver/src/stm32f10x_can.c ****       break;
 589:STM32F10x_StdPeriph_Driver/src/stm32f10x_can.c ****       /* transmit succedeed  */
 590:STM32F10x_StdPeriph_Driver/src/stm32f10x_can.c ****     case (0x7): state = CANTXOK;
 591:STM32F10x_StdPeriph_Driver/src/stm32f10x_can.c ****       break;
 592:STM32F10x_StdPeriph_Driver/src/stm32f10x_can.c ****     default:
 593:STM32F10x_StdPeriph_Driver/src/stm32f10x_can.c ****       state = CANTXFAILED;
 594:STM32F10x_StdPeriph_Driver/src/stm32f10x_can.c ****       break;
 595:STM32F10x_StdPeriph_Driver/src/stm32f10x_can.c ****   }
 596:STM32F10x_StdPeriph_Driver/src/stm32f10x_can.c ****   return state;
 597:STM32F10x_StdPeriph_Driver/src/stm32f10x_can.c **** }
 598:STM32F10x_StdPeriph_Driver/src/stm32f10x_can.c **** 
 599:STM32F10x_StdPeriph_Driver/src/stm32f10x_can.c **** /**
 600:STM32F10x_StdPeriph_Driver/src/stm32f10x_can.c ****   * @brief  Cancels a transmit request.
 601:STM32F10x_StdPeriph_Driver/src/stm32f10x_can.c ****   * @param  CANx: where x can be 1 or 2 to to select the CAN peripheral. 
 602:STM32F10x_StdPeriph_Driver/src/stm32f10x_can.c ****   * @param  Mailbox: Mailbox number.
ARM GAS  /var/folders/g9/bbpj86ld7fx45vd1b3pqxmp00000gn/T//ccXBJrXf.s 			page 12


 603:STM32F10x_StdPeriph_Driver/src/stm32f10x_can.c ****   * @retval None.
 604:STM32F10x_StdPeriph_Driver/src/stm32f10x_can.c ****   */
 605:STM32F10x_StdPeriph_Driver/src/stm32f10x_can.c **** void CAN_CancelTransmit(CAN_TypeDef* CANx, uint8_t Mailbox)
 606:STM32F10x_StdPeriph_Driver/src/stm32f10x_can.c **** {
 607:STM32F10x_StdPeriph_Driver/src/stm32f10x_can.c ****   /* Check the parameters */
 608:STM32F10x_StdPeriph_Driver/src/stm32f10x_can.c ****   assert_param(IS_CAN_ALL_PERIPH(CANx));
 609:STM32F10x_StdPeriph_Driver/src/stm32f10x_can.c ****   assert_param(IS_CAN_TRANSMITMAILBOX(Mailbox));
 610:STM32F10x_StdPeriph_Driver/src/stm32f10x_can.c ****   /* abort transmission */
 611:STM32F10x_StdPeriph_Driver/src/stm32f10x_can.c ****   switch (Mailbox)
 612:STM32F10x_StdPeriph_Driver/src/stm32f10x_can.c ****   {
 613:STM32F10x_StdPeriph_Driver/src/stm32f10x_can.c ****     case (0): CANx->TSR |= TSR_ABRQ0;
 614:STM32F10x_StdPeriph_Driver/src/stm32f10x_can.c ****       break;
 615:STM32F10x_StdPeriph_Driver/src/stm32f10x_can.c ****     case (1): CANx->TSR |= TSR_ABRQ1;
 616:STM32F10x_StdPeriph_Driver/src/stm32f10x_can.c ****       break;
 617:STM32F10x_StdPeriph_Driver/src/stm32f10x_can.c ****     case (2): CANx->TSR |= TSR_ABRQ2;
 618:STM32F10x_StdPeriph_Driver/src/stm32f10x_can.c ****       break;
 619:STM32F10x_StdPeriph_Driver/src/stm32f10x_can.c ****     default:
 620:STM32F10x_StdPeriph_Driver/src/stm32f10x_can.c ****       break;
 621:STM32F10x_StdPeriph_Driver/src/stm32f10x_can.c ****   }
 622:STM32F10x_StdPeriph_Driver/src/stm32f10x_can.c **** }
 623:STM32F10x_StdPeriph_Driver/src/stm32f10x_can.c **** 
 624:STM32F10x_StdPeriph_Driver/src/stm32f10x_can.c **** /**
 625:STM32F10x_StdPeriph_Driver/src/stm32f10x_can.c ****   * @brief  Releases a FIFO.
 626:STM32F10x_StdPeriph_Driver/src/stm32f10x_can.c ****   * @param  CANx: where x can be 1 or 2 to to select the CAN peripheral. 
 627:STM32F10x_StdPeriph_Driver/src/stm32f10x_can.c ****   * @param  FIFONumber: FIFO to release, CAN_FIFO0 or CAN_FIFO1.
 628:STM32F10x_StdPeriph_Driver/src/stm32f10x_can.c ****   * @retval None.
 629:STM32F10x_StdPeriph_Driver/src/stm32f10x_can.c ****   */
 630:STM32F10x_StdPeriph_Driver/src/stm32f10x_can.c **** void CAN_FIFORelease(CAN_TypeDef* CANx, uint8_t FIFONumber)
 631:STM32F10x_StdPeriph_Driver/src/stm32f10x_can.c **** {
 632:STM32F10x_StdPeriph_Driver/src/stm32f10x_can.c ****   /* Check the parameters */
 633:STM32F10x_StdPeriph_Driver/src/stm32f10x_can.c ****   assert_param(IS_CAN_ALL_PERIPH(CANx));
 634:STM32F10x_StdPeriph_Driver/src/stm32f10x_can.c ****   assert_param(IS_CAN_FIFO(FIFONumber));
 635:STM32F10x_StdPeriph_Driver/src/stm32f10x_can.c ****   /* Release FIFO0 */
 636:STM32F10x_StdPeriph_Driver/src/stm32f10x_can.c ****   if (FIFONumber == CAN_FIFO0)
 637:STM32F10x_StdPeriph_Driver/src/stm32f10x_can.c ****   {
 638:STM32F10x_StdPeriph_Driver/src/stm32f10x_can.c ****     CANx->RF0R = RF0R_RFOM0;
 639:STM32F10x_StdPeriph_Driver/src/stm32f10x_can.c ****   }
 640:STM32F10x_StdPeriph_Driver/src/stm32f10x_can.c ****   /* Release FIFO1 */
 641:STM32F10x_StdPeriph_Driver/src/stm32f10x_can.c ****   else /* FIFONumber == CAN_FIFO1 */
 642:STM32F10x_StdPeriph_Driver/src/stm32f10x_can.c ****   {
 643:STM32F10x_StdPeriph_Driver/src/stm32f10x_can.c ****     CANx->RF1R = RF1R_RFOM1;
 644:STM32F10x_StdPeriph_Driver/src/stm32f10x_can.c ****   }
 645:STM32F10x_StdPeriph_Driver/src/stm32f10x_can.c **** }
 646:STM32F10x_StdPeriph_Driver/src/stm32f10x_can.c **** 
 647:STM32F10x_StdPeriph_Driver/src/stm32f10x_can.c **** /**
 648:STM32F10x_StdPeriph_Driver/src/stm32f10x_can.c ****   * @brief  Returns the number of pending messages.
 649:STM32F10x_StdPeriph_Driver/src/stm32f10x_can.c ****   * @param  CANx: where x can be 1 or 2 to to select the CAN peripheral.
 650:STM32F10x_StdPeriph_Driver/src/stm32f10x_can.c ****   * @param  FIFONumber: Receive FIFO number, CAN_FIFO0 or CAN_FIFO1.
 651:STM32F10x_StdPeriph_Driver/src/stm32f10x_can.c ****   * @retval NbMessage which is the number of pending message.
 652:STM32F10x_StdPeriph_Driver/src/stm32f10x_can.c ****   */
 653:STM32F10x_StdPeriph_Driver/src/stm32f10x_can.c **** uint8_t CAN_MessagePending(CAN_TypeDef* CANx, uint8_t FIFONumber)
 654:STM32F10x_StdPeriph_Driver/src/stm32f10x_can.c **** {
 655:STM32F10x_StdPeriph_Driver/src/stm32f10x_can.c ****   uint8_t message_pending=0;
 656:STM32F10x_StdPeriph_Driver/src/stm32f10x_can.c ****   /* Check the parameters */
 657:STM32F10x_StdPeriph_Driver/src/stm32f10x_can.c ****   assert_param(IS_CAN_ALL_PERIPH(CANx));
 658:STM32F10x_StdPeriph_Driver/src/stm32f10x_can.c ****   assert_param(IS_CAN_FIFO(FIFONumber));
 659:STM32F10x_StdPeriph_Driver/src/stm32f10x_can.c ****   if (FIFONumber == CAN_FIFO0)
ARM GAS  /var/folders/g9/bbpj86ld7fx45vd1b3pqxmp00000gn/T//ccXBJrXf.s 			page 13


 660:STM32F10x_StdPeriph_Driver/src/stm32f10x_can.c ****   {
 661:STM32F10x_StdPeriph_Driver/src/stm32f10x_can.c ****     message_pending = (uint8_t)(CANx->RF0R&(uint32_t)0x03);
 662:STM32F10x_StdPeriph_Driver/src/stm32f10x_can.c ****   }
 663:STM32F10x_StdPeriph_Driver/src/stm32f10x_can.c ****   else if (FIFONumber == CAN_FIFO1)
 664:STM32F10x_StdPeriph_Driver/src/stm32f10x_can.c ****   {
 665:STM32F10x_StdPeriph_Driver/src/stm32f10x_can.c ****     message_pending = (uint8_t)(CANx->RF1R&(uint32_t)0x03);
 666:STM32F10x_StdPeriph_Driver/src/stm32f10x_can.c ****   }
 667:STM32F10x_StdPeriph_Driver/src/stm32f10x_can.c ****   else
 668:STM32F10x_StdPeriph_Driver/src/stm32f10x_can.c ****   {
 669:STM32F10x_StdPeriph_Driver/src/stm32f10x_can.c ****     message_pending = 0;
 670:STM32F10x_StdPeriph_Driver/src/stm32f10x_can.c ****   }
 671:STM32F10x_StdPeriph_Driver/src/stm32f10x_can.c ****   return message_pending;
 672:STM32F10x_StdPeriph_Driver/src/stm32f10x_can.c **** }
 673:STM32F10x_StdPeriph_Driver/src/stm32f10x_can.c **** 
 674:STM32F10x_StdPeriph_Driver/src/stm32f10x_can.c **** /**
 675:STM32F10x_StdPeriph_Driver/src/stm32f10x_can.c ****   * @brief  Receives a message.
 676:STM32F10x_StdPeriph_Driver/src/stm32f10x_can.c ****   * @param  CANx: where x can be 1 or 2 to to select the CAN peripheral.
 677:STM32F10x_StdPeriph_Driver/src/stm32f10x_can.c ****   * @param  FIFONumber: Receive FIFO number, CAN_FIFO0 or CAN_FIFO1.
 678:STM32F10x_StdPeriph_Driver/src/stm32f10x_can.c ****   * @param  RxMessage: pointer to a structure receive message which 
 679:STM32F10x_StdPeriph_Driver/src/stm32f10x_can.c ****   *   contains CAN Id, CAN DLC, CAN datas and FMI number.
 680:STM32F10x_StdPeriph_Driver/src/stm32f10x_can.c ****   * @retval None.
 681:STM32F10x_StdPeriph_Driver/src/stm32f10x_can.c ****   */
 682:STM32F10x_StdPeriph_Driver/src/stm32f10x_can.c **** void CAN_Receive(CAN_TypeDef* CANx, uint8_t FIFONumber, CanRxMsg* RxMessage)
 683:STM32F10x_StdPeriph_Driver/src/stm32f10x_can.c **** {
 684:STM32F10x_StdPeriph_Driver/src/stm32f10x_can.c ****   /* Check the parameters */
 685:STM32F10x_StdPeriph_Driver/src/stm32f10x_can.c ****   assert_param(IS_CAN_ALL_PERIPH(CANx));
 686:STM32F10x_StdPeriph_Driver/src/stm32f10x_can.c ****   assert_param(IS_CAN_FIFO(FIFONumber));
 687:STM32F10x_StdPeriph_Driver/src/stm32f10x_can.c ****   /* Get the Id */
 688:STM32F10x_StdPeriph_Driver/src/stm32f10x_can.c ****   RxMessage->IDE = (uint8_t)0x04 & CANx->sFIFOMailBox[FIFONumber].RIR;
 689:STM32F10x_StdPeriph_Driver/src/stm32f10x_can.c ****   if (RxMessage->IDE == CAN_ID_STD)
 690:STM32F10x_StdPeriph_Driver/src/stm32f10x_can.c ****   {
 691:STM32F10x_StdPeriph_Driver/src/stm32f10x_can.c ****     RxMessage->StdId = (uint32_t)0x000007FF & (CANx->sFIFOMailBox[FIFONumber].RIR >> 21);
 692:STM32F10x_StdPeriph_Driver/src/stm32f10x_can.c ****   }
 693:STM32F10x_StdPeriph_Driver/src/stm32f10x_can.c ****   else
 694:STM32F10x_StdPeriph_Driver/src/stm32f10x_can.c ****   {
 695:STM32F10x_StdPeriph_Driver/src/stm32f10x_can.c ****     RxMessage->ExtId = (uint32_t)0x1FFFFFFF & (CANx->sFIFOMailBox[FIFONumber].RIR >> 3);
 696:STM32F10x_StdPeriph_Driver/src/stm32f10x_can.c ****   }
 697:STM32F10x_StdPeriph_Driver/src/stm32f10x_can.c ****   
 698:STM32F10x_StdPeriph_Driver/src/stm32f10x_can.c ****   RxMessage->RTR = (uint8_t)0x02 & CANx->sFIFOMailBox[FIFONumber].RIR;
 699:STM32F10x_StdPeriph_Driver/src/stm32f10x_can.c ****   /* Get the DLC */
 700:STM32F10x_StdPeriph_Driver/src/stm32f10x_can.c ****   RxMessage->DLC = (uint8_t)0x0F & CANx->sFIFOMailBox[FIFONumber].RDTR;
 701:STM32F10x_StdPeriph_Driver/src/stm32f10x_can.c ****   /* Get the FMI */
 702:STM32F10x_StdPeriph_Driver/src/stm32f10x_can.c ****   RxMessage->FMI = (uint8_t)0xFF & (CANx->sFIFOMailBox[FIFONumber].RDTR >> 8);
 703:STM32F10x_StdPeriph_Driver/src/stm32f10x_can.c ****   /* Get the data field */
 704:STM32F10x_StdPeriph_Driver/src/stm32f10x_can.c ****   RxMessage->Data[0] = (uint8_t)0xFF & CANx->sFIFOMailBox[FIFONumber].RDLR;
 705:STM32F10x_StdPeriph_Driver/src/stm32f10x_can.c ****   RxMessage->Data[1] = (uint8_t)0xFF & (CANx->sFIFOMailBox[FIFONumber].RDLR >> 8);
 706:STM32F10x_StdPeriph_Driver/src/stm32f10x_can.c ****   RxMessage->Data[2] = (uint8_t)0xFF & (CANx->sFIFOMailBox[FIFONumber].RDLR >> 16);
 707:STM32F10x_StdPeriph_Driver/src/stm32f10x_can.c ****   RxMessage->Data[3] = (uint8_t)0xFF & (CANx->sFIFOMailBox[FIFONumber].RDLR >> 24);
 708:STM32F10x_StdPeriph_Driver/src/stm32f10x_can.c ****   RxMessage->Data[4] = (uint8_t)0xFF & CANx->sFIFOMailBox[FIFONumber].RDHR;
 709:STM32F10x_StdPeriph_Driver/src/stm32f10x_can.c ****   RxMessage->Data[5] = (uint8_t)0xFF & (CANx->sFIFOMailBox[FIFONumber].RDHR >> 8);
 710:STM32F10x_StdPeriph_Driver/src/stm32f10x_can.c ****   RxMessage->Data[6] = (uint8_t)0xFF & (CANx->sFIFOMailBox[FIFONumber].RDHR >> 16);
 711:STM32F10x_StdPeriph_Driver/src/stm32f10x_can.c ****   RxMessage->Data[7] = (uint8_t)0xFF & (CANx->sFIFOMailBox[FIFONumber].RDHR >> 24);
 712:STM32F10x_StdPeriph_Driver/src/stm32f10x_can.c ****   /* Release the FIFO */
 713:STM32F10x_StdPeriph_Driver/src/stm32f10x_can.c ****   CAN_FIFORelease(CANx, FIFONumber);
 714:STM32F10x_StdPeriph_Driver/src/stm32f10x_can.c **** }
 715:STM32F10x_StdPeriph_Driver/src/stm32f10x_can.c **** 
 716:STM32F10x_StdPeriph_Driver/src/stm32f10x_can.c **** /**
ARM GAS  /var/folders/g9/bbpj86ld7fx45vd1b3pqxmp00000gn/T//ccXBJrXf.s 			page 14


 717:STM32F10x_StdPeriph_Driver/src/stm32f10x_can.c ****   * @brief  Enables or disables the DBG Freeze for CAN.
 718:STM32F10x_StdPeriph_Driver/src/stm32f10x_can.c ****   * @param  CANx: where x can be 1 or 2 to to select the CAN peripheral.
 719:STM32F10x_StdPeriph_Driver/src/stm32f10x_can.c ****   * @param  NewState: new state of the CAN peripheral.
 720:STM32F10x_StdPeriph_Driver/src/stm32f10x_can.c ****   *   This parameter can be: ENABLE or DISABLE.
 721:STM32F10x_StdPeriph_Driver/src/stm32f10x_can.c ****   * @retval None.
 722:STM32F10x_StdPeriph_Driver/src/stm32f10x_can.c ****   */
 723:STM32F10x_StdPeriph_Driver/src/stm32f10x_can.c **** void CAN_DBGFreeze(CAN_TypeDef* CANx, FunctionalState NewState)
 724:STM32F10x_StdPeriph_Driver/src/stm32f10x_can.c **** {
 725:STM32F10x_StdPeriph_Driver/src/stm32f10x_can.c ****   /* Check the parameters */
 726:STM32F10x_StdPeriph_Driver/src/stm32f10x_can.c ****   assert_param(IS_CAN_ALL_PERIPH(CANx));
 727:STM32F10x_StdPeriph_Driver/src/stm32f10x_can.c ****   assert_param(IS_FUNCTIONAL_STATE(NewState));
 728:STM32F10x_StdPeriph_Driver/src/stm32f10x_can.c ****   
 729:STM32F10x_StdPeriph_Driver/src/stm32f10x_can.c ****   if (NewState != DISABLE)
 730:STM32F10x_StdPeriph_Driver/src/stm32f10x_can.c ****   {
 731:STM32F10x_StdPeriph_Driver/src/stm32f10x_can.c ****     /* Enable Debug Freeze  */
 732:STM32F10x_StdPeriph_Driver/src/stm32f10x_can.c ****     CANx->MCR |= MCR_DBF;
 733:STM32F10x_StdPeriph_Driver/src/stm32f10x_can.c ****   }
 734:STM32F10x_StdPeriph_Driver/src/stm32f10x_can.c ****   else
 735:STM32F10x_StdPeriph_Driver/src/stm32f10x_can.c ****   {
 736:STM32F10x_StdPeriph_Driver/src/stm32f10x_can.c ****     /* Disable Debug Freeze */
 737:STM32F10x_StdPeriph_Driver/src/stm32f10x_can.c ****     CANx->MCR &= ~MCR_DBF;
 738:STM32F10x_StdPeriph_Driver/src/stm32f10x_can.c ****   }
 739:STM32F10x_StdPeriph_Driver/src/stm32f10x_can.c **** }
 740:STM32F10x_StdPeriph_Driver/src/stm32f10x_can.c **** 
 741:STM32F10x_StdPeriph_Driver/src/stm32f10x_can.c **** /**
 742:STM32F10x_StdPeriph_Driver/src/stm32f10x_can.c ****   * @brief  Enters the low power mode.
 743:STM32F10x_StdPeriph_Driver/src/stm32f10x_can.c ****   * @param  CANx: where x can be 1 or 2 to to select the CAN peripheral.
 744:STM32F10x_StdPeriph_Driver/src/stm32f10x_can.c ****   * @retval CANSLEEPOK if sleep entered, CANSLEEPFAILED in an other case.
 745:STM32F10x_StdPeriph_Driver/src/stm32f10x_can.c ****   */
 746:STM32F10x_StdPeriph_Driver/src/stm32f10x_can.c **** uint8_t CAN_Sleep(CAN_TypeDef* CANx)
 747:STM32F10x_StdPeriph_Driver/src/stm32f10x_can.c **** {
 748:STM32F10x_StdPeriph_Driver/src/stm32f10x_can.c ****   uint8_t sleepstatus = CANSLEEPFAILED;
 749:STM32F10x_StdPeriph_Driver/src/stm32f10x_can.c ****   
 750:STM32F10x_StdPeriph_Driver/src/stm32f10x_can.c ****   /* Check the parameters */
 751:STM32F10x_StdPeriph_Driver/src/stm32f10x_can.c ****   assert_param(IS_CAN_ALL_PERIPH(CANx));
 752:STM32F10x_StdPeriph_Driver/src/stm32f10x_can.c ****     
 753:STM32F10x_StdPeriph_Driver/src/stm32f10x_can.c ****   /* Request Sleep mode */
 754:STM32F10x_StdPeriph_Driver/src/stm32f10x_can.c ****    CANx->MCR = (((CANx->MCR) & (uint32_t)(~MCR_INRQ)) | MCR_SLEEP);
 755:STM32F10x_StdPeriph_Driver/src/stm32f10x_can.c ****    
 756:STM32F10x_StdPeriph_Driver/src/stm32f10x_can.c ****   /* Sleep mode status */
 757:STM32F10x_StdPeriph_Driver/src/stm32f10x_can.c ****   if ((CANx->MSR & (CAN_MSR_SLAK|CAN_MSR_INAK)) == CAN_MSR_SLAK)
 758:STM32F10x_StdPeriph_Driver/src/stm32f10x_can.c ****   {
 759:STM32F10x_StdPeriph_Driver/src/stm32f10x_can.c ****     /* Sleep mode not entered */
 760:STM32F10x_StdPeriph_Driver/src/stm32f10x_can.c ****     sleepstatus =  CANSLEEPOK;
 761:STM32F10x_StdPeriph_Driver/src/stm32f10x_can.c ****   }
 762:STM32F10x_StdPeriph_Driver/src/stm32f10x_can.c ****   /* At this step, sleep mode status */
 763:STM32F10x_StdPeriph_Driver/src/stm32f10x_can.c ****    return (uint8_t)sleepstatus;
 764:STM32F10x_StdPeriph_Driver/src/stm32f10x_can.c **** }
 765:STM32F10x_StdPeriph_Driver/src/stm32f10x_can.c **** 
 766:STM32F10x_StdPeriph_Driver/src/stm32f10x_can.c **** /**
 767:STM32F10x_StdPeriph_Driver/src/stm32f10x_can.c ****   * @brief  Wakes the CAN up.
 768:STM32F10x_StdPeriph_Driver/src/stm32f10x_can.c ****   * @param  CANx: where x can be 1 or 2 to to select the CAN peripheral.
 769:STM32F10x_StdPeriph_Driver/src/stm32f10x_can.c ****   * @retval CANWAKEUPOK if sleep mode left, CANWAKEUPFAILED in an other case.
 770:STM32F10x_StdPeriph_Driver/src/stm32f10x_can.c ****   */
 771:STM32F10x_StdPeriph_Driver/src/stm32f10x_can.c **** uint8_t CAN_WakeUp(CAN_TypeDef* CANx)
 772:STM32F10x_StdPeriph_Driver/src/stm32f10x_can.c **** {
 773:STM32F10x_StdPeriph_Driver/src/stm32f10x_can.c ****   uint32_t wait_slak = SLAK_TimeOut	;
ARM GAS  /var/folders/g9/bbpj86ld7fx45vd1b3pqxmp00000gn/T//ccXBJrXf.s 			page 15


 774:STM32F10x_StdPeriph_Driver/src/stm32f10x_can.c ****   uint8_t wakeupstatus = CANWAKEUPFAILED;
 775:STM32F10x_StdPeriph_Driver/src/stm32f10x_can.c ****   
 776:STM32F10x_StdPeriph_Driver/src/stm32f10x_can.c ****   /* Check the parameters */
 777:STM32F10x_StdPeriph_Driver/src/stm32f10x_can.c ****   assert_param(IS_CAN_ALL_PERIPH(CANx));
 778:STM32F10x_StdPeriph_Driver/src/stm32f10x_can.c ****     
 779:STM32F10x_StdPeriph_Driver/src/stm32f10x_can.c ****   /* Wake up request */
 780:STM32F10x_StdPeriph_Driver/src/stm32f10x_can.c ****   CANx->MCR &= ~MCR_SLEEP;
 781:STM32F10x_StdPeriph_Driver/src/stm32f10x_can.c ****     
 782:STM32F10x_StdPeriph_Driver/src/stm32f10x_can.c ****   /* Sleep mode status */
 783:STM32F10x_StdPeriph_Driver/src/stm32f10x_can.c ****   while(((CANx->MSR & CAN_MSR_SLAK) == CAN_MSR_SLAK)&&(wait_slak!=0x00))
 784:STM32F10x_StdPeriph_Driver/src/stm32f10x_can.c ****   {
 785:STM32F10x_StdPeriph_Driver/src/stm32f10x_can.c ****    wait_slak--;
 786:STM32F10x_StdPeriph_Driver/src/stm32f10x_can.c ****   }
 787:STM32F10x_StdPeriph_Driver/src/stm32f10x_can.c ****   if((CANx->MSR & CAN_MSR_SLAK) != CAN_MSR_SLAK)
 788:STM32F10x_StdPeriph_Driver/src/stm32f10x_can.c ****   {
 789:STM32F10x_StdPeriph_Driver/src/stm32f10x_can.c ****    /* Sleep mode exited */
 790:STM32F10x_StdPeriph_Driver/src/stm32f10x_can.c ****     wakeupstatus = CANWAKEUPOK;
 791:STM32F10x_StdPeriph_Driver/src/stm32f10x_can.c ****   }
 792:STM32F10x_StdPeriph_Driver/src/stm32f10x_can.c ****   /* At this step, sleep mode status */
 793:STM32F10x_StdPeriph_Driver/src/stm32f10x_can.c ****   return (uint8_t)wakeupstatus;
 794:STM32F10x_StdPeriph_Driver/src/stm32f10x_can.c **** }
 795:STM32F10x_StdPeriph_Driver/src/stm32f10x_can.c **** 
 796:STM32F10x_StdPeriph_Driver/src/stm32f10x_can.c **** /**
 797:STM32F10x_StdPeriph_Driver/src/stm32f10x_can.c ****   * @brief  Checks whether the specified CAN flag is set or not.
 798:STM32F10x_StdPeriph_Driver/src/stm32f10x_can.c ****   * @param  CANx: where x can be 1 or 2 to to select the CAN peripheral.
 799:STM32F10x_StdPeriph_Driver/src/stm32f10x_can.c ****   * @param  CAN_FLAG: specifies the flag to check.
 800:STM32F10x_StdPeriph_Driver/src/stm32f10x_can.c ****   *   This parameter can be: CAN_FLAG_EWG, CAN_FLAG_EPV or CAN_FLAG_BOF.
 801:STM32F10x_StdPeriph_Driver/src/stm32f10x_can.c ****   * @retval The new state of CAN_FLAG (SET or RESET).
 802:STM32F10x_StdPeriph_Driver/src/stm32f10x_can.c ****   */
 803:STM32F10x_StdPeriph_Driver/src/stm32f10x_can.c **** FlagStatus CAN_GetFlagStatus(CAN_TypeDef* CANx, uint32_t CAN_FLAG)
 804:STM32F10x_StdPeriph_Driver/src/stm32f10x_can.c **** {
 805:STM32F10x_StdPeriph_Driver/src/stm32f10x_can.c ****   FlagStatus bitstatus = RESET;
 806:STM32F10x_StdPeriph_Driver/src/stm32f10x_can.c ****   /* Check the parameters */
 807:STM32F10x_StdPeriph_Driver/src/stm32f10x_can.c ****   assert_param(IS_CAN_ALL_PERIPH(CANx));
 808:STM32F10x_StdPeriph_Driver/src/stm32f10x_can.c ****   assert_param(IS_CAN_FLAG(CAN_FLAG));
 809:STM32F10x_StdPeriph_Driver/src/stm32f10x_can.c ****   /* Check the status of the specified CAN flag */
 810:STM32F10x_StdPeriph_Driver/src/stm32f10x_can.c ****   if ((CANx->ESR & CAN_FLAG) != (uint32_t)RESET)
 811:STM32F10x_StdPeriph_Driver/src/stm32f10x_can.c ****   {
 812:STM32F10x_StdPeriph_Driver/src/stm32f10x_can.c ****     /* CAN_FLAG is set */
 813:STM32F10x_StdPeriph_Driver/src/stm32f10x_can.c ****     bitstatus = SET;
 814:STM32F10x_StdPeriph_Driver/src/stm32f10x_can.c ****   }
 815:STM32F10x_StdPeriph_Driver/src/stm32f10x_can.c ****   else
 816:STM32F10x_StdPeriph_Driver/src/stm32f10x_can.c ****   {
 817:STM32F10x_StdPeriph_Driver/src/stm32f10x_can.c ****     /* CAN_FLAG is reset */
 818:STM32F10x_StdPeriph_Driver/src/stm32f10x_can.c ****     bitstatus = RESET;
 819:STM32F10x_StdPeriph_Driver/src/stm32f10x_can.c ****   }
 820:STM32F10x_StdPeriph_Driver/src/stm32f10x_can.c ****   /* Return the CAN_FLAG status */
 821:STM32F10x_StdPeriph_Driver/src/stm32f10x_can.c ****   return  bitstatus;
 822:STM32F10x_StdPeriph_Driver/src/stm32f10x_can.c **** }
 823:STM32F10x_StdPeriph_Driver/src/stm32f10x_can.c **** 
 824:STM32F10x_StdPeriph_Driver/src/stm32f10x_can.c **** /**
 825:STM32F10x_StdPeriph_Driver/src/stm32f10x_can.c ****   * @brief  Clears the CAN's pending flags.
 826:STM32F10x_StdPeriph_Driver/src/stm32f10x_can.c ****   * @param  CANx: where x can be 1 or 2 to to select the CAN peripheral.
 827:STM32F10x_StdPeriph_Driver/src/stm32f10x_can.c ****   * @param  CAN_FLAG: specifies the flag to clear.
 828:STM32F10x_StdPeriph_Driver/src/stm32f10x_can.c ****   * @retval None.
 829:STM32F10x_StdPeriph_Driver/src/stm32f10x_can.c ****   */
 830:STM32F10x_StdPeriph_Driver/src/stm32f10x_can.c **** void CAN_ClearFlag(CAN_TypeDef* CANx, uint32_t CAN_FLAG)
ARM GAS  /var/folders/g9/bbpj86ld7fx45vd1b3pqxmp00000gn/T//ccXBJrXf.s 			page 16


 831:STM32F10x_StdPeriph_Driver/src/stm32f10x_can.c **** {
 832:STM32F10x_StdPeriph_Driver/src/stm32f10x_can.c ****   /* Check the parameters */
 833:STM32F10x_StdPeriph_Driver/src/stm32f10x_can.c ****   assert_param(IS_CAN_ALL_PERIPH(CANx));
 834:STM32F10x_StdPeriph_Driver/src/stm32f10x_can.c ****   assert_param(IS_CAN_FLAG(CAN_FLAG));
 835:STM32F10x_StdPeriph_Driver/src/stm32f10x_can.c ****   /* Clear the selected CAN flags */
 836:STM32F10x_StdPeriph_Driver/src/stm32f10x_can.c ****   CANx->ESR &= ~CAN_FLAG;
 837:STM32F10x_StdPeriph_Driver/src/stm32f10x_can.c **** }
 838:STM32F10x_StdPeriph_Driver/src/stm32f10x_can.c **** 
 839:STM32F10x_StdPeriph_Driver/src/stm32f10x_can.c **** /**
 840:STM32F10x_StdPeriph_Driver/src/stm32f10x_can.c ****   * @brief  Checks whether the specified CAN interrupt has occurred or not.
 841:STM32F10x_StdPeriph_Driver/src/stm32f10x_can.c ****   * @param  CANx: where x can be 1 or 2 to to select the CAN peripheral.
 842:STM32F10x_StdPeriph_Driver/src/stm32f10x_can.c ****   * @param  CAN_IT: specifies the CAN interrupt source to check.
 843:STM32F10x_StdPeriph_Driver/src/stm32f10x_can.c ****   *   This parameter can be: CAN_IT_RQCP0, CAN_IT_RQCP1, CAN_IT_RQCP2,
 844:STM32F10x_StdPeriph_Driver/src/stm32f10x_can.c ****   *   CAN_IT_FF0, CAN_IT_FOV0, CAN_IT_FF1,
 845:STM32F10x_StdPeriph_Driver/src/stm32f10x_can.c ****   *   CAN_IT_FOV1, CAN_IT_EWG, CAN_IT_EPV, 
 846:STM32F10x_StdPeriph_Driver/src/stm32f10x_can.c ****   *   CAN_IT_BOF, CAN_IT_WKU or CAN_IT_SLK.
 847:STM32F10x_StdPeriph_Driver/src/stm32f10x_can.c ****   * @retval The new state of CAN_IT (SET or RESET).
 848:STM32F10x_StdPeriph_Driver/src/stm32f10x_can.c ****   */
 849:STM32F10x_StdPeriph_Driver/src/stm32f10x_can.c **** ITStatus CAN_GetITStatus(CAN_TypeDef* CANx, uint32_t CAN_IT)
 850:STM32F10x_StdPeriph_Driver/src/stm32f10x_can.c **** {
 851:STM32F10x_StdPeriph_Driver/src/stm32f10x_can.c ****   ITStatus pendingbitstatus = RESET;
 852:STM32F10x_StdPeriph_Driver/src/stm32f10x_can.c ****   /* Check the parameters */
 853:STM32F10x_StdPeriph_Driver/src/stm32f10x_can.c ****   assert_param(IS_CAN_ALL_PERIPH(CANx));
 854:STM32F10x_StdPeriph_Driver/src/stm32f10x_can.c ****   assert_param(IS_CAN_ITStatus(CAN_IT));
 855:STM32F10x_StdPeriph_Driver/src/stm32f10x_can.c ****   switch (CAN_IT)
 856:STM32F10x_StdPeriph_Driver/src/stm32f10x_can.c ****   {
 857:STM32F10x_StdPeriph_Driver/src/stm32f10x_can.c ****     case CAN_IT_RQCP0:
 858:STM32F10x_StdPeriph_Driver/src/stm32f10x_can.c ****       pendingbitstatus = CheckITStatus(CANx->TSR, TSR_RQCP0);
 859:STM32F10x_StdPeriph_Driver/src/stm32f10x_can.c ****       break;
 860:STM32F10x_StdPeriph_Driver/src/stm32f10x_can.c ****     case CAN_IT_RQCP1:
 861:STM32F10x_StdPeriph_Driver/src/stm32f10x_can.c ****       pendingbitstatus = CheckITStatus(CANx->TSR, TSR_RQCP1);
 862:STM32F10x_StdPeriph_Driver/src/stm32f10x_can.c ****       break;
 863:STM32F10x_StdPeriph_Driver/src/stm32f10x_can.c ****     case CAN_IT_RQCP2:
 864:STM32F10x_StdPeriph_Driver/src/stm32f10x_can.c ****       pendingbitstatus = CheckITStatus(CANx->TSR, TSR_RQCP2);
 865:STM32F10x_StdPeriph_Driver/src/stm32f10x_can.c ****       break;
 866:STM32F10x_StdPeriph_Driver/src/stm32f10x_can.c ****     case CAN_IT_FF0:
 867:STM32F10x_StdPeriph_Driver/src/stm32f10x_can.c ****       pendingbitstatus = CheckITStatus(CANx->RF0R, RF0R_FULL0);
 868:STM32F10x_StdPeriph_Driver/src/stm32f10x_can.c ****       break;
 869:STM32F10x_StdPeriph_Driver/src/stm32f10x_can.c ****     case CAN_IT_FOV0:
 870:STM32F10x_StdPeriph_Driver/src/stm32f10x_can.c ****       pendingbitstatus = CheckITStatus(CANx->RF0R, RF0R_FOVR0);
 871:STM32F10x_StdPeriph_Driver/src/stm32f10x_can.c ****       break;
 872:STM32F10x_StdPeriph_Driver/src/stm32f10x_can.c ****     case CAN_IT_FF1:
 873:STM32F10x_StdPeriph_Driver/src/stm32f10x_can.c ****       pendingbitstatus = CheckITStatus(CANx->RF1R, RF1R_FULL1);
 874:STM32F10x_StdPeriph_Driver/src/stm32f10x_can.c ****       break;
 875:STM32F10x_StdPeriph_Driver/src/stm32f10x_can.c ****     case CAN_IT_FOV1:
 876:STM32F10x_StdPeriph_Driver/src/stm32f10x_can.c ****       pendingbitstatus = CheckITStatus(CANx->RF1R, RF1R_FOVR1);
 877:STM32F10x_StdPeriph_Driver/src/stm32f10x_can.c ****       break;
 878:STM32F10x_StdPeriph_Driver/src/stm32f10x_can.c ****     case CAN_IT_EWG:
 879:STM32F10x_StdPeriph_Driver/src/stm32f10x_can.c ****       pendingbitstatus = CheckITStatus(CANx->ESR, ESR_EWGF);
 880:STM32F10x_StdPeriph_Driver/src/stm32f10x_can.c ****       break;
 881:STM32F10x_StdPeriph_Driver/src/stm32f10x_can.c ****     case CAN_IT_EPV:
 882:STM32F10x_StdPeriph_Driver/src/stm32f10x_can.c ****       pendingbitstatus = CheckITStatus(CANx->ESR, ESR_EPVF);
 883:STM32F10x_StdPeriph_Driver/src/stm32f10x_can.c ****       break;
 884:STM32F10x_StdPeriph_Driver/src/stm32f10x_can.c ****     case CAN_IT_BOF:
 885:STM32F10x_StdPeriph_Driver/src/stm32f10x_can.c ****       pendingbitstatus = CheckITStatus(CANx->ESR, ESR_BOFF);
 886:STM32F10x_StdPeriph_Driver/src/stm32f10x_can.c ****       break;
 887:STM32F10x_StdPeriph_Driver/src/stm32f10x_can.c ****     case CAN_IT_SLK:
ARM GAS  /var/folders/g9/bbpj86ld7fx45vd1b3pqxmp00000gn/T//ccXBJrXf.s 			page 17


 888:STM32F10x_StdPeriph_Driver/src/stm32f10x_can.c ****       pendingbitstatus = CheckITStatus(CANx->MSR, MSR_SLAKI);
 889:STM32F10x_StdPeriph_Driver/src/stm32f10x_can.c ****       break;
 890:STM32F10x_StdPeriph_Driver/src/stm32f10x_can.c ****     case CAN_IT_WKU:
 891:STM32F10x_StdPeriph_Driver/src/stm32f10x_can.c ****       pendingbitstatus = CheckITStatus(CANx->MSR, MSR_WKUI);
 892:STM32F10x_StdPeriph_Driver/src/stm32f10x_can.c ****       break;
 893:STM32F10x_StdPeriph_Driver/src/stm32f10x_can.c ****     default :
 894:STM32F10x_StdPeriph_Driver/src/stm32f10x_can.c ****       pendingbitstatus = RESET;
 895:STM32F10x_StdPeriph_Driver/src/stm32f10x_can.c ****       break;
 896:STM32F10x_StdPeriph_Driver/src/stm32f10x_can.c ****   }
 897:STM32F10x_StdPeriph_Driver/src/stm32f10x_can.c ****   /* Return the CAN_IT status */
 898:STM32F10x_StdPeriph_Driver/src/stm32f10x_can.c ****   return  pendingbitstatus;
 899:STM32F10x_StdPeriph_Driver/src/stm32f10x_can.c **** }
 900:STM32F10x_StdPeriph_Driver/src/stm32f10x_can.c **** 
 901:STM32F10x_StdPeriph_Driver/src/stm32f10x_can.c **** /**
 902:STM32F10x_StdPeriph_Driver/src/stm32f10x_can.c ****   * @brief  Clears the CANs interrupt pending bits.
 903:STM32F10x_StdPeriph_Driver/src/stm32f10x_can.c ****   * @param  CANx: where x can be 1 or 2 to to select the CAN peripheral.
 904:STM32F10x_StdPeriph_Driver/src/stm32f10x_can.c ****   * @param  CAN_IT: specifies the interrupt pending bit to clear.
 905:STM32F10x_StdPeriph_Driver/src/stm32f10x_can.c ****   * @retval None.
 906:STM32F10x_StdPeriph_Driver/src/stm32f10x_can.c ****   */
 907:STM32F10x_StdPeriph_Driver/src/stm32f10x_can.c **** void CAN_ClearITPendingBit(CAN_TypeDef* CANx, uint32_t CAN_IT)
 908:STM32F10x_StdPeriph_Driver/src/stm32f10x_can.c **** {
 909:STM32F10x_StdPeriph_Driver/src/stm32f10x_can.c ****   /* Check the parameters */
 910:STM32F10x_StdPeriph_Driver/src/stm32f10x_can.c ****   assert_param(IS_CAN_ALL_PERIPH(CANx));
 911:STM32F10x_StdPeriph_Driver/src/stm32f10x_can.c ****   assert_param(IS_CAN_ITStatus(CAN_IT));
 912:STM32F10x_StdPeriph_Driver/src/stm32f10x_can.c ****   switch (CAN_IT)
 913:STM32F10x_StdPeriph_Driver/src/stm32f10x_can.c ****   {
 914:STM32F10x_StdPeriph_Driver/src/stm32f10x_can.c ****     case CAN_IT_RQCP0:
 915:STM32F10x_StdPeriph_Driver/src/stm32f10x_can.c ****       CANx->TSR = TSR_RQCP0; /* rc_w1*/
 916:STM32F10x_StdPeriph_Driver/src/stm32f10x_can.c ****       break;
 917:STM32F10x_StdPeriph_Driver/src/stm32f10x_can.c ****     case CAN_IT_RQCP1:
 918:STM32F10x_StdPeriph_Driver/src/stm32f10x_can.c ****       CANx->TSR = TSR_RQCP1; /* rc_w1*/
 919:STM32F10x_StdPeriph_Driver/src/stm32f10x_can.c ****       break;
 920:STM32F10x_StdPeriph_Driver/src/stm32f10x_can.c ****     case CAN_IT_RQCP2:
 921:STM32F10x_StdPeriph_Driver/src/stm32f10x_can.c ****       CANx->TSR = TSR_RQCP2; /* rc_w1*/
 922:STM32F10x_StdPeriph_Driver/src/stm32f10x_can.c ****       break;
 923:STM32F10x_StdPeriph_Driver/src/stm32f10x_can.c ****     case CAN_IT_FF0:
 924:STM32F10x_StdPeriph_Driver/src/stm32f10x_can.c ****       CANx->RF0R = RF0R_FULL0; /* rc_w1*/
 925:STM32F10x_StdPeriph_Driver/src/stm32f10x_can.c ****       break;
 926:STM32F10x_StdPeriph_Driver/src/stm32f10x_can.c ****     case CAN_IT_FOV0:
 927:STM32F10x_StdPeriph_Driver/src/stm32f10x_can.c ****       CANx->RF0R = RF0R_FOVR0; /* rc_w1*/
 928:STM32F10x_StdPeriph_Driver/src/stm32f10x_can.c ****       break;
 929:STM32F10x_StdPeriph_Driver/src/stm32f10x_can.c ****     case CAN_IT_FF1:
 930:STM32F10x_StdPeriph_Driver/src/stm32f10x_can.c ****       CANx->RF1R = RF1R_FULL1; /* rc_w1*/
 931:STM32F10x_StdPeriph_Driver/src/stm32f10x_can.c ****       break;
 932:STM32F10x_StdPeriph_Driver/src/stm32f10x_can.c ****     case CAN_IT_FOV1:
 933:STM32F10x_StdPeriph_Driver/src/stm32f10x_can.c ****       CANx->RF1R = RF1R_FOVR1; /* rc_w1*/
 934:STM32F10x_StdPeriph_Driver/src/stm32f10x_can.c ****       break;
 935:STM32F10x_StdPeriph_Driver/src/stm32f10x_can.c ****     case CAN_IT_EWG:
 936:STM32F10x_StdPeriph_Driver/src/stm32f10x_can.c ****       CANx->ESR &= ~ ESR_EWGF; /* rw */
 937:STM32F10x_StdPeriph_Driver/src/stm32f10x_can.c ****       break;
 938:STM32F10x_StdPeriph_Driver/src/stm32f10x_can.c ****     case CAN_IT_EPV:
 939:STM32F10x_StdPeriph_Driver/src/stm32f10x_can.c ****       CANx->ESR &= ~ ESR_EPVF; /* rw */
 940:STM32F10x_StdPeriph_Driver/src/stm32f10x_can.c ****       break;
 941:STM32F10x_StdPeriph_Driver/src/stm32f10x_can.c ****     case CAN_IT_BOF:
 942:STM32F10x_StdPeriph_Driver/src/stm32f10x_can.c ****       CANx->ESR &= ~ ESR_BOFF; /* rw */
 943:STM32F10x_StdPeriph_Driver/src/stm32f10x_can.c ****       break;
 944:STM32F10x_StdPeriph_Driver/src/stm32f10x_can.c ****     case CAN_IT_WKU:
ARM GAS  /var/folders/g9/bbpj86ld7fx45vd1b3pqxmp00000gn/T//ccXBJrXf.s 			page 18


 945:STM32F10x_StdPeriph_Driver/src/stm32f10x_can.c ****       CANx->MSR = MSR_WKUI;  /* rc_w1*/
 946:STM32F10x_StdPeriph_Driver/src/stm32f10x_can.c ****       break;
 947:STM32F10x_StdPeriph_Driver/src/stm32f10x_can.c ****     case CAN_IT_SLK:
 948:STM32F10x_StdPeriph_Driver/src/stm32f10x_can.c ****       CANx->MSR = MSR_SLAKI;  /* rc_w1*/
 949:STM32F10x_StdPeriph_Driver/src/stm32f10x_can.c ****       break;
 950:STM32F10x_StdPeriph_Driver/src/stm32f10x_can.c ****     default :
 951:STM32F10x_StdPeriph_Driver/src/stm32f10x_can.c ****       break;
 952:STM32F10x_StdPeriph_Driver/src/stm32f10x_can.c ****   }
 953:STM32F10x_StdPeriph_Driver/src/stm32f10x_can.c **** }
 954:STM32F10x_StdPeriph_Driver/src/stm32f10x_can.c **** 
 955:STM32F10x_StdPeriph_Driver/src/stm32f10x_can.c **** /**
 956:STM32F10x_StdPeriph_Driver/src/stm32f10x_can.c ****   * @brief  Checks whether the CAN interrupt has occurred or not.
 957:STM32F10x_StdPeriph_Driver/src/stm32f10x_can.c ****   * @param  CAN_Reg: specifies the CAN interrupt register to check.
 958:STM32F10x_StdPeriph_Driver/src/stm32f10x_can.c ****   * @param  It_Bit: specifies the interrupt source bit to check.
 959:STM32F10x_StdPeriph_Driver/src/stm32f10x_can.c ****   * @retval The new state of the CAN Interrupt (SET or RESET).
 960:STM32F10x_StdPeriph_Driver/src/stm32f10x_can.c ****   */
 961:STM32F10x_StdPeriph_Driver/src/stm32f10x_can.c **** static ITStatus CheckITStatus(uint32_t CAN_Reg, uint32_t It_Bit)
 962:STM32F10x_StdPeriph_Driver/src/stm32f10x_can.c **** {
  27              		.loc 1 962 0
  28              		.cfi_startproc
  29              		@ args = 0, pretend = 0, frame = 0
  30              		@ frame_needed = 0, uses_anonymous_args = 0
  31              		@ link register save eliminated.
  32              	.LVL0:
 963:STM32F10x_StdPeriph_Driver/src/stm32f10x_can.c ****   ITStatus pendingbitstatus = RESET;
 964:STM32F10x_StdPeriph_Driver/src/stm32f10x_can.c ****   
 965:STM32F10x_StdPeriph_Driver/src/stm32f10x_can.c ****   if ((CAN_Reg & It_Bit) != (uint32_t)RESET)
  33              		.loc 1 965 0
  34 0000 0842     		tst	r0, r1
  35 0002 01D0     		beq	.L3
 966:STM32F10x_StdPeriph_Driver/src/stm32f10x_can.c ****   {
 967:STM32F10x_StdPeriph_Driver/src/stm32f10x_can.c ****     /* CAN_IT is set */
 968:STM32F10x_StdPeriph_Driver/src/stm32f10x_can.c ****     pendingbitstatus = SET;
  36              		.loc 1 968 0
  37 0004 0120     		movs	r0, #1
  38              	.LVL1:
  39 0006 7047     		bx	lr
  40              	.LVL2:
  41              	.L3:
 969:STM32F10x_StdPeriph_Driver/src/stm32f10x_can.c ****   }
 970:STM32F10x_StdPeriph_Driver/src/stm32f10x_can.c ****   else
 971:STM32F10x_StdPeriph_Driver/src/stm32f10x_can.c ****   {
 972:STM32F10x_StdPeriph_Driver/src/stm32f10x_can.c ****     /* CAN_IT is reset */
 973:STM32F10x_StdPeriph_Driver/src/stm32f10x_can.c ****     pendingbitstatus = RESET;
  42              		.loc 1 973 0
  43 0008 0020     		movs	r0, #0
  44              	.LVL3:
 974:STM32F10x_StdPeriph_Driver/src/stm32f10x_can.c ****   }
 975:STM32F10x_StdPeriph_Driver/src/stm32f10x_can.c ****   return pendingbitstatus;
 976:STM32F10x_StdPeriph_Driver/src/stm32f10x_can.c **** }
  45              		.loc 1 976 0
  46 000a 7047     		bx	lr
  47              		.cfi_endproc
  48              	.LFE46:
  50              		.section	.text.CAN_DeInit,"ax",%progbits
  51              		.align	2
  52              		.global	CAN_DeInit
ARM GAS  /var/folders/g9/bbpj86ld7fx45vd1b3pqxmp00000gn/T//ccXBJrXf.s 			page 19


  53              		.thumb
  54              		.thumb_func
  56              	CAN_DeInit:
  57              	.LFB27:
 144:STM32F10x_StdPeriph_Driver/src/stm32f10x_can.c ****   /* Check the parameters */
  58              		.loc 1 144 0
  59              		.cfi_startproc
  60              		@ args = 0, pretend = 0, frame = 0
  61              		@ frame_needed = 0, uses_anonymous_args = 0
  62              	.LVL4:
  63 0000 10B5     		push	{r4, lr}
  64              	.LCFI0:
  65              		.cfi_def_cfa_offset 8
  66              		.cfi_offset 4, -8
  67              		.cfi_offset 14, -4
  68 0002 0446     		mov	r4, r0
 146:STM32F10x_StdPeriph_Driver/src/stm32f10x_can.c ****  
  69              		.loc 1 146 0
  70 0004 114B     		ldr	r3, .L9
  71 0006 9842     		cmp	r0, r3
  72 0008 07D0     		beq	.L5
 146:STM32F10x_StdPeriph_Driver/src/stm32f10x_can.c ****  
  73              		.loc 1 146 0 is_stmt 0 discriminator 1
  74 000a 03F58063 		add	r3, r3, #1024
  75 000e 9842     		cmp	r0, r3
  76 0010 03D0     		beq	.L5
 146:STM32F10x_StdPeriph_Driver/src/stm32f10x_can.c ****  
  77              		.loc 1 146 0 discriminator 2
  78 0012 9221     		movs	r1, #146
  79 0014 0E48     		ldr	r0, .L9+4
  80              	.LVL5:
  81 0016 FFF7FEFF 		bl	assert_failed
  82              	.LVL6:
  83              	.L5:
 148:STM32F10x_StdPeriph_Driver/src/stm32f10x_can.c ****   {
  84              		.loc 1 148 0 is_stmt 1
  85 001a 0C4B     		ldr	r3, .L9
  86 001c 9C42     		cmp	r4, r3
  87 001e 0AD1     		bne	.L6
 151:STM32F10x_StdPeriph_Driver/src/stm32f10x_can.c ****     /* Release CAN1 from reset state */
  88              		.loc 1 151 0
  89 0020 0121     		movs	r1, #1
  90 0022 4FF00070 		mov	r0, #33554432
  91 0026 FFF7FEFF 		bl	RCC_APB1PeriphResetCmd
  92              	.LVL7:
 153:STM32F10x_StdPeriph_Driver/src/stm32f10x_can.c ****   }
  93              		.loc 1 153 0
  94 002a 0021     		movs	r1, #0
  95 002c 4FF00070 		mov	r0, #33554432
  96 0030 FFF7FEFF 		bl	RCC_APB1PeriphResetCmd
  97              	.LVL8:
  98 0034 10BD     		pop	{r4, pc}
  99              	.LVL9:
 100              	.L6:
 158:STM32F10x_StdPeriph_Driver/src/stm32f10x_can.c ****     /* Release CAN2 from reset state */
 101              		.loc 1 158 0
 102 0036 0121     		movs	r1, #1
ARM GAS  /var/folders/g9/bbpj86ld7fx45vd1b3pqxmp00000gn/T//ccXBJrXf.s 			page 20


 103 0038 4FF08060 		mov	r0, #67108864
 104 003c FFF7FEFF 		bl	RCC_APB1PeriphResetCmd
 105              	.LVL10:
 160:STM32F10x_StdPeriph_Driver/src/stm32f10x_can.c ****   }
 106              		.loc 1 160 0
 107 0040 0021     		movs	r1, #0
 108 0042 4FF08060 		mov	r0, #67108864
 109 0046 FFF7FEFF 		bl	RCC_APB1PeriphResetCmd
 110              	.LVL11:
 111 004a 10BD     		pop	{r4, pc}
 112              	.LVL12:
 113              	.L10:
 114              		.align	2
 115              	.L9:
 116 004c 00640040 		.word	1073767424
 117 0050 00000000 		.word	.LC0
 118              		.cfi_endproc
 119              	.LFE27:
 121              		.section	.text.CAN_Init,"ax",%progbits
 122              		.align	2
 123              		.global	CAN_Init
 124              		.thumb
 125              		.thumb_func
 127              	CAN_Init:
 128              	.LFB28:
 174:STM32F10x_StdPeriph_Driver/src/stm32f10x_can.c ****   uint8_t InitStatus = CANINITFAILED;
 129              		.loc 1 174 0
 130              		.cfi_startproc
 131              		@ args = 0, pretend = 0, frame = 0
 132              		@ frame_needed = 0, uses_anonymous_args = 0
 133              	.LVL13:
 134 0000 38B5     		push	{r3, r4, r5, lr}
 135              	.LCFI1:
 136              		.cfi_def_cfa_offset 16
 137              		.cfi_offset 3, -16
 138              		.cfi_offset 4, -12
 139              		.cfi_offset 5, -8
 140              		.cfi_offset 14, -4
 141 0002 0446     		mov	r4, r0
 142 0004 0D46     		mov	r5, r1
 143              	.LVL14:
 178:STM32F10x_StdPeriph_Driver/src/stm32f10x_can.c ****   assert_param(IS_FUNCTIONAL_STATE(CAN_InitStruct->CAN_TTCM));
 144              		.loc 1 178 0
 145 0006 714B     		ldr	r3, .L46
 146 0008 9842     		cmp	r0, r3
 147 000a 07D0     		beq	.L12
 178:STM32F10x_StdPeriph_Driver/src/stm32f10x_can.c ****   assert_param(IS_FUNCTIONAL_STATE(CAN_InitStruct->CAN_TTCM));
 148              		.loc 1 178 0 is_stmt 0 discriminator 1
 149 000c 03F58063 		add	r3, r3, #1024
 150 0010 9842     		cmp	r0, r3
 151 0012 03D0     		beq	.L12
 178:STM32F10x_StdPeriph_Driver/src/stm32f10x_can.c ****   assert_param(IS_FUNCTIONAL_STATE(CAN_InitStruct->CAN_TTCM));
 152              		.loc 1 178 0 discriminator 2
 153 0014 B221     		movs	r1, #178
 154              	.LVL15:
 155 0016 6E48     		ldr	r0, .L46+4
 156              	.LVL16:
ARM GAS  /var/folders/g9/bbpj86ld7fx45vd1b3pqxmp00000gn/T//ccXBJrXf.s 			page 21


 157 0018 FFF7FEFF 		bl	assert_failed
 158              	.LVL17:
 159              	.L12:
 179:STM32F10x_StdPeriph_Driver/src/stm32f10x_can.c ****   assert_param(IS_FUNCTIONAL_STATE(CAN_InitStruct->CAN_ABOM));
 160              		.loc 1 179 0 is_stmt 1
 161 001c AB79     		ldrb	r3, [r5, #6]	@ zero_extendqisi2
 162 001e 012B     		cmp	r3, #1
 163 0020 03D9     		bls	.L13
 179:STM32F10x_StdPeriph_Driver/src/stm32f10x_can.c ****   assert_param(IS_FUNCTIONAL_STATE(CAN_InitStruct->CAN_ABOM));
 164              		.loc 1 179 0 is_stmt 0 discriminator 1
 165 0022 B321     		movs	r1, #179
 166 0024 6A48     		ldr	r0, .L46+4
 167 0026 FFF7FEFF 		bl	assert_failed
 168              	.LVL18:
 169              	.L13:
 180:STM32F10x_StdPeriph_Driver/src/stm32f10x_can.c ****   assert_param(IS_FUNCTIONAL_STATE(CAN_InitStruct->CAN_AWUM));
 170              		.loc 1 180 0 is_stmt 1
 171 002a EB79     		ldrb	r3, [r5, #7]	@ zero_extendqisi2
 172 002c 012B     		cmp	r3, #1
 173 002e 03D9     		bls	.L14
 180:STM32F10x_StdPeriph_Driver/src/stm32f10x_can.c ****   assert_param(IS_FUNCTIONAL_STATE(CAN_InitStruct->CAN_AWUM));
 174              		.loc 1 180 0 is_stmt 0 discriminator 1
 175 0030 B421     		movs	r1, #180
 176 0032 6748     		ldr	r0, .L46+4
 177 0034 FFF7FEFF 		bl	assert_failed
 178              	.LVL19:
 179              	.L14:
 181:STM32F10x_StdPeriph_Driver/src/stm32f10x_can.c ****   assert_param(IS_FUNCTIONAL_STATE(CAN_InitStruct->CAN_NART));
 180              		.loc 1 181 0 is_stmt 1
 181 0038 2B7A     		ldrb	r3, [r5, #8]	@ zero_extendqisi2
 182 003a 012B     		cmp	r3, #1
 183 003c 03D9     		bls	.L15
 181:STM32F10x_StdPeriph_Driver/src/stm32f10x_can.c ****   assert_param(IS_FUNCTIONAL_STATE(CAN_InitStruct->CAN_NART));
 184              		.loc 1 181 0 is_stmt 0 discriminator 1
 185 003e B521     		movs	r1, #181
 186 0040 6348     		ldr	r0, .L46+4
 187 0042 FFF7FEFF 		bl	assert_failed
 188              	.LVL20:
 189              	.L15:
 182:STM32F10x_StdPeriph_Driver/src/stm32f10x_can.c ****   assert_param(IS_FUNCTIONAL_STATE(CAN_InitStruct->CAN_RFLM));
 190              		.loc 1 182 0 is_stmt 1
 191 0046 6B7A     		ldrb	r3, [r5, #9]	@ zero_extendqisi2
 192 0048 012B     		cmp	r3, #1
 193 004a 03D9     		bls	.L16
 182:STM32F10x_StdPeriph_Driver/src/stm32f10x_can.c ****   assert_param(IS_FUNCTIONAL_STATE(CAN_InitStruct->CAN_RFLM));
 194              		.loc 1 182 0 is_stmt 0 discriminator 1
 195 004c B621     		movs	r1, #182
 196 004e 6048     		ldr	r0, .L46+4
 197 0050 FFF7FEFF 		bl	assert_failed
 198              	.LVL21:
 199              	.L16:
 183:STM32F10x_StdPeriph_Driver/src/stm32f10x_can.c ****   assert_param(IS_FUNCTIONAL_STATE(CAN_InitStruct->CAN_TXFP));
 200              		.loc 1 183 0 is_stmt 1
 201 0054 AB7A     		ldrb	r3, [r5, #10]	@ zero_extendqisi2
 202 0056 012B     		cmp	r3, #1
 203 0058 03D9     		bls	.L17
 183:STM32F10x_StdPeriph_Driver/src/stm32f10x_can.c ****   assert_param(IS_FUNCTIONAL_STATE(CAN_InitStruct->CAN_TXFP));
ARM GAS  /var/folders/g9/bbpj86ld7fx45vd1b3pqxmp00000gn/T//ccXBJrXf.s 			page 22


 204              		.loc 1 183 0 is_stmt 0 discriminator 1
 205 005a B721     		movs	r1, #183
 206 005c 5C48     		ldr	r0, .L46+4
 207 005e FFF7FEFF 		bl	assert_failed
 208              	.LVL22:
 209              	.L17:
 184:STM32F10x_StdPeriph_Driver/src/stm32f10x_can.c ****   assert_param(IS_CAN_MODE(CAN_InitStruct->CAN_Mode));
 210              		.loc 1 184 0 is_stmt 1
 211 0062 EB7A     		ldrb	r3, [r5, #11]	@ zero_extendqisi2
 212 0064 012B     		cmp	r3, #1
 213 0066 03D9     		bls	.L18
 184:STM32F10x_StdPeriph_Driver/src/stm32f10x_can.c ****   assert_param(IS_CAN_MODE(CAN_InitStruct->CAN_Mode));
 214              		.loc 1 184 0 is_stmt 0 discriminator 1
 215 0068 B821     		movs	r1, #184
 216 006a 5948     		ldr	r0, .L46+4
 217 006c FFF7FEFF 		bl	assert_failed
 218              	.LVL23:
 219              	.L18:
 185:STM32F10x_StdPeriph_Driver/src/stm32f10x_can.c ****   assert_param(IS_CAN_SJW(CAN_InitStruct->CAN_SJW));
 220              		.loc 1 185 0 is_stmt 1
 221 0070 AB78     		ldrb	r3, [r5, #2]	@ zero_extendqisi2
 222 0072 032B     		cmp	r3, #3
 223 0074 03D9     		bls	.L19
 185:STM32F10x_StdPeriph_Driver/src/stm32f10x_can.c ****   assert_param(IS_CAN_SJW(CAN_InitStruct->CAN_SJW));
 224              		.loc 1 185 0 is_stmt 0 discriminator 1
 225 0076 B921     		movs	r1, #185
 226 0078 5548     		ldr	r0, .L46+4
 227 007a FFF7FEFF 		bl	assert_failed
 228              	.LVL24:
 229              	.L19:
 186:STM32F10x_StdPeriph_Driver/src/stm32f10x_can.c ****   assert_param(IS_CAN_BS1(CAN_InitStruct->CAN_BS1));
 230              		.loc 1 186 0 is_stmt 1
 231 007e EB78     		ldrb	r3, [r5, #3]	@ zero_extendqisi2
 232 0080 032B     		cmp	r3, #3
 233 0082 03D9     		bls	.L20
 186:STM32F10x_StdPeriph_Driver/src/stm32f10x_can.c ****   assert_param(IS_CAN_BS1(CAN_InitStruct->CAN_BS1));
 234              		.loc 1 186 0 is_stmt 0 discriminator 1
 235 0084 BA21     		movs	r1, #186
 236 0086 5248     		ldr	r0, .L46+4
 237 0088 FFF7FEFF 		bl	assert_failed
 238              	.LVL25:
 239              	.L20:
 187:STM32F10x_StdPeriph_Driver/src/stm32f10x_can.c ****   assert_param(IS_CAN_BS2(CAN_InitStruct->CAN_BS2));
 240              		.loc 1 187 0 is_stmt 1
 241 008c 2B79     		ldrb	r3, [r5, #4]	@ zero_extendqisi2
 242 008e 0F2B     		cmp	r3, #15
 243 0090 03D9     		bls	.L21
 187:STM32F10x_StdPeriph_Driver/src/stm32f10x_can.c ****   assert_param(IS_CAN_BS2(CAN_InitStruct->CAN_BS2));
 244              		.loc 1 187 0 is_stmt 0 discriminator 1
 245 0092 BB21     		movs	r1, #187
 246 0094 4E48     		ldr	r0, .L46+4
 247 0096 FFF7FEFF 		bl	assert_failed
 248              	.LVL26:
 249              	.L21:
 188:STM32F10x_StdPeriph_Driver/src/stm32f10x_can.c ****   assert_param(IS_CAN_PRESCALER(CAN_InitStruct->CAN_Prescaler));
 250              		.loc 1 188 0 is_stmt 1
 251 009a 6B79     		ldrb	r3, [r5, #5]	@ zero_extendqisi2
ARM GAS  /var/folders/g9/bbpj86ld7fx45vd1b3pqxmp00000gn/T//ccXBJrXf.s 			page 23


 252 009c 072B     		cmp	r3, #7
 253 009e 03D9     		bls	.L22
 188:STM32F10x_StdPeriph_Driver/src/stm32f10x_can.c ****   assert_param(IS_CAN_PRESCALER(CAN_InitStruct->CAN_Prescaler));
 254              		.loc 1 188 0 is_stmt 0 discriminator 1
 255 00a0 BC21     		movs	r1, #188
 256 00a2 4B48     		ldr	r0, .L46+4
 257 00a4 FFF7FEFF 		bl	assert_failed
 258              	.LVL27:
 259              	.L22:
 189:STM32F10x_StdPeriph_Driver/src/stm32f10x_can.c **** 
 260              		.loc 1 189 0 is_stmt 1
 261 00a8 2B88     		ldrh	r3, [r5]
 262 00aa 013B     		subs	r3, r3, #1
 263 00ac 9BB2     		uxth	r3, r3
 264 00ae B3F5806F 		cmp	r3, #1024
 265 00b2 03D3     		bcc	.L23
 189:STM32F10x_StdPeriph_Driver/src/stm32f10x_can.c **** 
 266              		.loc 1 189 0 is_stmt 0 discriminator 1
 267 00b4 BD21     		movs	r1, #189
 268 00b6 4648     		ldr	r0, .L46+4
 269 00b8 FFF7FEFF 		bl	assert_failed
 270              	.LVL28:
 271              	.L23:
 192:STM32F10x_StdPeriph_Driver/src/stm32f10x_can.c **** 
 272              		.loc 1 192 0 is_stmt 1
 273 00bc 2368     		ldr	r3, [r4]
 274 00be 23F00203 		bic	r3, r3, #2
 275 00c2 2360     		str	r3, [r4]
 195:STM32F10x_StdPeriph_Driver/src/stm32f10x_can.c **** 
 276              		.loc 1 195 0
 277 00c4 2368     		ldr	r3, [r4]
 278 00c6 43F00103 		orr	r3, r3, #1
 279 00ca 2360     		str	r3, [r4]
 176:STM32F10x_StdPeriph_Driver/src/stm32f10x_can.c ****   /* Check the parameters */
 280              		.loc 1 176 0
 281 00cc 0023     		movs	r3, #0
 198:STM32F10x_StdPeriph_Driver/src/stm32f10x_can.c ****   {
 282              		.loc 1 198 0
 283 00ce 00E0     		b	.L24
 284              	.LVL29:
 285              	.L26:
 200:STM32F10x_StdPeriph_Driver/src/stm32f10x_can.c ****   }
 286              		.loc 1 200 0
 287 00d0 0133     		adds	r3, r3, #1
 288              	.LVL30:
 289              	.L24:
 198:STM32F10x_StdPeriph_Driver/src/stm32f10x_can.c ****   {
 290              		.loc 1 198 0
 291 00d2 6268     		ldr	r2, [r4, #4]
 292 00d4 12F0010F 		tst	r2, #1
 293 00d8 03D1     		bne	.L25
 198:STM32F10x_StdPeriph_Driver/src/stm32f10x_can.c ****   {
 294              		.loc 1 198 0 is_stmt 0 discriminator 1
 295 00da 4FF6FF72 		movw	r2, #65535
 296 00de 9342     		cmp	r3, r2
 297 00e0 F6D1     		bne	.L26
 298              	.L25:
ARM GAS  /var/folders/g9/bbpj86ld7fx45vd1b3pqxmp00000gn/T//ccXBJrXf.s 			page 24


 204:STM32F10x_StdPeriph_Driver/src/stm32f10x_can.c ****   {
 299              		.loc 1 204 0 is_stmt 1
 300 00e2 6368     		ldr	r3, [r4, #4]
 301              	.LVL31:
 302 00e4 13F0010F 		tst	r3, #1
 303 00e8 6BD0     		beq	.L43
 211:STM32F10x_StdPeriph_Driver/src/stm32f10x_can.c ****     {
 304              		.loc 1 211 0
 305 00ea AB79     		ldrb	r3, [r5, #6]	@ zero_extendqisi2
 306 00ec 012B     		cmp	r3, #1
 307 00ee 04D1     		bne	.L28
 213:STM32F10x_StdPeriph_Driver/src/stm32f10x_can.c ****     }
 308              		.loc 1 213 0
 309 00f0 2368     		ldr	r3, [r4]
 310 00f2 43F08003 		orr	r3, r3, #128
 311 00f6 2360     		str	r3, [r4]
 312 00f8 03E0     		b	.L29
 313              	.L28:
 217:STM32F10x_StdPeriph_Driver/src/stm32f10x_can.c ****     }
 314              		.loc 1 217 0
 315 00fa 2368     		ldr	r3, [r4]
 316 00fc 23F08003 		bic	r3, r3, #128
 317 0100 2360     		str	r3, [r4]
 318              	.L29:
 221:STM32F10x_StdPeriph_Driver/src/stm32f10x_can.c ****     {
 319              		.loc 1 221 0
 320 0102 EB79     		ldrb	r3, [r5, #7]	@ zero_extendqisi2
 321 0104 012B     		cmp	r3, #1
 322 0106 04D1     		bne	.L30
 223:STM32F10x_StdPeriph_Driver/src/stm32f10x_can.c ****     }
 323              		.loc 1 223 0
 324 0108 2368     		ldr	r3, [r4]
 325 010a 43F04003 		orr	r3, r3, #64
 326 010e 2360     		str	r3, [r4]
 327 0110 03E0     		b	.L31
 328              	.L30:
 227:STM32F10x_StdPeriph_Driver/src/stm32f10x_can.c ****     }
 329              		.loc 1 227 0
 330 0112 2368     		ldr	r3, [r4]
 331 0114 23F04003 		bic	r3, r3, #64
 332 0118 2360     		str	r3, [r4]
 333              	.L31:
 231:STM32F10x_StdPeriph_Driver/src/stm32f10x_can.c ****     {
 334              		.loc 1 231 0
 335 011a 2B7A     		ldrb	r3, [r5, #8]	@ zero_extendqisi2
 336 011c 012B     		cmp	r3, #1
 337 011e 04D1     		bne	.L32
 233:STM32F10x_StdPeriph_Driver/src/stm32f10x_can.c ****     }
 338              		.loc 1 233 0
 339 0120 2368     		ldr	r3, [r4]
 340 0122 43F02003 		orr	r3, r3, #32
 341 0126 2360     		str	r3, [r4]
 342 0128 03E0     		b	.L33
 343              	.L32:
 237:STM32F10x_StdPeriph_Driver/src/stm32f10x_can.c ****     }
 344              		.loc 1 237 0
 345 012a 2368     		ldr	r3, [r4]
ARM GAS  /var/folders/g9/bbpj86ld7fx45vd1b3pqxmp00000gn/T//ccXBJrXf.s 			page 25


 346 012c 23F02003 		bic	r3, r3, #32
 347 0130 2360     		str	r3, [r4]
 348              	.L33:
 241:STM32F10x_StdPeriph_Driver/src/stm32f10x_can.c ****     {
 349              		.loc 1 241 0
 350 0132 6B7A     		ldrb	r3, [r5, #9]	@ zero_extendqisi2
 351 0134 012B     		cmp	r3, #1
 352 0136 04D1     		bne	.L34
 243:STM32F10x_StdPeriph_Driver/src/stm32f10x_can.c ****     }
 353              		.loc 1 243 0
 354 0138 2368     		ldr	r3, [r4]
 355 013a 43F01003 		orr	r3, r3, #16
 356 013e 2360     		str	r3, [r4]
 357 0140 03E0     		b	.L35
 358              	.L34:
 247:STM32F10x_StdPeriph_Driver/src/stm32f10x_can.c ****     }
 359              		.loc 1 247 0
 360 0142 2368     		ldr	r3, [r4]
 361 0144 23F01003 		bic	r3, r3, #16
 362 0148 2360     		str	r3, [r4]
 363              	.L35:
 251:STM32F10x_StdPeriph_Driver/src/stm32f10x_can.c ****     {
 364              		.loc 1 251 0
 365 014a AB7A     		ldrb	r3, [r5, #10]	@ zero_extendqisi2
 366 014c 012B     		cmp	r3, #1
 367 014e 04D1     		bne	.L36
 253:STM32F10x_StdPeriph_Driver/src/stm32f10x_can.c ****     }
 368              		.loc 1 253 0
 369 0150 2368     		ldr	r3, [r4]
 370 0152 43F00803 		orr	r3, r3, #8
 371 0156 2360     		str	r3, [r4]
 372 0158 03E0     		b	.L37
 373              	.L36:
 257:STM32F10x_StdPeriph_Driver/src/stm32f10x_can.c ****     }
 374              		.loc 1 257 0
 375 015a 2368     		ldr	r3, [r4]
 376 015c 23F00803 		bic	r3, r3, #8
 377 0160 2360     		str	r3, [r4]
 378              	.L37:
 261:STM32F10x_StdPeriph_Driver/src/stm32f10x_can.c ****     {
 379              		.loc 1 261 0
 380 0162 EB7A     		ldrb	r3, [r5, #11]	@ zero_extendqisi2
 381 0164 012B     		cmp	r3, #1
 382 0166 04D1     		bne	.L38
 263:STM32F10x_StdPeriph_Driver/src/stm32f10x_can.c ****     }
 383              		.loc 1 263 0
 384 0168 2368     		ldr	r3, [r4]
 385 016a 43F00403 		orr	r3, r3, #4
 386 016e 2360     		str	r3, [r4]
 387 0170 03E0     		b	.L39
 388              	.L38:
 267:STM32F10x_StdPeriph_Driver/src/stm32f10x_can.c ****     }
 389              		.loc 1 267 0
 390 0172 2368     		ldr	r3, [r4]
 391 0174 23F00403 		bic	r3, r3, #4
 392 0178 2360     		str	r3, [r4]
 393              	.L39:
ARM GAS  /var/folders/g9/bbpj86ld7fx45vd1b3pqxmp00000gn/T//ccXBJrXf.s 			page 26


 271:STM32F10x_StdPeriph_Driver/src/stm32f10x_can.c ****                ((uint32_t)CAN_InitStruct->CAN_BS1 << 16) | ((uint32_t)CAN_InitStruct->CAN_BS2 << 20
 394              		.loc 1 271 0
 395 017a AA78     		ldrb	r2, [r5, #2]	@ zero_extendqisi2
 396 017c EB78     		ldrb	r3, [r5, #3]	@ zero_extendqisi2
 397 017e 1B06     		lsls	r3, r3, #24
 398 0180 43EA8273 		orr	r3, r3, r2, lsl #30
 272:STM32F10x_StdPeriph_Driver/src/stm32f10x_can.c ****                ((uint32_t)CAN_InitStruct->CAN_Prescaler - 1);
 399              		.loc 1 272 0
 400 0184 2A79     		ldrb	r2, [r5, #4]	@ zero_extendqisi2
 271:STM32F10x_StdPeriph_Driver/src/stm32f10x_can.c ****                ((uint32_t)CAN_InitStruct->CAN_BS1 << 16) | ((uint32_t)CAN_InitStruct->CAN_BS2 << 20
 401              		.loc 1 271 0
 402 0186 43EA0243 		orr	r3, r3, r2, lsl #16
 272:STM32F10x_StdPeriph_Driver/src/stm32f10x_can.c ****                ((uint32_t)CAN_InitStruct->CAN_Prescaler - 1);
 403              		.loc 1 272 0
 404 018a 6A79     		ldrb	r2, [r5, #5]	@ zero_extendqisi2
 405 018c 43EA0253 		orr	r3, r3, r2, lsl #20
 273:STM32F10x_StdPeriph_Driver/src/stm32f10x_can.c **** 
 406              		.loc 1 273 0
 407 0190 2A88     		ldrh	r2, [r5]
 408 0192 013A     		subs	r2, r2, #1
 272:STM32F10x_StdPeriph_Driver/src/stm32f10x_can.c ****                ((uint32_t)CAN_InitStruct->CAN_Prescaler - 1);
 409              		.loc 1 272 0
 410 0194 1343     		orrs	r3, r3, r2
 271:STM32F10x_StdPeriph_Driver/src/stm32f10x_can.c ****                ((uint32_t)CAN_InitStruct->CAN_BS1 << 16) | ((uint32_t)CAN_InitStruct->CAN_BS2 << 20
 411              		.loc 1 271 0
 412 0196 E361     		str	r3, [r4, #28]
 276:STM32F10x_StdPeriph_Driver/src/stm32f10x_can.c **** 
 413              		.loc 1 276 0
 414 0198 2368     		ldr	r3, [r4]
 415 019a 23F00103 		bic	r3, r3, #1
 416 019e 2360     		str	r3, [r4]
 417              	.LVL32:
 279:STM32F10x_StdPeriph_Driver/src/stm32f10x_can.c **** 
 418              		.loc 1 279 0
 419 01a0 0023     		movs	r3, #0
 281:STM32F10x_StdPeriph_Driver/src/stm32f10x_can.c ****    {
 420              		.loc 1 281 0
 421 01a2 00E0     		b	.L40
 422              	.LVL33:
 423              	.L42:
 283:STM32F10x_StdPeriph_Driver/src/stm32f10x_can.c ****    }
 424              		.loc 1 283 0
 425 01a4 0133     		adds	r3, r3, #1
 426              	.LVL34:
 427              	.L40:
 281:STM32F10x_StdPeriph_Driver/src/stm32f10x_can.c ****    {
 428              		.loc 1 281 0
 429 01a6 6268     		ldr	r2, [r4, #4]
 430 01a8 12F0010F 		tst	r2, #1
 431 01ac 03D0     		beq	.L41
 281:STM32F10x_StdPeriph_Driver/src/stm32f10x_can.c ****    {
 432              		.loc 1 281 0 is_stmt 0 discriminator 1
 433 01ae 4FF6FF72 		movw	r2, #65535
 434 01b2 9342     		cmp	r3, r2
 435 01b4 F6D1     		bne	.L42
 436              	.L41:
 287:STM32F10x_StdPeriph_Driver/src/stm32f10x_can.c ****     {
ARM GAS  /var/folders/g9/bbpj86ld7fx45vd1b3pqxmp00000gn/T//ccXBJrXf.s 			page 27


 437              		.loc 1 287 0 is_stmt 1
 438 01b6 6368     		ldr	r3, [r4, #4]
 439              	.LVL35:
 440 01b8 13F0010F 		tst	r3, #1
 441 01bc 03D0     		beq	.L44
 289:STM32F10x_StdPeriph_Driver/src/stm32f10x_can.c ****     }
 442              		.loc 1 289 0
 443 01be 0020     		movs	r0, #0
 444 01c0 38BD     		pop	{r3, r4, r5, pc}
 445              	.LVL36:
 446              	.L43:
 206:STM32F10x_StdPeriph_Driver/src/stm32f10x_can.c ****   }
 447              		.loc 1 206 0
 448 01c2 0020     		movs	r0, #0
 449 01c4 38BD     		pop	{r3, r4, r5, pc}
 450              	.LVL37:
 451              	.L44:
 293:STM32F10x_StdPeriph_Driver/src/stm32f10x_can.c ****     }
 452              		.loc 1 293 0
 453 01c6 0120     		movs	r0, #1
 454              	.LVL38:
 299:STM32F10x_StdPeriph_Driver/src/stm32f10x_can.c **** 
 455              		.loc 1 299 0
 456 01c8 38BD     		pop	{r3, r4, r5, pc}
 457              	.LVL39:
 458              	.L47:
 459 01ca 00BF     		.align	2
 460              	.L46:
 461 01cc 00640040 		.word	1073767424
 462 01d0 00000000 		.word	.LC0
 463              		.cfi_endproc
 464              	.LFE28:
 466              		.section	.text.CAN_FilterInit,"ax",%progbits
 467              		.align	2
 468              		.global	CAN_FilterInit
 469              		.thumb
 470              		.thumb_func
 472              	CAN_FilterInit:
 473              	.LFB29:
 309:STM32F10x_StdPeriph_Driver/src/stm32f10x_can.c ****   uint32_t filter_number_bit_pos = 0;
 474              		.loc 1 309 0
 475              		.cfi_startproc
 476              		@ args = 0, pretend = 0, frame = 0
 477              		@ frame_needed = 0, uses_anonymous_args = 0
 478              	.LVL40:
 479 0000 70B5     		push	{r4, r5, r6, lr}
 480              	.LCFI2:
 481              		.cfi_def_cfa_offset 16
 482              		.cfi_offset 4, -16
 483              		.cfi_offset 5, -12
 484              		.cfi_offset 6, -8
 485              		.cfi_offset 14, -4
 486 0002 0446     		mov	r4, r0
 487              	.LVL41:
 312:STM32F10x_StdPeriph_Driver/src/stm32f10x_can.c ****   assert_param(IS_CAN_FILTER_MODE(CAN_FilterInitStruct->CAN_FilterMode));
 488              		.loc 1 312 0
 489 0004 837A     		ldrb	r3, [r0, #10]	@ zero_extendqisi2
ARM GAS  /var/folders/g9/bbpj86ld7fx45vd1b3pqxmp00000gn/T//ccXBJrXf.s 			page 28


 490 0006 0D2B     		cmp	r3, #13
 491 0008 04D9     		bls	.L49
 312:STM32F10x_StdPeriph_Driver/src/stm32f10x_can.c ****   assert_param(IS_CAN_FILTER_MODE(CAN_FilterInitStruct->CAN_FilterMode));
 492              		.loc 1 312 0 is_stmt 0 discriminator 1
 493 000a 4FF49C71 		mov	r1, #312
 494 000e 4C48     		ldr	r0, .L62
 495              	.LVL42:
 496 0010 FFF7FEFF 		bl	assert_failed
 497              	.LVL43:
 498              	.L49:
 313:STM32F10x_StdPeriph_Driver/src/stm32f10x_can.c ****   assert_param(IS_CAN_FILTER_SCALE(CAN_FilterInitStruct->CAN_FilterScale));
 499              		.loc 1 313 0 is_stmt 1
 500 0014 E37A     		ldrb	r3, [r4, #11]	@ zero_extendqisi2
 501 0016 012B     		cmp	r3, #1
 502 0018 04D9     		bls	.L50
 313:STM32F10x_StdPeriph_Driver/src/stm32f10x_can.c ****   assert_param(IS_CAN_FILTER_SCALE(CAN_FilterInitStruct->CAN_FilterScale));
 503              		.loc 1 313 0 is_stmt 0 discriminator 1
 504 001a 40F23911 		movw	r1, #313
 505 001e 4848     		ldr	r0, .L62
 506 0020 FFF7FEFF 		bl	assert_failed
 507              	.LVL44:
 508              	.L50:
 314:STM32F10x_StdPeriph_Driver/src/stm32f10x_can.c ****   assert_param(IS_CAN_FILTER_FIFO(CAN_FilterInitStruct->CAN_FilterFIFOAssignment));
 509              		.loc 1 314 0 is_stmt 1
 510 0024 237B     		ldrb	r3, [r4, #12]	@ zero_extendqisi2
 511 0026 012B     		cmp	r3, #1
 512 0028 04D9     		bls	.L51
 314:STM32F10x_StdPeriph_Driver/src/stm32f10x_can.c ****   assert_param(IS_CAN_FILTER_FIFO(CAN_FilterInitStruct->CAN_FilterFIFOAssignment));
 513              		.loc 1 314 0 is_stmt 0 discriminator 1
 514 002a 4FF49D71 		mov	r1, #314
 515 002e 4448     		ldr	r0, .L62
 516 0030 FFF7FEFF 		bl	assert_failed
 517              	.LVL45:
 518              	.L51:
 315:STM32F10x_StdPeriph_Driver/src/stm32f10x_can.c ****   assert_param(IS_FUNCTIONAL_STATE(CAN_FilterInitStruct->CAN_FilterActivation));
 519              		.loc 1 315 0 is_stmt 1
 520 0034 2389     		ldrh	r3, [r4, #8]
 521 0036 012B     		cmp	r3, #1
 522 0038 04D9     		bls	.L52
 315:STM32F10x_StdPeriph_Driver/src/stm32f10x_can.c ****   assert_param(IS_FUNCTIONAL_STATE(CAN_FilterInitStruct->CAN_FilterActivation));
 523              		.loc 1 315 0 is_stmt 0 discriminator 1
 524 003a 40F23B11 		movw	r1, #315
 525 003e 4048     		ldr	r0, .L62
 526 0040 FFF7FEFF 		bl	assert_failed
 527              	.LVL46:
 528              	.L52:
 316:STM32F10x_StdPeriph_Driver/src/stm32f10x_can.c **** 
 529              		.loc 1 316 0 is_stmt 1
 530 0044 637B     		ldrb	r3, [r4, #13]	@ zero_extendqisi2
 531 0046 012B     		cmp	r3, #1
 532 0048 04D9     		bls	.L53
 316:STM32F10x_StdPeriph_Driver/src/stm32f10x_can.c **** 
 533              		.loc 1 316 0 is_stmt 0 discriminator 1
 534 004a 4FF49E71 		mov	r1, #316
 535 004e 3C48     		ldr	r0, .L62
 536 0050 FFF7FEFF 		bl	assert_failed
 537              	.LVL47:
ARM GAS  /var/folders/g9/bbpj86ld7fx45vd1b3pqxmp00000gn/T//ccXBJrXf.s 			page 29


 538              	.L53:
 318:STM32F10x_StdPeriph_Driver/src/stm32f10x_can.c **** 
 539              		.loc 1 318 0 is_stmt 1
 540 0054 A37A     		ldrb	r3, [r4, #10]	@ zero_extendqisi2
 541 0056 0122     		movs	r2, #1
 542 0058 02FA03F3 		lsl	r3, r2, r3
 543              	.LVL48:
 321:STM32F10x_StdPeriph_Driver/src/stm32f10x_can.c **** 
 544              		.loc 1 321 0
 545 005c 394A     		ldr	r2, .L62+4
 546 005e D2F80012 		ldr	r1, [r2, #512]
 547 0062 41F00101 		orr	r1, r1, #1
 548 0066 C2F80012 		str	r1, [r2, #512]
 324:STM32F10x_StdPeriph_Driver/src/stm32f10x_can.c **** 
 549              		.loc 1 324 0
 550 006a D2F81C12 		ldr	r1, [r2, #540]
 551 006e D843     		mvns	r0, r3
 552 0070 0140     		ands	r1, r1, r0
 553 0072 C2F81C12 		str	r1, [r2, #540]
 327:STM32F10x_StdPeriph_Driver/src/stm32f10x_can.c ****   {
 554              		.loc 1 327 0
 555 0076 227B     		ldrb	r2, [r4, #12]	@ zero_extendqisi2
 556 0078 B2B9     		cbnz	r2, .L54
 330:STM32F10x_StdPeriph_Driver/src/stm32f10x_can.c **** 
 557              		.loc 1 330 0
 558 007a 324A     		ldr	r2, .L62+4
 559 007c D2F80C12 		ldr	r1, [r2, #524]
 560 0080 0140     		ands	r1, r1, r0
 561 0082 C2F80C12 		str	r1, [r2, #524]
 334:STM32F10x_StdPeriph_Driver/src/stm32f10x_can.c ****     ((0x0000FFFF & (uint32_t)CAN_FilterInitStruct->CAN_FilterMaskIdLow) << 16) |
 562              		.loc 1 334 0
 563 0086 A17A     		ldrb	r1, [r4, #10]	@ zero_extendqisi2
 335:STM32F10x_StdPeriph_Driver/src/stm32f10x_can.c ****         (0x0000FFFF & (uint32_t)CAN_FilterInitStruct->CAN_FilterIdLow);
 564              		.loc 1 335 0
 565 0088 E688     		ldrh	r6, [r4, #6]
 336:STM32F10x_StdPeriph_Driver/src/stm32f10x_can.c **** 
 566              		.loc 1 336 0
 567 008a 6588     		ldrh	r5, [r4, #2]
 335:STM32F10x_StdPeriph_Driver/src/stm32f10x_can.c ****         (0x0000FFFF & (uint32_t)CAN_FilterInitStruct->CAN_FilterIdLow);
 568              		.loc 1 335 0
 569 008c 45EA0645 		orr	r5, r5, r6, lsl #16
 334:STM32F10x_StdPeriph_Driver/src/stm32f10x_can.c ****     ((0x0000FFFF & (uint32_t)CAN_FilterInitStruct->CAN_FilterMaskIdLow) << 16) |
 570              		.loc 1 334 0
 571 0090 4831     		adds	r1, r1, #72
 572 0092 42F83150 		str	r5, [r2, r1, lsl #3]
 340:STM32F10x_StdPeriph_Driver/src/stm32f10x_can.c ****     ((0x0000FFFF & (uint32_t)CAN_FilterInitStruct->CAN_FilterMaskIdHigh) << 16) |
 573              		.loc 1 340 0
 574 0096 A57A     		ldrb	r5, [r4, #10]	@ zero_extendqisi2
 341:STM32F10x_StdPeriph_Driver/src/stm32f10x_can.c ****         (0x0000FFFF & (uint32_t)CAN_FilterInitStruct->CAN_FilterIdHigh);
 575              		.loc 1 341 0
 576 0098 A688     		ldrh	r6, [r4, #4]
 342:STM32F10x_StdPeriph_Driver/src/stm32f10x_can.c ****   }
 577              		.loc 1 342 0
 578 009a 2188     		ldrh	r1, [r4]
 341:STM32F10x_StdPeriph_Driver/src/stm32f10x_can.c ****         (0x0000FFFF & (uint32_t)CAN_FilterInitStruct->CAN_FilterIdHigh);
 579              		.loc 1 341 0
 580 009c 41EA0641 		orr	r1, r1, r6, lsl #16
ARM GAS  /var/folders/g9/bbpj86ld7fx45vd1b3pqxmp00000gn/T//ccXBJrXf.s 			page 30


 340:STM32F10x_StdPeriph_Driver/src/stm32f10x_can.c ****     ((0x0000FFFF & (uint32_t)CAN_FilterInitStruct->CAN_FilterMaskIdHigh) << 16) |
 581              		.loc 1 340 0
 582 00a0 4835     		adds	r5, r5, #72
 583 00a2 02EBC502 		add	r2, r2, r5, lsl #3
 584 00a6 5160     		str	r1, [r2, #4]
 585              	.L54:
 345:STM32F10x_StdPeriph_Driver/src/stm32f10x_can.c ****   {
 586              		.loc 1 345 0
 587 00a8 227B     		ldrb	r2, [r4, #12]	@ zero_extendqisi2
 588 00aa 012A     		cmp	r2, #1
 589 00ac 16D1     		bne	.L55
 348:STM32F10x_StdPeriph_Driver/src/stm32f10x_can.c ****     /* 32-bit identifier or First 32-bit identifier */
 590              		.loc 1 348 0
 591 00ae 254A     		ldr	r2, .L62+4
 592 00b0 D2F80C12 		ldr	r1, [r2, #524]
 593 00b4 1943     		orrs	r1, r1, r3
 594 00b6 C2F80C12 		str	r1, [r2, #524]
 350:STM32F10x_StdPeriph_Driver/src/stm32f10x_can.c ****     ((0x0000FFFF & (uint32_t)CAN_FilterInitStruct->CAN_FilterIdHigh) << 16) |
 595              		.loc 1 350 0
 596 00ba A17A     		ldrb	r1, [r4, #10]	@ zero_extendqisi2
 351:STM32F10x_StdPeriph_Driver/src/stm32f10x_can.c ****         (0x0000FFFF & (uint32_t)CAN_FilterInitStruct->CAN_FilterIdLow);
 597              		.loc 1 351 0
 598 00bc 2688     		ldrh	r6, [r4]
 352:STM32F10x_StdPeriph_Driver/src/stm32f10x_can.c ****     /* 32-bit mask or Second 32-bit identifier */
 599              		.loc 1 352 0
 600 00be 6588     		ldrh	r5, [r4, #2]
 351:STM32F10x_StdPeriph_Driver/src/stm32f10x_can.c ****         (0x0000FFFF & (uint32_t)CAN_FilterInitStruct->CAN_FilterIdLow);
 601              		.loc 1 351 0
 602 00c0 45EA0645 		orr	r5, r5, r6, lsl #16
 350:STM32F10x_StdPeriph_Driver/src/stm32f10x_can.c ****     ((0x0000FFFF & (uint32_t)CAN_FilterInitStruct->CAN_FilterIdHigh) << 16) |
 603              		.loc 1 350 0
 604 00c4 4831     		adds	r1, r1, #72
 605 00c6 42F83150 		str	r5, [r2, r1, lsl #3]
 354:STM32F10x_StdPeriph_Driver/src/stm32f10x_can.c ****     ((0x0000FFFF & (uint32_t)CAN_FilterInitStruct->CAN_FilterMaskIdHigh) << 16) |
 606              		.loc 1 354 0
 607 00ca A57A     		ldrb	r5, [r4, #10]	@ zero_extendqisi2
 355:STM32F10x_StdPeriph_Driver/src/stm32f10x_can.c ****         (0x0000FFFF & (uint32_t)CAN_FilterInitStruct->CAN_FilterMaskIdLow);
 608              		.loc 1 355 0
 609 00cc A688     		ldrh	r6, [r4, #4]
 356:STM32F10x_StdPeriph_Driver/src/stm32f10x_can.c ****   }
 610              		.loc 1 356 0
 611 00ce E188     		ldrh	r1, [r4, #6]
 355:STM32F10x_StdPeriph_Driver/src/stm32f10x_can.c ****         (0x0000FFFF & (uint32_t)CAN_FilterInitStruct->CAN_FilterMaskIdLow);
 612              		.loc 1 355 0
 613 00d0 41EA0641 		orr	r1, r1, r6, lsl #16
 354:STM32F10x_StdPeriph_Driver/src/stm32f10x_can.c ****     ((0x0000FFFF & (uint32_t)CAN_FilterInitStruct->CAN_FilterMaskIdHigh) << 16) |
 614              		.loc 1 354 0
 615 00d4 4835     		adds	r5, r5, #72
 616 00d6 02EBC502 		add	r2, r2, r5, lsl #3
 617 00da 5160     		str	r1, [r2, #4]
 618              	.L55:
 360:STM32F10x_StdPeriph_Driver/src/stm32f10x_can.c ****   {
 619              		.loc 1 360 0
 620 00dc E27A     		ldrb	r2, [r4, #11]	@ zero_extendqisi2
 621 00de 32B9     		cbnz	r2, .L56
 363:STM32F10x_StdPeriph_Driver/src/stm32f10x_can.c ****   }
 622              		.loc 1 363 0
ARM GAS  /var/folders/g9/bbpj86ld7fx45vd1b3pqxmp00000gn/T//ccXBJrXf.s 			page 31


 623 00e0 1849     		ldr	r1, .L62+4
 624 00e2 D1F80422 		ldr	r2, [r1, #516]
 625 00e6 0240     		ands	r2, r2, r0
 626 00e8 C1F80422 		str	r2, [r1, #516]
 627 00ec 05E0     		b	.L57
 628              	.L56:
 368:STM32F10x_StdPeriph_Driver/src/stm32f10x_can.c ****   }
 629              		.loc 1 368 0
 630 00ee 1549     		ldr	r1, .L62+4
 631 00f0 D1F80422 		ldr	r2, [r1, #516]
 632 00f4 1A43     		orrs	r2, r2, r3
 633 00f6 C1F80422 		str	r2, [r1, #516]
 634              	.L57:
 372:STM32F10x_StdPeriph_Driver/src/stm32f10x_can.c ****   {
 635              		.loc 1 372 0
 636 00fa 2289     		ldrh	r2, [r4, #8]
 637 00fc 2AB9     		cbnz	r2, .L58
 375:STM32F10x_StdPeriph_Driver/src/stm32f10x_can.c ****   }
 638              		.loc 1 375 0
 639 00fe 1149     		ldr	r1, .L62+4
 640 0100 D1F81422 		ldr	r2, [r1, #532]
 641 0104 1040     		ands	r0, r0, r2
 642 0106 C1F81402 		str	r0, [r1, #532]
 643              	.L58:
 378:STM32F10x_StdPeriph_Driver/src/stm32f10x_can.c ****   {
 644              		.loc 1 378 0
 645 010a 2289     		ldrh	r2, [r4, #8]
 646 010c 012A     		cmp	r2, #1
 647 010e 05D1     		bne	.L59
 381:STM32F10x_StdPeriph_Driver/src/stm32f10x_can.c ****   }
 648              		.loc 1 381 0
 649 0110 0C49     		ldr	r1, .L62+4
 650 0112 D1F81422 		ldr	r2, [r1, #532]
 651 0116 1A43     		orrs	r2, r2, r3
 652 0118 C1F81422 		str	r2, [r1, #532]
 653              	.L59:
 385:STM32F10x_StdPeriph_Driver/src/stm32f10x_can.c ****   {
 654              		.loc 1 385 0
 655 011c 627B     		ldrb	r2, [r4, #13]	@ zero_extendqisi2
 656 011e 012A     		cmp	r2, #1
 657 0120 05D1     		bne	.L60
 387:STM32F10x_StdPeriph_Driver/src/stm32f10x_can.c ****   }
 658              		.loc 1 387 0
 659 0122 0849     		ldr	r1, .L62+4
 660 0124 D1F81C22 		ldr	r2, [r1, #540]
 661 0128 1343     		orrs	r3, r3, r2
 662              	.LVL49:
 663 012a C1F81C32 		str	r3, [r1, #540]
 664              	.L60:
 391:STM32F10x_StdPeriph_Driver/src/stm32f10x_can.c **** }
 665              		.loc 1 391 0
 666 012e 054A     		ldr	r2, .L62+4
 667 0130 D2F80032 		ldr	r3, [r2, #512]
 668 0134 23F00103 		bic	r3, r3, #1
 669 0138 C2F80032 		str	r3, [r2, #512]
 670 013c 70BD     		pop	{r4, r5, r6, pc}
 671              	.LVL50:
ARM GAS  /var/folders/g9/bbpj86ld7fx45vd1b3pqxmp00000gn/T//ccXBJrXf.s 			page 32


 672              	.L63:
 673 013e 00BF     		.align	2
 674              	.L62:
 675 0140 00000000 		.word	.LC0
 676 0144 00640040 		.word	1073767424
 677              		.cfi_endproc
 678              	.LFE29:
 680              		.section	.text.CAN_StructInit,"ax",%progbits
 681              		.align	2
 682              		.global	CAN_StructInit
 683              		.thumb
 684              		.thumb_func
 686              	CAN_StructInit:
 687              	.LFB30:
 401:STM32F10x_StdPeriph_Driver/src/stm32f10x_can.c ****   /* Reset CAN init structure parameters values */
 688              		.loc 1 401 0
 689              		.cfi_startproc
 690              		@ args = 0, pretend = 0, frame = 0
 691              		@ frame_needed = 0, uses_anonymous_args = 0
 692              		@ link register save eliminated.
 693              	.LVL51:
 404:STM32F10x_StdPeriph_Driver/src/stm32f10x_can.c ****   /* Initialize the automatic bus-off management */
 694              		.loc 1 404 0
 695 0000 0023     		movs	r3, #0
 696 0002 8371     		strb	r3, [r0, #6]
 406:STM32F10x_StdPeriph_Driver/src/stm32f10x_can.c ****   /* Initialize the automatic wake-up mode */
 697              		.loc 1 406 0
 698 0004 C371     		strb	r3, [r0, #7]
 408:STM32F10x_StdPeriph_Driver/src/stm32f10x_can.c ****   /* Initialize the no automatic retransmission */
 699              		.loc 1 408 0
 700 0006 0372     		strb	r3, [r0, #8]
 410:STM32F10x_StdPeriph_Driver/src/stm32f10x_can.c ****   /* Initialize the receive FIFO locked mode */
 701              		.loc 1 410 0
 702 0008 4372     		strb	r3, [r0, #9]
 412:STM32F10x_StdPeriph_Driver/src/stm32f10x_can.c ****   /* Initialize the transmit FIFO priority */
 703              		.loc 1 412 0
 704 000a 8372     		strb	r3, [r0, #10]
 414:STM32F10x_StdPeriph_Driver/src/stm32f10x_can.c ****   /* Initialize the CAN_Mode member */
 705              		.loc 1 414 0
 706 000c C372     		strb	r3, [r0, #11]
 416:STM32F10x_StdPeriph_Driver/src/stm32f10x_can.c ****   /* Initialize the CAN_SJW member */
 707              		.loc 1 416 0
 708 000e 8370     		strb	r3, [r0, #2]
 418:STM32F10x_StdPeriph_Driver/src/stm32f10x_can.c ****   /* Initialize the CAN_BS1 member */
 709              		.loc 1 418 0
 710 0010 C370     		strb	r3, [r0, #3]
 420:STM32F10x_StdPeriph_Driver/src/stm32f10x_can.c ****   /* Initialize the CAN_BS2 member */
 711              		.loc 1 420 0
 712 0012 0323     		movs	r3, #3
 713 0014 0371     		strb	r3, [r0, #4]
 422:STM32F10x_StdPeriph_Driver/src/stm32f10x_can.c ****   /* Initialize the CAN_Prescaler member */
 714              		.loc 1 422 0
 715 0016 0223     		movs	r3, #2
 716 0018 4371     		strb	r3, [r0, #5]
 424:STM32F10x_StdPeriph_Driver/src/stm32f10x_can.c **** }
 717              		.loc 1 424 0
 718 001a 0123     		movs	r3, #1
ARM GAS  /var/folders/g9/bbpj86ld7fx45vd1b3pqxmp00000gn/T//ccXBJrXf.s 			page 33


 719 001c 0380     		strh	r3, [r0]	@ movhi
 720 001e 7047     		bx	lr
 721              		.cfi_endproc
 722              	.LFE30:
 724              		.section	.text.CAN_SlaveStartBank,"ax",%progbits
 725              		.align	2
 726              		.global	CAN_SlaveStartBank
 727              		.thumb
 728              		.thumb_func
 730              	CAN_SlaveStartBank:
 731              	.LFB31:
 434:STM32F10x_StdPeriph_Driver/src/stm32f10x_can.c ****   /* Check the parameters */
 732              		.loc 1 434 0
 733              		.cfi_startproc
 734              		@ args = 0, pretend = 0, frame = 0
 735              		@ frame_needed = 0, uses_anonymous_args = 0
 736              	.LVL52:
 737 0000 10B5     		push	{r4, lr}
 738              	.LCFI3:
 739              		.cfi_def_cfa_offset 8
 740              		.cfi_offset 4, -8
 741              		.cfi_offset 14, -4
 742 0002 0446     		mov	r4, r0
 436:STM32F10x_StdPeriph_Driver/src/stm32f10x_can.c ****   /* enter Initialisation mode for the filter */
 743              		.loc 1 436 0
 744 0004 431E     		subs	r3, r0, #1
 745 0006 DBB2     		uxtb	r3, r3
 746 0008 1A2B     		cmp	r3, #26
 747 000a 04D9     		bls	.L66
 436:STM32F10x_StdPeriph_Driver/src/stm32f10x_can.c ****   /* enter Initialisation mode for the filter */
 748              		.loc 1 436 0 is_stmt 0 discriminator 1
 749 000c 4FF4DA71 		mov	r1, #436
 750 0010 0F48     		ldr	r0, .L68
 751              	.LVL53:
 752 0012 FFF7FEFF 		bl	assert_failed
 753              	.LVL54:
 754              	.L66:
 438:STM32F10x_StdPeriph_Driver/src/stm32f10x_can.c ****   /* Select the start slave bank */
 755              		.loc 1 438 0 is_stmt 1
 756 0016 0F4B     		ldr	r3, .L68+4
 757 0018 D3F80022 		ldr	r2, [r3, #512]
 758 001c 42F00102 		orr	r2, r2, #1
 759 0020 C3F80022 		str	r2, [r3, #512]
 440:STM32F10x_StdPeriph_Driver/src/stm32f10x_can.c ****   CAN1->FMR |= (uint32_t)(CAN_BankNumber)<<8;
 760              		.loc 1 440 0
 761 0024 D3F80022 		ldr	r2, [r3, #512]
 762 0028 22F47C52 		bic	r2, r2, #16128
 763 002c 22F00E02 		bic	r2, r2, #14
 764 0030 C3F80022 		str	r2, [r3, #512]
 441:STM32F10x_StdPeriph_Driver/src/stm32f10x_can.c ****   /* Leave Initialisation mode for the filter */
 765              		.loc 1 441 0
 766 0034 D3F80002 		ldr	r0, [r3, #512]
 767 0038 40EA0420 		orr	r0, r0, r4, lsl #8
 768 003c C3F80002 		str	r0, [r3, #512]
 443:STM32F10x_StdPeriph_Driver/src/stm32f10x_can.c **** }
 769              		.loc 1 443 0
 770 0040 D3F80022 		ldr	r2, [r3, #512]
ARM GAS  /var/folders/g9/bbpj86ld7fx45vd1b3pqxmp00000gn/T//ccXBJrXf.s 			page 34


 771 0044 22F00102 		bic	r2, r2, #1
 772 0048 C3F80022 		str	r2, [r3, #512]
 773 004c 10BD     		pop	{r4, pc}
 774              	.L69:
 775 004e 00BF     		.align	2
 776              	.L68:
 777 0050 00000000 		.word	.LC0
 778 0054 00640040 		.word	1073767424
 779              		.cfi_endproc
 780              	.LFE31:
 782              		.section	.text.CAN_ITConfig,"ax",%progbits
 783              		.align	2
 784              		.global	CAN_ITConfig
 785              		.thumb
 786              		.thumb_func
 788              	CAN_ITConfig:
 789              	.LFB32:
 460:STM32F10x_StdPeriph_Driver/src/stm32f10x_can.c ****   /* Check the parameters */
 790              		.loc 1 460 0
 791              		.cfi_startproc
 792              		@ args = 0, pretend = 0, frame = 0
 793              		@ frame_needed = 0, uses_anonymous_args = 0
 794              	.LVL55:
 795 0000 70B5     		push	{r4, r5, r6, lr}
 796              	.LCFI4:
 797              		.cfi_def_cfa_offset 16
 798              		.cfi_offset 4, -16
 799              		.cfi_offset 5, -12
 800              		.cfi_offset 6, -8
 801              		.cfi_offset 14, -4
 802 0002 0546     		mov	r5, r0
 803 0004 0C46     		mov	r4, r1
 804 0006 1646     		mov	r6, r2
 462:STM32F10x_StdPeriph_Driver/src/stm32f10x_can.c ****   assert_param(IS_CAN_ITConfig(CAN_IT));
 805              		.loc 1 462 0
 806 0008 214B     		ldr	r3, .L77
 807 000a 9842     		cmp	r0, r3
 808 000c 08D0     		beq	.L71
 462:STM32F10x_StdPeriph_Driver/src/stm32f10x_can.c ****   assert_param(IS_CAN_ITConfig(CAN_IT));
 809              		.loc 1 462 0 is_stmt 0 discriminator 1
 810 000e 03F58063 		add	r3, r3, #1024
 811 0012 9842     		cmp	r0, r3
 812 0014 04D0     		beq	.L71
 462:STM32F10x_StdPeriph_Driver/src/stm32f10x_can.c ****   assert_param(IS_CAN_ITConfig(CAN_IT));
 813              		.loc 1 462 0 discriminator 2
 814 0016 4FF4E771 		mov	r1, #462
 815              	.LVL56:
 816 001a 1E48     		ldr	r0, .L77+4
 817              	.LVL57:
 818 001c FFF7FEFF 		bl	assert_failed
 819              	.LVL58:
 820              	.L71:
 463:STM32F10x_StdPeriph_Driver/src/stm32f10x_can.c ****   assert_param(IS_FUNCTIONAL_STATE(NewState));
 821              		.loc 1 463 0 is_stmt 1
 822 0020 631E     		subs	r3, r4, #1
 823 0022 012B     		cmp	r3, #1
 824 0024 23D9     		bls	.L72
ARM GAS  /var/folders/g9/bbpj86ld7fx45vd1b3pqxmp00000gn/T//ccXBJrXf.s 			page 35


 463:STM32F10x_StdPeriph_Driver/src/stm32f10x_can.c ****   assert_param(IS_FUNCTIONAL_STATE(NewState));
 825              		.loc 1 463 0 is_stmt 0 discriminator 1
 826 0026 042C     		cmp	r4, #4
 827 0028 21D0     		beq	.L72
 463:STM32F10x_StdPeriph_Driver/src/stm32f10x_can.c ****   assert_param(IS_FUNCTIONAL_STATE(NewState));
 828              		.loc 1 463 0 discriminator 2
 829 002a 082C     		cmp	r4, #8
 830 002c 1FD0     		beq	.L72
 463:STM32F10x_StdPeriph_Driver/src/stm32f10x_can.c ****   assert_param(IS_FUNCTIONAL_STATE(NewState));
 831              		.loc 1 463 0 discriminator 3
 832 002e 102C     		cmp	r4, #16
 833 0030 1DD0     		beq	.L72
 463:STM32F10x_StdPeriph_Driver/src/stm32f10x_can.c ****   assert_param(IS_FUNCTIONAL_STATE(NewState));
 834              		.loc 1 463 0 discriminator 4
 835 0032 202C     		cmp	r4, #32
 836 0034 1BD0     		beq	.L72
 463:STM32F10x_StdPeriph_Driver/src/stm32f10x_can.c ****   assert_param(IS_FUNCTIONAL_STATE(NewState));
 837              		.loc 1 463 0 discriminator 5
 838 0036 402C     		cmp	r4, #64
 839 0038 19D0     		beq	.L72
 463:STM32F10x_StdPeriph_Driver/src/stm32f10x_can.c ****   assert_param(IS_FUNCTIONAL_STATE(NewState));
 840              		.loc 1 463 0 discriminator 6
 841 003a B4F5807F 		cmp	r4, #256
 842 003e 16D0     		beq	.L72
 463:STM32F10x_StdPeriph_Driver/src/stm32f10x_can.c ****   assert_param(IS_FUNCTIONAL_STATE(NewState));
 843              		.loc 1 463 0 discriminator 7
 844 0040 B4F5007F 		cmp	r4, #512
 845 0044 13D0     		beq	.L72
 463:STM32F10x_StdPeriph_Driver/src/stm32f10x_can.c ****   assert_param(IS_FUNCTIONAL_STATE(NewState));
 846              		.loc 1 463 0 discriminator 8
 847 0046 B4F5806F 		cmp	r4, #1024
 848 004a 10D0     		beq	.L72
 463:STM32F10x_StdPeriph_Driver/src/stm32f10x_can.c ****   assert_param(IS_FUNCTIONAL_STATE(NewState));
 849              		.loc 1 463 0 discriminator 9
 850 004c B4F5006F 		cmp	r4, #2048
 851 0050 0DD0     		beq	.L72
 463:STM32F10x_StdPeriph_Driver/src/stm32f10x_can.c ****   assert_param(IS_FUNCTIONAL_STATE(NewState));
 852              		.loc 1 463 0 discriminator 10
 853 0052 B4F5004F 		cmp	r4, #32768
 854 0056 0AD0     		beq	.L72
 463:STM32F10x_StdPeriph_Driver/src/stm32f10x_can.c ****   assert_param(IS_FUNCTIONAL_STATE(NewState));
 855              		.loc 1 463 0 discriminator 11
 856 0058 B4F5803F 		cmp	r4, #65536
 857 005c 07D0     		beq	.L72
 463:STM32F10x_StdPeriph_Driver/src/stm32f10x_can.c ****   assert_param(IS_FUNCTIONAL_STATE(NewState));
 858              		.loc 1 463 0 discriminator 12
 859 005e B4F5003F 		cmp	r4, #131072
 860 0062 04D0     		beq	.L72
 463:STM32F10x_StdPeriph_Driver/src/stm32f10x_can.c ****   assert_param(IS_FUNCTIONAL_STATE(NewState));
 861              		.loc 1 463 0 discriminator 13
 862 0064 40F2CF11 		movw	r1, #463
 863 0068 0A48     		ldr	r0, .L77+4
 864 006a FFF7FEFF 		bl	assert_failed
 865              	.LVL59:
 866              	.L72:
 464:STM32F10x_StdPeriph_Driver/src/stm32f10x_can.c **** 
 867              		.loc 1 464 0 is_stmt 1
ARM GAS  /var/folders/g9/bbpj86ld7fx45vd1b3pqxmp00000gn/T//ccXBJrXf.s 			page 36


 868 006e 012E     		cmp	r6, #1
 869 0070 04D9     		bls	.L73
 464:STM32F10x_StdPeriph_Driver/src/stm32f10x_can.c **** 
 870              		.loc 1 464 0 is_stmt 0 discriminator 1
 871 0072 4FF4E871 		mov	r1, #464
 872 0076 0748     		ldr	r0, .L77+4
 873 0078 FFF7FEFF 		bl	assert_failed
 874              	.LVL60:
 875              	.L73:
 466:STM32F10x_StdPeriph_Driver/src/stm32f10x_can.c ****   {
 876              		.loc 1 466 0 is_stmt 1
 877 007c 1EB1     		cbz	r6, .L74
 469:STM32F10x_StdPeriph_Driver/src/stm32f10x_can.c ****   }
 878              		.loc 1 469 0
 879 007e 6B69     		ldr	r3, [r5, #20]
 880 0080 1C43     		orrs	r4, r4, r3
 881              	.LVL61:
 882 0082 6C61     		str	r4, [r5, #20]
 883 0084 70BD     		pop	{r4, r5, r6, pc}
 884              	.LVL62:
 885              	.L74:
 474:STM32F10x_StdPeriph_Driver/src/stm32f10x_can.c ****   }
 886              		.loc 1 474 0
 887 0086 6B69     		ldr	r3, [r5, #20]
 888 0088 23EA0404 		bic	r4, r3, r4
 889              	.LVL63:
 890 008c 6C61     		str	r4, [r5, #20]
 891 008e 70BD     		pop	{r4, r5, r6, pc}
 892              	.LVL64:
 893              	.L78:
 894              		.align	2
 895              	.L77:
 896 0090 00640040 		.word	1073767424
 897 0094 00000000 		.word	.LC0
 898              		.cfi_endproc
 899              	.LFE32:
 901              		.section	.text.CAN_Transmit,"ax",%progbits
 902              		.align	2
 903              		.global	CAN_Transmit
 904              		.thumb
 905              		.thumb_func
 907              	CAN_Transmit:
 908              	.LFB33:
 487:STM32F10x_StdPeriph_Driver/src/stm32f10x_can.c ****   uint8_t transmit_mailbox = 0;
 909              		.loc 1 487 0
 910              		.cfi_startproc
 911              		@ args = 0, pretend = 0, frame = 0
 912              		@ frame_needed = 0, uses_anonymous_args = 0
 913              	.LVL65:
 914 0000 F8B5     		push	{r3, r4, r5, r6, r7, lr}
 915              	.LCFI5:
 916              		.cfi_def_cfa_offset 24
 917              		.cfi_offset 3, -24
 918              		.cfi_offset 4, -20
 919              		.cfi_offset 5, -16
 920              		.cfi_offset 6, -12
 921              		.cfi_offset 7, -8
ARM GAS  /var/folders/g9/bbpj86ld7fx45vd1b3pqxmp00000gn/T//ccXBJrXf.s 			page 37


 922              		.cfi_offset 14, -4
 923 0002 0546     		mov	r5, r0
 924 0004 0C46     		mov	r4, r1
 925              	.LVL66:
 490:STM32F10x_StdPeriph_Driver/src/stm32f10x_can.c ****   assert_param(IS_CAN_IDTYPE(TxMessage->IDE));
 926              		.loc 1 490 0
 927 0006 4F4B     		ldr	r3, .L94
 928 0008 9842     		cmp	r0, r3
 929 000a 08D0     		beq	.L80
 490:STM32F10x_StdPeriph_Driver/src/stm32f10x_can.c ****   assert_param(IS_CAN_IDTYPE(TxMessage->IDE));
 930              		.loc 1 490 0 is_stmt 0 discriminator 1
 931 000c 03F58063 		add	r3, r3, #1024
 932 0010 9842     		cmp	r0, r3
 933 0012 04D0     		beq	.L80
 490:STM32F10x_StdPeriph_Driver/src/stm32f10x_can.c ****   assert_param(IS_CAN_IDTYPE(TxMessage->IDE));
 934              		.loc 1 490 0 discriminator 2
 935 0014 4FF4F571 		mov	r1, #490
 936              	.LVL67:
 937 0018 4B48     		ldr	r0, .L94+4
 938              	.LVL68:
 939 001a FFF7FEFF 		bl	assert_failed
 940              	.LVL69:
 941              	.L80:
 491:STM32F10x_StdPeriph_Driver/src/stm32f10x_can.c ****   assert_param(IS_CAN_RTR(TxMessage->RTR));
 942              		.loc 1 491 0 is_stmt 1
 943 001e 237A     		ldrb	r3, [r4, #8]	@ zero_extendqisi2
 944 0020 33B1     		cbz	r3, .L81
 491:STM32F10x_StdPeriph_Driver/src/stm32f10x_can.c ****   assert_param(IS_CAN_RTR(TxMessage->RTR));
 945              		.loc 1 491 0 is_stmt 0 discriminator 1
 946 0022 042B     		cmp	r3, #4
 947 0024 04D0     		beq	.L81
 491:STM32F10x_StdPeriph_Driver/src/stm32f10x_can.c ****   assert_param(IS_CAN_RTR(TxMessage->RTR));
 948              		.loc 1 491 0 discriminator 2
 949 0026 40F2EB11 		movw	r1, #491
 950 002a 4748     		ldr	r0, .L94+4
 951 002c FFF7FEFF 		bl	assert_failed
 952              	.LVL70:
 953              	.L81:
 492:STM32F10x_StdPeriph_Driver/src/stm32f10x_can.c ****   assert_param(IS_CAN_DLC(TxMessage->DLC));
 954              		.loc 1 492 0 is_stmt 1
 955 0030 637A     		ldrb	r3, [r4, #9]	@ zero_extendqisi2
 956 0032 33B1     		cbz	r3, .L82
 492:STM32F10x_StdPeriph_Driver/src/stm32f10x_can.c ****   assert_param(IS_CAN_DLC(TxMessage->DLC));
 957              		.loc 1 492 0 is_stmt 0 discriminator 1
 958 0034 022B     		cmp	r3, #2
 959 0036 04D0     		beq	.L82
 492:STM32F10x_StdPeriph_Driver/src/stm32f10x_can.c ****   assert_param(IS_CAN_DLC(TxMessage->DLC));
 960              		.loc 1 492 0 discriminator 2
 961 0038 4FF4F671 		mov	r1, #492
 962 003c 4248     		ldr	r0, .L94+4
 963 003e FFF7FEFF 		bl	assert_failed
 964              	.LVL71:
 965              	.L82:
 493:STM32F10x_StdPeriph_Driver/src/stm32f10x_can.c **** 
 966              		.loc 1 493 0 is_stmt 1
 967 0042 A37A     		ldrb	r3, [r4, #10]	@ zero_extendqisi2
 968 0044 082B     		cmp	r3, #8
ARM GAS  /var/folders/g9/bbpj86ld7fx45vd1b3pqxmp00000gn/T//ccXBJrXf.s 			page 38


 969 0046 04D9     		bls	.L83
 493:STM32F10x_StdPeriph_Driver/src/stm32f10x_can.c **** 
 970              		.loc 1 493 0 is_stmt 0 discriminator 1
 971 0048 40F2ED11 		movw	r1, #493
 972 004c 3E48     		ldr	r0, .L94+4
 973 004e FFF7FEFF 		bl	assert_failed
 974              	.LVL72:
 975              	.L83:
 496:STM32F10x_StdPeriph_Driver/src/stm32f10x_can.c ****   {
 976              		.loc 1 496 0 is_stmt 1
 977 0052 AB68     		ldr	r3, [r5, #8]
 978 0054 13F0806F 		tst	r3, #67108864
 979 0058 09D1     		bne	.L90
 500:STM32F10x_StdPeriph_Driver/src/stm32f10x_can.c ****   {
 980              		.loc 1 500 0
 981 005a AB68     		ldr	r3, [r5, #8]
 982 005c 13F0006F 		tst	r3, #134217728
 983 0060 07D1     		bne	.L91
 504:STM32F10x_StdPeriph_Driver/src/stm32f10x_can.c ****   {
 984              		.loc 1 504 0
 985 0062 AB68     		ldr	r3, [r5, #8]
 986 0064 13F0805F 		tst	r3, #268435456
 987 0068 05D0     		beq	.L92
 506:STM32F10x_StdPeriph_Driver/src/stm32f10x_can.c ****   }
 988              		.loc 1 506 0
 989 006a 0226     		movs	r6, #2
 990 006c 04E0     		b	.L84
 991              	.L90:
 498:STM32F10x_StdPeriph_Driver/src/stm32f10x_can.c ****   }
 992              		.loc 1 498 0
 993 006e 0026     		movs	r6, #0
 994 0070 02E0     		b	.L84
 995              	.L91:
 502:STM32F10x_StdPeriph_Driver/src/stm32f10x_can.c ****   }
 996              		.loc 1 502 0
 997 0072 0126     		movs	r6, #1
 998 0074 00E0     		b	.L84
 999              	.L92:
 510:STM32F10x_StdPeriph_Driver/src/stm32f10x_can.c ****   }
 1000              		.loc 1 510 0
 1001 0076 0426     		movs	r6, #4
 1002              	.L84:
 1003              	.LVL73:
 513:STM32F10x_StdPeriph_Driver/src/stm32f10x_can.c ****   {
 1004              		.loc 1 513 0
 1005 0078 042E     		cmp	r6, #4
 1006 007a 60D0     		beq	.L85
 516:STM32F10x_StdPeriph_Driver/src/stm32f10x_can.c ****     if (TxMessage->IDE == CAN_ID_STD)
 1007              		.loc 1 516 0
 1008 007c 3746     		mov	r7, r6
 1009 007e 06F11803 		add	r3, r6, #24
 1010 0082 1B01     		lsls	r3, r3, #4
 1011 0084 EA58     		ldr	r2, [r5, r3]
 1012 0086 02F00102 		and	r2, r2, #1
 1013 008a EA50     		str	r2, [r5, r3]
 517:STM32F10x_StdPeriph_Driver/src/stm32f10x_can.c ****     {
 1014              		.loc 1 517 0
ARM GAS  /var/folders/g9/bbpj86ld7fx45vd1b3pqxmp00000gn/T//ccXBJrXf.s 			page 39


 1015 008c 237A     		ldrb	r3, [r4, #8]	@ zero_extendqisi2
 1016 008e 9BB9     		cbnz	r3, .L86
 519:STM32F10x_StdPeriph_Driver/src/stm32f10x_can.c ****       CANx->sTxMailBox[transmit_mailbox].TIR |= ((TxMessage->StdId << 21) | TxMessage->RTR);
 1017              		.loc 1 519 0
 1018 0090 2368     		ldr	r3, [r4]
 1019 0092 B3F5006F 		cmp	r3, #2048
 1020 0096 04D3     		bcc	.L87
 519:STM32F10x_StdPeriph_Driver/src/stm32f10x_can.c ****       CANx->sTxMailBox[transmit_mailbox].TIR |= ((TxMessage->StdId << 21) | TxMessage->RTR);
 1021              		.loc 1 519 0 is_stmt 0 discriminator 1
 1022 0098 40F20721 		movw	r1, #519
 1023 009c 2A48     		ldr	r0, .L94+4
 1024 009e FFF7FEFF 		bl	assert_failed
 1025              	.LVL74:
 1026              	.L87:
 520:STM32F10x_StdPeriph_Driver/src/stm32f10x_can.c ****     }
 1027              		.loc 1 520 0 is_stmt 1
 1028 00a2 07F11801 		add	r1, r7, #24
 1029 00a6 0901     		lsls	r1, r1, #4
 1030 00a8 6858     		ldr	r0, [r5, r1]
 1031 00aa 2368     		ldr	r3, [r4]
 1032 00ac 627A     		ldrb	r2, [r4, #9]	@ zero_extendqisi2
 1033 00ae 42EA4353 		orr	r3, r2, r3, lsl #21
 1034 00b2 0343     		orrs	r3, r3, r0
 1035 00b4 6B50     		str	r3, [r5, r1]
 1036 00b6 14E0     		b	.L88
 1037              	.L86:
 524:STM32F10x_StdPeriph_Driver/src/stm32f10x_can.c ****       CANx->sTxMailBox[transmit_mailbox].TIR |= ((TxMessage->ExtId<<3) | TxMessage->IDE | 
 1038              		.loc 1 524 0
 1039 00b8 6368     		ldr	r3, [r4, #4]
 1040 00ba B3F1005F 		cmp	r3, #536870912
 1041 00be 04D3     		bcc	.L89
 524:STM32F10x_StdPeriph_Driver/src/stm32f10x_can.c ****       CANx->sTxMailBox[transmit_mailbox].TIR |= ((TxMessage->ExtId<<3) | TxMessage->IDE | 
 1042              		.loc 1 524 0 is_stmt 0 discriminator 1
 1043 00c0 4FF40371 		mov	r1, #524
 1044 00c4 2048     		ldr	r0, .L94+4
 1045 00c6 FFF7FEFF 		bl	assert_failed
 1046              	.LVL75:
 1047              	.L89:
 525:STM32F10x_StdPeriph_Driver/src/stm32f10x_can.c ****                                                TxMessage->RTR);
 1048              		.loc 1 525 0 is_stmt 1
 1049 00ca 07F11801 		add	r1, r7, #24
 1050 00ce 0901     		lsls	r1, r1, #4
 1051 00d0 6858     		ldr	r0, [r5, r1]
 1052 00d2 6368     		ldr	r3, [r4, #4]
 1053 00d4 227A     		ldrb	r2, [r4, #8]	@ zero_extendqisi2
 1054 00d6 42EAC302 		orr	r2, r2, r3, lsl #3
 526:STM32F10x_StdPeriph_Driver/src/stm32f10x_can.c ****     }
 1055              		.loc 1 526 0
 1056 00da 637A     		ldrb	r3, [r4, #9]	@ zero_extendqisi2
 525:STM32F10x_StdPeriph_Driver/src/stm32f10x_can.c ****                                                TxMessage->RTR);
 1057              		.loc 1 525 0
 1058 00dc 1343     		orrs	r3, r3, r2
 1059 00de 0343     		orrs	r3, r3, r0
 1060 00e0 6B50     		str	r3, [r5, r1]
 1061              	.L88:
 531:STM32F10x_StdPeriph_Driver/src/stm32f10x_can.c ****     CANx->sTxMailBox[transmit_mailbox].TDTR &= (uint32_t)0xFFFFFFF0;
 1062              		.loc 1 531 0
ARM GAS  /var/folders/g9/bbpj86ld7fx45vd1b3pqxmp00000gn/T//ccXBJrXf.s 			page 40


 1063 00e2 A37A     		ldrb	r3, [r4, #10]	@ zero_extendqisi2
 1064 00e4 03F00F03 		and	r3, r3, #15
 1065 00e8 A372     		strb	r3, [r4, #10]
 532:STM32F10x_StdPeriph_Driver/src/stm32f10x_can.c ****     CANx->sTxMailBox[transmit_mailbox].TDTR |= TxMessage->DLC;
 1066              		.loc 1 532 0
 1067 00ea 07F11802 		add	r2, r7, #24
 1068 00ee 1201     		lsls	r2, r2, #4
 1069 00f0 AB18     		adds	r3, r5, r2
 1070 00f2 5968     		ldr	r1, [r3, #4]
 1071 00f4 21F00F01 		bic	r1, r1, #15
 1072 00f8 5960     		str	r1, [r3, #4]
 533:STM32F10x_StdPeriph_Driver/src/stm32f10x_can.c **** 
 1073              		.loc 1 533 0
 1074 00fa 5968     		ldr	r1, [r3, #4]
 1075 00fc A07A     		ldrb	r0, [r4, #10]	@ zero_extendqisi2
 1076 00fe 0143     		orrs	r1, r1, r0
 1077 0100 5960     		str	r1, [r3, #4]
 536:STM32F10x_StdPeriph_Driver/src/stm32f10x_can.c ****                                              ((uint32_t)TxMessage->Data[2] << 16) |
 1078              		.loc 1 536 0
 1079 0102 A17B     		ldrb	r1, [r4, #14]	@ zero_extendqisi2
 537:STM32F10x_StdPeriph_Driver/src/stm32f10x_can.c ****                                              ((uint32_t)TxMessage->Data[1] << 8) | 
 1080              		.loc 1 537 0
 1081 0104 637B     		ldrb	r3, [r4, #13]	@ zero_extendqisi2
 1082 0106 1B04     		lsls	r3, r3, #16
 536:STM32F10x_StdPeriph_Driver/src/stm32f10x_can.c ****                                              ((uint32_t)TxMessage->Data[2] << 16) |
 1083              		.loc 1 536 0
 1084 0108 43EA0163 		orr	r3, r3, r1, lsl #24
 538:STM32F10x_StdPeriph_Driver/src/stm32f10x_can.c ****                                              ((uint32_t)TxMessage->Data[0]));
 1085              		.loc 1 538 0
 1086 010c 217B     		ldrb	r1, [r4, #12]	@ zero_extendqisi2
 537:STM32F10x_StdPeriph_Driver/src/stm32f10x_can.c ****                                              ((uint32_t)TxMessage->Data[1] << 8) | 
 1087              		.loc 1 537 0
 1088 010e 43EA0123 		orr	r3, r3, r1, lsl #8
 539:STM32F10x_StdPeriph_Driver/src/stm32f10x_can.c ****     CANx->sTxMailBox[transmit_mailbox].TDHR = (((uint32_t)TxMessage->Data[7] << 24) | 
 1089              		.loc 1 539 0
 1090 0112 E17A     		ldrb	r1, [r4, #11]	@ zero_extendqisi2
 538:STM32F10x_StdPeriph_Driver/src/stm32f10x_can.c ****                                              ((uint32_t)TxMessage->Data[0]));
 1091              		.loc 1 538 0
 1092 0114 0B43     		orrs	r3, r3, r1
 536:STM32F10x_StdPeriph_Driver/src/stm32f10x_can.c ****                                              ((uint32_t)TxMessage->Data[2] << 16) |
 1093              		.loc 1 536 0
 1094 0116 05EB0717 		add	r7, r5, r7, lsl #4
 1095 011a C7F88831 		str	r3, [r7, #392]
 540:STM32F10x_StdPeriph_Driver/src/stm32f10x_can.c ****                                              ((uint32_t)TxMessage->Data[6] << 16) |
 1096              		.loc 1 540 0
 1097 011e A17C     		ldrb	r1, [r4, #18]	@ zero_extendqisi2
 541:STM32F10x_StdPeriph_Driver/src/stm32f10x_can.c ****                                              ((uint32_t)TxMessage->Data[5] << 8) |
 1098              		.loc 1 541 0
 1099 0120 637C     		ldrb	r3, [r4, #17]	@ zero_extendqisi2
 1100 0122 1B04     		lsls	r3, r3, #16
 540:STM32F10x_StdPeriph_Driver/src/stm32f10x_can.c ****                                              ((uint32_t)TxMessage->Data[6] << 16) |
 1101              		.loc 1 540 0
 1102 0124 43EA0163 		orr	r3, r3, r1, lsl #24
 542:STM32F10x_StdPeriph_Driver/src/stm32f10x_can.c ****                                              ((uint32_t)TxMessage->Data[4]));
 1103              		.loc 1 542 0
 1104 0128 217C     		ldrb	r1, [r4, #16]	@ zero_extendqisi2
 541:STM32F10x_StdPeriph_Driver/src/stm32f10x_can.c ****                                              ((uint32_t)TxMessage->Data[5] << 8) |
ARM GAS  /var/folders/g9/bbpj86ld7fx45vd1b3pqxmp00000gn/T//ccXBJrXf.s 			page 41


 1105              		.loc 1 541 0
 1106 012a 43EA0123 		orr	r3, r3, r1, lsl #8
 543:STM32F10x_StdPeriph_Driver/src/stm32f10x_can.c ****     /* Request transmission */
 1107              		.loc 1 543 0
 1108 012e E17B     		ldrb	r1, [r4, #15]	@ zero_extendqisi2
 542:STM32F10x_StdPeriph_Driver/src/stm32f10x_can.c ****                                              ((uint32_t)TxMessage->Data[4]));
 1109              		.loc 1 542 0
 1110 0130 0B43     		orrs	r3, r3, r1
 540:STM32F10x_StdPeriph_Driver/src/stm32f10x_can.c ****                                              ((uint32_t)TxMessage->Data[6] << 16) |
 1111              		.loc 1 540 0
 1112 0132 C7F88C31 		str	r3, [r7, #396]
 545:STM32F10x_StdPeriph_Driver/src/stm32f10x_can.c ****   }
 1113              		.loc 1 545 0
 1114 0136 AB58     		ldr	r3, [r5, r2]
 1115 0138 43F00103 		orr	r3, r3, #1
 1116 013c AB50     		str	r3, [r5, r2]
 1117              	.L85:
 548:STM32F10x_StdPeriph_Driver/src/stm32f10x_can.c **** 
 1118              		.loc 1 548 0
 1119 013e 3046     		mov	r0, r6
 1120 0140 F8BD     		pop	{r3, r4, r5, r6, r7, pc}
 1121              	.LVL76:
 1122              	.L95:
 1123 0142 00BF     		.align	2
 1124              	.L94:
 1125 0144 00640040 		.word	1073767424
 1126 0148 00000000 		.word	.LC0
 1127              		.cfi_endproc
 1128              	.LFE33:
 1130              		.section	.text.CAN_TransmitStatus,"ax",%progbits
 1131              		.align	2
 1132              		.global	CAN_TransmitStatus
 1133              		.thumb
 1134              		.thumb_func
 1136              	CAN_TransmitStatus:
 1137              	.LFB34:
 557:STM32F10x_StdPeriph_Driver/src/stm32f10x_can.c ****   /* RQCP, TXOK and TME bits */
 1138              		.loc 1 557 0
 1139              		.cfi_startproc
 1140              		@ args = 0, pretend = 0, frame = 0
 1141              		@ frame_needed = 0, uses_anonymous_args = 0
 1142              	.LVL77:
 1143 0000 38B5     		push	{r3, r4, r5, lr}
 1144              	.LCFI6:
 1145              		.cfi_def_cfa_offset 16
 1146              		.cfi_offset 3, -16
 1147              		.cfi_offset 4, -12
 1148              		.cfi_offset 5, -8
 1149              		.cfi_offset 14, -4
 1150 0002 0446     		mov	r4, r0
 1151 0004 0D46     		mov	r5, r1
 1152              	.LVL78:
 561:STM32F10x_StdPeriph_Driver/src/stm32f10x_can.c ****   assert_param(IS_CAN_TRANSMITMAILBOX(TransmitMailbox));
 1153              		.loc 1 561 0
 1154 0006 284B     		ldr	r3, .L111
 1155 0008 9842     		cmp	r0, r3
 1156 000a 08D0     		beq	.L97
ARM GAS  /var/folders/g9/bbpj86ld7fx45vd1b3pqxmp00000gn/T//ccXBJrXf.s 			page 42


 561:STM32F10x_StdPeriph_Driver/src/stm32f10x_can.c ****   assert_param(IS_CAN_TRANSMITMAILBOX(TransmitMailbox));
 1157              		.loc 1 561 0 is_stmt 0 discriminator 1
 1158 000c 03F58063 		add	r3, r3, #1024
 1159 0010 9842     		cmp	r0, r3
 1160 0012 04D0     		beq	.L97
 561:STM32F10x_StdPeriph_Driver/src/stm32f10x_can.c ****   assert_param(IS_CAN_TRANSMITMAILBOX(TransmitMailbox));
 1161              		.loc 1 561 0 discriminator 2
 1162 0014 40F23121 		movw	r1, #561
 1163              	.LVL79:
 1164 0018 2448     		ldr	r0, .L111+4
 1165              	.LVL80:
 1166 001a FFF7FEFF 		bl	assert_failed
 1167              	.LVL81:
 1168              	.L97:
 562:STM32F10x_StdPeriph_Driver/src/stm32f10x_can.c ****   switch (TransmitMailbox)
 1169              		.loc 1 562 0 is_stmt 1
 1170 001e 022D     		cmp	r5, #2
 1171 0020 04D9     		bls	.L98
 562:STM32F10x_StdPeriph_Driver/src/stm32f10x_can.c ****   switch (TransmitMailbox)
 1172              		.loc 1 562 0 is_stmt 0 discriminator 1
 1173 0022 40F23221 		movw	r1, #562
 1174 0026 2148     		ldr	r0, .L111+4
 1175 0028 FFF7FEFF 		bl	assert_failed
 1176              	.LVL82:
 1177              	.L98:
 563:STM32F10x_StdPeriph_Driver/src/stm32f10x_can.c ****   {
 1178              		.loc 1 563 0 is_stmt 1
 1179 002c 012D     		cmp	r5, #1
 1180 002e 12D0     		beq	.L100
 1181 0030 15B1     		cbz	r5, .L101
 1182 0032 022D     		cmp	r5, #2
 1183 0034 1ED0     		beq	.L102
 1184 0036 2CE0     		b	.L108
 1185              	.L101:
 565:STM32F10x_StdPeriph_Driver/src/stm32f10x_can.c ****       state |= (uint8_t)((CANx->TSR & TSR_TXOK0) >> 0);
 1186              		.loc 1 565 0
 1187 0038 A268     		ldr	r2, [r4, #8]
 1188 003a D2B2     		uxtb	r2, r2
 1189 003c 9200     		lsls	r2, r2, #2
 1190 003e 02F00401 		and	r1, r2, #4
 1191              	.LVL83:
 566:STM32F10x_StdPeriph_Driver/src/stm32f10x_can.c ****       state |= (uint8_t)((CANx->TSR & TSR_TME0) >> 26);
 1192              		.loc 1 566 0
 1193 0042 A368     		ldr	r3, [r4, #8]
 1194 0044 03F00203 		and	r3, r3, #2
 1195 0048 43EA0102 		orr	r2, r3, r1
 1196              	.LVL84:
 567:STM32F10x_StdPeriph_Driver/src/stm32f10x_can.c ****       break;
 1197              		.loc 1 567 0
 1198 004c A368     		ldr	r3, [r4, #8]
 1199 004e C3F38063 		ubfx	r3, r3, #26, #1
 1200 0052 1343     		orrs	r3, r3, r2
 1201              	.LVL85:
 568:STM32F10x_StdPeriph_Driver/src/stm32f10x_can.c ****     case (1): state |= (uint8_t)((CANx->TSR & TSR_RQCP1) >> 6);
 1202              		.loc 1 568 0
 1203 0054 1EE0     		b	.L99
 1204              	.LVL86:
ARM GAS  /var/folders/g9/bbpj86ld7fx45vd1b3pqxmp00000gn/T//ccXBJrXf.s 			page 43


 1205              	.L100:
 569:STM32F10x_StdPeriph_Driver/src/stm32f10x_can.c ****       state |= (uint8_t)((CANx->TSR & TSR_TXOK1) >> 8);
 1206              		.loc 1 569 0
 1207 0056 A268     		ldr	r2, [r4, #8]
 1208 0058 9209     		lsrs	r2, r2, #6
 1209 005a 02F00401 		and	r1, r2, #4
 1210              	.LVL87:
 570:STM32F10x_StdPeriph_Driver/src/stm32f10x_can.c ****       state |= (uint8_t)((CANx->TSR & TSR_TME1) >> 27);
 1211              		.loc 1 570 0
 1212 005e A368     		ldr	r3, [r4, #8]
 1213 0060 1B0A     		lsrs	r3, r3, #8
 1214 0062 03F00203 		and	r3, r3, #2
 1215 0066 43EA0102 		orr	r2, r3, r1
 1216              	.LVL88:
 571:STM32F10x_StdPeriph_Driver/src/stm32f10x_can.c ****       break;
 1217              		.loc 1 571 0
 1218 006a A368     		ldr	r3, [r4, #8]
 1219 006c C3F3C063 		ubfx	r3, r3, #27, #1
 1220 0070 1343     		orrs	r3, r3, r2
 1221              	.LVL89:
 572:STM32F10x_StdPeriph_Driver/src/stm32f10x_can.c ****     case (2): state |= (uint8_t)((CANx->TSR & TSR_RQCP2) >> 14);
 1222              		.loc 1 572 0
 1223 0072 0FE0     		b	.L99
 1224              	.LVL90:
 1225              	.L102:
 573:STM32F10x_StdPeriph_Driver/src/stm32f10x_can.c ****       state |= (uint8_t)((CANx->TSR & TSR_TXOK2) >> 16);
 1226              		.loc 1 573 0
 1227 0074 A268     		ldr	r2, [r4, #8]
 1228 0076 920B     		lsrs	r2, r2, #14
 1229 0078 02F00401 		and	r1, r2, #4
 1230              	.LVL91:
 574:STM32F10x_StdPeriph_Driver/src/stm32f10x_can.c ****       state |= (uint8_t)((CANx->TSR & TSR_TME2) >> 28);
 1231              		.loc 1 574 0
 1232 007c A368     		ldr	r3, [r4, #8]
 1233 007e 1B0C     		lsrs	r3, r3, #16
 1234 0080 03F00203 		and	r3, r3, #2
 1235 0084 43EA0102 		orr	r2, r3, r1
 1236              	.LVL92:
 575:STM32F10x_StdPeriph_Driver/src/stm32f10x_can.c ****       break;
 1237              		.loc 1 575 0
 1238 0088 A368     		ldr	r3, [r4, #8]
 1239 008a C3F30073 		ubfx	r3, r3, #28, #1
 1240 008e 1343     		orrs	r3, r3, r2
 1241              	.LVL93:
 576:STM32F10x_StdPeriph_Driver/src/stm32f10x_can.c ****     default:
 1242              		.loc 1 576 0
 1243 0090 00E0     		b	.L99
 1244              	.LVL94:
 1245              	.L108:
 578:STM32F10x_StdPeriph_Driver/src/stm32f10x_can.c ****       break;
 1246              		.loc 1 578 0
 1247 0092 0023     		movs	r3, #0
 1248              	.LVL95:
 1249              	.L99:
 581:STM32F10x_StdPeriph_Driver/src/stm32f10x_can.c ****   {
 1250              		.loc 1 581 0
 1251 0094 13B1     		cbz	r3, .L104
ARM GAS  /var/folders/g9/bbpj86ld7fx45vd1b3pqxmp00000gn/T//ccXBJrXf.s 			page 44


 1252 0096 072B     		cmp	r3, #7
 1253 0098 02D0     		beq	.L105
 1254 009a 03E0     		b	.L109
 1255              	.L104:
 584:STM32F10x_StdPeriph_Driver/src/stm32f10x_can.c ****       break;
 1256              		.loc 1 584 0
 1257 009c 0220     		movs	r0, #2
 1258 009e 38BD     		pop	{r3, r4, r5, pc}
 1259              	.LVL96:
 1260              	.L105:
 590:STM32F10x_StdPeriph_Driver/src/stm32f10x_can.c ****       break;
 1261              		.loc 1 590 0
 1262 00a0 0120     		movs	r0, #1
 591:STM32F10x_StdPeriph_Driver/src/stm32f10x_can.c ****     default:
 1263              		.loc 1 591 0
 1264 00a2 38BD     		pop	{r3, r4, r5, pc}
 1265              	.LVL97:
 1266              	.L109:
 587:STM32F10x_StdPeriph_Driver/src/stm32f10x_can.c ****       break;
 1267              		.loc 1 587 0
 1268 00a4 0020     		movs	r0, #0
 1269              	.LVL98:
 597:STM32F10x_StdPeriph_Driver/src/stm32f10x_can.c **** 
 1270              		.loc 1 597 0
 1271 00a6 38BD     		pop	{r3, r4, r5, pc}
 1272              	.LVL99:
 1273              	.L112:
 1274              		.align	2
 1275              	.L111:
 1276 00a8 00640040 		.word	1073767424
 1277 00ac 00000000 		.word	.LC0
 1278              		.cfi_endproc
 1279              	.LFE34:
 1281              		.section	.text.CAN_CancelTransmit,"ax",%progbits
 1282              		.align	2
 1283              		.global	CAN_CancelTransmit
 1284              		.thumb
 1285              		.thumb_func
 1287              	CAN_CancelTransmit:
 1288              	.LFB35:
 606:STM32F10x_StdPeriph_Driver/src/stm32f10x_can.c ****   /* Check the parameters */
 1289              		.loc 1 606 0
 1290              		.cfi_startproc
 1291              		@ args = 0, pretend = 0, frame = 0
 1292              		@ frame_needed = 0, uses_anonymous_args = 0
 1293              	.LVL100:
 1294 0000 38B5     		push	{r3, r4, r5, lr}
 1295              	.LCFI7:
 1296              		.cfi_def_cfa_offset 16
 1297              		.cfi_offset 3, -16
 1298              		.cfi_offset 4, -12
 1299              		.cfi_offset 5, -8
 1300              		.cfi_offset 14, -4
 1301 0002 0446     		mov	r4, r0
 1302 0004 0D46     		mov	r5, r1
 608:STM32F10x_StdPeriph_Driver/src/stm32f10x_can.c ****   assert_param(IS_CAN_TRANSMITMAILBOX(Mailbox));
 1303              		.loc 1 608 0
ARM GAS  /var/folders/g9/bbpj86ld7fx45vd1b3pqxmp00000gn/T//ccXBJrXf.s 			page 45


 1304 0006 144B     		ldr	r3, .L121
 1305 0008 9842     		cmp	r0, r3
 1306 000a 08D0     		beq	.L114
 608:STM32F10x_StdPeriph_Driver/src/stm32f10x_can.c ****   assert_param(IS_CAN_TRANSMITMAILBOX(Mailbox));
 1307              		.loc 1 608 0 is_stmt 0 discriminator 1
 1308 000c 03F58063 		add	r3, r3, #1024
 1309 0010 9842     		cmp	r0, r3
 1310 0012 04D0     		beq	.L114
 608:STM32F10x_StdPeriph_Driver/src/stm32f10x_can.c ****   assert_param(IS_CAN_TRANSMITMAILBOX(Mailbox));
 1311              		.loc 1 608 0 discriminator 2
 1312 0014 4FF41871 		mov	r1, #608
 1313              	.LVL101:
 1314 0018 1048     		ldr	r0, .L121+4
 1315              	.LVL102:
 1316 001a FFF7FEFF 		bl	assert_failed
 1317              	.LVL103:
 1318              	.L114:
 609:STM32F10x_StdPeriph_Driver/src/stm32f10x_can.c ****   /* abort transmission */
 1319              		.loc 1 609 0 is_stmt 1
 1320 001e 022D     		cmp	r5, #2
 1321 0020 04D9     		bls	.L115
 609:STM32F10x_StdPeriph_Driver/src/stm32f10x_can.c ****   /* abort transmission */
 1322              		.loc 1 609 0 is_stmt 0 discriminator 1
 1323 0022 40F26121 		movw	r1, #609
 1324 0026 0D48     		ldr	r0, .L121+4
 1325 0028 FFF7FEFF 		bl	assert_failed
 1326              	.LVL104:
 1327              	.L115:
 611:STM32F10x_StdPeriph_Driver/src/stm32f10x_can.c ****   {
 1328              		.loc 1 611 0 is_stmt 1
 1329 002c 012D     		cmp	r5, #1
 1330 002e 08D0     		beq	.L117
 1331 0030 15B1     		cbz	r5, .L118
 1332 0032 022D     		cmp	r5, #2
 1333 0034 0AD0     		beq	.L119
 1334 0036 38BD     		pop	{r3, r4, r5, pc}
 1335              	.LVL105:
 1336              	.L118:
 613:STM32F10x_StdPeriph_Driver/src/stm32f10x_can.c ****       break;
 1337              		.loc 1 613 0
 1338 0038 A368     		ldr	r3, [r4, #8]
 1339 003a 43F08003 		orr	r3, r3, #128
 1340 003e A360     		str	r3, [r4, #8]
 614:STM32F10x_StdPeriph_Driver/src/stm32f10x_can.c ****     case (1): CANx->TSR |= TSR_ABRQ1;
 1341              		.loc 1 614 0
 1342 0040 38BD     		pop	{r3, r4, r5, pc}
 1343              	.LVL106:
 1344              	.L117:
 615:STM32F10x_StdPeriph_Driver/src/stm32f10x_can.c ****       break;
 1345              		.loc 1 615 0
 1346 0042 A368     		ldr	r3, [r4, #8]
 1347 0044 43F40043 		orr	r3, r3, #32768
 1348 0048 A360     		str	r3, [r4, #8]
 616:STM32F10x_StdPeriph_Driver/src/stm32f10x_can.c ****     case (2): CANx->TSR |= TSR_ABRQ2;
 1349              		.loc 1 616 0
 1350 004a 38BD     		pop	{r3, r4, r5, pc}
 1351              	.LVL107:
ARM GAS  /var/folders/g9/bbpj86ld7fx45vd1b3pqxmp00000gn/T//ccXBJrXf.s 			page 46


 1352              	.L119:
 617:STM32F10x_StdPeriph_Driver/src/stm32f10x_can.c ****       break;
 1353              		.loc 1 617 0
 1354 004c A368     		ldr	r3, [r4, #8]
 1355 004e 43F40003 		orr	r3, r3, #8388608
 1356 0052 A360     		str	r3, [r4, #8]
 1357 0054 38BD     		pop	{r3, r4, r5, pc}
 1358              	.LVL108:
 1359              	.L122:
 1360 0056 00BF     		.align	2
 1361              	.L121:
 1362 0058 00640040 		.word	1073767424
 1363 005c 00000000 		.word	.LC0
 1364              		.cfi_endproc
 1365              	.LFE35:
 1367              		.section	.text.CAN_FIFORelease,"ax",%progbits
 1368              		.align	2
 1369              		.global	CAN_FIFORelease
 1370              		.thumb
 1371              		.thumb_func
 1373              	CAN_FIFORelease:
 1374              	.LFB36:
 631:STM32F10x_StdPeriph_Driver/src/stm32f10x_can.c ****   /* Check the parameters */
 1375              		.loc 1 631 0
 1376              		.cfi_startproc
 1377              		@ args = 0, pretend = 0, frame = 0
 1378              		@ frame_needed = 0, uses_anonymous_args = 0
 1379              	.LVL109:
 1380 0000 38B5     		push	{r3, r4, r5, lr}
 1381              	.LCFI8:
 1382              		.cfi_def_cfa_offset 16
 1383              		.cfi_offset 3, -16
 1384              		.cfi_offset 4, -12
 1385              		.cfi_offset 5, -8
 1386              		.cfi_offset 14, -4
 1387 0002 0446     		mov	r4, r0
 1388 0004 0D46     		mov	r5, r1
 633:STM32F10x_StdPeriph_Driver/src/stm32f10x_can.c ****   assert_param(IS_CAN_FIFO(FIFONumber));
 1389              		.loc 1 633 0
 1390 0006 0D4B     		ldr	r3, .L129
 1391 0008 9842     		cmp	r0, r3
 1392 000a 08D0     		beq	.L124
 633:STM32F10x_StdPeriph_Driver/src/stm32f10x_can.c ****   assert_param(IS_CAN_FIFO(FIFONumber));
 1393              		.loc 1 633 0 is_stmt 0 discriminator 1
 1394 000c 03F58063 		add	r3, r3, #1024
 1395 0010 9842     		cmp	r0, r3
 1396 0012 04D0     		beq	.L124
 633:STM32F10x_StdPeriph_Driver/src/stm32f10x_can.c ****   assert_param(IS_CAN_FIFO(FIFONumber));
 1397              		.loc 1 633 0 discriminator 2
 1398 0014 40F27921 		movw	r1, #633
 1399              	.LVL110:
 1400 0018 0948     		ldr	r0, .L129+4
 1401              	.LVL111:
 1402 001a FFF7FEFF 		bl	assert_failed
 1403              	.LVL112:
 1404              	.L124:
 634:STM32F10x_StdPeriph_Driver/src/stm32f10x_can.c ****   /* Release FIFO0 */
ARM GAS  /var/folders/g9/bbpj86ld7fx45vd1b3pqxmp00000gn/T//ccXBJrXf.s 			page 47


 1405              		.loc 1 634 0 is_stmt 1
 1406 001e 012D     		cmp	r5, #1
 1407 0020 04D9     		bls	.L125
 634:STM32F10x_StdPeriph_Driver/src/stm32f10x_can.c ****   /* Release FIFO0 */
 1408              		.loc 1 634 0 is_stmt 0 discriminator 1
 1409 0022 40F27A21 		movw	r1, #634
 1410 0026 0648     		ldr	r0, .L129+4
 1411 0028 FFF7FEFF 		bl	assert_failed
 1412              	.LVL113:
 1413              	.L125:
 636:STM32F10x_StdPeriph_Driver/src/stm32f10x_can.c ****   {
 1414              		.loc 1 636 0 is_stmt 1
 1415 002c 15B9     		cbnz	r5, .L126
 638:STM32F10x_StdPeriph_Driver/src/stm32f10x_can.c ****   }
 1416              		.loc 1 638 0
 1417 002e 2023     		movs	r3, #32
 1418 0030 E360     		str	r3, [r4, #12]
 1419 0032 38BD     		pop	{r3, r4, r5, pc}
 1420              	.LVL114:
 1421              	.L126:
 643:STM32F10x_StdPeriph_Driver/src/stm32f10x_can.c ****   }
 1422              		.loc 1 643 0
 1423 0034 2023     		movs	r3, #32
 1424 0036 2361     		str	r3, [r4, #16]
 1425 0038 38BD     		pop	{r3, r4, r5, pc}
 1426              	.LVL115:
 1427              	.L130:
 1428 003a 00BF     		.align	2
 1429              	.L129:
 1430 003c 00640040 		.word	1073767424
 1431 0040 00000000 		.word	.LC0
 1432              		.cfi_endproc
 1433              	.LFE36:
 1435              		.section	.text.CAN_MessagePending,"ax",%progbits
 1436              		.align	2
 1437              		.global	CAN_MessagePending
 1438              		.thumb
 1439              		.thumb_func
 1441              	CAN_MessagePending:
 1442              	.LFB37:
 654:STM32F10x_StdPeriph_Driver/src/stm32f10x_can.c ****   uint8_t message_pending=0;
 1443              		.loc 1 654 0
 1444              		.cfi_startproc
 1445              		@ args = 0, pretend = 0, frame = 0
 1446              		@ frame_needed = 0, uses_anonymous_args = 0
 1447              	.LVL116:
 1448 0000 38B5     		push	{r3, r4, r5, lr}
 1449              	.LCFI9:
 1450              		.cfi_def_cfa_offset 16
 1451              		.cfi_offset 3, -16
 1452              		.cfi_offset 4, -12
 1453              		.cfi_offset 5, -8
 1454              		.cfi_offset 14, -4
 1455 0002 0546     		mov	r5, r0
 1456 0004 0C46     		mov	r4, r1
 1457              	.LVL117:
 657:STM32F10x_StdPeriph_Driver/src/stm32f10x_can.c ****   assert_param(IS_CAN_FIFO(FIFONumber));
ARM GAS  /var/folders/g9/bbpj86ld7fx45vd1b3pqxmp00000gn/T//ccXBJrXf.s 			page 48


 1458              		.loc 1 657 0
 1459 0006 104B     		ldr	r3, .L138
 1460 0008 9842     		cmp	r0, r3
 1461 000a 08D0     		beq	.L132
 657:STM32F10x_StdPeriph_Driver/src/stm32f10x_can.c ****   assert_param(IS_CAN_FIFO(FIFONumber));
 1462              		.loc 1 657 0 is_stmt 0 discriminator 1
 1463 000c 03F58063 		add	r3, r3, #1024
 1464 0010 9842     		cmp	r0, r3
 1465 0012 04D0     		beq	.L132
 657:STM32F10x_StdPeriph_Driver/src/stm32f10x_can.c ****   assert_param(IS_CAN_FIFO(FIFONumber));
 1466              		.loc 1 657 0 discriminator 2
 1467 0014 40F29121 		movw	r1, #657
 1468              	.LVL118:
 1469 0018 0C48     		ldr	r0, .L138+4
 1470              	.LVL119:
 1471 001a FFF7FEFF 		bl	assert_failed
 1472              	.LVL120:
 1473              	.L132:
 658:STM32F10x_StdPeriph_Driver/src/stm32f10x_can.c ****   if (FIFONumber == CAN_FIFO0)
 1474              		.loc 1 658 0 is_stmt 1
 1475 001e 012C     		cmp	r4, #1
 1476 0020 04D9     		bls	.L133
 658:STM32F10x_StdPeriph_Driver/src/stm32f10x_can.c ****   if (FIFONumber == CAN_FIFO0)
 1477              		.loc 1 658 0 is_stmt 0 discriminator 1
 1478 0022 40F29221 		movw	r1, #658
 1479 0026 0948     		ldr	r0, .L138+4
 1480 0028 FFF7FEFF 		bl	assert_failed
 1481              	.LVL121:
 1482              	.L133:
 659:STM32F10x_StdPeriph_Driver/src/stm32f10x_can.c ****   {
 1483              		.loc 1 659 0 is_stmt 1
 1484 002c 1CB9     		cbnz	r4, .L134
 661:STM32F10x_StdPeriph_Driver/src/stm32f10x_can.c ****   }
 1485              		.loc 1 661 0
 1486 002e E868     		ldr	r0, [r5, #12]
 1487 0030 00F00300 		and	r0, r0, #3
 1488              	.LVL122:
 1489 0034 38BD     		pop	{r3, r4, r5, pc}
 1490              	.LVL123:
 1491              	.L134:
 663:STM32F10x_StdPeriph_Driver/src/stm32f10x_can.c ****   {
 1492              		.loc 1 663 0
 1493 0036 012C     		cmp	r4, #1
 1494 0038 03D1     		bne	.L136
 665:STM32F10x_StdPeriph_Driver/src/stm32f10x_can.c ****   }
 1495              		.loc 1 665 0
 1496 003a 2869     		ldr	r0, [r5, #16]
 1497 003c 00F00300 		and	r0, r0, #3
 1498              	.LVL124:
 1499 0040 38BD     		pop	{r3, r4, r5, pc}
 1500              	.LVL125:
 1501              	.L136:
 669:STM32F10x_StdPeriph_Driver/src/stm32f10x_can.c ****   }
 1502              		.loc 1 669 0
 1503 0042 0020     		movs	r0, #0
 1504              	.LVL126:
 672:STM32F10x_StdPeriph_Driver/src/stm32f10x_can.c **** 
ARM GAS  /var/folders/g9/bbpj86ld7fx45vd1b3pqxmp00000gn/T//ccXBJrXf.s 			page 49


 1505              		.loc 1 672 0
 1506 0044 38BD     		pop	{r3, r4, r5, pc}
 1507              	.LVL127:
 1508              	.L139:
 1509 0046 00BF     		.align	2
 1510              	.L138:
 1511 0048 00640040 		.word	1073767424
 1512 004c 00000000 		.word	.LC0
 1513              		.cfi_endproc
 1514              	.LFE37:
 1516              		.section	.text.CAN_Receive,"ax",%progbits
 1517              		.align	2
 1518              		.global	CAN_Receive
 1519              		.thumb
 1520              		.thumb_func
 1522              	CAN_Receive:
 1523              	.LFB38:
 683:STM32F10x_StdPeriph_Driver/src/stm32f10x_can.c ****   /* Check the parameters */
 1524              		.loc 1 683 0
 1525              		.cfi_startproc
 1526              		@ args = 0, pretend = 0, frame = 0
 1527              		@ frame_needed = 0, uses_anonymous_args = 0
 1528              	.LVL128:
 1529 0000 70B5     		push	{r4, r5, r6, lr}
 1530              	.LCFI10:
 1531              		.cfi_def_cfa_offset 16
 1532              		.cfi_offset 4, -16
 1533              		.cfi_offset 5, -12
 1534              		.cfi_offset 6, -8
 1535              		.cfi_offset 14, -4
 1536 0002 0546     		mov	r5, r0
 1537 0004 0E46     		mov	r6, r1
 1538 0006 1446     		mov	r4, r2
 685:STM32F10x_StdPeriph_Driver/src/stm32f10x_can.c ****   assert_param(IS_CAN_FIFO(FIFONumber));
 1539              		.loc 1 685 0
 1540 0008 2E4B     		ldr	r3, .L146
 1541 000a 9842     		cmp	r0, r3
 1542 000c 08D0     		beq	.L141
 685:STM32F10x_StdPeriph_Driver/src/stm32f10x_can.c ****   assert_param(IS_CAN_FIFO(FIFONumber));
 1543              		.loc 1 685 0 is_stmt 0 discriminator 1
 1544 000e 03F58063 		add	r3, r3, #1024
 1545 0012 9842     		cmp	r0, r3
 1546 0014 04D0     		beq	.L141
 685:STM32F10x_StdPeriph_Driver/src/stm32f10x_can.c ****   assert_param(IS_CAN_FIFO(FIFONumber));
 1547              		.loc 1 685 0 discriminator 2
 1548 0016 40F2AD21 		movw	r1, #685
 1549              	.LVL129:
 1550 001a 2B48     		ldr	r0, .L146+4
 1551              	.LVL130:
 1552 001c FFF7FEFF 		bl	assert_failed
 1553              	.LVL131:
 1554              	.L141:
 686:STM32F10x_StdPeriph_Driver/src/stm32f10x_can.c ****   /* Get the Id */
 1555              		.loc 1 686 0 is_stmt 1
 1556 0020 012E     		cmp	r6, #1
 1557 0022 04D9     		bls	.L142
 686:STM32F10x_StdPeriph_Driver/src/stm32f10x_can.c ****   /* Get the Id */
ARM GAS  /var/folders/g9/bbpj86ld7fx45vd1b3pqxmp00000gn/T//ccXBJrXf.s 			page 50


 1558              		.loc 1 686 0 is_stmt 0 discriminator 1
 1559 0024 40F2AE21 		movw	r1, #686
 1560 0028 2748     		ldr	r0, .L146+4
 1561 002a FFF7FEFF 		bl	assert_failed
 1562              	.LVL132:
 1563              	.L142:
 688:STM32F10x_StdPeriph_Driver/src/stm32f10x_can.c ****   if (RxMessage->IDE == CAN_ID_STD)
 1564              		.loc 1 688 0 is_stmt 1
 1565 002e 06F11B03 		add	r3, r6, #27
 1566 0032 1B01     		lsls	r3, r3, #4
 1567 0034 EB58     		ldr	r3, [r5, r3]
 1568 0036 03F00403 		and	r3, r3, #4
 1569 003a DBB2     		uxtb	r3, r3
 1570 003c 2372     		strb	r3, [r4, #8]
 689:STM32F10x_StdPeriph_Driver/src/stm32f10x_can.c ****   {
 1571              		.loc 1 689 0
 1572 003e 33B9     		cbnz	r3, .L143
 691:STM32F10x_StdPeriph_Driver/src/stm32f10x_can.c ****   }
 1573              		.loc 1 691 0
 1574 0040 06F11B03 		add	r3, r6, #27
 1575 0044 1B01     		lsls	r3, r3, #4
 1576 0046 EB58     		ldr	r3, [r5, r3]
 1577 0048 5B0D     		lsrs	r3, r3, #21
 1578 004a 2360     		str	r3, [r4]
 1579 004c 05E0     		b	.L144
 1580              	.L143:
 695:STM32F10x_StdPeriph_Driver/src/stm32f10x_can.c ****   }
 1581              		.loc 1 695 0
 1582 004e 06F11B03 		add	r3, r6, #27
 1583 0052 1B01     		lsls	r3, r3, #4
 1584 0054 EB58     		ldr	r3, [r5, r3]
 1585 0056 DB08     		lsrs	r3, r3, #3
 1586 0058 6360     		str	r3, [r4, #4]
 1587              	.L144:
 698:STM32F10x_StdPeriph_Driver/src/stm32f10x_can.c ****   /* Get the DLC */
 1588              		.loc 1 698 0
 1589 005a 06F11B03 		add	r3, r6, #27
 1590 005e 1B01     		lsls	r3, r3, #4
 1591 0060 EA18     		adds	r2, r5, r3
 1592 0062 EB58     		ldr	r3, [r5, r3]
 1593 0064 03F00203 		and	r3, r3, #2
 1594 0068 6372     		strb	r3, [r4, #9]
 700:STM32F10x_StdPeriph_Driver/src/stm32f10x_can.c ****   /* Get the FMI */
 1595              		.loc 1 700 0
 1596 006a 5368     		ldr	r3, [r2, #4]
 1597 006c 03F00F03 		and	r3, r3, #15
 1598 0070 A372     		strb	r3, [r4, #10]
 702:STM32F10x_StdPeriph_Driver/src/stm32f10x_can.c ****   /* Get the data field */
 1599              		.loc 1 702 0
 1600 0072 5368     		ldr	r3, [r2, #4]
 1601 0074 1B0A     		lsrs	r3, r3, #8
 1602 0076 E374     		strb	r3, [r4, #19]
 704:STM32F10x_StdPeriph_Driver/src/stm32f10x_can.c ****   RxMessage->Data[1] = (uint8_t)0xFF & (CANx->sFIFOMailBox[FIFONumber].RDLR >> 8);
 1603              		.loc 1 704 0
 1604 0078 05EB0613 		add	r3, r5, r6, lsl #4
 1605 007c D3F8B821 		ldr	r2, [r3, #440]
 1606 0080 E272     		strb	r2, [r4, #11]
ARM GAS  /var/folders/g9/bbpj86ld7fx45vd1b3pqxmp00000gn/T//ccXBJrXf.s 			page 51


 705:STM32F10x_StdPeriph_Driver/src/stm32f10x_can.c ****   RxMessage->Data[2] = (uint8_t)0xFF & (CANx->sFIFOMailBox[FIFONumber].RDLR >> 16);
 1607              		.loc 1 705 0
 1608 0082 D3F8B821 		ldr	r2, [r3, #440]
 1609 0086 120A     		lsrs	r2, r2, #8
 1610 0088 2273     		strb	r2, [r4, #12]
 706:STM32F10x_StdPeriph_Driver/src/stm32f10x_can.c ****   RxMessage->Data[3] = (uint8_t)0xFF & (CANx->sFIFOMailBox[FIFONumber].RDLR >> 24);
 1611              		.loc 1 706 0
 1612 008a D3F8B821 		ldr	r2, [r3, #440]
 1613 008e 120C     		lsrs	r2, r2, #16
 1614 0090 6273     		strb	r2, [r4, #13]
 707:STM32F10x_StdPeriph_Driver/src/stm32f10x_can.c ****   RxMessage->Data[4] = (uint8_t)0xFF & CANx->sFIFOMailBox[FIFONumber].RDHR;
 1615              		.loc 1 707 0
 1616 0092 D3F8B821 		ldr	r2, [r3, #440]
 1617 0096 120E     		lsrs	r2, r2, #24
 1618 0098 A273     		strb	r2, [r4, #14]
 708:STM32F10x_StdPeriph_Driver/src/stm32f10x_can.c ****   RxMessage->Data[5] = (uint8_t)0xFF & (CANx->sFIFOMailBox[FIFONumber].RDHR >> 8);
 1619              		.loc 1 708 0
 1620 009a D3F8BC21 		ldr	r2, [r3, #444]
 1621 009e E273     		strb	r2, [r4, #15]
 709:STM32F10x_StdPeriph_Driver/src/stm32f10x_can.c ****   RxMessage->Data[6] = (uint8_t)0xFF & (CANx->sFIFOMailBox[FIFONumber].RDHR >> 16);
 1622              		.loc 1 709 0
 1623 00a0 D3F8BC21 		ldr	r2, [r3, #444]
 1624 00a4 120A     		lsrs	r2, r2, #8
 1625 00a6 2274     		strb	r2, [r4, #16]
 710:STM32F10x_StdPeriph_Driver/src/stm32f10x_can.c ****   RxMessage->Data[7] = (uint8_t)0xFF & (CANx->sFIFOMailBox[FIFONumber].RDHR >> 24);
 1626              		.loc 1 710 0
 1627 00a8 D3F8BC21 		ldr	r2, [r3, #444]
 1628 00ac 120C     		lsrs	r2, r2, #16
 1629 00ae 6274     		strb	r2, [r4, #17]
 711:STM32F10x_StdPeriph_Driver/src/stm32f10x_can.c ****   /* Release the FIFO */
 1630              		.loc 1 711 0
 1631 00b0 D3F8BC31 		ldr	r3, [r3, #444]
 1632 00b4 1B0E     		lsrs	r3, r3, #24
 1633 00b6 A374     		strb	r3, [r4, #18]
 713:STM32F10x_StdPeriph_Driver/src/stm32f10x_can.c **** }
 1634              		.loc 1 713 0
 1635 00b8 3146     		mov	r1, r6
 1636 00ba 2846     		mov	r0, r5
 1637 00bc FFF7FEFF 		bl	CAN_FIFORelease
 1638              	.LVL133:
 1639 00c0 70BD     		pop	{r4, r5, r6, pc}
 1640              	.LVL134:
 1641              	.L147:
 1642 00c2 00BF     		.align	2
 1643              	.L146:
 1644 00c4 00640040 		.word	1073767424
 1645 00c8 00000000 		.word	.LC0
 1646              		.cfi_endproc
 1647              	.LFE38:
 1649              		.section	.text.CAN_DBGFreeze,"ax",%progbits
 1650              		.align	2
 1651              		.global	CAN_DBGFreeze
 1652              		.thumb
 1653              		.thumb_func
 1655              	CAN_DBGFreeze:
 1656              	.LFB39:
 724:STM32F10x_StdPeriph_Driver/src/stm32f10x_can.c ****   /* Check the parameters */
ARM GAS  /var/folders/g9/bbpj86ld7fx45vd1b3pqxmp00000gn/T//ccXBJrXf.s 			page 52


 1657              		.loc 1 724 0
 1658              		.cfi_startproc
 1659              		@ args = 0, pretend = 0, frame = 0
 1660              		@ frame_needed = 0, uses_anonymous_args = 0
 1661              	.LVL135:
 1662 0000 38B5     		push	{r3, r4, r5, lr}
 1663              	.LCFI11:
 1664              		.cfi_def_cfa_offset 16
 1665              		.cfi_offset 3, -16
 1666              		.cfi_offset 4, -12
 1667              		.cfi_offset 5, -8
 1668              		.cfi_offset 14, -4
 1669 0002 0446     		mov	r4, r0
 1670 0004 0D46     		mov	r5, r1
 726:STM32F10x_StdPeriph_Driver/src/stm32f10x_can.c ****   assert_param(IS_FUNCTIONAL_STATE(NewState));
 1671              		.loc 1 726 0
 1672 0006 0F4B     		ldr	r3, .L154
 1673 0008 9842     		cmp	r0, r3
 1674 000a 08D0     		beq	.L149
 726:STM32F10x_StdPeriph_Driver/src/stm32f10x_can.c ****   assert_param(IS_FUNCTIONAL_STATE(NewState));
 1675              		.loc 1 726 0 is_stmt 0 discriminator 1
 1676 000c 03F58063 		add	r3, r3, #1024
 1677 0010 9842     		cmp	r0, r3
 1678 0012 04D0     		beq	.L149
 726:STM32F10x_StdPeriph_Driver/src/stm32f10x_can.c ****   assert_param(IS_FUNCTIONAL_STATE(NewState));
 1679              		.loc 1 726 0 discriminator 2
 1680 0014 40F2D621 		movw	r1, #726
 1681              	.LVL136:
 1682 0018 0B48     		ldr	r0, .L154+4
 1683              	.LVL137:
 1684 001a FFF7FEFF 		bl	assert_failed
 1685              	.LVL138:
 1686              	.L149:
 727:STM32F10x_StdPeriph_Driver/src/stm32f10x_can.c ****   
 1687              		.loc 1 727 0 is_stmt 1
 1688 001e 012D     		cmp	r5, #1
 1689 0020 04D9     		bls	.L150
 727:STM32F10x_StdPeriph_Driver/src/stm32f10x_can.c ****   
 1690              		.loc 1 727 0 is_stmt 0 discriminator 1
 1691 0022 40F2D721 		movw	r1, #727
 1692 0026 0848     		ldr	r0, .L154+4
 1693 0028 FFF7FEFF 		bl	assert_failed
 1694              	.LVL139:
 1695              	.L150:
 729:STM32F10x_StdPeriph_Driver/src/stm32f10x_can.c ****   {
 1696              		.loc 1 729 0 is_stmt 1
 1697 002c 25B1     		cbz	r5, .L151
 732:STM32F10x_StdPeriph_Driver/src/stm32f10x_can.c ****   }
 1698              		.loc 1 732 0
 1699 002e 2368     		ldr	r3, [r4]
 1700 0030 43F48033 		orr	r3, r3, #65536
 1701 0034 2360     		str	r3, [r4]
 1702 0036 38BD     		pop	{r3, r4, r5, pc}
 1703              	.LVL140:
 1704              	.L151:
 737:STM32F10x_StdPeriph_Driver/src/stm32f10x_can.c ****   }
 1705              		.loc 1 737 0
ARM GAS  /var/folders/g9/bbpj86ld7fx45vd1b3pqxmp00000gn/T//ccXBJrXf.s 			page 53


 1706 0038 2368     		ldr	r3, [r4]
 1707 003a 23F48033 		bic	r3, r3, #65536
 1708 003e 2360     		str	r3, [r4]
 1709 0040 38BD     		pop	{r3, r4, r5, pc}
 1710              	.LVL141:
 1711              	.L155:
 1712 0042 00BF     		.align	2
 1713              	.L154:
 1714 0044 00640040 		.word	1073767424
 1715 0048 00000000 		.word	.LC0
 1716              		.cfi_endproc
 1717              	.LFE39:
 1719              		.section	.text.CAN_Sleep,"ax",%progbits
 1720              		.align	2
 1721              		.global	CAN_Sleep
 1722              		.thumb
 1723              		.thumb_func
 1725              	CAN_Sleep:
 1726              	.LFB40:
 747:STM32F10x_StdPeriph_Driver/src/stm32f10x_can.c ****   uint8_t sleepstatus = CANSLEEPFAILED;
 1727              		.loc 1 747 0
 1728              		.cfi_startproc
 1729              		@ args = 0, pretend = 0, frame = 0
 1730              		@ frame_needed = 0, uses_anonymous_args = 0
 1731              	.LVL142:
 1732 0000 10B5     		push	{r4, lr}
 1733              	.LCFI12:
 1734              		.cfi_def_cfa_offset 8
 1735              		.cfi_offset 4, -8
 1736              		.cfi_offset 14, -4
 1737 0002 0446     		mov	r4, r0
 1738              	.LVL143:
 751:STM32F10x_StdPeriph_Driver/src/stm32f10x_can.c ****     
 1739              		.loc 1 751 0
 1740 0004 0D4B     		ldr	r3, .L161
 1741 0006 9842     		cmp	r0, r3
 1742 0008 08D0     		beq	.L157
 751:STM32F10x_StdPeriph_Driver/src/stm32f10x_can.c ****     
 1743              		.loc 1 751 0 is_stmt 0 discriminator 1
 1744 000a 03F58063 		add	r3, r3, #1024
 1745 000e 9842     		cmp	r0, r3
 1746 0010 04D0     		beq	.L157
 751:STM32F10x_StdPeriph_Driver/src/stm32f10x_can.c ****     
 1747              		.loc 1 751 0 discriminator 2
 1748 0012 40F2EF21 		movw	r1, #751
 1749 0016 0A48     		ldr	r0, .L161+4
 1750              	.LVL144:
 1751 0018 FFF7FEFF 		bl	assert_failed
 1752              	.LVL145:
 1753              	.L157:
 754:STM32F10x_StdPeriph_Driver/src/stm32f10x_can.c ****    
 1754              		.loc 1 754 0 is_stmt 1
 1755 001c 2368     		ldr	r3, [r4]
 1756 001e 23F00303 		bic	r3, r3, #3
 1757 0022 43F00203 		orr	r3, r3, #2
 1758 0026 2360     		str	r3, [r4]
 757:STM32F10x_StdPeriph_Driver/src/stm32f10x_can.c ****   {
ARM GAS  /var/folders/g9/bbpj86ld7fx45vd1b3pqxmp00000gn/T//ccXBJrXf.s 			page 54


 1759              		.loc 1 757 0
 1760 0028 6368     		ldr	r3, [r4, #4]
 1761 002a 03F00303 		and	r3, r3, #3
 1762 002e 022B     		cmp	r3, #2
 1763 0030 01D0     		beq	.L159
 748:STM32F10x_StdPeriph_Driver/src/stm32f10x_can.c ****   
 1764              		.loc 1 748 0
 1765 0032 0020     		movs	r0, #0
 1766 0034 10BD     		pop	{r4, pc}
 1767              	.LVL146:
 1768              	.L159:
 760:STM32F10x_StdPeriph_Driver/src/stm32f10x_can.c ****   }
 1769              		.loc 1 760 0
 1770 0036 0120     		movs	r0, #1
 1771              	.LVL147:
 764:STM32F10x_StdPeriph_Driver/src/stm32f10x_can.c **** 
 1772              		.loc 1 764 0
 1773 0038 10BD     		pop	{r4, pc}
 1774              	.LVL148:
 1775              	.L162:
 1776 003a 00BF     		.align	2
 1777              	.L161:
 1778 003c 00640040 		.word	1073767424
 1779 0040 00000000 		.word	.LC0
 1780              		.cfi_endproc
 1781              	.LFE40:
 1783              		.section	.text.CAN_WakeUp,"ax",%progbits
 1784              		.align	2
 1785              		.global	CAN_WakeUp
 1786              		.thumb
 1787              		.thumb_func
 1789              	CAN_WakeUp:
 1790              	.LFB41:
 772:STM32F10x_StdPeriph_Driver/src/stm32f10x_can.c ****   uint32_t wait_slak = SLAK_TimeOut	;
 1791              		.loc 1 772 0
 1792              		.cfi_startproc
 1793              		@ args = 0, pretend = 0, frame = 0
 1794              		@ frame_needed = 0, uses_anonymous_args = 0
 1795              	.LVL149:
 1796 0000 10B5     		push	{r4, lr}
 1797              	.LCFI13:
 1798              		.cfi_def_cfa_offset 8
 1799              		.cfi_offset 4, -8
 1800              		.cfi_offset 14, -4
 1801 0002 0446     		mov	r4, r0
 1802              	.LVL150:
 777:STM32F10x_StdPeriph_Driver/src/stm32f10x_can.c ****     
 1803              		.loc 1 777 0
 1804 0004 104B     		ldr	r3, .L171
 1805 0006 9842     		cmp	r0, r3
 1806 0008 08D0     		beq	.L164
 777:STM32F10x_StdPeriph_Driver/src/stm32f10x_can.c ****     
 1807              		.loc 1 777 0 is_stmt 0 discriminator 1
 1808 000a 03F58063 		add	r3, r3, #1024
 1809 000e 9842     		cmp	r0, r3
 1810 0010 04D0     		beq	.L164
 777:STM32F10x_StdPeriph_Driver/src/stm32f10x_can.c ****     
ARM GAS  /var/folders/g9/bbpj86ld7fx45vd1b3pqxmp00000gn/T//ccXBJrXf.s 			page 55


 1811              		.loc 1 777 0 discriminator 2
 1812 0012 40F20931 		movw	r1, #777
 1813 0016 0D48     		ldr	r0, .L171+4
 1814              	.LVL151:
 1815 0018 FFF7FEFF 		bl	assert_failed
 1816              	.LVL152:
 1817              	.L164:
 780:STM32F10x_StdPeriph_Driver/src/stm32f10x_can.c ****     
 1818              		.loc 1 780 0 is_stmt 1
 1819 001c 2368     		ldr	r3, [r4]
 1820 001e 23F00203 		bic	r3, r3, #2
 1821 0022 2360     		str	r3, [r4]
 773:STM32F10x_StdPeriph_Driver/src/stm32f10x_can.c ****   uint8_t wakeupstatus = CANWAKEUPFAILED;
 1822              		.loc 1 773 0
 1823 0024 4FF6FF73 		movw	r3, #65535
 783:STM32F10x_StdPeriph_Driver/src/stm32f10x_can.c ****   {
 1824              		.loc 1 783 0
 1825 0028 00E0     		b	.L165
 1826              	.LVL153:
 1827              	.L167:
 785:STM32F10x_StdPeriph_Driver/src/stm32f10x_can.c ****   }
 1828              		.loc 1 785 0
 1829 002a 013B     		subs	r3, r3, #1
 1830              	.LVL154:
 1831              	.L165:
 783:STM32F10x_StdPeriph_Driver/src/stm32f10x_can.c ****   {
 1832              		.loc 1 783 0
 1833 002c 6268     		ldr	r2, [r4, #4]
 1834 002e 12F0020F 		tst	r2, #2
 1835 0032 01D0     		beq	.L166
 783:STM32F10x_StdPeriph_Driver/src/stm32f10x_can.c ****   {
 1836              		.loc 1 783 0 is_stmt 0 discriminator 1
 1837 0034 002B     		cmp	r3, #0
 1838 0036 F8D1     		bne	.L167
 1839              	.L166:
 787:STM32F10x_StdPeriph_Driver/src/stm32f10x_can.c ****   {
 1840              		.loc 1 787 0 is_stmt 1
 1841 0038 6368     		ldr	r3, [r4, #4]
 1842              	.LVL155:
 1843 003a 13F0020F 		tst	r3, #2
 1844 003e 01D0     		beq	.L169
 774:STM32F10x_StdPeriph_Driver/src/stm32f10x_can.c ****   
 1845              		.loc 1 774 0
 1846 0040 0020     		movs	r0, #0
 1847 0042 10BD     		pop	{r4, pc}
 1848              	.LVL156:
 1849              	.L169:
 790:STM32F10x_StdPeriph_Driver/src/stm32f10x_can.c ****   }
 1850              		.loc 1 790 0
 1851 0044 0120     		movs	r0, #1
 1852              	.LVL157:
 794:STM32F10x_StdPeriph_Driver/src/stm32f10x_can.c **** 
 1853              		.loc 1 794 0
 1854 0046 10BD     		pop	{r4, pc}
 1855              	.LVL158:
 1856              	.L172:
 1857              		.align	2
ARM GAS  /var/folders/g9/bbpj86ld7fx45vd1b3pqxmp00000gn/T//ccXBJrXf.s 			page 56


 1858              	.L171:
 1859 0048 00640040 		.word	1073767424
 1860 004c 00000000 		.word	.LC0
 1861              		.cfi_endproc
 1862              	.LFE41:
 1864              		.section	.text.CAN_GetFlagStatus,"ax",%progbits
 1865              		.align	2
 1866              		.global	CAN_GetFlagStatus
 1867              		.thumb
 1868              		.thumb_func
 1870              	CAN_GetFlagStatus:
 1871              	.LFB42:
 804:STM32F10x_StdPeriph_Driver/src/stm32f10x_can.c ****   FlagStatus bitstatus = RESET;
 1872              		.loc 1 804 0
 1873              		.cfi_startproc
 1874              		@ args = 0, pretend = 0, frame = 0
 1875              		@ frame_needed = 0, uses_anonymous_args = 0
 1876              	.LVL159:
 1877 0000 38B5     		push	{r3, r4, r5, lr}
 1878              	.LCFI14:
 1879              		.cfi_def_cfa_offset 16
 1880              		.cfi_offset 3, -16
 1881              		.cfi_offset 4, -12
 1882              		.cfi_offset 5, -8
 1883              		.cfi_offset 14, -4
 1884 0002 0446     		mov	r4, r0
 1885 0004 0D46     		mov	r5, r1
 1886              	.LVL160:
 807:STM32F10x_StdPeriph_Driver/src/stm32f10x_can.c ****   assert_param(IS_CAN_FLAG(CAN_FLAG));
 1887              		.loc 1 807 0
 1888 0006 0E4B     		ldr	r3, .L179
 1889 0008 9842     		cmp	r0, r3
 1890 000a 08D0     		beq	.L174
 807:STM32F10x_StdPeriph_Driver/src/stm32f10x_can.c ****   assert_param(IS_CAN_FLAG(CAN_FLAG));
 1891              		.loc 1 807 0 is_stmt 0 discriminator 1
 1892 000c 03F58063 		add	r3, r3, #1024
 1893 0010 9842     		cmp	r0, r3
 1894 0012 04D0     		beq	.L174
 807:STM32F10x_StdPeriph_Driver/src/stm32f10x_can.c ****   assert_param(IS_CAN_FLAG(CAN_FLAG));
 1895              		.loc 1 807 0 discriminator 2
 1896 0014 40F22731 		movw	r1, #807
 1897              	.LVL161:
 1898 0018 0A48     		ldr	r0, .L179+4
 1899              	.LVL162:
 1900 001a FFF7FEFF 		bl	assert_failed
 1901              	.LVL163:
 1902              	.L174:
 808:STM32F10x_StdPeriph_Driver/src/stm32f10x_can.c ****   /* Check the status of the specified CAN flag */
 1903              		.loc 1 808 0 is_stmt 1
 1904 001e 6B1E     		subs	r3, r5, #1
 1905 0020 012B     		cmp	r3, #1
 1906 0022 06D9     		bls	.L175
 808:STM32F10x_StdPeriph_Driver/src/stm32f10x_can.c ****   /* Check the status of the specified CAN flag */
 1907              		.loc 1 808 0 is_stmt 0 discriminator 1
 1908 0024 042D     		cmp	r5, #4
 1909 0026 04D0     		beq	.L175
 808:STM32F10x_StdPeriph_Driver/src/stm32f10x_can.c ****   /* Check the status of the specified CAN flag */
ARM GAS  /var/folders/g9/bbpj86ld7fx45vd1b3pqxmp00000gn/T//ccXBJrXf.s 			page 57


 1910              		.loc 1 808 0 discriminator 2
 1911 0028 4FF44A71 		mov	r1, #808
 1912 002c 0548     		ldr	r0, .L179+4
 1913 002e FFF7FEFF 		bl	assert_failed
 1914              	.LVL164:
 1915              	.L175:
 810:STM32F10x_StdPeriph_Driver/src/stm32f10x_can.c ****   {
 1916              		.loc 1 810 0 is_stmt 1
 1917 0032 A369     		ldr	r3, [r4, #24]
 1918 0034 1D42     		tst	r5, r3
 1919 0036 01D0     		beq	.L177
 813:STM32F10x_StdPeriph_Driver/src/stm32f10x_can.c ****   }
 1920              		.loc 1 813 0
 1921 0038 0120     		movs	r0, #1
 1922 003a 38BD     		pop	{r3, r4, r5, pc}
 1923              	.LVL165:
 1924              	.L177:
 818:STM32F10x_StdPeriph_Driver/src/stm32f10x_can.c ****   }
 1925              		.loc 1 818 0
 1926 003c 0020     		movs	r0, #0
 1927              	.LVL166:
 822:STM32F10x_StdPeriph_Driver/src/stm32f10x_can.c **** 
 1928              		.loc 1 822 0
 1929 003e 38BD     		pop	{r3, r4, r5, pc}
 1930              	.LVL167:
 1931              	.L180:
 1932              		.align	2
 1933              	.L179:
 1934 0040 00640040 		.word	1073767424
 1935 0044 00000000 		.word	.LC0
 1936              		.cfi_endproc
 1937              	.LFE42:
 1939              		.section	.text.CAN_ClearFlag,"ax",%progbits
 1940              		.align	2
 1941              		.global	CAN_ClearFlag
 1942              		.thumb
 1943              		.thumb_func
 1945              	CAN_ClearFlag:
 1946              	.LFB43:
 831:STM32F10x_StdPeriph_Driver/src/stm32f10x_can.c ****   /* Check the parameters */
 1947              		.loc 1 831 0
 1948              		.cfi_startproc
 1949              		@ args = 0, pretend = 0, frame = 0
 1950              		@ frame_needed = 0, uses_anonymous_args = 0
 1951              	.LVL168:
 1952 0000 38B5     		push	{r3, r4, r5, lr}
 1953              	.LCFI15:
 1954              		.cfi_def_cfa_offset 16
 1955              		.cfi_offset 3, -16
 1956              		.cfi_offset 4, -12
 1957              		.cfi_offset 5, -8
 1958              		.cfi_offset 14, -4
 1959 0002 0446     		mov	r4, r0
 1960 0004 0D46     		mov	r5, r1
 833:STM32F10x_StdPeriph_Driver/src/stm32f10x_can.c ****   assert_param(IS_CAN_FLAG(CAN_FLAG));
 1961              		.loc 1 833 0
 1962 0006 0D4B     		ldr	r3, .L185
ARM GAS  /var/folders/g9/bbpj86ld7fx45vd1b3pqxmp00000gn/T//ccXBJrXf.s 			page 58


 1963 0008 9842     		cmp	r0, r3
 1964 000a 08D0     		beq	.L182
 833:STM32F10x_StdPeriph_Driver/src/stm32f10x_can.c ****   assert_param(IS_CAN_FLAG(CAN_FLAG));
 1965              		.loc 1 833 0 is_stmt 0 discriminator 1
 1966 000c 03F58063 		add	r3, r3, #1024
 1967 0010 9842     		cmp	r0, r3
 1968 0012 04D0     		beq	.L182
 833:STM32F10x_StdPeriph_Driver/src/stm32f10x_can.c ****   assert_param(IS_CAN_FLAG(CAN_FLAG));
 1969              		.loc 1 833 0 discriminator 2
 1970 0014 40F24131 		movw	r1, #833
 1971              	.LVL169:
 1972 0018 0948     		ldr	r0, .L185+4
 1973              	.LVL170:
 1974 001a FFF7FEFF 		bl	assert_failed
 1975              	.LVL171:
 1976              	.L182:
 834:STM32F10x_StdPeriph_Driver/src/stm32f10x_can.c ****   /* Clear the selected CAN flags */
 1977              		.loc 1 834 0 is_stmt 1
 1978 001e 6B1E     		subs	r3, r5, #1
 1979 0020 012B     		cmp	r3, #1
 1980 0022 06D9     		bls	.L183
 834:STM32F10x_StdPeriph_Driver/src/stm32f10x_can.c ****   /* Clear the selected CAN flags */
 1981              		.loc 1 834 0 is_stmt 0 discriminator 1
 1982 0024 042D     		cmp	r5, #4
 1983 0026 04D0     		beq	.L183
 834:STM32F10x_StdPeriph_Driver/src/stm32f10x_can.c ****   /* Clear the selected CAN flags */
 1984              		.loc 1 834 0 discriminator 2
 1985 0028 40F24231 		movw	r1, #834
 1986 002c 0448     		ldr	r0, .L185+4
 1987 002e FFF7FEFF 		bl	assert_failed
 1988              	.LVL172:
 1989              	.L183:
 836:STM32F10x_StdPeriph_Driver/src/stm32f10x_can.c **** }
 1990              		.loc 1 836 0 is_stmt 1
 1991 0032 A169     		ldr	r1, [r4, #24]
 1992 0034 21EA0501 		bic	r1, r1, r5
 1993 0038 A161     		str	r1, [r4, #24]
 1994 003a 38BD     		pop	{r3, r4, r5, pc}
 1995              	.LVL173:
 1996              	.L186:
 1997              		.align	2
 1998              	.L185:
 1999 003c 00640040 		.word	1073767424
 2000 0040 00000000 		.word	.LC0
 2001              		.cfi_endproc
 2002              	.LFE43:
 2004              		.section	.text.CAN_GetITStatus,"ax",%progbits
 2005              		.align	2
 2006              		.global	CAN_GetITStatus
 2007              		.thumb
 2008              		.thumb_func
 2010              	CAN_GetITStatus:
 2011              	.LFB44:
 850:STM32F10x_StdPeriph_Driver/src/stm32f10x_can.c ****   ITStatus pendingbitstatus = RESET;
 2012              		.loc 1 850 0
 2013              		.cfi_startproc
 2014              		@ args = 0, pretend = 0, frame = 0
ARM GAS  /var/folders/g9/bbpj86ld7fx45vd1b3pqxmp00000gn/T//ccXBJrXf.s 			page 59


 2015              		@ frame_needed = 0, uses_anonymous_args = 0
 2016              	.LVL174:
 2017 0000 38B5     		push	{r3, r4, r5, lr}
 2018              	.LCFI16:
 2019              		.cfi_def_cfa_offset 16
 2020              		.cfi_offset 3, -16
 2021              		.cfi_offset 4, -12
 2022              		.cfi_offset 5, -8
 2023              		.cfi_offset 14, -4
 2024 0002 0546     		mov	r5, r0
 2025 0004 0C46     		mov	r4, r1
 2026              	.LVL175:
 853:STM32F10x_StdPeriph_Driver/src/stm32f10x_can.c ****   assert_param(IS_CAN_ITStatus(CAN_IT));
 2027              		.loc 1 853 0
 2028 0006 454B     		ldr	r3, .L208
 2029 0008 9842     		cmp	r0, r3
 2030 000a 08D0     		beq	.L188
 853:STM32F10x_StdPeriph_Driver/src/stm32f10x_can.c ****   assert_param(IS_CAN_ITStatus(CAN_IT));
 2031              		.loc 1 853 0 is_stmt 0 discriminator 1
 2032 000c 03F58063 		add	r3, r3, #1024
 2033 0010 9842     		cmp	r0, r3
 2034 0012 04D0     		beq	.L188
 853:STM32F10x_StdPeriph_Driver/src/stm32f10x_can.c ****   assert_param(IS_CAN_ITStatus(CAN_IT));
 2035              		.loc 1 853 0 discriminator 2
 2036 0014 40F25531 		movw	r1, #853
 2037              	.LVL176:
 2038 0018 4148     		ldr	r0, .L208+4
 2039              	.LVL177:
 2040 001a FFF7FEFF 		bl	assert_failed
 2041              	.LVL178:
 2042              	.L188:
 854:STM32F10x_StdPeriph_Driver/src/stm32f10x_can.c ****   switch (CAN_IT)
 2043              		.loc 1 854 0 is_stmt 1
 2044 001e 231F     		subs	r3, r4, #4
 2045 0020 042B     		cmp	r3, #4
 2046 0022 17D9     		bls	.L189
 854:STM32F10x_StdPeriph_Driver/src/stm32f10x_can.c ****   switch (CAN_IT)
 2047              		.loc 1 854 0 is_stmt 0 discriminator 1
 2048 0024 202C     		cmp	r4, #32
 2049 0026 15D0     		beq	.L189
 854:STM32F10x_StdPeriph_Driver/src/stm32f10x_can.c ****   switch (CAN_IT)
 2050              		.loc 1 854 0 discriminator 2
 2051 0028 402C     		cmp	r4, #64
 2052 002a 13D0     		beq	.L189
 854:STM32F10x_StdPeriph_Driver/src/stm32f10x_can.c ****   switch (CAN_IT)
 2053              		.loc 1 854 0 discriminator 3
 2054 002c B4F5807F 		cmp	r4, #256
 2055 0030 10D0     		beq	.L189
 854:STM32F10x_StdPeriph_Driver/src/stm32f10x_can.c ****   switch (CAN_IT)
 2056              		.loc 1 854 0 discriminator 4
 2057 0032 B4F5007F 		cmp	r4, #512
 2058 0036 0DD0     		beq	.L189
 854:STM32F10x_StdPeriph_Driver/src/stm32f10x_can.c ****   switch (CAN_IT)
 2059              		.loc 1 854 0 discriminator 5
 2060 0038 B4F5806F 		cmp	r4, #1024
 2061 003c 0AD0     		beq	.L189
 854:STM32F10x_StdPeriph_Driver/src/stm32f10x_can.c ****   switch (CAN_IT)
ARM GAS  /var/folders/g9/bbpj86ld7fx45vd1b3pqxmp00000gn/T//ccXBJrXf.s 			page 60


 2062              		.loc 1 854 0 discriminator 6
 2063 003e B4F5803F 		cmp	r4, #65536
 2064 0042 07D0     		beq	.L189
 854:STM32F10x_StdPeriph_Driver/src/stm32f10x_can.c ****   switch (CAN_IT)
 2065              		.loc 1 854 0 discriminator 7
 2066 0044 B4F5003F 		cmp	r4, #131072
 2067 0048 04D0     		beq	.L189
 854:STM32F10x_StdPeriph_Driver/src/stm32f10x_can.c ****   switch (CAN_IT)
 2068              		.loc 1 854 0 discriminator 8
 2069 004a 40F25631 		movw	r1, #854
 2070 004e 3448     		ldr	r0, .L208+4
 2071 0050 FFF7FEFF 		bl	assert_failed
 2072              	.LVL179:
 2073              	.L189:
 855:STM32F10x_StdPeriph_Driver/src/stm32f10x_can.c ****   {
 2074              		.loc 1 855 0 is_stmt 1
 2075 0054 202C     		cmp	r4, #32
 2076 0056 3CD0     		beq	.L191
 2077 0058 0CD8     		bhi	.L192
 2078 005a 062C     		cmp	r4, #6
 2079 005c 23D0     		beq	.L193
 2080 005e 04D8     		bhi	.L194
 2081 0060 042C     		cmp	r4, #4
 2082 0062 2CD0     		beq	.L195
 2083 0064 052C     		cmp	r4, #5
 2084 0066 19D0     		beq	.L196
 2085 0068 56E0     		b	.L206
 2086              	.L194:
 2087 006a 072C     		cmp	r4, #7
 2088 006c 21D0     		beq	.L197
 2089 006e 082C     		cmp	r4, #8
 2090 0070 2AD0     		beq	.L198
 2091 0072 51E0     		b	.L206
 2092              	.L192:
 2093 0074 B4F5007F 		cmp	r4, #512
 2094 0078 3AD0     		beq	.L199
 2095 007a 05D8     		bhi	.L200
 2096 007c 402C     		cmp	r4, #64
 2097 007e 2DD0     		beq	.L201
 2098 0080 B4F5807F 		cmp	r4, #256
 2099 0084 2FD0     		beq	.L202
 2100 0086 47E0     		b	.L206
 2101              	.L200:
 2102 0088 B4F5803F 		cmp	r4, #65536
 2103 008c 3FD0     		beq	.L203
 2104 008e B4F5003F 		cmp	r4, #131072
 2105 0092 37D0     		beq	.L204
 2106 0094 B4F5806F 		cmp	r4, #1024
 2107 0098 3ED1     		bne	.L206
 2108 009a 2EE0     		b	.L205
 2109              	.L196:
 858:STM32F10x_StdPeriph_Driver/src/stm32f10x_can.c ****       break;
 2110              		.loc 1 858 0
 2111 009c A868     		ldr	r0, [r5, #8]
 2112 009e 0121     		movs	r1, #1
 2113 00a0 FFF7FEFF 		bl	CheckITStatus
 2114              	.LVL180:
ARM GAS  /var/folders/g9/bbpj86ld7fx45vd1b3pqxmp00000gn/T//ccXBJrXf.s 			page 61


 859:STM32F10x_StdPeriph_Driver/src/stm32f10x_can.c ****     case CAN_IT_RQCP1:
 2115              		.loc 1 859 0
 2116 00a4 38BD     		pop	{r3, r4, r5, pc}
 2117              	.LVL181:
 2118              	.L193:
 861:STM32F10x_StdPeriph_Driver/src/stm32f10x_can.c ****       break;
 2119              		.loc 1 861 0
 2120 00a6 A868     		ldr	r0, [r5, #8]
 2121 00a8 4FF48071 		mov	r1, #256
 2122 00ac FFF7FEFF 		bl	CheckITStatus
 2123              	.LVL182:
 862:STM32F10x_StdPeriph_Driver/src/stm32f10x_can.c ****     case CAN_IT_RQCP2:
 2124              		.loc 1 862 0
 2125 00b0 38BD     		pop	{r3, r4, r5, pc}
 2126              	.LVL183:
 2127              	.L197:
 864:STM32F10x_StdPeriph_Driver/src/stm32f10x_can.c ****       break;
 2128              		.loc 1 864 0
 2129 00b2 A868     		ldr	r0, [r5, #8]
 2130 00b4 4FF48031 		mov	r1, #65536
 2131 00b8 FFF7FEFF 		bl	CheckITStatus
 2132              	.LVL184:
 865:STM32F10x_StdPeriph_Driver/src/stm32f10x_can.c ****     case CAN_IT_FF0:
 2133              		.loc 1 865 0
 2134 00bc 38BD     		pop	{r3, r4, r5, pc}
 2135              	.LVL185:
 2136              	.L195:
 867:STM32F10x_StdPeriph_Driver/src/stm32f10x_can.c ****       break;
 2137              		.loc 1 867 0
 2138 00be E868     		ldr	r0, [r5, #12]
 2139 00c0 0821     		movs	r1, #8
 2140 00c2 FFF7FEFF 		bl	CheckITStatus
 2141              	.LVL186:
 868:STM32F10x_StdPeriph_Driver/src/stm32f10x_can.c ****     case CAN_IT_FOV0:
 2142              		.loc 1 868 0
 2143 00c6 38BD     		pop	{r3, r4, r5, pc}
 2144              	.LVL187:
 2145              	.L198:
 870:STM32F10x_StdPeriph_Driver/src/stm32f10x_can.c ****       break;
 2146              		.loc 1 870 0
 2147 00c8 E868     		ldr	r0, [r5, #12]
 2148 00ca 1021     		movs	r1, #16
 2149 00cc FFF7FEFF 		bl	CheckITStatus
 2150              	.LVL188:
 871:STM32F10x_StdPeriph_Driver/src/stm32f10x_can.c ****     case CAN_IT_FF1:
 2151              		.loc 1 871 0
 2152 00d0 38BD     		pop	{r3, r4, r5, pc}
 2153              	.LVL189:
 2154              	.L191:
 873:STM32F10x_StdPeriph_Driver/src/stm32f10x_can.c ****       break;
 2155              		.loc 1 873 0
 2156 00d2 2869     		ldr	r0, [r5, #16]
 2157 00d4 0821     		movs	r1, #8
 2158 00d6 FFF7FEFF 		bl	CheckITStatus
 2159              	.LVL190:
 874:STM32F10x_StdPeriph_Driver/src/stm32f10x_can.c ****     case CAN_IT_FOV1:
 2160              		.loc 1 874 0
ARM GAS  /var/folders/g9/bbpj86ld7fx45vd1b3pqxmp00000gn/T//ccXBJrXf.s 			page 62


 2161 00da 38BD     		pop	{r3, r4, r5, pc}
 2162              	.LVL191:
 2163              	.L201:
 876:STM32F10x_StdPeriph_Driver/src/stm32f10x_can.c ****       break;
 2164              		.loc 1 876 0
 2165 00dc 2869     		ldr	r0, [r5, #16]
 2166 00de 1021     		movs	r1, #16
 2167 00e0 FFF7FEFF 		bl	CheckITStatus
 2168              	.LVL192:
 877:STM32F10x_StdPeriph_Driver/src/stm32f10x_can.c ****     case CAN_IT_EWG:
 2169              		.loc 1 877 0
 2170 00e4 38BD     		pop	{r3, r4, r5, pc}
 2171              	.LVL193:
 2172              	.L202:
 879:STM32F10x_StdPeriph_Driver/src/stm32f10x_can.c ****       break;
 2173              		.loc 1 879 0
 2174 00e6 A869     		ldr	r0, [r5, #24]
 2175 00e8 0121     		movs	r1, #1
 2176 00ea FFF7FEFF 		bl	CheckITStatus
 2177              	.LVL194:
 880:STM32F10x_StdPeriph_Driver/src/stm32f10x_can.c ****     case CAN_IT_EPV:
 2178              		.loc 1 880 0
 2179 00ee 38BD     		pop	{r3, r4, r5, pc}
 2180              	.LVL195:
 2181              	.L199:
 882:STM32F10x_StdPeriph_Driver/src/stm32f10x_can.c ****       break;
 2182              		.loc 1 882 0
 2183 00f0 A869     		ldr	r0, [r5, #24]
 2184 00f2 0221     		movs	r1, #2
 2185 00f4 FFF7FEFF 		bl	CheckITStatus
 2186              	.LVL196:
 883:STM32F10x_StdPeriph_Driver/src/stm32f10x_can.c ****     case CAN_IT_BOF:
 2187              		.loc 1 883 0
 2188 00f8 38BD     		pop	{r3, r4, r5, pc}
 2189              	.LVL197:
 2190              	.L205:
 885:STM32F10x_StdPeriph_Driver/src/stm32f10x_can.c ****       break;
 2191              		.loc 1 885 0
 2192 00fa A869     		ldr	r0, [r5, #24]
 2193 00fc 0421     		movs	r1, #4
 2194 00fe FFF7FEFF 		bl	CheckITStatus
 2195              	.LVL198:
 886:STM32F10x_StdPeriph_Driver/src/stm32f10x_can.c ****     case CAN_IT_SLK:
 2196              		.loc 1 886 0
 2197 0102 38BD     		pop	{r3, r4, r5, pc}
 2198              	.LVL199:
 2199              	.L204:
 888:STM32F10x_StdPeriph_Driver/src/stm32f10x_can.c ****       break;
 2200              		.loc 1 888 0
 2201 0104 6868     		ldr	r0, [r5, #4]
 2202 0106 1021     		movs	r1, #16
 2203 0108 FFF7FEFF 		bl	CheckITStatus
 2204              	.LVL200:
 889:STM32F10x_StdPeriph_Driver/src/stm32f10x_can.c ****     case CAN_IT_WKU:
 2205              		.loc 1 889 0
 2206 010c 38BD     		pop	{r3, r4, r5, pc}
 2207              	.LVL201:
ARM GAS  /var/folders/g9/bbpj86ld7fx45vd1b3pqxmp00000gn/T//ccXBJrXf.s 			page 63


 2208              	.L203:
 891:STM32F10x_StdPeriph_Driver/src/stm32f10x_can.c ****       break;
 2209              		.loc 1 891 0
 2210 010e 6868     		ldr	r0, [r5, #4]
 2211 0110 0821     		movs	r1, #8
 2212 0112 FFF7FEFF 		bl	CheckITStatus
 2213              	.LVL202:
 892:STM32F10x_StdPeriph_Driver/src/stm32f10x_can.c ****     default :
 2214              		.loc 1 892 0
 2215 0116 38BD     		pop	{r3, r4, r5, pc}
 2216              	.LVL203:
 2217              	.L206:
 894:STM32F10x_StdPeriph_Driver/src/stm32f10x_can.c ****       break;
 2218              		.loc 1 894 0
 2219 0118 0020     		movs	r0, #0
 2220              	.LVL204:
 899:STM32F10x_StdPeriph_Driver/src/stm32f10x_can.c **** 
 2221              		.loc 1 899 0
 2222 011a 38BD     		pop	{r3, r4, r5, pc}
 2223              	.LVL205:
 2224              	.L209:
 2225              		.align	2
 2226              	.L208:
 2227 011c 00640040 		.word	1073767424
 2228 0120 00000000 		.word	.LC0
 2229              		.cfi_endproc
 2230              	.LFE44:
 2232              		.section	.text.CAN_ClearITPendingBit,"ax",%progbits
 2233              		.align	2
 2234              		.global	CAN_ClearITPendingBit
 2235              		.thumb
 2236              		.thumb_func
 2238              	CAN_ClearITPendingBit:
 2239              	.LFB45:
 908:STM32F10x_StdPeriph_Driver/src/stm32f10x_can.c ****   /* Check the parameters */
 2240              		.loc 1 908 0
 2241              		.cfi_startproc
 2242              		@ args = 0, pretend = 0, frame = 0
 2243              		@ frame_needed = 0, uses_anonymous_args = 0
 2244              	.LVL206:
 2245 0000 38B5     		push	{r3, r4, r5, lr}
 2246              	.LCFI17:
 2247              		.cfi_def_cfa_offset 16
 2248              		.cfi_offset 3, -16
 2249              		.cfi_offset 4, -12
 2250              		.cfi_offset 5, -8
 2251              		.cfi_offset 14, -4
 2252 0002 0546     		mov	r5, r0
 2253 0004 0C46     		mov	r4, r1
 910:STM32F10x_StdPeriph_Driver/src/stm32f10x_can.c ****   assert_param(IS_CAN_ITStatus(CAN_IT));
 2254              		.loc 1 910 0
 2255 0006 3B4B     		ldr	r3, .L230
 2256 0008 9842     		cmp	r0, r3
 2257 000a 08D0     		beq	.L211
 910:STM32F10x_StdPeriph_Driver/src/stm32f10x_can.c ****   assert_param(IS_CAN_ITStatus(CAN_IT));
 2258              		.loc 1 910 0 is_stmt 0 discriminator 1
 2259 000c 03F58063 		add	r3, r3, #1024
ARM GAS  /var/folders/g9/bbpj86ld7fx45vd1b3pqxmp00000gn/T//ccXBJrXf.s 			page 64


 2260 0010 9842     		cmp	r0, r3
 2261 0012 04D0     		beq	.L211
 910:STM32F10x_StdPeriph_Driver/src/stm32f10x_can.c ****   assert_param(IS_CAN_ITStatus(CAN_IT));
 2262              		.loc 1 910 0 discriminator 2
 2263 0014 40F28E31 		movw	r1, #910
 2264              	.LVL207:
 2265 0018 3748     		ldr	r0, .L230+4
 2266              	.LVL208:
 2267 001a FFF7FEFF 		bl	assert_failed
 2268              	.LVL209:
 2269              	.L211:
 911:STM32F10x_StdPeriph_Driver/src/stm32f10x_can.c ****   switch (CAN_IT)
 2270              		.loc 1 911 0 is_stmt 1
 2271 001e 231F     		subs	r3, r4, #4
 2272 0020 042B     		cmp	r3, #4
 2273 0022 17D9     		bls	.L212
 911:STM32F10x_StdPeriph_Driver/src/stm32f10x_can.c ****   switch (CAN_IT)
 2274              		.loc 1 911 0 is_stmt 0 discriminator 1
 2275 0024 202C     		cmp	r4, #32
 2276 0026 15D0     		beq	.L212
 911:STM32F10x_StdPeriph_Driver/src/stm32f10x_can.c ****   switch (CAN_IT)
 2277              		.loc 1 911 0 discriminator 2
 2278 0028 402C     		cmp	r4, #64
 2279 002a 13D0     		beq	.L212
 911:STM32F10x_StdPeriph_Driver/src/stm32f10x_can.c ****   switch (CAN_IT)
 2280              		.loc 1 911 0 discriminator 3
 2281 002c B4F5807F 		cmp	r4, #256
 2282 0030 10D0     		beq	.L212
 911:STM32F10x_StdPeriph_Driver/src/stm32f10x_can.c ****   switch (CAN_IT)
 2283              		.loc 1 911 0 discriminator 4
 2284 0032 B4F5007F 		cmp	r4, #512
 2285 0036 0DD0     		beq	.L212
 911:STM32F10x_StdPeriph_Driver/src/stm32f10x_can.c ****   switch (CAN_IT)
 2286              		.loc 1 911 0 discriminator 5
 2287 0038 B4F5806F 		cmp	r4, #1024
 2288 003c 0AD0     		beq	.L212
 911:STM32F10x_StdPeriph_Driver/src/stm32f10x_can.c ****   switch (CAN_IT)
 2289              		.loc 1 911 0 discriminator 6
 2290 003e B4F5803F 		cmp	r4, #65536
 2291 0042 07D0     		beq	.L212
 911:STM32F10x_StdPeriph_Driver/src/stm32f10x_can.c ****   switch (CAN_IT)
 2292              		.loc 1 911 0 discriminator 7
 2293 0044 B4F5003F 		cmp	r4, #131072
 2294 0048 04D0     		beq	.L212
 911:STM32F10x_StdPeriph_Driver/src/stm32f10x_can.c ****   switch (CAN_IT)
 2295              		.loc 1 911 0 discriminator 8
 2296 004a 40F28F31 		movw	r1, #911
 2297 004e 2A48     		ldr	r0, .L230+4
 2298 0050 FFF7FEFF 		bl	assert_failed
 2299              	.LVL210:
 2300              	.L212:
 912:STM32F10x_StdPeriph_Driver/src/stm32f10x_can.c ****   {
 2301              		.loc 1 912 0 is_stmt 1
 2302 0054 202C     		cmp	r4, #32
 2303 0056 32D0     		beq	.L214
 2304 0058 0CD8     		bhi	.L215
 2305 005a 062C     		cmp	r4, #6
ARM GAS  /var/folders/g9/bbpj86ld7fx45vd1b3pqxmp00000gn/T//ccXBJrXf.s 			page 65


 2306 005c 21D0     		beq	.L216
 2307 005e 04D8     		bhi	.L217
 2308 0060 042C     		cmp	r4, #4
 2309 0062 26D0     		beq	.L218
 2310 0064 052C     		cmp	r4, #5
 2311 0066 19D0     		beq	.L219
 2312 0068 38BD     		pop	{r3, r4, r5, pc}
 2313              	.LVL211:
 2314              	.L217:
 2315 006a 072C     		cmp	r4, #7
 2316 006c 1DD0     		beq	.L220
 2317 006e 082C     		cmp	r4, #8
 2318 0070 22D0     		beq	.L221
 2319 0072 38BD     		pop	{r3, r4, r5, pc}
 2320              	.LVL212:
 2321              	.L215:
 2322 0074 B4F5007F 		cmp	r4, #512
 2323 0078 2CD0     		beq	.L222
 2324 007a 05D8     		bhi	.L223
 2325 007c 402C     		cmp	r4, #64
 2326 007e 21D0     		beq	.L224
 2327 0080 B4F5807F 		cmp	r4, #256
 2328 0084 21D0     		beq	.L225
 2329 0086 38BD     		pop	{r3, r4, r5, pc}
 2330              	.LVL213:
 2331              	.L223:
 2332 0088 B4F5803F 		cmp	r4, #65536
 2333 008c 2CD0     		beq	.L226
 2334 008e B4F5003F 		cmp	r4, #131072
 2335 0092 2CD0     		beq	.L227
 2336 0094 B4F5806F 		cmp	r4, #1024
 2337 0098 2BD1     		bne	.L210
 2338 009a 20E0     		b	.L228
 2339              	.L219:
 915:STM32F10x_StdPeriph_Driver/src/stm32f10x_can.c ****       break;
 2340              		.loc 1 915 0
 2341 009c 0123     		movs	r3, #1
 2342 009e AB60     		str	r3, [r5, #8]
 916:STM32F10x_StdPeriph_Driver/src/stm32f10x_can.c ****     case CAN_IT_RQCP1:
 2343              		.loc 1 916 0
 2344 00a0 38BD     		pop	{r3, r4, r5, pc}
 2345              	.LVL214:
 2346              	.L216:
 918:STM32F10x_StdPeriph_Driver/src/stm32f10x_can.c ****       break;
 2347              		.loc 1 918 0
 2348 00a2 4FF48073 		mov	r3, #256
 2349 00a6 AB60     		str	r3, [r5, #8]
 919:STM32F10x_StdPeriph_Driver/src/stm32f10x_can.c ****     case CAN_IT_RQCP2:
 2350              		.loc 1 919 0
 2351 00a8 38BD     		pop	{r3, r4, r5, pc}
 2352              	.LVL215:
 2353              	.L220:
 921:STM32F10x_StdPeriph_Driver/src/stm32f10x_can.c ****       break;
 2354              		.loc 1 921 0
 2355 00aa 4FF48033 		mov	r3, #65536
 2356 00ae AB60     		str	r3, [r5, #8]
 922:STM32F10x_StdPeriph_Driver/src/stm32f10x_can.c ****     case CAN_IT_FF0:
ARM GAS  /var/folders/g9/bbpj86ld7fx45vd1b3pqxmp00000gn/T//ccXBJrXf.s 			page 66


 2357              		.loc 1 922 0
 2358 00b0 38BD     		pop	{r3, r4, r5, pc}
 2359              	.LVL216:
 2360              	.L218:
 924:STM32F10x_StdPeriph_Driver/src/stm32f10x_can.c ****       break;
 2361              		.loc 1 924 0
 2362 00b2 0823     		movs	r3, #8
 2363 00b4 EB60     		str	r3, [r5, #12]
 925:STM32F10x_StdPeriph_Driver/src/stm32f10x_can.c ****     case CAN_IT_FOV0:
 2364              		.loc 1 925 0
 2365 00b6 38BD     		pop	{r3, r4, r5, pc}
 2366              	.LVL217:
 2367              	.L221:
 927:STM32F10x_StdPeriph_Driver/src/stm32f10x_can.c ****       break;
 2368              		.loc 1 927 0
 2369 00b8 1023     		movs	r3, #16
 2370 00ba EB60     		str	r3, [r5, #12]
 928:STM32F10x_StdPeriph_Driver/src/stm32f10x_can.c ****     case CAN_IT_FF1:
 2371              		.loc 1 928 0
 2372 00bc 38BD     		pop	{r3, r4, r5, pc}
 2373              	.LVL218:
 2374              	.L214:
 930:STM32F10x_StdPeriph_Driver/src/stm32f10x_can.c ****       break;
 2375              		.loc 1 930 0
 2376 00be 0823     		movs	r3, #8
 2377 00c0 2B61     		str	r3, [r5, #16]
 931:STM32F10x_StdPeriph_Driver/src/stm32f10x_can.c ****     case CAN_IT_FOV1:
 2378              		.loc 1 931 0
 2379 00c2 38BD     		pop	{r3, r4, r5, pc}
 2380              	.LVL219:
 2381              	.L224:
 933:STM32F10x_StdPeriph_Driver/src/stm32f10x_can.c ****       break;
 2382              		.loc 1 933 0
 2383 00c4 1023     		movs	r3, #16
 2384 00c6 2B61     		str	r3, [r5, #16]
 934:STM32F10x_StdPeriph_Driver/src/stm32f10x_can.c ****     case CAN_IT_EWG:
 2385              		.loc 1 934 0
 2386 00c8 38BD     		pop	{r3, r4, r5, pc}
 2387              	.LVL220:
 2388              	.L225:
 936:STM32F10x_StdPeriph_Driver/src/stm32f10x_can.c ****       break;
 2389              		.loc 1 936 0
 2390 00ca AB69     		ldr	r3, [r5, #24]
 2391 00cc 23F00103 		bic	r3, r3, #1
 2392 00d0 AB61     		str	r3, [r5, #24]
 937:STM32F10x_StdPeriph_Driver/src/stm32f10x_can.c ****     case CAN_IT_EPV:
 2393              		.loc 1 937 0
 2394 00d2 38BD     		pop	{r3, r4, r5, pc}
 2395              	.LVL221:
 2396              	.L222:
 939:STM32F10x_StdPeriph_Driver/src/stm32f10x_can.c ****       break;
 2397              		.loc 1 939 0
 2398 00d4 AB69     		ldr	r3, [r5, #24]
 2399 00d6 23F00203 		bic	r3, r3, #2
 2400 00da AB61     		str	r3, [r5, #24]
 940:STM32F10x_StdPeriph_Driver/src/stm32f10x_can.c ****     case CAN_IT_BOF:
 2401              		.loc 1 940 0
ARM GAS  /var/folders/g9/bbpj86ld7fx45vd1b3pqxmp00000gn/T//ccXBJrXf.s 			page 67


 2402 00dc 38BD     		pop	{r3, r4, r5, pc}
 2403              	.LVL222:
 2404              	.L228:
 942:STM32F10x_StdPeriph_Driver/src/stm32f10x_can.c ****       break;
 2405              		.loc 1 942 0
 2406 00de AB69     		ldr	r3, [r5, #24]
 2407 00e0 23F00403 		bic	r3, r3, #4
 2408 00e4 AB61     		str	r3, [r5, #24]
 943:STM32F10x_StdPeriph_Driver/src/stm32f10x_can.c ****     case CAN_IT_WKU:
 2409              		.loc 1 943 0
 2410 00e6 38BD     		pop	{r3, r4, r5, pc}
 2411              	.LVL223:
 2412              	.L226:
 945:STM32F10x_StdPeriph_Driver/src/stm32f10x_can.c ****       break;
 2413              		.loc 1 945 0
 2414 00e8 0823     		movs	r3, #8
 2415 00ea 6B60     		str	r3, [r5, #4]
 946:STM32F10x_StdPeriph_Driver/src/stm32f10x_can.c ****     case CAN_IT_SLK:
 2416              		.loc 1 946 0
 2417 00ec 38BD     		pop	{r3, r4, r5, pc}
 2418              	.LVL224:
 2419              	.L227:
 948:STM32F10x_StdPeriph_Driver/src/stm32f10x_can.c ****       break;
 2420              		.loc 1 948 0
 2421 00ee 1023     		movs	r3, #16
 2422 00f0 6B60     		str	r3, [r5, #4]
 2423              	.L210:
 2424 00f2 38BD     		pop	{r3, r4, r5, pc}
 2425              	.LVL225:
 2426              	.L231:
 2427              		.align	2
 2428              	.L230:
 2429 00f4 00640040 		.word	1073767424
 2430 00f8 00000000 		.word	.LC0
 2431              		.cfi_endproc
 2432              	.LFE45:
 2434              		.section	.rodata.str1.4,"aMS",%progbits,1
 2435              		.align	2
 2436              	.LC0:
 2437 0000 53544D33 		.ascii	"STM32F10x_StdPeriph_Driver/src/stm32f10x_can.c\000"
 2437      32463130 
 2437      785F5374 
 2437      64506572 
 2437      6970685F 
 2438              		.text
 2439              	.Letext0:
 2440              		.file 2 "/usr/local/Cellar/gcc-arm-none-eabi/20160926/arm-none-eabi/include/machine/_default_types
 2441              		.file 3 "/usr/local/Cellar/gcc-arm-none-eabi/20160926/arm-none-eabi/include/sys/_stdint.h"
 2442              		.file 4 "CMSIS/Core/CM3/stm32f10x.h"
 2443              		.file 5 "STM32F10x_StdPeriph_Driver/inc/stm32f10x_can.h"
 2444              		.file 6 "Inc/stm32f10x_conf.h"
 2445              		.file 7 "STM32F10x_StdPeriph_Driver/inc/stm32f10x_rcc.h"
ARM GAS  /var/folders/g9/bbpj86ld7fx45vd1b3pqxmp00000gn/T//ccXBJrXf.s 			page 68

