ARM GAS  /var/folders/g9/bbpj86ld7fx45vd1b3pqxmp00000gn/T//ccJXAINd.s 			page 1


   1              		.syntax unified
   2              		.cpu cortex-m3
   3              		.fpu softvfp
   4              		.eabi_attribute 20, 1
   5              		.eabi_attribute 21, 1
   6              		.eabi_attribute 23, 3
   7              		.eabi_attribute 24, 1
   8              		.eabi_attribute 25, 1
   9              		.eabi_attribute 26, 1
  10              		.eabi_attribute 30, 1
  11              		.eabi_attribute 34, 1
  12              		.eabi_attribute 18, 4
  13              		.thumb
  14              		.syntax unified
  15              		.file	"stm32f10x_dac.c"
  16              		.text
  17              	.Ltext0:
  18              		.cfi_sections	.debug_frame
  19              		.section	.text.DAC_DeInit,"ax",%progbits
  20              		.align	2
  21              		.global	DAC_DeInit
  22              		.thumb
  23              		.thumb_func
  25              	DAC_DeInit:
  26              	.LFB27:
  27              		.file 1 "STM32F10x_StdPeriph_Driver/src/stm32f10x_dac.c"
   1:STM32F10x_StdPeriph_Driver/src/stm32f10x_dac.c **** /**
   2:STM32F10x_StdPeriph_Driver/src/stm32f10x_dac.c ****   ******************************************************************************
   3:STM32F10x_StdPeriph_Driver/src/stm32f10x_dac.c ****   * @file    stm32f10x_dac.c
   4:STM32F10x_StdPeriph_Driver/src/stm32f10x_dac.c ****   * @author  MCD Application Team
   5:STM32F10x_StdPeriph_Driver/src/stm32f10x_dac.c ****   * @version V3.1.2
   6:STM32F10x_StdPeriph_Driver/src/stm32f10x_dac.c ****   * @date    09/28/2009
   7:STM32F10x_StdPeriph_Driver/src/stm32f10x_dac.c ****   * @brief   This file provides all the DAC firmware functions.
   8:STM32F10x_StdPeriph_Driver/src/stm32f10x_dac.c ****   ******************************************************************************
   9:STM32F10x_StdPeriph_Driver/src/stm32f10x_dac.c ****   * @copy
  10:STM32F10x_StdPeriph_Driver/src/stm32f10x_dac.c ****   *
  11:STM32F10x_StdPeriph_Driver/src/stm32f10x_dac.c ****   * THE PRESENT FIRMWARE WHICH IS FOR GUIDANCE ONLY AIMS AT PROVIDING CUSTOMERS
  12:STM32F10x_StdPeriph_Driver/src/stm32f10x_dac.c ****   * WITH CODING INFORMATION REGARDING THEIR PRODUCTS IN ORDER FOR THEM TO SAVE
  13:STM32F10x_StdPeriph_Driver/src/stm32f10x_dac.c ****   * TIME. AS A RESULT, STMICROELECTRONICS SHALL NOT BE HELD LIABLE FOR ANY
  14:STM32F10x_StdPeriph_Driver/src/stm32f10x_dac.c ****   * DIRECT, INDIRECT OR CONSEQUENTIAL DAMAGES WITH RESPECT TO ANY CLAIMS ARISING
  15:STM32F10x_StdPeriph_Driver/src/stm32f10x_dac.c ****   * FROM THE CONTENT OF SUCH FIRMWARE AND/OR THE USE MADE BY CUSTOMERS OF THE
  16:STM32F10x_StdPeriph_Driver/src/stm32f10x_dac.c ****   * CODING INFORMATION CONTAINED HEREIN IN CONNECTION WITH THEIR PRODUCTS.
  17:STM32F10x_StdPeriph_Driver/src/stm32f10x_dac.c ****   *
  18:STM32F10x_StdPeriph_Driver/src/stm32f10x_dac.c ****   * <h2><center>&copy; COPYRIGHT 2009 STMicroelectronics</center></h2>
  19:STM32F10x_StdPeriph_Driver/src/stm32f10x_dac.c ****   */ 
  20:STM32F10x_StdPeriph_Driver/src/stm32f10x_dac.c **** 
  21:STM32F10x_StdPeriph_Driver/src/stm32f10x_dac.c **** /* Includes ------------------------------------------------------------------*/
  22:STM32F10x_StdPeriph_Driver/src/stm32f10x_dac.c **** #include "stm32f10x_dac.h"
  23:STM32F10x_StdPeriph_Driver/src/stm32f10x_dac.c **** #include "stm32f10x_rcc.h"
  24:STM32F10x_StdPeriph_Driver/src/stm32f10x_dac.c **** 
  25:STM32F10x_StdPeriph_Driver/src/stm32f10x_dac.c **** /** @addtogroup STM32F10x_StdPeriph_Driver
  26:STM32F10x_StdPeriph_Driver/src/stm32f10x_dac.c ****   * @{
  27:STM32F10x_StdPeriph_Driver/src/stm32f10x_dac.c ****   */
  28:STM32F10x_StdPeriph_Driver/src/stm32f10x_dac.c **** 
  29:STM32F10x_StdPeriph_Driver/src/stm32f10x_dac.c **** /** @defgroup DAC 
  30:STM32F10x_StdPeriph_Driver/src/stm32f10x_dac.c ****   * @brief DAC driver modules
  31:STM32F10x_StdPeriph_Driver/src/stm32f10x_dac.c ****   * @{
ARM GAS  /var/folders/g9/bbpj86ld7fx45vd1b3pqxmp00000gn/T//ccJXAINd.s 			page 2


  32:STM32F10x_StdPeriph_Driver/src/stm32f10x_dac.c ****   */ 
  33:STM32F10x_StdPeriph_Driver/src/stm32f10x_dac.c **** 
  34:STM32F10x_StdPeriph_Driver/src/stm32f10x_dac.c **** /** @defgroup DAC_Private_TypesDefinitions
  35:STM32F10x_StdPeriph_Driver/src/stm32f10x_dac.c ****   * @{
  36:STM32F10x_StdPeriph_Driver/src/stm32f10x_dac.c ****   */
  37:STM32F10x_StdPeriph_Driver/src/stm32f10x_dac.c **** 
  38:STM32F10x_StdPeriph_Driver/src/stm32f10x_dac.c **** /**
  39:STM32F10x_StdPeriph_Driver/src/stm32f10x_dac.c ****   * @}
  40:STM32F10x_StdPeriph_Driver/src/stm32f10x_dac.c ****   */
  41:STM32F10x_StdPeriph_Driver/src/stm32f10x_dac.c **** 
  42:STM32F10x_StdPeriph_Driver/src/stm32f10x_dac.c **** /** @defgroup DAC_Private_Defines
  43:STM32F10x_StdPeriph_Driver/src/stm32f10x_dac.c ****   * @{
  44:STM32F10x_StdPeriph_Driver/src/stm32f10x_dac.c ****   */
  45:STM32F10x_StdPeriph_Driver/src/stm32f10x_dac.c **** 
  46:STM32F10x_StdPeriph_Driver/src/stm32f10x_dac.c **** /* DAC EN mask */
  47:STM32F10x_StdPeriph_Driver/src/stm32f10x_dac.c **** #define CR_EN_Set                  ((uint32_t)0x00000001)
  48:STM32F10x_StdPeriph_Driver/src/stm32f10x_dac.c **** 
  49:STM32F10x_StdPeriph_Driver/src/stm32f10x_dac.c **** /* DAC DMAEN mask */
  50:STM32F10x_StdPeriph_Driver/src/stm32f10x_dac.c **** #define CR_DMAEN_Set               ((uint32_t)0x00001000)
  51:STM32F10x_StdPeriph_Driver/src/stm32f10x_dac.c **** 
  52:STM32F10x_StdPeriph_Driver/src/stm32f10x_dac.c **** /* CR register Mask */
  53:STM32F10x_StdPeriph_Driver/src/stm32f10x_dac.c **** #define CR_CLEAR_Mask              ((uint32_t)0x00000FFE)
  54:STM32F10x_StdPeriph_Driver/src/stm32f10x_dac.c **** 
  55:STM32F10x_StdPeriph_Driver/src/stm32f10x_dac.c **** /* DAC SWTRIG mask */
  56:STM32F10x_StdPeriph_Driver/src/stm32f10x_dac.c **** #define SWTRIGR_SWTRIG_Set         ((uint32_t)0x00000001)
  57:STM32F10x_StdPeriph_Driver/src/stm32f10x_dac.c **** 
  58:STM32F10x_StdPeriph_Driver/src/stm32f10x_dac.c **** /* DAC Dual Channels SWTRIG masks */
  59:STM32F10x_StdPeriph_Driver/src/stm32f10x_dac.c **** #define DUAL_SWTRIG_Set            ((uint32_t)0x00000003)
  60:STM32F10x_StdPeriph_Driver/src/stm32f10x_dac.c **** #define DUAL_SWTRIG_Reset          ((uint32_t)0xFFFFFFFC)
  61:STM32F10x_StdPeriph_Driver/src/stm32f10x_dac.c **** 
  62:STM32F10x_StdPeriph_Driver/src/stm32f10x_dac.c **** /* DHR registers offsets */
  63:STM32F10x_StdPeriph_Driver/src/stm32f10x_dac.c **** #define DHR12R1_Offset             ((uint32_t)0x00000008)
  64:STM32F10x_StdPeriph_Driver/src/stm32f10x_dac.c **** #define DHR12R2_Offset             ((uint32_t)0x00000014)
  65:STM32F10x_StdPeriph_Driver/src/stm32f10x_dac.c **** #define DHR12RD_Offset             ((uint32_t)0x00000020)
  66:STM32F10x_StdPeriph_Driver/src/stm32f10x_dac.c **** 
  67:STM32F10x_StdPeriph_Driver/src/stm32f10x_dac.c **** /* DOR register offset */
  68:STM32F10x_StdPeriph_Driver/src/stm32f10x_dac.c **** #define DOR_Offset                 ((uint32_t)0x0000002C)
  69:STM32F10x_StdPeriph_Driver/src/stm32f10x_dac.c **** /**
  70:STM32F10x_StdPeriph_Driver/src/stm32f10x_dac.c ****   * @}
  71:STM32F10x_StdPeriph_Driver/src/stm32f10x_dac.c ****   */
  72:STM32F10x_StdPeriph_Driver/src/stm32f10x_dac.c **** 
  73:STM32F10x_StdPeriph_Driver/src/stm32f10x_dac.c **** /** @defgroup DAC_Private_Macros
  74:STM32F10x_StdPeriph_Driver/src/stm32f10x_dac.c ****   * @{
  75:STM32F10x_StdPeriph_Driver/src/stm32f10x_dac.c ****   */
  76:STM32F10x_StdPeriph_Driver/src/stm32f10x_dac.c **** 
  77:STM32F10x_StdPeriph_Driver/src/stm32f10x_dac.c **** /**
  78:STM32F10x_StdPeriph_Driver/src/stm32f10x_dac.c ****   * @}
  79:STM32F10x_StdPeriph_Driver/src/stm32f10x_dac.c ****   */
  80:STM32F10x_StdPeriph_Driver/src/stm32f10x_dac.c **** 
  81:STM32F10x_StdPeriph_Driver/src/stm32f10x_dac.c **** /** @defgroup DAC_Private_Variables
  82:STM32F10x_StdPeriph_Driver/src/stm32f10x_dac.c ****   * @{
  83:STM32F10x_StdPeriph_Driver/src/stm32f10x_dac.c ****   */
  84:STM32F10x_StdPeriph_Driver/src/stm32f10x_dac.c **** 
  85:STM32F10x_StdPeriph_Driver/src/stm32f10x_dac.c **** /**
  86:STM32F10x_StdPeriph_Driver/src/stm32f10x_dac.c ****   * @}
  87:STM32F10x_StdPeriph_Driver/src/stm32f10x_dac.c ****   */
  88:STM32F10x_StdPeriph_Driver/src/stm32f10x_dac.c **** 
ARM GAS  /var/folders/g9/bbpj86ld7fx45vd1b3pqxmp00000gn/T//ccJXAINd.s 			page 3


  89:STM32F10x_StdPeriph_Driver/src/stm32f10x_dac.c **** /** @defgroup DAC_Private_FunctionPrototypes
  90:STM32F10x_StdPeriph_Driver/src/stm32f10x_dac.c ****   * @{
  91:STM32F10x_StdPeriph_Driver/src/stm32f10x_dac.c ****   */
  92:STM32F10x_StdPeriph_Driver/src/stm32f10x_dac.c **** 
  93:STM32F10x_StdPeriph_Driver/src/stm32f10x_dac.c **** /**
  94:STM32F10x_StdPeriph_Driver/src/stm32f10x_dac.c ****   * @}
  95:STM32F10x_StdPeriph_Driver/src/stm32f10x_dac.c ****   */
  96:STM32F10x_StdPeriph_Driver/src/stm32f10x_dac.c **** 
  97:STM32F10x_StdPeriph_Driver/src/stm32f10x_dac.c **** /** @defgroup DAC_Private_Functions
  98:STM32F10x_StdPeriph_Driver/src/stm32f10x_dac.c ****   * @{
  99:STM32F10x_StdPeriph_Driver/src/stm32f10x_dac.c ****   */
 100:STM32F10x_StdPeriph_Driver/src/stm32f10x_dac.c **** 
 101:STM32F10x_StdPeriph_Driver/src/stm32f10x_dac.c **** /**
 102:STM32F10x_StdPeriph_Driver/src/stm32f10x_dac.c ****   * @brief  Deinitializes the DAC peripheral registers to their default reset values.
 103:STM32F10x_StdPeriph_Driver/src/stm32f10x_dac.c ****   * @param  None
 104:STM32F10x_StdPeriph_Driver/src/stm32f10x_dac.c ****   * @retval None
 105:STM32F10x_StdPeriph_Driver/src/stm32f10x_dac.c ****   */
 106:STM32F10x_StdPeriph_Driver/src/stm32f10x_dac.c **** void DAC_DeInit(void)
 107:STM32F10x_StdPeriph_Driver/src/stm32f10x_dac.c **** {
  28              		.loc 1 107 0
  29              		.cfi_startproc
  30              		@ args = 0, pretend = 0, frame = 0
  31              		@ frame_needed = 0, uses_anonymous_args = 0
  32 0000 08B5     		push	{r3, lr}
  33              	.LCFI0:
  34              		.cfi_def_cfa_offset 8
  35              		.cfi_offset 3, -8
  36              		.cfi_offset 14, -4
 108:STM32F10x_StdPeriph_Driver/src/stm32f10x_dac.c ****   /* Enable DAC reset state */
 109:STM32F10x_StdPeriph_Driver/src/stm32f10x_dac.c ****   RCC_APB1PeriphResetCmd(RCC_APB1Periph_DAC, ENABLE);
  37              		.loc 1 109 0
  38 0002 0121     		movs	r1, #1
  39 0004 4FF00050 		mov	r0, #536870912
  40 0008 FFF7FEFF 		bl	RCC_APB1PeriphResetCmd
  41              	.LVL0:
 110:STM32F10x_StdPeriph_Driver/src/stm32f10x_dac.c ****   /* Release DAC from reset state */
 111:STM32F10x_StdPeriph_Driver/src/stm32f10x_dac.c ****   RCC_APB1PeriphResetCmd(RCC_APB1Periph_DAC, DISABLE);
  42              		.loc 1 111 0
  43 000c 0021     		movs	r1, #0
  44 000e 4FF00050 		mov	r0, #536870912
  45 0012 FFF7FEFF 		bl	RCC_APB1PeriphResetCmd
  46              	.LVL1:
  47 0016 08BD     		pop	{r3, pc}
  48              		.cfi_endproc
  49              	.LFE27:
  51              		.section	.text.DAC_Init,"ax",%progbits
  52              		.align	2
  53              		.global	DAC_Init
  54              		.thumb
  55              		.thumb_func
  57              	DAC_Init:
  58              	.LFB28:
 112:STM32F10x_StdPeriph_Driver/src/stm32f10x_dac.c **** }
 113:STM32F10x_StdPeriph_Driver/src/stm32f10x_dac.c **** 
 114:STM32F10x_StdPeriph_Driver/src/stm32f10x_dac.c **** /**
 115:STM32F10x_StdPeriph_Driver/src/stm32f10x_dac.c ****   * @brief  Initializes the DAC peripheral according to the specified 
 116:STM32F10x_StdPeriph_Driver/src/stm32f10x_dac.c ****   *   parameters in the DAC_InitStruct.
ARM GAS  /var/folders/g9/bbpj86ld7fx45vd1b3pqxmp00000gn/T//ccJXAINd.s 			page 4


 117:STM32F10x_StdPeriph_Driver/src/stm32f10x_dac.c ****   * @param  DAC_Channel: the selected DAC channel. 
 118:STM32F10x_StdPeriph_Driver/src/stm32f10x_dac.c ****   *   This parameter can be one of the following values:
 119:STM32F10x_StdPeriph_Driver/src/stm32f10x_dac.c ****   *     @arg DAC_Channel_1: DAC Channel1 selected
 120:STM32F10x_StdPeriph_Driver/src/stm32f10x_dac.c ****   *     @arg DAC_Channel_2: DAC Channel2 selected
 121:STM32F10x_StdPeriph_Driver/src/stm32f10x_dac.c ****   * @param  DAC_InitStruct: pointer to a DAC_InitTypeDef structure that
 122:STM32F10x_StdPeriph_Driver/src/stm32f10x_dac.c ****   *   contains the configuration information for the specified DAC channel.
 123:STM32F10x_StdPeriph_Driver/src/stm32f10x_dac.c ****   * @retval None
 124:STM32F10x_StdPeriph_Driver/src/stm32f10x_dac.c ****   */
 125:STM32F10x_StdPeriph_Driver/src/stm32f10x_dac.c **** void DAC_Init(uint32_t DAC_Channel, DAC_InitTypeDef* DAC_InitStruct)
 126:STM32F10x_StdPeriph_Driver/src/stm32f10x_dac.c **** {
  59              		.loc 1 126 0
  60              		.cfi_startproc
  61              		@ args = 0, pretend = 0, frame = 0
  62              		@ frame_needed = 0, uses_anonymous_args = 0
  63              	.LVL2:
  64 0000 38B5     		push	{r3, r4, r5, lr}
  65              	.LCFI1:
  66              		.cfi_def_cfa_offset 16
  67              		.cfi_offset 3, -16
  68              		.cfi_offset 4, -12
  69              		.cfi_offset 5, -8
  70              		.cfi_offset 14, -4
  71 0002 0546     		mov	r5, r0
  72 0004 0C46     		mov	r4, r1
  73              	.LVL3:
 127:STM32F10x_StdPeriph_Driver/src/stm32f10x_dac.c ****   uint32_t tmpreg1 = 0, tmpreg2 = 0;
 128:STM32F10x_StdPeriph_Driver/src/stm32f10x_dac.c ****   /* Check the DAC parameters */
 129:STM32F10x_StdPeriph_Driver/src/stm32f10x_dac.c ****   assert_param(IS_DAC_TRIGGER(DAC_InitStruct->DAC_Trigger));
  74              		.loc 1 129 0
  75 0006 0B68     		ldr	r3, [r1]
  76 0008 9BB1     		cbz	r3, .L4
  77              		.loc 1 129 0 is_stmt 0 discriminator 1
  78 000a 042B     		cmp	r3, #4
  79 000c 11D0     		beq	.L4
  80              		.loc 1 129 0 discriminator 2
  81 000e 0C2B     		cmp	r3, #12
  82 0010 0FD0     		beq	.L4
  83              		.loc 1 129 0 discriminator 3
  84 0012 142B     		cmp	r3, #20
  85 0014 0DD0     		beq	.L4
  86              		.loc 1 129 0 discriminator 4
  87 0016 1C2B     		cmp	r3, #28
  88 0018 0BD0     		beq	.L4
  89              		.loc 1 129 0 discriminator 5
  90 001a 242B     		cmp	r3, #36
  91 001c 09D0     		beq	.L4
  92              		.loc 1 129 0 discriminator 6
  93 001e 2C2B     		cmp	r3, #44
  94 0020 07D0     		beq	.L4
  95              		.loc 1 129 0 discriminator 7
  96 0022 342B     		cmp	r3, #52
  97 0024 05D0     		beq	.L4
  98              		.loc 1 129 0 discriminator 8
  99 0026 3C2B     		cmp	r3, #60
 100 0028 03D0     		beq	.L4
 101              		.loc 1 129 0 discriminator 9
 102 002a 8121     		movs	r1, #129
ARM GAS  /var/folders/g9/bbpj86ld7fx45vd1b3pqxmp00000gn/T//ccJXAINd.s 			page 5


 103              	.LVL4:
 104 002c 3848     		ldr	r0, .L9
 105              	.LVL5:
 106 002e FFF7FEFF 		bl	assert_failed
 107              	.LVL6:
 108              	.L4:
 130:STM32F10x_StdPeriph_Driver/src/stm32f10x_dac.c ****   assert_param(IS_DAC_GENERATE_WAVE(DAC_InitStruct->DAC_WaveGeneration));
 109              		.loc 1 130 0 is_stmt 1
 110 0032 6368     		ldr	r3, [r4, #4]
 111 0034 3BB1     		cbz	r3, .L5
 112              		.loc 1 130 0 is_stmt 0 discriminator 1
 113 0036 402B     		cmp	r3, #64
 114 0038 05D0     		beq	.L5
 115              		.loc 1 130 0 discriminator 2
 116 003a 802B     		cmp	r3, #128
 117 003c 03D0     		beq	.L5
 118              		.loc 1 130 0 discriminator 3
 119 003e 8221     		movs	r1, #130
 120 0040 3348     		ldr	r0, .L9
 121 0042 FFF7FEFF 		bl	assert_failed
 122              	.LVL7:
 123              	.L5:
 131:STM32F10x_StdPeriph_Driver/src/stm32f10x_dac.c ****   assert_param(IS_DAC_LFSR_UNMASK_TRIANGLE_AMPLITUDE(DAC_InitStruct->DAC_LFSRUnmask_TriangleAmplitu
 124              		.loc 1 131 0 is_stmt 1
 125 0046 A368     		ldr	r3, [r4, #8]
 126 0048 002B     		cmp	r3, #0
 127 004a 46D0     		beq	.L6
 128              		.loc 1 131 0 is_stmt 0 discriminator 1
 129 004c B3F5807F 		cmp	r3, #256
 130 0050 43D0     		beq	.L6
 131              		.loc 1 131 0 discriminator 2
 132 0052 B3F5007F 		cmp	r3, #512
 133 0056 40D0     		beq	.L6
 134              		.loc 1 131 0 discriminator 3
 135 0058 B3F5407F 		cmp	r3, #768
 136 005c 3DD0     		beq	.L6
 137              		.loc 1 131 0 discriminator 4
 138 005e B3F5806F 		cmp	r3, #1024
 139 0062 3AD0     		beq	.L6
 140              		.loc 1 131 0 discriminator 5
 141 0064 B3F5A06F 		cmp	r3, #1280
 142 0068 37D0     		beq	.L6
 143              		.loc 1 131 0 discriminator 6
 144 006a B3F5C06F 		cmp	r3, #1536
 145 006e 34D0     		beq	.L6
 146              		.loc 1 131 0 discriminator 7
 147 0070 B3F5E06F 		cmp	r3, #1792
 148 0074 31D0     		beq	.L6
 149              		.loc 1 131 0 discriminator 8
 150 0076 B3F5006F 		cmp	r3, #2048
 151 007a 2ED0     		beq	.L6
 152              		.loc 1 131 0 discriminator 9
 153 007c B3F5106F 		cmp	r3, #2304
 154 0080 2BD0     		beq	.L6
 155              		.loc 1 131 0 discriminator 10
 156 0082 B3F5206F 		cmp	r3, #2560
 157 0086 28D0     		beq	.L6
ARM GAS  /var/folders/g9/bbpj86ld7fx45vd1b3pqxmp00000gn/T//ccJXAINd.s 			page 6


 158              		.loc 1 131 0 discriminator 11
 159 0088 B3F5306F 		cmp	r3, #2816
 160 008c 25D0     		beq	.L6
 161              		.loc 1 131 0 discriminator 12
 162 008e 23B3     		cbz	r3, .L6
 163              		.loc 1 131 0 discriminator 13
 164 0090 B3F5807F 		cmp	r3, #256
 165 0094 21D0     		beq	.L6
 166              		.loc 1 131 0 discriminator 14
 167 0096 B3F5007F 		cmp	r3, #512
 168 009a 1ED0     		beq	.L6
 169              		.loc 1 131 0 discriminator 15
 170 009c B3F5407F 		cmp	r3, #768
 171 00a0 1BD0     		beq	.L6
 172              		.loc 1 131 0 discriminator 16
 173 00a2 B3F5806F 		cmp	r3, #1024
 174 00a6 18D0     		beq	.L6
 175              		.loc 1 131 0 discriminator 17
 176 00a8 B3F5A06F 		cmp	r3, #1280
 177 00ac 15D0     		beq	.L6
 178              		.loc 1 131 0 discriminator 18
 179 00ae B3F5C06F 		cmp	r3, #1536
 180 00b2 12D0     		beq	.L6
 181              		.loc 1 131 0 discriminator 19
 182 00b4 B3F5E06F 		cmp	r3, #1792
 183 00b8 0FD0     		beq	.L6
 184              		.loc 1 131 0 discriminator 20
 185 00ba B3F5006F 		cmp	r3, #2048
 186 00be 0CD0     		beq	.L6
 187              		.loc 1 131 0 discriminator 21
 188 00c0 B3F5106F 		cmp	r3, #2304
 189 00c4 09D0     		beq	.L6
 190              		.loc 1 131 0 discriminator 22
 191 00c6 B3F5206F 		cmp	r3, #2560
 192 00ca 06D0     		beq	.L6
 193              		.loc 1 131 0 discriminator 23
 194 00cc B3F5306F 		cmp	r3, #2816
 195 00d0 03D0     		beq	.L6
 196              		.loc 1 131 0 discriminator 24
 197 00d2 8321     		movs	r1, #131
 198 00d4 0E48     		ldr	r0, .L9
 199 00d6 FFF7FEFF 		bl	assert_failed
 200              	.LVL8:
 201              	.L6:
 132:STM32F10x_StdPeriph_Driver/src/stm32f10x_dac.c ****   assert_param(IS_DAC_OUTPUT_BUFFER_STATE(DAC_InitStruct->DAC_OutputBuffer));
 202              		.loc 1 132 0 is_stmt 1
 203 00da E368     		ldr	r3, [r4, #12]
 204 00dc 2BB1     		cbz	r3, .L7
 205              		.loc 1 132 0 is_stmt 0 discriminator 1
 206 00de 022B     		cmp	r3, #2
 207 00e0 03D0     		beq	.L7
 208              		.loc 1 132 0 discriminator 2
 209 00e2 8421     		movs	r1, #132
 210 00e4 0A48     		ldr	r0, .L9
 211 00e6 FFF7FEFF 		bl	assert_failed
 212              	.LVL9:
 213              	.L7:
ARM GAS  /var/folders/g9/bbpj86ld7fx45vd1b3pqxmp00000gn/T//ccJXAINd.s 			page 7


 133:STM32F10x_StdPeriph_Driver/src/stm32f10x_dac.c **** /*---------------------------- DAC CR Configuration --------------------------*/
 134:STM32F10x_StdPeriph_Driver/src/stm32f10x_dac.c ****   /* Get the DAC CR value */
 135:STM32F10x_StdPeriph_Driver/src/stm32f10x_dac.c ****   tmpreg1 = DAC->CR;
 214              		.loc 1 135 0 is_stmt 1
 215 00ea 0A49     		ldr	r1, .L9+4
 216 00ec 0B68     		ldr	r3, [r1]
 217              	.LVL10:
 136:STM32F10x_StdPeriph_Driver/src/stm32f10x_dac.c ****   /* Clear BOFFx, TENx, TSELx, WAVEx and MAMPx bits */
 137:STM32F10x_StdPeriph_Driver/src/stm32f10x_dac.c ****   tmpreg1 &= ~(CR_CLEAR_Mask << DAC_Channel);
 218              		.loc 1 137 0
 219 00ee 40F6FE70 		movw	r0, #4094
 220 00f2 A840     		lsls	r0, r0, r5
 221 00f4 23EA0002 		bic	r2, r3, r0
 222              	.LVL11:
 138:STM32F10x_StdPeriph_Driver/src/stm32f10x_dac.c ****   /* Configure for the selected DAC channel: buffer output, trigger, wave genration,
 139:STM32F10x_StdPeriph_Driver/src/stm32f10x_dac.c ****      mask/amplitude for wave genration */
 140:STM32F10x_StdPeriph_Driver/src/stm32f10x_dac.c ****   /* Set TSELx and TENx bits according to DAC_Trigger value */
 141:STM32F10x_StdPeriph_Driver/src/stm32f10x_dac.c ****   /* Set WAVEx bits according to DAC_WaveGeneration value */
 142:STM32F10x_StdPeriph_Driver/src/stm32f10x_dac.c ****   /* Set MAMPx bits according to DAC_LFSRUnmask_TriangleAmplitude value */ 
 143:STM32F10x_StdPeriph_Driver/src/stm32f10x_dac.c ****   /* Set BOFFx bit according to DAC_OutputBuffer value */   
 144:STM32F10x_StdPeriph_Driver/src/stm32f10x_dac.c ****   tmpreg2 = (DAC_InitStruct->DAC_Trigger | DAC_InitStruct->DAC_WaveGeneration |
 223              		.loc 1 144 0
 224 00f8 2068     		ldr	r0, [r4]
 225 00fa 6368     		ldr	r3, [r4, #4]
 226 00fc 1843     		orrs	r0, r0, r3
 145:STM32F10x_StdPeriph_Driver/src/stm32f10x_dac.c ****              DAC_InitStruct->DAC_LFSRUnmask_TriangleAmplitude | DAC_InitStruct->DAC_OutputBuffer);
 227              		.loc 1 145 0
 228 00fe A368     		ldr	r3, [r4, #8]
 144:STM32F10x_StdPeriph_Driver/src/stm32f10x_dac.c ****              DAC_InitStruct->DAC_LFSRUnmask_TriangleAmplitude | DAC_InitStruct->DAC_OutputBuffer);
 229              		.loc 1 144 0
 230 0100 1843     		orrs	r0, r0, r3
 231              		.loc 1 145 0
 232 0102 E368     		ldr	r3, [r4, #12]
 144:STM32F10x_StdPeriph_Driver/src/stm32f10x_dac.c ****              DAC_InitStruct->DAC_LFSRUnmask_TriangleAmplitude | DAC_InitStruct->DAC_OutputBuffer);
 233              		.loc 1 144 0
 234 0104 1843     		orrs	r0, r0, r3
 235              	.LVL12:
 146:STM32F10x_StdPeriph_Driver/src/stm32f10x_dac.c ****   /* Calculate CR register value depending on DAC_Channel */
 147:STM32F10x_StdPeriph_Driver/src/stm32f10x_dac.c ****   tmpreg1 |= tmpreg2 << DAC_Channel;
 236              		.loc 1 147 0
 237 0106 A840     		lsls	r0, r0, r5
 238              	.LVL13:
 239 0108 1043     		orrs	r0, r0, r2
 240              	.LVL14:
 148:STM32F10x_StdPeriph_Driver/src/stm32f10x_dac.c ****   /* Write to DAC CR */
 149:STM32F10x_StdPeriph_Driver/src/stm32f10x_dac.c ****   DAC->CR = tmpreg1;
 241              		.loc 1 149 0
 242 010a 0860     		str	r0, [r1]
 243              	.LVL15:
 244 010c 38BD     		pop	{r3, r4, r5, pc}
 245              	.LVL16:
 246              	.L10:
 247 010e 00BF     		.align	2
 248              	.L9:
 249 0110 00000000 		.word	.LC0
 250 0114 00740040 		.word	1073771520
 251              		.cfi_endproc
ARM GAS  /var/folders/g9/bbpj86ld7fx45vd1b3pqxmp00000gn/T//ccJXAINd.s 			page 8


 252              	.LFE28:
 254              		.section	.text.DAC_StructInit,"ax",%progbits
 255              		.align	2
 256              		.global	DAC_StructInit
 257              		.thumb
 258              		.thumb_func
 260              	DAC_StructInit:
 261              	.LFB29:
 150:STM32F10x_StdPeriph_Driver/src/stm32f10x_dac.c **** }
 151:STM32F10x_StdPeriph_Driver/src/stm32f10x_dac.c **** 
 152:STM32F10x_StdPeriph_Driver/src/stm32f10x_dac.c **** /**
 153:STM32F10x_StdPeriph_Driver/src/stm32f10x_dac.c ****   * @brief  Fills each DAC_InitStruct member with its default value.
 154:STM32F10x_StdPeriph_Driver/src/stm32f10x_dac.c ****   * @param  DAC_InitStruct : pointer to a DAC_InitTypeDef structure which will
 155:STM32F10x_StdPeriph_Driver/src/stm32f10x_dac.c ****   *   be initialized.
 156:STM32F10x_StdPeriph_Driver/src/stm32f10x_dac.c ****   * @retval None
 157:STM32F10x_StdPeriph_Driver/src/stm32f10x_dac.c ****   */
 158:STM32F10x_StdPeriph_Driver/src/stm32f10x_dac.c **** void DAC_StructInit(DAC_InitTypeDef* DAC_InitStruct)
 159:STM32F10x_StdPeriph_Driver/src/stm32f10x_dac.c **** {
 262              		.loc 1 159 0
 263              		.cfi_startproc
 264              		@ args = 0, pretend = 0, frame = 0
 265              		@ frame_needed = 0, uses_anonymous_args = 0
 266              		@ link register save eliminated.
 267              	.LVL17:
 160:STM32F10x_StdPeriph_Driver/src/stm32f10x_dac.c **** /*--------------- Reset DAC init structure parameters values -----------------*/
 161:STM32F10x_StdPeriph_Driver/src/stm32f10x_dac.c ****   /* Initialize the DAC_Trigger member */
 162:STM32F10x_StdPeriph_Driver/src/stm32f10x_dac.c ****   DAC_InitStruct->DAC_Trigger = DAC_Trigger_None;
 268              		.loc 1 162 0
 269 0000 0023     		movs	r3, #0
 270 0002 0360     		str	r3, [r0]
 163:STM32F10x_StdPeriph_Driver/src/stm32f10x_dac.c ****   /* Initialize the DAC_WaveGeneration member */
 164:STM32F10x_StdPeriph_Driver/src/stm32f10x_dac.c ****   DAC_InitStruct->DAC_WaveGeneration = DAC_WaveGeneration_None;
 271              		.loc 1 164 0
 272 0004 4360     		str	r3, [r0, #4]
 165:STM32F10x_StdPeriph_Driver/src/stm32f10x_dac.c ****   /* Initialize the DAC_LFSRUnmask_TriangleAmplitude member */
 166:STM32F10x_StdPeriph_Driver/src/stm32f10x_dac.c ****   DAC_InitStruct->DAC_LFSRUnmask_TriangleAmplitude = DAC_LFSRUnmask_Bit0;
 273              		.loc 1 166 0
 274 0006 8360     		str	r3, [r0, #8]
 167:STM32F10x_StdPeriph_Driver/src/stm32f10x_dac.c ****   /* Initialize the DAC_OutputBuffer member */
 168:STM32F10x_StdPeriph_Driver/src/stm32f10x_dac.c ****   DAC_InitStruct->DAC_OutputBuffer = DAC_OutputBuffer_Enable;
 275              		.loc 1 168 0
 276 0008 C360     		str	r3, [r0, #12]
 277 000a 7047     		bx	lr
 278              		.cfi_endproc
 279              	.LFE29:
 281              		.section	.text.DAC_Cmd,"ax",%progbits
 282              		.align	2
 283              		.global	DAC_Cmd
 284              		.thumb
 285              		.thumb_func
 287              	DAC_Cmd:
 288              	.LFB30:
 169:STM32F10x_StdPeriph_Driver/src/stm32f10x_dac.c **** }
 170:STM32F10x_StdPeriph_Driver/src/stm32f10x_dac.c **** 
 171:STM32F10x_StdPeriph_Driver/src/stm32f10x_dac.c **** /**
 172:STM32F10x_StdPeriph_Driver/src/stm32f10x_dac.c ****   * @brief  Enables or disables the specified DAC channel.
 173:STM32F10x_StdPeriph_Driver/src/stm32f10x_dac.c ****   * @param  DAC_Channel: the selected DAC channel. 
ARM GAS  /var/folders/g9/bbpj86ld7fx45vd1b3pqxmp00000gn/T//ccJXAINd.s 			page 9


 174:STM32F10x_StdPeriph_Driver/src/stm32f10x_dac.c ****   *   This parameter can be one of the following values:
 175:STM32F10x_StdPeriph_Driver/src/stm32f10x_dac.c ****   *     @arg DAC_Channel_1: DAC Channel1 selected
 176:STM32F10x_StdPeriph_Driver/src/stm32f10x_dac.c ****   *     @arg DAC_Channel_2: DAC Channel2 selected
 177:STM32F10x_StdPeriph_Driver/src/stm32f10x_dac.c ****   * @param  NewState: new state of the DAC channel. 
 178:STM32F10x_StdPeriph_Driver/src/stm32f10x_dac.c ****   *   This parameter can be: ENABLE or DISABLE.
 179:STM32F10x_StdPeriph_Driver/src/stm32f10x_dac.c ****   * @retval None
 180:STM32F10x_StdPeriph_Driver/src/stm32f10x_dac.c ****   */
 181:STM32F10x_StdPeriph_Driver/src/stm32f10x_dac.c **** void DAC_Cmd(uint32_t DAC_Channel, FunctionalState NewState)
 182:STM32F10x_StdPeriph_Driver/src/stm32f10x_dac.c **** {
 289              		.loc 1 182 0
 290              		.cfi_startproc
 291              		@ args = 0, pretend = 0, frame = 0
 292              		@ frame_needed = 0, uses_anonymous_args = 0
 293              	.LVL18:
 294 0000 38B5     		push	{r3, r4, r5, lr}
 295              	.LCFI2:
 296              		.cfi_def_cfa_offset 16
 297              		.cfi_offset 3, -16
 298              		.cfi_offset 4, -12
 299              		.cfi_offset 5, -8
 300              		.cfi_offset 14, -4
 301 0002 0C46     		mov	r4, r1
 183:STM32F10x_StdPeriph_Driver/src/stm32f10x_dac.c ****   /* Check the parameters */
 184:STM32F10x_StdPeriph_Driver/src/stm32f10x_dac.c ****   assert_param(IS_DAC_CHANNEL(DAC_Channel));
 302              		.loc 1 184 0
 303 0004 0546     		mov	r5, r0
 304 0006 28B1     		cbz	r0, .L13
 305              		.loc 1 184 0 is_stmt 0 discriminator 1
 306 0008 1028     		cmp	r0, #16
 307 000a 03D0     		beq	.L13
 308              		.loc 1 184 0 discriminator 2
 309 000c B821     		movs	r1, #184
 310              	.LVL19:
 311 000e 0D48     		ldr	r0, .L18
 312              	.LVL20:
 313 0010 FFF7FEFF 		bl	assert_failed
 314              	.LVL21:
 315              	.L13:
 185:STM32F10x_StdPeriph_Driver/src/stm32f10x_dac.c ****   assert_param(IS_FUNCTIONAL_STATE(NewState));
 316              		.loc 1 185 0 is_stmt 1
 317 0014 012C     		cmp	r4, #1
 318 0016 03D9     		bls	.L14
 319              		.loc 1 185 0 is_stmt 0 discriminator 1
 320 0018 B921     		movs	r1, #185
 321 001a 0A48     		ldr	r0, .L18
 322 001c FFF7FEFF 		bl	assert_failed
 323              	.LVL22:
 324              	.L14:
 186:STM32F10x_StdPeriph_Driver/src/stm32f10x_dac.c ****   if (NewState != DISABLE)
 325              		.loc 1 186 0 is_stmt 1
 326 0020 3CB1     		cbz	r4, .L15
 187:STM32F10x_StdPeriph_Driver/src/stm32f10x_dac.c ****   {
 188:STM32F10x_StdPeriph_Driver/src/stm32f10x_dac.c ****     /* Enable the selected DAC channel */
 189:STM32F10x_StdPeriph_Driver/src/stm32f10x_dac.c ****     DAC->CR |= CR_EN_Set << DAC_Channel;
 327              		.loc 1 189 0
 328 0022 094A     		ldr	r2, .L18+4
 329 0024 1168     		ldr	r1, [r2]
ARM GAS  /var/folders/g9/bbpj86ld7fx45vd1b3pqxmp00000gn/T//ccJXAINd.s 			page 10


 330 0026 0123     		movs	r3, #1
 331 0028 03FA05F5 		lsl	r5, r3, r5
 332              	.LVL23:
 333 002c 0D43     		orrs	r5, r5, r1
 334 002e 1560     		str	r5, [r2]
 335 0030 38BD     		pop	{r3, r4, r5, pc}
 336              	.LVL24:
 337              	.L15:
 190:STM32F10x_StdPeriph_Driver/src/stm32f10x_dac.c ****   }
 191:STM32F10x_StdPeriph_Driver/src/stm32f10x_dac.c ****   else
 192:STM32F10x_StdPeriph_Driver/src/stm32f10x_dac.c ****   {
 193:STM32F10x_StdPeriph_Driver/src/stm32f10x_dac.c ****     /* Disable the selected DAC channel */
 194:STM32F10x_StdPeriph_Driver/src/stm32f10x_dac.c ****     DAC->CR &= ~(CR_EN_Set << DAC_Channel);
 338              		.loc 1 194 0
 339 0032 0549     		ldr	r1, .L18+4
 340 0034 0B68     		ldr	r3, [r1]
 341 0036 0122     		movs	r2, #1
 342 0038 02FA05F5 		lsl	r5, r2, r5
 343              	.LVL25:
 344 003c 23EA0505 		bic	r5, r3, r5
 345 0040 0D60     		str	r5, [r1]
 346 0042 38BD     		pop	{r3, r4, r5, pc}
 347              	.L19:
 348              		.align	2
 349              	.L18:
 350 0044 00000000 		.word	.LC0
 351 0048 00740040 		.word	1073771520
 352              		.cfi_endproc
 353              	.LFE30:
 355              		.section	.text.DAC_DMACmd,"ax",%progbits
 356              		.align	2
 357              		.global	DAC_DMACmd
 358              		.thumb
 359              		.thumb_func
 361              	DAC_DMACmd:
 362              	.LFB31:
 195:STM32F10x_StdPeriph_Driver/src/stm32f10x_dac.c ****   }
 196:STM32F10x_StdPeriph_Driver/src/stm32f10x_dac.c **** }
 197:STM32F10x_StdPeriph_Driver/src/stm32f10x_dac.c **** 
 198:STM32F10x_StdPeriph_Driver/src/stm32f10x_dac.c **** /**
 199:STM32F10x_StdPeriph_Driver/src/stm32f10x_dac.c ****   * @brief  Enables or disables the specified DAC channel DMA request.
 200:STM32F10x_StdPeriph_Driver/src/stm32f10x_dac.c ****   * @param  DAC_Channel: the selected DAC channel. 
 201:STM32F10x_StdPeriph_Driver/src/stm32f10x_dac.c ****   *   This parameter can be one of the following values:
 202:STM32F10x_StdPeriph_Driver/src/stm32f10x_dac.c ****   *     @arg DAC_Channel_1: DAC Channel1 selected
 203:STM32F10x_StdPeriph_Driver/src/stm32f10x_dac.c ****   *     @arg DAC_Channel_2: DAC Channel2 selected
 204:STM32F10x_StdPeriph_Driver/src/stm32f10x_dac.c ****   * @param  NewState: new state of the selected DAC channel DMA request.
 205:STM32F10x_StdPeriph_Driver/src/stm32f10x_dac.c ****   *   This parameter can be: ENABLE or DISABLE.
 206:STM32F10x_StdPeriph_Driver/src/stm32f10x_dac.c ****   * @retval None
 207:STM32F10x_StdPeriph_Driver/src/stm32f10x_dac.c ****   */
 208:STM32F10x_StdPeriph_Driver/src/stm32f10x_dac.c **** void DAC_DMACmd(uint32_t DAC_Channel, FunctionalState NewState)
 209:STM32F10x_StdPeriph_Driver/src/stm32f10x_dac.c **** {
 363              		.loc 1 209 0
 364              		.cfi_startproc
 365              		@ args = 0, pretend = 0, frame = 0
 366              		@ frame_needed = 0, uses_anonymous_args = 0
 367              	.LVL26:
 368 0000 38B5     		push	{r3, r4, r5, lr}
ARM GAS  /var/folders/g9/bbpj86ld7fx45vd1b3pqxmp00000gn/T//ccJXAINd.s 			page 11


 369              	.LCFI3:
 370              		.cfi_def_cfa_offset 16
 371              		.cfi_offset 3, -16
 372              		.cfi_offset 4, -12
 373              		.cfi_offset 5, -8
 374              		.cfi_offset 14, -4
 375 0002 0C46     		mov	r4, r1
 210:STM32F10x_StdPeriph_Driver/src/stm32f10x_dac.c ****   /* Check the parameters */
 211:STM32F10x_StdPeriph_Driver/src/stm32f10x_dac.c ****   assert_param(IS_DAC_CHANNEL(DAC_Channel));
 376              		.loc 1 211 0
 377 0004 0546     		mov	r5, r0
 378 0006 28B1     		cbz	r0, .L21
 379              		.loc 1 211 0 is_stmt 0 discriminator 1
 380 0008 1028     		cmp	r0, #16
 381 000a 03D0     		beq	.L21
 382              		.loc 1 211 0 discriminator 2
 383 000c D321     		movs	r1, #211
 384              	.LVL27:
 385 000e 0E48     		ldr	r0, .L26
 386              	.LVL28:
 387 0010 FFF7FEFF 		bl	assert_failed
 388              	.LVL29:
 389              	.L21:
 212:STM32F10x_StdPeriph_Driver/src/stm32f10x_dac.c ****   assert_param(IS_FUNCTIONAL_STATE(NewState));
 390              		.loc 1 212 0 is_stmt 1
 391 0014 012C     		cmp	r4, #1
 392 0016 03D9     		bls	.L22
 393              		.loc 1 212 0 is_stmt 0 discriminator 1
 394 0018 D421     		movs	r1, #212
 395 001a 0B48     		ldr	r0, .L26
 396 001c FFF7FEFF 		bl	assert_failed
 397              	.LVL30:
 398              	.L22:
 213:STM32F10x_StdPeriph_Driver/src/stm32f10x_dac.c ****   if (NewState != DISABLE)
 399              		.loc 1 213 0 is_stmt 1
 400 0020 44B1     		cbz	r4, .L23
 214:STM32F10x_StdPeriph_Driver/src/stm32f10x_dac.c ****   {
 215:STM32F10x_StdPeriph_Driver/src/stm32f10x_dac.c ****     /* Enable the selected DAC channel DMA request */
 216:STM32F10x_StdPeriph_Driver/src/stm32f10x_dac.c ****     DAC->CR |= CR_DMAEN_Set << DAC_Channel;
 401              		.loc 1 216 0
 402 0022 0A4A     		ldr	r2, .L26+4
 403 0024 1168     		ldr	r1, [r2]
 404 0026 4FF48053 		mov	r3, #4096
 405 002a 03FA05F5 		lsl	r5, r3, r5
 406              	.LVL31:
 407 002e 0D43     		orrs	r5, r5, r1
 408 0030 1560     		str	r5, [r2]
 409 0032 38BD     		pop	{r3, r4, r5, pc}
 410              	.LVL32:
 411              	.L23:
 217:STM32F10x_StdPeriph_Driver/src/stm32f10x_dac.c ****   }
 218:STM32F10x_StdPeriph_Driver/src/stm32f10x_dac.c ****   else
 219:STM32F10x_StdPeriph_Driver/src/stm32f10x_dac.c ****   {
 220:STM32F10x_StdPeriph_Driver/src/stm32f10x_dac.c ****     /* Disable the selected DAC channel DMA request */
 221:STM32F10x_StdPeriph_Driver/src/stm32f10x_dac.c ****     DAC->CR &= ~(CR_DMAEN_Set << DAC_Channel);
 412              		.loc 1 221 0
 413 0034 0549     		ldr	r1, .L26+4
ARM GAS  /var/folders/g9/bbpj86ld7fx45vd1b3pqxmp00000gn/T//ccJXAINd.s 			page 12


 414 0036 0B68     		ldr	r3, [r1]
 415 0038 4FF48052 		mov	r2, #4096
 416 003c 02FA05F5 		lsl	r5, r2, r5
 417              	.LVL33:
 418 0040 23EA0505 		bic	r5, r3, r5
 419 0044 0D60     		str	r5, [r1]
 420 0046 38BD     		pop	{r3, r4, r5, pc}
 421              	.L27:
 422              		.align	2
 423              	.L26:
 424 0048 00000000 		.word	.LC0
 425 004c 00740040 		.word	1073771520
 426              		.cfi_endproc
 427              	.LFE31:
 429              		.section	.text.DAC_SoftwareTriggerCmd,"ax",%progbits
 430              		.align	2
 431              		.global	DAC_SoftwareTriggerCmd
 432              		.thumb
 433              		.thumb_func
 435              	DAC_SoftwareTriggerCmd:
 436              	.LFB32:
 222:STM32F10x_StdPeriph_Driver/src/stm32f10x_dac.c ****   }
 223:STM32F10x_StdPeriph_Driver/src/stm32f10x_dac.c **** }
 224:STM32F10x_StdPeriph_Driver/src/stm32f10x_dac.c **** 
 225:STM32F10x_StdPeriph_Driver/src/stm32f10x_dac.c **** /**
 226:STM32F10x_StdPeriph_Driver/src/stm32f10x_dac.c ****   * @brief  Enables or disables the selected DAC channel software trigger.
 227:STM32F10x_StdPeriph_Driver/src/stm32f10x_dac.c ****   * @param  DAC_Channel: the selected DAC channel. 
 228:STM32F10x_StdPeriph_Driver/src/stm32f10x_dac.c ****   *   This parameter can be one of the following values:
 229:STM32F10x_StdPeriph_Driver/src/stm32f10x_dac.c ****   *     @arg DAC_Channel_1: DAC Channel1 selected
 230:STM32F10x_StdPeriph_Driver/src/stm32f10x_dac.c ****   *     @arg DAC_Channel_2: DAC Channel2 selected
 231:STM32F10x_StdPeriph_Driver/src/stm32f10x_dac.c ****   * @param  NewState: new state of the selected DAC channel software trigger.
 232:STM32F10x_StdPeriph_Driver/src/stm32f10x_dac.c ****   *   This parameter can be: ENABLE or DISABLE.
 233:STM32F10x_StdPeriph_Driver/src/stm32f10x_dac.c ****   * @retval None
 234:STM32F10x_StdPeriph_Driver/src/stm32f10x_dac.c ****   */
 235:STM32F10x_StdPeriph_Driver/src/stm32f10x_dac.c **** void DAC_SoftwareTriggerCmd(uint32_t DAC_Channel, FunctionalState NewState)
 236:STM32F10x_StdPeriph_Driver/src/stm32f10x_dac.c **** {
 437              		.loc 1 236 0
 438              		.cfi_startproc
 439              		@ args = 0, pretend = 0, frame = 0
 440              		@ frame_needed = 0, uses_anonymous_args = 0
 441              	.LVL34:
 442 0000 38B5     		push	{r3, r4, r5, lr}
 443              	.LCFI4:
 444              		.cfi_def_cfa_offset 16
 445              		.cfi_offset 3, -16
 446              		.cfi_offset 4, -12
 447              		.cfi_offset 5, -8
 448              		.cfi_offset 14, -4
 449 0002 0D46     		mov	r5, r1
 237:STM32F10x_StdPeriph_Driver/src/stm32f10x_dac.c ****   /* Check the parameters */
 238:STM32F10x_StdPeriph_Driver/src/stm32f10x_dac.c ****   assert_param(IS_DAC_CHANNEL(DAC_Channel));
 450              		.loc 1 238 0
 451 0004 0446     		mov	r4, r0
 452 0006 28B1     		cbz	r0, .L29
 453              		.loc 1 238 0 is_stmt 0 discriminator 1
 454 0008 1028     		cmp	r0, #16
 455 000a 03D0     		beq	.L29
ARM GAS  /var/folders/g9/bbpj86ld7fx45vd1b3pqxmp00000gn/T//ccJXAINd.s 			page 13


 456              		.loc 1 238 0 discriminator 2
 457 000c EE21     		movs	r1, #238
 458              	.LVL35:
 459 000e 0E48     		ldr	r0, .L34
 460              	.LVL36:
 461 0010 FFF7FEFF 		bl	assert_failed
 462              	.LVL37:
 463              	.L29:
 239:STM32F10x_StdPeriph_Driver/src/stm32f10x_dac.c ****   assert_param(IS_FUNCTIONAL_STATE(NewState));
 464              		.loc 1 239 0 is_stmt 1
 465 0014 012D     		cmp	r5, #1
 466 0016 03D9     		bls	.L30
 467              		.loc 1 239 0 is_stmt 0 discriminator 1
 468 0018 EF21     		movs	r1, #239
 469 001a 0B48     		ldr	r0, .L34
 470 001c FFF7FEFF 		bl	assert_failed
 471              	.LVL38:
 472              	.L30:
 240:STM32F10x_StdPeriph_Driver/src/stm32f10x_dac.c ****   if (NewState != DISABLE)
 473              		.loc 1 240 0 is_stmt 1
 474 0020 45B1     		cbz	r5, .L31
 241:STM32F10x_StdPeriph_Driver/src/stm32f10x_dac.c ****   {
 242:STM32F10x_StdPeriph_Driver/src/stm32f10x_dac.c ****     /* Enable software trigger for the selected DAC channel */
 243:STM32F10x_StdPeriph_Driver/src/stm32f10x_dac.c ****     DAC->SWTRIGR |= SWTRIGR_SWTRIG_Set << (DAC_Channel >> 4);
 475              		.loc 1 243 0
 476 0022 0A4A     		ldr	r2, .L34+4
 477 0024 5168     		ldr	r1, [r2, #4]
 478 0026 2409     		lsrs	r4, r4, #4
 479              	.LVL39:
 480 0028 0123     		movs	r3, #1
 481 002a 03FA04F4 		lsl	r4, r3, r4
 482 002e 0C43     		orrs	r4, r4, r1
 483 0030 5460     		str	r4, [r2, #4]
 484 0032 38BD     		pop	{r3, r4, r5, pc}
 485              	.LVL40:
 486              	.L31:
 244:STM32F10x_StdPeriph_Driver/src/stm32f10x_dac.c ****   }
 245:STM32F10x_StdPeriph_Driver/src/stm32f10x_dac.c ****   else
 246:STM32F10x_StdPeriph_Driver/src/stm32f10x_dac.c ****   {
 247:STM32F10x_StdPeriph_Driver/src/stm32f10x_dac.c ****     /* Disable software trigger for the selected DAC channel */
 248:STM32F10x_StdPeriph_Driver/src/stm32f10x_dac.c ****     DAC->SWTRIGR &= ~(SWTRIGR_SWTRIG_Set << (DAC_Channel >> 4));
 487              		.loc 1 248 0
 488 0034 0549     		ldr	r1, .L34+4
 489 0036 4B68     		ldr	r3, [r1, #4]
 490 0038 2409     		lsrs	r4, r4, #4
 491              	.LVL41:
 492 003a 0122     		movs	r2, #1
 493 003c 02FA04F4 		lsl	r4, r2, r4
 494 0040 23EA0404 		bic	r4, r3, r4
 495 0044 4C60     		str	r4, [r1, #4]
 496 0046 38BD     		pop	{r3, r4, r5, pc}
 497              	.L35:
 498              		.align	2
 499              	.L34:
 500 0048 00000000 		.word	.LC0
 501 004c 00740040 		.word	1073771520
 502              		.cfi_endproc
ARM GAS  /var/folders/g9/bbpj86ld7fx45vd1b3pqxmp00000gn/T//ccJXAINd.s 			page 14


 503              	.LFE32:
 505              		.section	.text.DAC_DualSoftwareTriggerCmd,"ax",%progbits
 506              		.align	2
 507              		.global	DAC_DualSoftwareTriggerCmd
 508              		.thumb
 509              		.thumb_func
 511              	DAC_DualSoftwareTriggerCmd:
 512              	.LFB33:
 249:STM32F10x_StdPeriph_Driver/src/stm32f10x_dac.c ****   }
 250:STM32F10x_StdPeriph_Driver/src/stm32f10x_dac.c **** }
 251:STM32F10x_StdPeriph_Driver/src/stm32f10x_dac.c **** 
 252:STM32F10x_StdPeriph_Driver/src/stm32f10x_dac.c **** /**
 253:STM32F10x_StdPeriph_Driver/src/stm32f10x_dac.c ****   * @brief  Enables or disables simultaneously the two DAC channels software
 254:STM32F10x_StdPeriph_Driver/src/stm32f10x_dac.c ****   *   triggers.
 255:STM32F10x_StdPeriph_Driver/src/stm32f10x_dac.c ****   * @param  NewState: new state of the DAC channels software triggers.
 256:STM32F10x_StdPeriph_Driver/src/stm32f10x_dac.c ****   *   This parameter can be: ENABLE or DISABLE.
 257:STM32F10x_StdPeriph_Driver/src/stm32f10x_dac.c ****   * @retval None
 258:STM32F10x_StdPeriph_Driver/src/stm32f10x_dac.c ****   */
 259:STM32F10x_StdPeriph_Driver/src/stm32f10x_dac.c **** void DAC_DualSoftwareTriggerCmd(FunctionalState NewState)
 260:STM32F10x_StdPeriph_Driver/src/stm32f10x_dac.c **** {
 513              		.loc 1 260 0
 514              		.cfi_startproc
 515              		@ args = 0, pretend = 0, frame = 0
 516              		@ frame_needed = 0, uses_anonymous_args = 0
 517              	.LVL42:
 518 0000 10B5     		push	{r4, lr}
 519              	.LCFI5:
 520              		.cfi_def_cfa_offset 8
 521              		.cfi_offset 4, -8
 522              		.cfi_offset 14, -4
 523 0002 0446     		mov	r4, r0
 261:STM32F10x_StdPeriph_Driver/src/stm32f10x_dac.c ****   /* Check the parameters */
 262:STM32F10x_StdPeriph_Driver/src/stm32f10x_dac.c ****   assert_param(IS_FUNCTIONAL_STATE(NewState));
 524              		.loc 1 262 0
 525 0004 0128     		cmp	r0, #1
 526 0006 04D9     		bls	.L37
 527              		.loc 1 262 0 is_stmt 0 discriminator 1
 528 0008 4FF48371 		mov	r1, #262
 529 000c 0748     		ldr	r0, .L41
 530              	.LVL43:
 531 000e FFF7FEFF 		bl	assert_failed
 532              	.LVL44:
 533              	.L37:
 263:STM32F10x_StdPeriph_Driver/src/stm32f10x_dac.c ****   if (NewState != DISABLE)
 534              		.loc 1 263 0 is_stmt 1
 535 0012 2CB1     		cbz	r4, .L38
 264:STM32F10x_StdPeriph_Driver/src/stm32f10x_dac.c ****   {
 265:STM32F10x_StdPeriph_Driver/src/stm32f10x_dac.c ****     /* Enable software trigger for both DAC channels */
 266:STM32F10x_StdPeriph_Driver/src/stm32f10x_dac.c ****     DAC->SWTRIGR |= DUAL_SWTRIG_Set ;
 536              		.loc 1 266 0
 537 0014 064A     		ldr	r2, .L41+4
 538 0016 5368     		ldr	r3, [r2, #4]
 539 0018 43F00303 		orr	r3, r3, #3
 540 001c 5360     		str	r3, [r2, #4]
 541 001e 10BD     		pop	{r4, pc}
 542              	.L38:
 267:STM32F10x_StdPeriph_Driver/src/stm32f10x_dac.c ****   }
ARM GAS  /var/folders/g9/bbpj86ld7fx45vd1b3pqxmp00000gn/T//ccJXAINd.s 			page 15


 268:STM32F10x_StdPeriph_Driver/src/stm32f10x_dac.c ****   else
 269:STM32F10x_StdPeriph_Driver/src/stm32f10x_dac.c ****   {
 270:STM32F10x_StdPeriph_Driver/src/stm32f10x_dac.c ****     /* Disable software trigger for both DAC channels */
 271:STM32F10x_StdPeriph_Driver/src/stm32f10x_dac.c ****     DAC->SWTRIGR &= DUAL_SWTRIG_Reset;
 543              		.loc 1 271 0
 544 0020 034A     		ldr	r2, .L41+4
 545 0022 5368     		ldr	r3, [r2, #4]
 546 0024 23F00303 		bic	r3, r3, #3
 547 0028 5360     		str	r3, [r2, #4]
 548 002a 10BD     		pop	{r4, pc}
 549              	.L42:
 550              		.align	2
 551              	.L41:
 552 002c 00000000 		.word	.LC0
 553 0030 00740040 		.word	1073771520
 554              		.cfi_endproc
 555              	.LFE33:
 557              		.section	.text.DAC_WaveGenerationCmd,"ax",%progbits
 558              		.align	2
 559              		.global	DAC_WaveGenerationCmd
 560              		.thumb
 561              		.thumb_func
 563              	DAC_WaveGenerationCmd:
 564              	.LFB34:
 272:STM32F10x_StdPeriph_Driver/src/stm32f10x_dac.c ****   }
 273:STM32F10x_StdPeriph_Driver/src/stm32f10x_dac.c **** }
 274:STM32F10x_StdPeriph_Driver/src/stm32f10x_dac.c **** 
 275:STM32F10x_StdPeriph_Driver/src/stm32f10x_dac.c **** /**
 276:STM32F10x_StdPeriph_Driver/src/stm32f10x_dac.c ****   * @brief  Enables or disables the selected DAC channel wave generation.
 277:STM32F10x_StdPeriph_Driver/src/stm32f10x_dac.c ****   * @param  DAC_Channel: the selected DAC channel. 
 278:STM32F10x_StdPeriph_Driver/src/stm32f10x_dac.c ****   *   This parameter can be one of the following values:
 279:STM32F10x_StdPeriph_Driver/src/stm32f10x_dac.c ****   *     @arg DAC_Channel_1: DAC Channel1 selected
 280:STM32F10x_StdPeriph_Driver/src/stm32f10x_dac.c ****   *     @arg DAC_Channel_2: DAC Channel2 selected
 281:STM32F10x_StdPeriph_Driver/src/stm32f10x_dac.c ****   * @param  DAC_Wave: Specifies the wave type to enable or disable.
 282:STM32F10x_StdPeriph_Driver/src/stm32f10x_dac.c ****   *   This parameter can be one of the following values:
 283:STM32F10x_StdPeriph_Driver/src/stm32f10x_dac.c ****   *     @arg DAC_Wave_Noise: noise wave generation
 284:STM32F10x_StdPeriph_Driver/src/stm32f10x_dac.c ****   *     @arg DAC_Wave_Triangle: triangle wave generation
 285:STM32F10x_StdPeriph_Driver/src/stm32f10x_dac.c ****   * @param  NewState: new state of the selected DAC channel wave generation.
 286:STM32F10x_StdPeriph_Driver/src/stm32f10x_dac.c ****   *   This parameter can be: ENABLE or DISABLE.
 287:STM32F10x_StdPeriph_Driver/src/stm32f10x_dac.c ****   * @retval None
 288:STM32F10x_StdPeriph_Driver/src/stm32f10x_dac.c ****   */
 289:STM32F10x_StdPeriph_Driver/src/stm32f10x_dac.c **** void DAC_WaveGenerationCmd(uint32_t DAC_Channel, uint32_t DAC_Wave, FunctionalState NewState)
 290:STM32F10x_StdPeriph_Driver/src/stm32f10x_dac.c **** {
 565              		.loc 1 290 0
 566              		.cfi_startproc
 567              		@ args = 0, pretend = 0, frame = 0
 568              		@ frame_needed = 0, uses_anonymous_args = 0
 569              	.LVL45:
 570 0000 70B5     		push	{r4, r5, r6, lr}
 571              	.LCFI6:
 572              		.cfi_def_cfa_offset 16
 573              		.cfi_offset 4, -16
 574              		.cfi_offset 5, -12
 575              		.cfi_offset 6, -8
 576              		.cfi_offset 14, -4
 577 0002 0C46     		mov	r4, r1
 578 0004 1546     		mov	r5, r2
ARM GAS  /var/folders/g9/bbpj86ld7fx45vd1b3pqxmp00000gn/T//ccJXAINd.s 			page 16


 291:STM32F10x_StdPeriph_Driver/src/stm32f10x_dac.c ****   /* Check the parameters */
 292:STM32F10x_StdPeriph_Driver/src/stm32f10x_dac.c ****   assert_param(IS_DAC_CHANNEL(DAC_Channel));
 579              		.loc 1 292 0
 580 0006 0646     		mov	r6, r0
 581 0008 30B1     		cbz	r0, .L44
 582              		.loc 1 292 0 is_stmt 0 discriminator 1
 583 000a 1028     		cmp	r0, #16
 584 000c 04D0     		beq	.L44
 585              		.loc 1 292 0 discriminator 2
 586 000e 4FF49271 		mov	r1, #292
 587              	.LVL46:
 588 0012 1048     		ldr	r0, .L50
 589              	.LVL47:
 590 0014 FFF7FEFF 		bl	assert_failed
 591              	.LVL48:
 592              	.L44:
 293:STM32F10x_StdPeriph_Driver/src/stm32f10x_dac.c ****   assert_param(IS_DAC_WAVE(DAC_Wave)); 
 593              		.loc 1 293 0 is_stmt 1
 594 0018 402C     		cmp	r4, #64
 595 001a 06D0     		beq	.L45
 596              		.loc 1 293 0 is_stmt 0 discriminator 1
 597 001c 802C     		cmp	r4, #128
 598 001e 04D0     		beq	.L45
 599              		.loc 1 293 0 discriminator 2
 600 0020 40F22511 		movw	r1, #293
 601 0024 0B48     		ldr	r0, .L50
 602 0026 FFF7FEFF 		bl	assert_failed
 603              	.LVL49:
 604              	.L45:
 294:STM32F10x_StdPeriph_Driver/src/stm32f10x_dac.c ****   assert_param(IS_FUNCTIONAL_STATE(NewState));
 605              		.loc 1 294 0 is_stmt 1
 606 002a 012D     		cmp	r5, #1
 607 002c 04D9     		bls	.L46
 608              		.loc 1 294 0 is_stmt 0 discriminator 1
 609 002e 4FF49371 		mov	r1, #294
 610 0032 0848     		ldr	r0, .L50
 611 0034 FFF7FEFF 		bl	assert_failed
 612              	.LVL50:
 613              	.L46:
 295:STM32F10x_StdPeriph_Driver/src/stm32f10x_dac.c ****   if (NewState != DISABLE)
 614              		.loc 1 295 0 is_stmt 1
 615 0038 2DB1     		cbz	r5, .L47
 296:STM32F10x_StdPeriph_Driver/src/stm32f10x_dac.c ****   {
 297:STM32F10x_StdPeriph_Driver/src/stm32f10x_dac.c ****     /* Enable the selected wave generation for the selected DAC channel */
 298:STM32F10x_StdPeriph_Driver/src/stm32f10x_dac.c ****     DAC->CR |= DAC_Wave << DAC_Channel;
 616              		.loc 1 298 0
 617 003a 074B     		ldr	r3, .L50+4
 618 003c 1A68     		ldr	r2, [r3]
 619 003e B440     		lsls	r4, r4, r6
 620              	.LVL51:
 621 0040 1443     		orrs	r4, r4, r2
 622 0042 1C60     		str	r4, [r3]
 623 0044 70BD     		pop	{r4, r5, r6, pc}
 624              	.LVL52:
 625              	.L47:
 299:STM32F10x_StdPeriph_Driver/src/stm32f10x_dac.c ****   }
 300:STM32F10x_StdPeriph_Driver/src/stm32f10x_dac.c ****   else
ARM GAS  /var/folders/g9/bbpj86ld7fx45vd1b3pqxmp00000gn/T//ccJXAINd.s 			page 17


 301:STM32F10x_StdPeriph_Driver/src/stm32f10x_dac.c ****   {
 302:STM32F10x_StdPeriph_Driver/src/stm32f10x_dac.c ****     /* Disable the selected wave generation for the selected DAC channel */
 303:STM32F10x_StdPeriph_Driver/src/stm32f10x_dac.c ****     DAC->CR &= ~(DAC_Wave << DAC_Channel);
 626              		.loc 1 303 0
 627 0046 044A     		ldr	r2, .L50+4
 628 0048 1368     		ldr	r3, [r2]
 629 004a B440     		lsls	r4, r4, r6
 630              	.LVL53:
 631 004c 23EA0404 		bic	r4, r3, r4
 632 0050 1460     		str	r4, [r2]
 633 0052 70BD     		pop	{r4, r5, r6, pc}
 634              	.LVL54:
 635              	.L51:
 636              		.align	2
 637              	.L50:
 638 0054 00000000 		.word	.LC0
 639 0058 00740040 		.word	1073771520
 640              		.cfi_endproc
 641              	.LFE34:
 643              		.section	.text.DAC_SetChannel1Data,"ax",%progbits
 644              		.align	2
 645              		.global	DAC_SetChannel1Data
 646              		.thumb
 647              		.thumb_func
 649              	DAC_SetChannel1Data:
 650              	.LFB35:
 304:STM32F10x_StdPeriph_Driver/src/stm32f10x_dac.c ****   }
 305:STM32F10x_StdPeriph_Driver/src/stm32f10x_dac.c **** }
 306:STM32F10x_StdPeriph_Driver/src/stm32f10x_dac.c **** 
 307:STM32F10x_StdPeriph_Driver/src/stm32f10x_dac.c **** /**
 308:STM32F10x_StdPeriph_Driver/src/stm32f10x_dac.c ****   * @brief  Set the specified data holding register value for DAC channel1.
 309:STM32F10x_StdPeriph_Driver/src/stm32f10x_dac.c ****   * @param  DAC_Align: Specifies the data alignement for DAC channel1.
 310:STM32F10x_StdPeriph_Driver/src/stm32f10x_dac.c ****   *   This parameter can be one of the following values:
 311:STM32F10x_StdPeriph_Driver/src/stm32f10x_dac.c ****   *     @arg DAC_Align_8b_R: 8bit right data alignement selected
 312:STM32F10x_StdPeriph_Driver/src/stm32f10x_dac.c ****   *     @arg DAC_Align_12b_L: 12bit left data alignement selected
 313:STM32F10x_StdPeriph_Driver/src/stm32f10x_dac.c ****   *     @arg DAC_Align_12b_R: 12bit right data alignement selected
 314:STM32F10x_StdPeriph_Driver/src/stm32f10x_dac.c ****   * @param  Data : Data to be loaded in the selected data holding register.
 315:STM32F10x_StdPeriph_Driver/src/stm32f10x_dac.c ****   * @retval None
 316:STM32F10x_StdPeriph_Driver/src/stm32f10x_dac.c ****   */
 317:STM32F10x_StdPeriph_Driver/src/stm32f10x_dac.c **** void DAC_SetChannel1Data(uint32_t DAC_Align, uint16_t Data)
 318:STM32F10x_StdPeriph_Driver/src/stm32f10x_dac.c **** {  
 651              		.loc 1 318 0
 652              		.cfi_startproc
 653              		@ args = 0, pretend = 0, frame = 8
 654              		@ frame_needed = 0, uses_anonymous_args = 0
 655              	.LVL55:
 656 0000 30B5     		push	{r4, r5, lr}
 657              	.LCFI7:
 658              		.cfi_def_cfa_offset 12
 659              		.cfi_offset 4, -12
 660              		.cfi_offset 5, -8
 661              		.cfi_offset 14, -4
 662 0002 83B0     		sub	sp, sp, #12
 663              	.LCFI8:
 664              		.cfi_def_cfa_offset 24
 665 0004 0C46     		mov	r4, r1
 319:STM32F10x_StdPeriph_Driver/src/stm32f10x_dac.c ****   __IO uint32_t tmp = 0;
ARM GAS  /var/folders/g9/bbpj86ld7fx45vd1b3pqxmp00000gn/T//ccJXAINd.s 			page 18


 666              		.loc 1 319 0
 667 0006 0023     		movs	r3, #0
 668 0008 0193     		str	r3, [sp, #4]
 320:STM32F10x_StdPeriph_Driver/src/stm32f10x_dac.c ****   
 321:STM32F10x_StdPeriph_Driver/src/stm32f10x_dac.c ****   /* Check the parameters */
 322:STM32F10x_StdPeriph_Driver/src/stm32f10x_dac.c ****   assert_param(IS_DAC_ALIGN(DAC_Align));
 669              		.loc 1 322 0
 670 000a 0546     		mov	r5, r0
 671 000c 40B1     		cbz	r0, .L53
 672              		.loc 1 322 0 is_stmt 0 discriminator 1
 673 000e 0428     		cmp	r0, #4
 674 0010 06D0     		beq	.L53
 675              		.loc 1 322 0 discriminator 2
 676 0012 0828     		cmp	r0, #8
 677 0014 04D0     		beq	.L53
 678              		.loc 1 322 0 discriminator 3
 679 0016 4FF4A171 		mov	r1, #322
 680              	.LVL56:
 681 001a 0B48     		ldr	r0, .L56
 682              	.LVL57:
 683 001c FFF7FEFF 		bl	assert_failed
 684              	.LVL58:
 685              	.L53:
 323:STM32F10x_StdPeriph_Driver/src/stm32f10x_dac.c ****   assert_param(IS_DAC_DATA(Data));
 686              		.loc 1 323 0 is_stmt 1
 687 0020 4FF6F073 		movw	r3, #65520
 688 0024 9C42     		cmp	r4, r3
 689 0026 04D9     		bls	.L54
 690              		.loc 1 323 0 is_stmt 0 discriminator 1
 691 0028 40F24311 		movw	r1, #323
 692 002c 0648     		ldr	r0, .L56
 693 002e FFF7FEFF 		bl	assert_failed
 694              	.LVL59:
 695              	.L54:
 324:STM32F10x_StdPeriph_Driver/src/stm32f10x_dac.c ****   
 325:STM32F10x_StdPeriph_Driver/src/stm32f10x_dac.c ****   tmp = (uint32_t)DAC_BASE; 
 696              		.loc 1 325 0 is_stmt 1
 697 0032 064B     		ldr	r3, .L56+4
 698 0034 0193     		str	r3, [sp, #4]
 326:STM32F10x_StdPeriph_Driver/src/stm32f10x_dac.c ****   tmp += DHR12R1_Offset + DAC_Align;
 699              		.loc 1 326 0
 700 0036 0198     		ldr	r0, [sp, #4]
 701 0038 2844     		add	r0, r0, r5
 702 003a 0830     		adds	r0, r0, #8
 703 003c 0190     		str	r0, [sp, #4]
 327:STM32F10x_StdPeriph_Driver/src/stm32f10x_dac.c **** 
 328:STM32F10x_StdPeriph_Driver/src/stm32f10x_dac.c ****   /* Set the DAC channel1 selected data holding register */
 329:STM32F10x_StdPeriph_Driver/src/stm32f10x_dac.c ****   *(__IO uint32_t *) tmp = Data;
 704              		.loc 1 329 0
 705 003e 019B     		ldr	r3, [sp, #4]
 706 0040 1C60     		str	r4, [r3]
 330:STM32F10x_StdPeriph_Driver/src/stm32f10x_dac.c **** }
 707              		.loc 1 330 0
 708 0042 03B0     		add	sp, sp, #12
 709              	.LCFI9:
 710              		.cfi_def_cfa_offset 12
 711              		@ sp needed
ARM GAS  /var/folders/g9/bbpj86ld7fx45vd1b3pqxmp00000gn/T//ccJXAINd.s 			page 19


 712 0044 30BD     		pop	{r4, r5, pc}
 713              	.LVL60:
 714              	.L57:
 715 0046 00BF     		.align	2
 716              	.L56:
 717 0048 00000000 		.word	.LC0
 718 004c 00740040 		.word	1073771520
 719              		.cfi_endproc
 720              	.LFE35:
 722              		.section	.text.DAC_SetChannel2Data,"ax",%progbits
 723              		.align	2
 724              		.global	DAC_SetChannel2Data
 725              		.thumb
 726              		.thumb_func
 728              	DAC_SetChannel2Data:
 729              	.LFB36:
 331:STM32F10x_StdPeriph_Driver/src/stm32f10x_dac.c **** 
 332:STM32F10x_StdPeriph_Driver/src/stm32f10x_dac.c **** /**
 333:STM32F10x_StdPeriph_Driver/src/stm32f10x_dac.c ****   * @brief  Set the specified data holding register value for DAC channel2.
 334:STM32F10x_StdPeriph_Driver/src/stm32f10x_dac.c ****   * @param  DAC_Align: Specifies the data alignement for DAC channel2.
 335:STM32F10x_StdPeriph_Driver/src/stm32f10x_dac.c ****   *   This parameter can be one of the following values:
 336:STM32F10x_StdPeriph_Driver/src/stm32f10x_dac.c ****   *     @arg DAC_Align_8b_R: 8bit right data alignement selected
 337:STM32F10x_StdPeriph_Driver/src/stm32f10x_dac.c ****   *     @arg DAC_Align_12b_L: 12bit left data alignement selected
 338:STM32F10x_StdPeriph_Driver/src/stm32f10x_dac.c ****   *     @arg DAC_Align_12b_R: 12bit right data alignement selected
 339:STM32F10x_StdPeriph_Driver/src/stm32f10x_dac.c ****   * @param  Data : Data to be loaded in the selected data holding register.
 340:STM32F10x_StdPeriph_Driver/src/stm32f10x_dac.c ****   * @retval None
 341:STM32F10x_StdPeriph_Driver/src/stm32f10x_dac.c ****   */
 342:STM32F10x_StdPeriph_Driver/src/stm32f10x_dac.c **** void DAC_SetChannel2Data(uint32_t DAC_Align, uint16_t Data)
 343:STM32F10x_StdPeriph_Driver/src/stm32f10x_dac.c **** {
 730              		.loc 1 343 0
 731              		.cfi_startproc
 732              		@ args = 0, pretend = 0, frame = 8
 733              		@ frame_needed = 0, uses_anonymous_args = 0
 734              	.LVL61:
 735 0000 30B5     		push	{r4, r5, lr}
 736              	.LCFI10:
 737              		.cfi_def_cfa_offset 12
 738              		.cfi_offset 4, -12
 739              		.cfi_offset 5, -8
 740              		.cfi_offset 14, -4
 741 0002 83B0     		sub	sp, sp, #12
 742              	.LCFI11:
 743              		.cfi_def_cfa_offset 24
 744 0004 0C46     		mov	r4, r1
 344:STM32F10x_StdPeriph_Driver/src/stm32f10x_dac.c ****   __IO uint32_t tmp = 0;
 745              		.loc 1 344 0
 746 0006 0023     		movs	r3, #0
 747 0008 0193     		str	r3, [sp, #4]
 345:STM32F10x_StdPeriph_Driver/src/stm32f10x_dac.c **** 
 346:STM32F10x_StdPeriph_Driver/src/stm32f10x_dac.c ****   /* Check the parameters */
 347:STM32F10x_StdPeriph_Driver/src/stm32f10x_dac.c ****   assert_param(IS_DAC_ALIGN(DAC_Align));
 748              		.loc 1 347 0
 749 000a 0546     		mov	r5, r0
 750 000c 40B1     		cbz	r0, .L59
 751              		.loc 1 347 0 is_stmt 0 discriminator 1
 752 000e 0428     		cmp	r0, #4
 753 0010 06D0     		beq	.L59
ARM GAS  /var/folders/g9/bbpj86ld7fx45vd1b3pqxmp00000gn/T//ccJXAINd.s 			page 20


 754              		.loc 1 347 0 discriminator 2
 755 0012 0828     		cmp	r0, #8
 756 0014 04D0     		beq	.L59
 757              		.loc 1 347 0 discriminator 3
 758 0016 40F25B11 		movw	r1, #347
 759              	.LVL62:
 760 001a 0B48     		ldr	r0, .L62
 761              	.LVL63:
 762 001c FFF7FEFF 		bl	assert_failed
 763              	.LVL64:
 764              	.L59:
 348:STM32F10x_StdPeriph_Driver/src/stm32f10x_dac.c ****   assert_param(IS_DAC_DATA(Data));
 765              		.loc 1 348 0 is_stmt 1
 766 0020 4FF6F073 		movw	r3, #65520
 767 0024 9C42     		cmp	r4, r3
 768 0026 04D9     		bls	.L60
 769              		.loc 1 348 0 is_stmt 0 discriminator 1
 770 0028 4FF4AE71 		mov	r1, #348
 771 002c 0648     		ldr	r0, .L62
 772 002e FFF7FEFF 		bl	assert_failed
 773              	.LVL65:
 774              	.L60:
 349:STM32F10x_StdPeriph_Driver/src/stm32f10x_dac.c ****   
 350:STM32F10x_StdPeriph_Driver/src/stm32f10x_dac.c ****   tmp = (uint32_t)DAC_BASE;
 775              		.loc 1 350 0 is_stmt 1
 776 0032 064B     		ldr	r3, .L62+4
 777 0034 0193     		str	r3, [sp, #4]
 351:STM32F10x_StdPeriph_Driver/src/stm32f10x_dac.c ****   tmp += DHR12R2_Offset + DAC_Align;
 778              		.loc 1 351 0
 779 0036 0198     		ldr	r0, [sp, #4]
 780 0038 2844     		add	r0, r0, r5
 781 003a 1430     		adds	r0, r0, #20
 782 003c 0190     		str	r0, [sp, #4]
 352:STM32F10x_StdPeriph_Driver/src/stm32f10x_dac.c **** 
 353:STM32F10x_StdPeriph_Driver/src/stm32f10x_dac.c ****   /* Set the DAC channel2 selected data holding register */
 354:STM32F10x_StdPeriph_Driver/src/stm32f10x_dac.c ****   *(__IO uint32_t *)tmp = Data;
 783              		.loc 1 354 0
 784 003e 019B     		ldr	r3, [sp, #4]
 785 0040 1C60     		str	r4, [r3]
 355:STM32F10x_StdPeriph_Driver/src/stm32f10x_dac.c **** }
 786              		.loc 1 355 0
 787 0042 03B0     		add	sp, sp, #12
 788              	.LCFI12:
 789              		.cfi_def_cfa_offset 12
 790              		@ sp needed
 791 0044 30BD     		pop	{r4, r5, pc}
 792              	.LVL66:
 793              	.L63:
 794 0046 00BF     		.align	2
 795              	.L62:
 796 0048 00000000 		.word	.LC0
 797 004c 00740040 		.word	1073771520
 798              		.cfi_endproc
 799              	.LFE36:
 801              		.section	.text.DAC_SetDualChannelData,"ax",%progbits
 802              		.align	2
 803              		.global	DAC_SetDualChannelData
ARM GAS  /var/folders/g9/bbpj86ld7fx45vd1b3pqxmp00000gn/T//ccJXAINd.s 			page 21


 804              		.thumb
 805              		.thumb_func
 807              	DAC_SetDualChannelData:
 808              	.LFB37:
 356:STM32F10x_StdPeriph_Driver/src/stm32f10x_dac.c **** 
 357:STM32F10x_StdPeriph_Driver/src/stm32f10x_dac.c **** /**
 358:STM32F10x_StdPeriph_Driver/src/stm32f10x_dac.c ****   * @brief  Set the specified data holding register value for dual channel
 359:STM32F10x_StdPeriph_Driver/src/stm32f10x_dac.c ****   *   DAC.
 360:STM32F10x_StdPeriph_Driver/src/stm32f10x_dac.c ****   * @param  DAC_Align: Specifies the data alignement for dual channel DAC.
 361:STM32F10x_StdPeriph_Driver/src/stm32f10x_dac.c ****   *   This parameter can be one of the following values:
 362:STM32F10x_StdPeriph_Driver/src/stm32f10x_dac.c ****   *     @arg DAC_Align_8b_R: 8bit right data alignement selected
 363:STM32F10x_StdPeriph_Driver/src/stm32f10x_dac.c ****   *     @arg DAC_Align_12b_L: 12bit left data alignement selected
 364:STM32F10x_StdPeriph_Driver/src/stm32f10x_dac.c ****   *     @arg DAC_Align_12b_R: 12bit right data alignement selected
 365:STM32F10x_StdPeriph_Driver/src/stm32f10x_dac.c ****   * @param  Data2: Data for DAC Channel2 to be loaded in the selected data 
 366:STM32F10x_StdPeriph_Driver/src/stm32f10x_dac.c ****   *   holding register.
 367:STM32F10x_StdPeriph_Driver/src/stm32f10x_dac.c ****   * @param  Data1: Data for DAC Channel1 to be loaded in the selected data 
 368:STM32F10x_StdPeriph_Driver/src/stm32f10x_dac.c ****   *   holding register.
 369:STM32F10x_StdPeriph_Driver/src/stm32f10x_dac.c ****   * @retval None
 370:STM32F10x_StdPeriph_Driver/src/stm32f10x_dac.c ****   */
 371:STM32F10x_StdPeriph_Driver/src/stm32f10x_dac.c **** void DAC_SetDualChannelData(uint32_t DAC_Align, uint16_t Data2, uint16_t Data1)
 372:STM32F10x_StdPeriph_Driver/src/stm32f10x_dac.c **** {
 809              		.loc 1 372 0
 810              		.cfi_startproc
 811              		@ args = 0, pretend = 0, frame = 0
 812              		@ frame_needed = 0, uses_anonymous_args = 0
 813              	.LVL67:
 814 0000 70B5     		push	{r4, r5, r6, lr}
 815              	.LCFI13:
 816              		.cfi_def_cfa_offset 16
 817              		.cfi_offset 4, -16
 818              		.cfi_offset 5, -12
 819              		.cfi_offset 6, -8
 820              		.cfi_offset 14, -4
 821 0002 0E46     		mov	r6, r1
 822 0004 1446     		mov	r4, r2
 823              	.LVL68:
 373:STM32F10x_StdPeriph_Driver/src/stm32f10x_dac.c ****   uint32_t data = 0, tmp = 0;
 374:STM32F10x_StdPeriph_Driver/src/stm32f10x_dac.c ****   
 375:STM32F10x_StdPeriph_Driver/src/stm32f10x_dac.c ****   /* Check the parameters */
 376:STM32F10x_StdPeriph_Driver/src/stm32f10x_dac.c ****   assert_param(IS_DAC_ALIGN(DAC_Align));
 824              		.loc 1 376 0
 825 0006 0546     		mov	r5, r0
 826 0008 40B1     		cbz	r0, .L65
 827              		.loc 1 376 0 is_stmt 0 discriminator 1
 828 000a 0428     		cmp	r0, #4
 829 000c 06D0     		beq	.L65
 830              		.loc 1 376 0 discriminator 2
 831 000e 0828     		cmp	r0, #8
 832 0010 04D0     		beq	.L65
 833              		.loc 1 376 0 discriminator 3
 834 0012 4FF4BC71 		mov	r1, #376
 835              	.LVL69:
 836 0016 0F48     		ldr	r0, .L71
 837              	.LVL70:
 838 0018 FFF7FEFF 		bl	assert_failed
 839              	.LVL71:
 840              	.L65:
ARM GAS  /var/folders/g9/bbpj86ld7fx45vd1b3pqxmp00000gn/T//ccJXAINd.s 			page 22


 377:STM32F10x_StdPeriph_Driver/src/stm32f10x_dac.c ****   assert_param(IS_DAC_DATA(Data1));
 841              		.loc 1 377 0 is_stmt 1
 842 001c 4FF6F073 		movw	r3, #65520
 843 0020 9C42     		cmp	r4, r3
 844 0022 04D9     		bls	.L66
 845              		.loc 1 377 0 is_stmt 0 discriminator 1
 846 0024 40F27911 		movw	r1, #377
 847 0028 0A48     		ldr	r0, .L71
 848 002a FFF7FEFF 		bl	assert_failed
 849              	.LVL72:
 850              	.L66:
 378:STM32F10x_StdPeriph_Driver/src/stm32f10x_dac.c ****   assert_param(IS_DAC_DATA(Data2));
 851              		.loc 1 378 0 is_stmt 1
 852 002e 4FF6F073 		movw	r3, #65520
 853 0032 9E42     		cmp	r6, r3
 854 0034 04D9     		bls	.L67
 855              		.loc 1 378 0 is_stmt 0 discriminator 1
 856 0036 4FF4BD71 		mov	r1, #378
 857 003a 0648     		ldr	r0, .L71
 858 003c FFF7FEFF 		bl	assert_failed
 859              	.LVL73:
 860              	.L67:
 379:STM32F10x_StdPeriph_Driver/src/stm32f10x_dac.c ****   
 380:STM32F10x_StdPeriph_Driver/src/stm32f10x_dac.c ****   /* Calculate and set dual DAC data holding register value */
 381:STM32F10x_StdPeriph_Driver/src/stm32f10x_dac.c ****   if (DAC_Align == DAC_Align_8b_R)
 861              		.loc 1 381 0 is_stmt 1
 862 0040 082D     		cmp	r5, #8
 863 0042 02D1     		bne	.L68
 382:STM32F10x_StdPeriph_Driver/src/stm32f10x_dac.c ****   {
 383:STM32F10x_StdPeriph_Driver/src/stm32f10x_dac.c ****     data = ((uint32_t)Data2 << 8) | Data1; 
 864              		.loc 1 383 0
 865 0044 44EA0624 		orr	r4, r4, r6, lsl #8
 866              	.LVL74:
 867 0048 01E0     		b	.L69
 868              	.LVL75:
 869              	.L68:
 384:STM32F10x_StdPeriph_Driver/src/stm32f10x_dac.c ****   }
 385:STM32F10x_StdPeriph_Driver/src/stm32f10x_dac.c ****   else
 386:STM32F10x_StdPeriph_Driver/src/stm32f10x_dac.c ****   {
 387:STM32F10x_StdPeriph_Driver/src/stm32f10x_dac.c ****     data = ((uint32_t)Data2 << 16) | Data1;
 870              		.loc 1 387 0
 871 004a 44EA0644 		orr	r4, r4, r6, lsl #16
 872              	.LVL76:
 873              	.L69:
 388:STM32F10x_StdPeriph_Driver/src/stm32f10x_dac.c ****   }
 389:STM32F10x_StdPeriph_Driver/src/stm32f10x_dac.c ****   
 390:STM32F10x_StdPeriph_Driver/src/stm32f10x_dac.c ****   tmp = (uint32_t)DAC_BASE;
 391:STM32F10x_StdPeriph_Driver/src/stm32f10x_dac.c ****   tmp += DHR12RD_Offset + DAC_Align;
 874              		.loc 1 391 0
 875 004e 024B     		ldr	r3, .L71+4
 876              	.LVL77:
 392:STM32F10x_StdPeriph_Driver/src/stm32f10x_dac.c **** 
 393:STM32F10x_StdPeriph_Driver/src/stm32f10x_dac.c ****   /* Set the dual DAC selected data holding register */
 394:STM32F10x_StdPeriph_Driver/src/stm32f10x_dac.c ****   *(__IO uint32_t *)tmp = data;
 877              		.loc 1 394 0
 878 0050 EC50     		str	r4, [r5, r3]
 879 0052 70BD     		pop	{r4, r5, r6, pc}
ARM GAS  /var/folders/g9/bbpj86ld7fx45vd1b3pqxmp00000gn/T//ccJXAINd.s 			page 23


 880              	.LVL78:
 881              	.L72:
 882              		.align	2
 883              	.L71:
 884 0054 00000000 		.word	.LC0
 885 0058 20740040 		.word	1073771552
 886              		.cfi_endproc
 887              	.LFE37:
 889              		.section	.text.DAC_GetDataOutputValue,"ax",%progbits
 890              		.align	2
 891              		.global	DAC_GetDataOutputValue
 892              		.thumb
 893              		.thumb_func
 895              	DAC_GetDataOutputValue:
 896              	.LFB38:
 395:STM32F10x_StdPeriph_Driver/src/stm32f10x_dac.c **** }
 396:STM32F10x_StdPeriph_Driver/src/stm32f10x_dac.c **** 
 397:STM32F10x_StdPeriph_Driver/src/stm32f10x_dac.c **** /**
 398:STM32F10x_StdPeriph_Driver/src/stm32f10x_dac.c ****   * @brief  Returns the last data output value of the selected DAC cahnnel.
 399:STM32F10x_StdPeriph_Driver/src/stm32f10x_dac.c ****   * @param  DAC_Channel: the selected DAC channel. 
 400:STM32F10x_StdPeriph_Driver/src/stm32f10x_dac.c ****   *   This parameter can be one of the following values:
 401:STM32F10x_StdPeriph_Driver/src/stm32f10x_dac.c ****   *     @arg DAC_Channel_1: DAC Channel1 selected
 402:STM32F10x_StdPeriph_Driver/src/stm32f10x_dac.c ****   *     @arg DAC_Channel_2: DAC Channel2 selected
 403:STM32F10x_StdPeriph_Driver/src/stm32f10x_dac.c ****   * @retval The selected DAC channel data output value.
 404:STM32F10x_StdPeriph_Driver/src/stm32f10x_dac.c ****   */
 405:STM32F10x_StdPeriph_Driver/src/stm32f10x_dac.c **** uint16_t DAC_GetDataOutputValue(uint32_t DAC_Channel)
 406:STM32F10x_StdPeriph_Driver/src/stm32f10x_dac.c **** {
 897              		.loc 1 406 0
 898              		.cfi_startproc
 899              		@ args = 0, pretend = 0, frame = 8
 900              		@ frame_needed = 0, uses_anonymous_args = 0
 901              	.LVL79:
 902 0000 10B5     		push	{r4, lr}
 903              	.LCFI14:
 904              		.cfi_def_cfa_offset 8
 905              		.cfi_offset 4, -8
 906              		.cfi_offset 14, -4
 907 0002 82B0     		sub	sp, sp, #8
 908              	.LCFI15:
 909              		.cfi_def_cfa_offset 16
 407:STM32F10x_StdPeriph_Driver/src/stm32f10x_dac.c ****   __IO uint32_t tmp = 0;
 910              		.loc 1 407 0
 911 0004 0023     		movs	r3, #0
 912 0006 0193     		str	r3, [sp, #4]
 408:STM32F10x_StdPeriph_Driver/src/stm32f10x_dac.c ****   
 409:STM32F10x_StdPeriph_Driver/src/stm32f10x_dac.c ****   /* Check the parameters */
 410:STM32F10x_StdPeriph_Driver/src/stm32f10x_dac.c ****   assert_param(IS_DAC_CHANNEL(DAC_Channel));
 913              		.loc 1 410 0
 914 0008 0446     		mov	r4, r0
 915 000a 30B1     		cbz	r0, .L74
 916              		.loc 1 410 0 is_stmt 0 discriminator 1
 917 000c 1028     		cmp	r0, #16
 918 000e 04D0     		beq	.L74
 919              		.loc 1 410 0 discriminator 2
 920 0010 4FF4CD71 		mov	r1, #410
 921 0014 0748     		ldr	r0, .L76
 922              	.LVL80:
ARM GAS  /var/folders/g9/bbpj86ld7fx45vd1b3pqxmp00000gn/T//ccJXAINd.s 			page 24


 923 0016 FFF7FEFF 		bl	assert_failed
 924              	.LVL81:
 925              	.L74:
 411:STM32F10x_StdPeriph_Driver/src/stm32f10x_dac.c ****   
 412:STM32F10x_StdPeriph_Driver/src/stm32f10x_dac.c ****   tmp = (uint32_t) DAC_BASE ;
 926              		.loc 1 412 0 is_stmt 1
 927 001a 074B     		ldr	r3, .L76+4
 928 001c 0193     		str	r3, [sp, #4]
 413:STM32F10x_StdPeriph_Driver/src/stm32f10x_dac.c ****   tmp += DOR_Offset + ((uint32_t)DAC_Channel >> 2);
 929              		.loc 1 413 0
 930 001e 0198     		ldr	r0, [sp, #4]
 931 0020 00EB9400 		add	r0, r0, r4, lsr #2
 932 0024 2C30     		adds	r0, r0, #44
 933 0026 0190     		str	r0, [sp, #4]
 414:STM32F10x_StdPeriph_Driver/src/stm32f10x_dac.c ****   
 415:STM32F10x_StdPeriph_Driver/src/stm32f10x_dac.c ****   /* Returns the DAC channel data output register value */
 416:STM32F10x_StdPeriph_Driver/src/stm32f10x_dac.c ****   return (uint16_t) (*(__IO uint32_t*) tmp);
 934              		.loc 1 416 0
 935 0028 019B     		ldr	r3, [sp, #4]
 936 002a 1868     		ldr	r0, [r3]
 417:STM32F10x_StdPeriph_Driver/src/stm32f10x_dac.c **** }
 937              		.loc 1 417 0
 938 002c 80B2     		uxth	r0, r0
 939 002e 02B0     		add	sp, sp, #8
 940              	.LCFI16:
 941              		.cfi_def_cfa_offset 8
 942              		@ sp needed
 943 0030 10BD     		pop	{r4, pc}
 944              	.LVL82:
 945              	.L77:
 946 0032 00BF     		.align	2
 947              	.L76:
 948 0034 00000000 		.word	.LC0
 949 0038 00740040 		.word	1073771520
 950              		.cfi_endproc
 951              	.LFE38:
 953              		.section	.rodata.str1.4,"aMS",%progbits,1
 954              		.align	2
 955              	.LC0:
 956 0000 53544D33 		.ascii	"STM32F10x_StdPeriph_Driver/src/stm32f10x_dac.c\000"
 956      32463130 
 956      785F5374 
 956      64506572 
 956      6970685F 
 957              		.text
 958              	.Letext0:
 959              		.file 2 "/usr/local/Cellar/gcc-arm-none-eabi/20160926/arm-none-eabi/include/machine/_default_types
 960              		.file 3 "/usr/local/Cellar/gcc-arm-none-eabi/20160926/arm-none-eabi/include/sys/_stdint.h"
 961              		.file 4 "CMSIS/Core/CM3/stm32f10x.h"
 962              		.file 5 "STM32F10x_StdPeriph_Driver/inc/stm32f10x_dac.h"
 963              		.file 6 "STM32F10x_StdPeriph_Driver/inc/stm32f10x_rcc.h"
 964              		.file 7 "Inc/stm32f10x_conf.h"
ARM GAS  /var/folders/g9/bbpj86ld7fx45vd1b3pqxmp00000gn/T//ccJXAINd.s 			page 25

