ARM GAS  /var/folders/g9/bbpj86ld7fx45vd1b3pqxmp00000gn/T//ccxK7sY3.s 			page 1


   1              		.syntax unified
   2              		.cpu cortex-m3
   3              		.fpu softvfp
   4              		.eabi_attribute 20, 1
   5              		.eabi_attribute 21, 1
   6              		.eabi_attribute 23, 3
   7              		.eabi_attribute 24, 1
   8              		.eabi_attribute 25, 1
   9              		.eabi_attribute 26, 1
  10              		.eabi_attribute 30, 1
  11              		.eabi_attribute 34, 1
  12              		.eabi_attribute 18, 4
  13              		.thumb
  14              		.syntax unified
  15              		.file	"stm32f10x_spi.c"
  16              		.text
  17              	.Ltext0:
  18              		.cfi_sections	.debug_frame
  19              		.section	.text.SPI_I2S_DeInit,"ax",%progbits
  20              		.align	2
  21              		.global	SPI_I2S_DeInit
  22              		.thumb
  23              		.thumb_func
  25              	SPI_I2S_DeInit:
  26              	.LFB27:
  27              		.file 1 "STM32F10x_StdPeriph_Driver/src/stm32f10x_spi.c"
   1:STM32F10x_StdPeriph_Driver/src/stm32f10x_spi.c **** /**
   2:STM32F10x_StdPeriph_Driver/src/stm32f10x_spi.c ****   ******************************************************************************
   3:STM32F10x_StdPeriph_Driver/src/stm32f10x_spi.c ****   * @file    stm32f10x_spi.c
   4:STM32F10x_StdPeriph_Driver/src/stm32f10x_spi.c ****   * @author  MCD Application Team
   5:STM32F10x_StdPeriph_Driver/src/stm32f10x_spi.c ****   * @version V3.1.2
   6:STM32F10x_StdPeriph_Driver/src/stm32f10x_spi.c ****   * @date    09/28/2009
   7:STM32F10x_StdPeriph_Driver/src/stm32f10x_spi.c ****   * @brief   This file provides all the SPI firmware functions.
   8:STM32F10x_StdPeriph_Driver/src/stm32f10x_spi.c ****   ******************************************************************************
   9:STM32F10x_StdPeriph_Driver/src/stm32f10x_spi.c ****   * @copy
  10:STM32F10x_StdPeriph_Driver/src/stm32f10x_spi.c ****   *
  11:STM32F10x_StdPeriph_Driver/src/stm32f10x_spi.c ****   * THE PRESENT FIRMWARE WHICH IS FOR GUIDANCE ONLY AIMS AT PROVIDING CUSTOMERS
  12:STM32F10x_StdPeriph_Driver/src/stm32f10x_spi.c ****   * WITH CODING INFORMATION REGARDING THEIR PRODUCTS IN ORDER FOR THEM TO SAVE
  13:STM32F10x_StdPeriph_Driver/src/stm32f10x_spi.c ****   * TIME. AS A RESULT, STMICROELECTRONICS SHALL NOT BE HELD LIABLE FOR ANY
  14:STM32F10x_StdPeriph_Driver/src/stm32f10x_spi.c ****   * DIRECT, INDIRECT OR CONSEQUENTIAL DAMAGES WITH RESPECT TO ANY CLAIMS ARISING
  15:STM32F10x_StdPeriph_Driver/src/stm32f10x_spi.c ****   * FROM THE CONTENT OF SUCH FIRMWARE AND/OR THE USE MADE BY CUSTOMERS OF THE
  16:STM32F10x_StdPeriph_Driver/src/stm32f10x_spi.c ****   * CODING INFORMATION CONTAINED HEREIN IN CONNECTION WITH THEIR PRODUCTS.
  17:STM32F10x_StdPeriph_Driver/src/stm32f10x_spi.c ****   *
  18:STM32F10x_StdPeriph_Driver/src/stm32f10x_spi.c ****   * <h2><center>&copy; COPYRIGHT 2009 STMicroelectronics</center></h2>
  19:STM32F10x_StdPeriph_Driver/src/stm32f10x_spi.c ****   */ 
  20:STM32F10x_StdPeriph_Driver/src/stm32f10x_spi.c **** 
  21:STM32F10x_StdPeriph_Driver/src/stm32f10x_spi.c **** /* Includes ------------------------------------------------------------------*/
  22:STM32F10x_StdPeriph_Driver/src/stm32f10x_spi.c **** #include "stm32f10x_spi.h"
  23:STM32F10x_StdPeriph_Driver/src/stm32f10x_spi.c **** #include "stm32f10x_rcc.h"
  24:STM32F10x_StdPeriph_Driver/src/stm32f10x_spi.c **** 
  25:STM32F10x_StdPeriph_Driver/src/stm32f10x_spi.c **** /** @addtogroup STM32F10x_StdPeriph_Driver
  26:STM32F10x_StdPeriph_Driver/src/stm32f10x_spi.c ****   * @{
  27:STM32F10x_StdPeriph_Driver/src/stm32f10x_spi.c ****   */
  28:STM32F10x_StdPeriph_Driver/src/stm32f10x_spi.c **** 
  29:STM32F10x_StdPeriph_Driver/src/stm32f10x_spi.c **** /** @defgroup SPI 
  30:STM32F10x_StdPeriph_Driver/src/stm32f10x_spi.c ****   * @brief SPI driver modules
  31:STM32F10x_StdPeriph_Driver/src/stm32f10x_spi.c ****   * @{
ARM GAS  /var/folders/g9/bbpj86ld7fx45vd1b3pqxmp00000gn/T//ccxK7sY3.s 			page 2


  32:STM32F10x_StdPeriph_Driver/src/stm32f10x_spi.c ****   */ 
  33:STM32F10x_StdPeriph_Driver/src/stm32f10x_spi.c **** 
  34:STM32F10x_StdPeriph_Driver/src/stm32f10x_spi.c **** /** @defgroup SPI_Private_TypesDefinitions
  35:STM32F10x_StdPeriph_Driver/src/stm32f10x_spi.c ****   * @{
  36:STM32F10x_StdPeriph_Driver/src/stm32f10x_spi.c ****   */
  37:STM32F10x_StdPeriph_Driver/src/stm32f10x_spi.c **** 
  38:STM32F10x_StdPeriph_Driver/src/stm32f10x_spi.c **** /**
  39:STM32F10x_StdPeriph_Driver/src/stm32f10x_spi.c ****   * @}
  40:STM32F10x_StdPeriph_Driver/src/stm32f10x_spi.c ****   */ 
  41:STM32F10x_StdPeriph_Driver/src/stm32f10x_spi.c **** 
  42:STM32F10x_StdPeriph_Driver/src/stm32f10x_spi.c **** 
  43:STM32F10x_StdPeriph_Driver/src/stm32f10x_spi.c **** /** @defgroup SPI_Private_Defines
  44:STM32F10x_StdPeriph_Driver/src/stm32f10x_spi.c ****   * @{
  45:STM32F10x_StdPeriph_Driver/src/stm32f10x_spi.c ****   */
  46:STM32F10x_StdPeriph_Driver/src/stm32f10x_spi.c **** 
  47:STM32F10x_StdPeriph_Driver/src/stm32f10x_spi.c **** /* SPI SPE mask */
  48:STM32F10x_StdPeriph_Driver/src/stm32f10x_spi.c **** #define CR1_SPE_Set          ((uint16_t)0x0040)
  49:STM32F10x_StdPeriph_Driver/src/stm32f10x_spi.c **** #define CR1_SPE_Reset        ((uint16_t)0xFFBF)
  50:STM32F10x_StdPeriph_Driver/src/stm32f10x_spi.c **** 
  51:STM32F10x_StdPeriph_Driver/src/stm32f10x_spi.c **** /* I2S I2SE mask */
  52:STM32F10x_StdPeriph_Driver/src/stm32f10x_spi.c **** #define I2SCFGR_I2SE_Set     ((uint16_t)0x0400)
  53:STM32F10x_StdPeriph_Driver/src/stm32f10x_spi.c **** #define I2SCFGR_I2SE_Reset   ((uint16_t)0xFBFF)
  54:STM32F10x_StdPeriph_Driver/src/stm32f10x_spi.c **** 
  55:STM32F10x_StdPeriph_Driver/src/stm32f10x_spi.c **** /* SPI CRCNext mask */
  56:STM32F10x_StdPeriph_Driver/src/stm32f10x_spi.c **** #define CR1_CRCNext_Set      ((uint16_t)0x1000)
  57:STM32F10x_StdPeriph_Driver/src/stm32f10x_spi.c **** 
  58:STM32F10x_StdPeriph_Driver/src/stm32f10x_spi.c **** /* SPI CRCEN mask */
  59:STM32F10x_StdPeriph_Driver/src/stm32f10x_spi.c **** #define CR1_CRCEN_Set        ((uint16_t)0x2000)
  60:STM32F10x_StdPeriph_Driver/src/stm32f10x_spi.c **** #define CR1_CRCEN_Reset      ((uint16_t)0xDFFF)
  61:STM32F10x_StdPeriph_Driver/src/stm32f10x_spi.c **** 
  62:STM32F10x_StdPeriph_Driver/src/stm32f10x_spi.c **** /* SPI SSOE mask */
  63:STM32F10x_StdPeriph_Driver/src/stm32f10x_spi.c **** #define CR2_SSOE_Set         ((uint16_t)0x0004)
  64:STM32F10x_StdPeriph_Driver/src/stm32f10x_spi.c **** #define CR2_SSOE_Reset       ((uint16_t)0xFFFB)
  65:STM32F10x_StdPeriph_Driver/src/stm32f10x_spi.c **** 
  66:STM32F10x_StdPeriph_Driver/src/stm32f10x_spi.c **** /* SPI registers Masks */
  67:STM32F10x_StdPeriph_Driver/src/stm32f10x_spi.c **** #define CR1_CLEAR_Mask       ((uint16_t)0x3040)
  68:STM32F10x_StdPeriph_Driver/src/stm32f10x_spi.c **** #define I2SCFGR_CLEAR_Mask   ((uint16_t)0xF040)
  69:STM32F10x_StdPeriph_Driver/src/stm32f10x_spi.c **** 
  70:STM32F10x_StdPeriph_Driver/src/stm32f10x_spi.c **** /* SPI or I2S mode selection masks */
  71:STM32F10x_StdPeriph_Driver/src/stm32f10x_spi.c **** #define SPI_Mode_Select      ((uint16_t)0xF7FF)
  72:STM32F10x_StdPeriph_Driver/src/stm32f10x_spi.c **** #define I2S_Mode_Select      ((uint16_t)0x0800) 
  73:STM32F10x_StdPeriph_Driver/src/stm32f10x_spi.c **** 
  74:STM32F10x_StdPeriph_Driver/src/stm32f10x_spi.c **** /* I2S clock source selection masks */
  75:STM32F10x_StdPeriph_Driver/src/stm32f10x_spi.c **** #define I2S2_CLOCK_SRC       ((uint32_t)(0x00020000))
  76:STM32F10x_StdPeriph_Driver/src/stm32f10x_spi.c **** #define I2S3_CLOCK_SRC       ((uint32_t)(0x00040000))
  77:STM32F10x_StdPeriph_Driver/src/stm32f10x_spi.c **** #define I2S_MUL_MASK         ((uint32_t)(0x0000F000))
  78:STM32F10x_StdPeriph_Driver/src/stm32f10x_spi.c **** #define I2S_DIV_MASK         ((uint32_t)(0x000000F0))
  79:STM32F10x_StdPeriph_Driver/src/stm32f10x_spi.c **** 
  80:STM32F10x_StdPeriph_Driver/src/stm32f10x_spi.c **** /**
  81:STM32F10x_StdPeriph_Driver/src/stm32f10x_spi.c ****   * @}
  82:STM32F10x_StdPeriph_Driver/src/stm32f10x_spi.c ****   */
  83:STM32F10x_StdPeriph_Driver/src/stm32f10x_spi.c **** 
  84:STM32F10x_StdPeriph_Driver/src/stm32f10x_spi.c **** /** @defgroup SPI_Private_Macros
  85:STM32F10x_StdPeriph_Driver/src/stm32f10x_spi.c ****   * @{
  86:STM32F10x_StdPeriph_Driver/src/stm32f10x_spi.c ****   */
  87:STM32F10x_StdPeriph_Driver/src/stm32f10x_spi.c **** 
  88:STM32F10x_StdPeriph_Driver/src/stm32f10x_spi.c **** /**
ARM GAS  /var/folders/g9/bbpj86ld7fx45vd1b3pqxmp00000gn/T//ccxK7sY3.s 			page 3


  89:STM32F10x_StdPeriph_Driver/src/stm32f10x_spi.c ****   * @}
  90:STM32F10x_StdPeriph_Driver/src/stm32f10x_spi.c ****   */
  91:STM32F10x_StdPeriph_Driver/src/stm32f10x_spi.c **** 
  92:STM32F10x_StdPeriph_Driver/src/stm32f10x_spi.c **** /** @defgroup SPI_Private_Variables
  93:STM32F10x_StdPeriph_Driver/src/stm32f10x_spi.c ****   * @{
  94:STM32F10x_StdPeriph_Driver/src/stm32f10x_spi.c ****   */
  95:STM32F10x_StdPeriph_Driver/src/stm32f10x_spi.c **** 
  96:STM32F10x_StdPeriph_Driver/src/stm32f10x_spi.c **** /**
  97:STM32F10x_StdPeriph_Driver/src/stm32f10x_spi.c ****   * @}
  98:STM32F10x_StdPeriph_Driver/src/stm32f10x_spi.c ****   */
  99:STM32F10x_StdPeriph_Driver/src/stm32f10x_spi.c **** 
 100:STM32F10x_StdPeriph_Driver/src/stm32f10x_spi.c **** /** @defgroup SPI_Private_FunctionPrototypes
 101:STM32F10x_StdPeriph_Driver/src/stm32f10x_spi.c ****   * @{
 102:STM32F10x_StdPeriph_Driver/src/stm32f10x_spi.c ****   */
 103:STM32F10x_StdPeriph_Driver/src/stm32f10x_spi.c **** 
 104:STM32F10x_StdPeriph_Driver/src/stm32f10x_spi.c **** /**
 105:STM32F10x_StdPeriph_Driver/src/stm32f10x_spi.c ****   * @}
 106:STM32F10x_StdPeriph_Driver/src/stm32f10x_spi.c ****   */
 107:STM32F10x_StdPeriph_Driver/src/stm32f10x_spi.c **** 
 108:STM32F10x_StdPeriph_Driver/src/stm32f10x_spi.c **** /** @defgroup SPI_Private_Functions
 109:STM32F10x_StdPeriph_Driver/src/stm32f10x_spi.c ****   * @{
 110:STM32F10x_StdPeriph_Driver/src/stm32f10x_spi.c ****   */
 111:STM32F10x_StdPeriph_Driver/src/stm32f10x_spi.c **** 
 112:STM32F10x_StdPeriph_Driver/src/stm32f10x_spi.c **** /**
 113:STM32F10x_StdPeriph_Driver/src/stm32f10x_spi.c ****   * @brief  Deinitializes the SPIx peripheral registers to their default
 114:STM32F10x_StdPeriph_Driver/src/stm32f10x_spi.c ****   *   reset values (Affects also the I2Ss).
 115:STM32F10x_StdPeriph_Driver/src/stm32f10x_spi.c ****   * @param  SPIx: where x can be 1, 2 or 3 to select the SPI peripheral.
 116:STM32F10x_StdPeriph_Driver/src/stm32f10x_spi.c ****   * @retval None
 117:STM32F10x_StdPeriph_Driver/src/stm32f10x_spi.c ****   */
 118:STM32F10x_StdPeriph_Driver/src/stm32f10x_spi.c **** void SPI_I2S_DeInit(SPI_TypeDef* SPIx)
 119:STM32F10x_StdPeriph_Driver/src/stm32f10x_spi.c **** {
  28              		.loc 1 119 0
  29              		.cfi_startproc
  30              		@ args = 0, pretend = 0, frame = 0
  31              		@ frame_needed = 0, uses_anonymous_args = 0
  32              	.LVL0:
  33 0000 10B5     		push	{r4, lr}
  34              	.LCFI0:
  35              		.cfi_def_cfa_offset 8
  36              		.cfi_offset 4, -8
  37              		.cfi_offset 14, -4
  38 0002 0446     		mov	r4, r0
 120:STM32F10x_StdPeriph_Driver/src/stm32f10x_spi.c ****   /* Check the parameters */
 121:STM32F10x_StdPeriph_Driver/src/stm32f10x_spi.c ****   assert_param(IS_SPI_ALL_PERIPH(SPIx));
  39              		.loc 1 121 0
  40 0004 1C4B     		ldr	r3, .L7
  41 0006 9842     		cmp	r0, r3
  42 0008 0BD0     		beq	.L2
  43              		.loc 1 121 0 is_stmt 0 discriminator 1
  44 000a A3F57843 		sub	r3, r3, #63488
  45 000e 9842     		cmp	r0, r3
  46 0010 07D0     		beq	.L2
  47              		.loc 1 121 0 discriminator 2
  48 0012 03F58063 		add	r3, r3, #1024
  49 0016 9842     		cmp	r0, r3
  50 0018 03D0     		beq	.L2
  51              		.loc 1 121 0 discriminator 3
ARM GAS  /var/folders/g9/bbpj86ld7fx45vd1b3pqxmp00000gn/T//ccxK7sY3.s 			page 4


  52 001a 7921     		movs	r1, #121
  53 001c 1748     		ldr	r0, .L7+4
  54              	.LVL1:
  55 001e FFF7FEFF 		bl	assert_failed
  56              	.LVL2:
  57              	.L2:
 122:STM32F10x_StdPeriph_Driver/src/stm32f10x_spi.c **** 
 123:STM32F10x_StdPeriph_Driver/src/stm32f10x_spi.c ****   if (SPIx == SPI1)
  58              		.loc 1 123 0 is_stmt 1
  59 0022 154B     		ldr	r3, .L7
  60 0024 9C42     		cmp	r4, r3
  61 0026 0AD1     		bne	.L3
 124:STM32F10x_StdPeriph_Driver/src/stm32f10x_spi.c ****   {
 125:STM32F10x_StdPeriph_Driver/src/stm32f10x_spi.c ****     /* Enable SPI1 reset state */
 126:STM32F10x_StdPeriph_Driver/src/stm32f10x_spi.c ****     RCC_APB2PeriphResetCmd(RCC_APB2Periph_SPI1, ENABLE);
  62              		.loc 1 126 0
  63 0028 0121     		movs	r1, #1
  64 002a 4FF48050 		mov	r0, #4096
  65 002e FFF7FEFF 		bl	RCC_APB2PeriphResetCmd
  66              	.LVL3:
 127:STM32F10x_StdPeriph_Driver/src/stm32f10x_spi.c ****     /* Release SPI1 from reset state */
 128:STM32F10x_StdPeriph_Driver/src/stm32f10x_spi.c ****     RCC_APB2PeriphResetCmd(RCC_APB2Periph_SPI1, DISABLE);
  67              		.loc 1 128 0
  68 0032 0021     		movs	r1, #0
  69 0034 4FF48050 		mov	r0, #4096
  70 0038 FFF7FEFF 		bl	RCC_APB2PeriphResetCmd
  71              	.LVL4:
  72 003c 10BD     		pop	{r4, pc}
  73              	.LVL5:
  74              	.L3:
 129:STM32F10x_StdPeriph_Driver/src/stm32f10x_spi.c ****   }
 130:STM32F10x_StdPeriph_Driver/src/stm32f10x_spi.c ****   else if (SPIx == SPI2)
  75              		.loc 1 130 0
  76 003e 104B     		ldr	r3, .L7+8
  77 0040 9C42     		cmp	r4, r3
  78 0042 0AD1     		bne	.L5
 131:STM32F10x_StdPeriph_Driver/src/stm32f10x_spi.c ****   {
 132:STM32F10x_StdPeriph_Driver/src/stm32f10x_spi.c ****     /* Enable SPI2 reset state */
 133:STM32F10x_StdPeriph_Driver/src/stm32f10x_spi.c ****     RCC_APB1PeriphResetCmd(RCC_APB1Periph_SPI2, ENABLE);
  79              		.loc 1 133 0
  80 0044 0121     		movs	r1, #1
  81 0046 4FF48040 		mov	r0, #16384
  82 004a FFF7FEFF 		bl	RCC_APB1PeriphResetCmd
  83              	.LVL6:
 134:STM32F10x_StdPeriph_Driver/src/stm32f10x_spi.c ****     /* Release SPI2 from reset state */
 135:STM32F10x_StdPeriph_Driver/src/stm32f10x_spi.c ****     RCC_APB1PeriphResetCmd(RCC_APB1Periph_SPI2, DISABLE);
  84              		.loc 1 135 0
  85 004e 0021     		movs	r1, #0
  86 0050 4FF48040 		mov	r0, #16384
  87 0054 FFF7FEFF 		bl	RCC_APB1PeriphResetCmd
  88              	.LVL7:
  89 0058 10BD     		pop	{r4, pc}
  90              	.LVL8:
  91              	.L5:
 136:STM32F10x_StdPeriph_Driver/src/stm32f10x_spi.c ****   }
 137:STM32F10x_StdPeriph_Driver/src/stm32f10x_spi.c ****   else
 138:STM32F10x_StdPeriph_Driver/src/stm32f10x_spi.c ****   {
ARM GAS  /var/folders/g9/bbpj86ld7fx45vd1b3pqxmp00000gn/T//ccxK7sY3.s 			page 5


 139:STM32F10x_StdPeriph_Driver/src/stm32f10x_spi.c ****     if (SPIx == SPI3)
  92              		.loc 1 139 0
  93 005a 0A4B     		ldr	r3, .L7+12
  94 005c 9C42     		cmp	r4, r3
  95 005e 09D1     		bne	.L1
 140:STM32F10x_StdPeriph_Driver/src/stm32f10x_spi.c ****     {
 141:STM32F10x_StdPeriph_Driver/src/stm32f10x_spi.c ****       /* Enable SPI3 reset state */
 142:STM32F10x_StdPeriph_Driver/src/stm32f10x_spi.c ****       RCC_APB1PeriphResetCmd(RCC_APB1Periph_SPI3, ENABLE);
  96              		.loc 1 142 0
  97 0060 0121     		movs	r1, #1
  98 0062 4FF40040 		mov	r0, #32768
  99 0066 FFF7FEFF 		bl	RCC_APB1PeriphResetCmd
 100              	.LVL9:
 143:STM32F10x_StdPeriph_Driver/src/stm32f10x_spi.c ****       /* Release SPI3 from reset state */
 144:STM32F10x_StdPeriph_Driver/src/stm32f10x_spi.c ****       RCC_APB1PeriphResetCmd(RCC_APB1Periph_SPI3, DISABLE);
 101              		.loc 1 144 0
 102 006a 0021     		movs	r1, #0
 103 006c 4FF40040 		mov	r0, #32768
 104 0070 FFF7FEFF 		bl	RCC_APB1PeriphResetCmd
 105              	.LVL10:
 106              	.L1:
 107 0074 10BD     		pop	{r4, pc}
 108              	.LVL11:
 109              	.L8:
 110 0076 00BF     		.align	2
 111              	.L7:
 112 0078 00300140 		.word	1073819648
 113 007c 00000000 		.word	.LC0
 114 0080 00380040 		.word	1073756160
 115 0084 003C0040 		.word	1073757184
 116              		.cfi_endproc
 117              	.LFE27:
 119              		.section	.text.SPI_Init,"ax",%progbits
 120              		.align	2
 121              		.global	SPI_Init
 122              		.thumb
 123              		.thumb_func
 125              	SPI_Init:
 126              	.LFB28:
 145:STM32F10x_StdPeriph_Driver/src/stm32f10x_spi.c ****     }
 146:STM32F10x_StdPeriph_Driver/src/stm32f10x_spi.c ****   }
 147:STM32F10x_StdPeriph_Driver/src/stm32f10x_spi.c **** }
 148:STM32F10x_StdPeriph_Driver/src/stm32f10x_spi.c **** 
 149:STM32F10x_StdPeriph_Driver/src/stm32f10x_spi.c **** /**
 150:STM32F10x_StdPeriph_Driver/src/stm32f10x_spi.c ****   * @brief  Initializes the SPIx peripheral according to the specified 
 151:STM32F10x_StdPeriph_Driver/src/stm32f10x_spi.c ****   *   parameters in the SPI_InitStruct.
 152:STM32F10x_StdPeriph_Driver/src/stm32f10x_spi.c ****   * @param  SPIx: where x can be 1, 2 or 3 to select the SPI peripheral.
 153:STM32F10x_StdPeriph_Driver/src/stm32f10x_spi.c ****   * @param  SPI_InitStruct: pointer to a SPI_InitTypeDef structure that
 154:STM32F10x_StdPeriph_Driver/src/stm32f10x_spi.c ****   *   contains the configuration information for the specified SPI peripheral.
 155:STM32F10x_StdPeriph_Driver/src/stm32f10x_spi.c ****   * @retval None
 156:STM32F10x_StdPeriph_Driver/src/stm32f10x_spi.c ****   */
 157:STM32F10x_StdPeriph_Driver/src/stm32f10x_spi.c **** void SPI_Init(SPI_TypeDef* SPIx, SPI_InitTypeDef* SPI_InitStruct)
 158:STM32F10x_StdPeriph_Driver/src/stm32f10x_spi.c **** {
 127              		.loc 1 158 0
 128              		.cfi_startproc
 129              		@ args = 0, pretend = 0, frame = 0
 130              		@ frame_needed = 0, uses_anonymous_args = 0
ARM GAS  /var/folders/g9/bbpj86ld7fx45vd1b3pqxmp00000gn/T//ccxK7sY3.s 			page 6


 131              	.LVL12:
 132 0000 2DE9F041 		push	{r4, r5, r6, r7, r8, lr}
 133              	.LCFI1:
 134              		.cfi_def_cfa_offset 24
 135              		.cfi_offset 4, -24
 136              		.cfi_offset 5, -20
 137              		.cfi_offset 6, -16
 138              		.cfi_offset 7, -12
 139              		.cfi_offset 8, -8
 140              		.cfi_offset 14, -4
 141 0004 0546     		mov	r5, r0
 142 0006 0C46     		mov	r4, r1
 143              	.LVL13:
 159:STM32F10x_StdPeriph_Driver/src/stm32f10x_spi.c ****   uint16_t tmpreg = 0;
 160:STM32F10x_StdPeriph_Driver/src/stm32f10x_spi.c ****   
 161:STM32F10x_StdPeriph_Driver/src/stm32f10x_spi.c ****   /* check the parameters */
 162:STM32F10x_StdPeriph_Driver/src/stm32f10x_spi.c ****   assert_param(IS_SPI_ALL_PERIPH(SPIx));   
 144              		.loc 1 162 0
 145 0008 464B     		ldr	r3, .L21
 146 000a 9842     		cmp	r0, r3
 147 000c 0BD0     		beq	.L10
 148              		.loc 1 162 0 is_stmt 0 discriminator 1
 149 000e A3F57843 		sub	r3, r3, #63488
 150 0012 9842     		cmp	r0, r3
 151 0014 07D0     		beq	.L10
 152              		.loc 1 162 0 discriminator 2
 153 0016 03F58063 		add	r3, r3, #1024
 154 001a 9842     		cmp	r0, r3
 155 001c 03D0     		beq	.L10
 156              		.loc 1 162 0 discriminator 3
 157 001e A221     		movs	r1, #162
 158              	.LVL14:
 159 0020 4148     		ldr	r0, .L21+4
 160              	.LVL15:
 161 0022 FFF7FEFF 		bl	assert_failed
 162              	.LVL16:
 163              	.L10:
 163:STM32F10x_StdPeriph_Driver/src/stm32f10x_spi.c ****   
 164:STM32F10x_StdPeriph_Driver/src/stm32f10x_spi.c ****   /* Check the SPI parameters */
 165:STM32F10x_StdPeriph_Driver/src/stm32f10x_spi.c ****   assert_param(IS_SPI_DIRECTION_MODE(SPI_InitStruct->SPI_Direction));
 164              		.loc 1 165 0 is_stmt 1
 165 0026 2388     		ldrh	r3, [r4]
 166 0028 63B1     		cbz	r3, .L11
 167              		.loc 1 165 0 is_stmt 0 discriminator 1
 168 002a B3F5806F 		cmp	r3, #1024
 169 002e 09D0     		beq	.L11
 170              		.loc 1 165 0 discriminator 2
 171 0030 B3F5004F 		cmp	r3, #32768
 172 0034 06D0     		beq	.L11
 173              		.loc 1 165 0 discriminator 3
 174 0036 B3F5404F 		cmp	r3, #49152
 175 003a 03D0     		beq	.L11
 176              		.loc 1 165 0 discriminator 4
 177 003c A521     		movs	r1, #165
 178 003e 3A48     		ldr	r0, .L21+4
 179 0040 FFF7FEFF 		bl	assert_failed
 180              	.LVL17:
ARM GAS  /var/folders/g9/bbpj86ld7fx45vd1b3pqxmp00000gn/T//ccxK7sY3.s 			page 7


 181              	.L11:
 166:STM32F10x_StdPeriph_Driver/src/stm32f10x_spi.c ****   assert_param(IS_SPI_MODE(SPI_InitStruct->SPI_Mode));
 182              		.loc 1 166 0 is_stmt 1
 183 0044 6388     		ldrh	r3, [r4, #2]
 184 0046 B3F5827F 		cmp	r3, #260
 185 004a 04D0     		beq	.L12
 186              		.loc 1 166 0 is_stmt 0 discriminator 1
 187 004c 1BB1     		cbz	r3, .L12
 188              		.loc 1 166 0 discriminator 2
 189 004e A621     		movs	r1, #166
 190 0050 3548     		ldr	r0, .L21+4
 191 0052 FFF7FEFF 		bl	assert_failed
 192              	.LVL18:
 193              	.L12:
 167:STM32F10x_StdPeriph_Driver/src/stm32f10x_spi.c ****   assert_param(IS_SPI_DATASIZE(SPI_InitStruct->SPI_DataSize));
 194              		.loc 1 167 0 is_stmt 1
 195 0056 A388     		ldrh	r3, [r4, #4]
 196 0058 B3F5006F 		cmp	r3, #2048
 197 005c 04D0     		beq	.L13
 198              		.loc 1 167 0 is_stmt 0 discriminator 1
 199 005e 1BB1     		cbz	r3, .L13
 200              		.loc 1 167 0 discriminator 2
 201 0060 A721     		movs	r1, #167
 202 0062 3148     		ldr	r0, .L21+4
 203 0064 FFF7FEFF 		bl	assert_failed
 204              	.LVL19:
 205              	.L13:
 168:STM32F10x_StdPeriph_Driver/src/stm32f10x_spi.c ****   assert_param(IS_SPI_CPOL(SPI_InitStruct->SPI_CPOL));
 206              		.loc 1 168 0 is_stmt 1
 207 0068 E388     		ldrh	r3, [r4, #6]
 208 006a 2BB1     		cbz	r3, .L14
 209              		.loc 1 168 0 is_stmt 0 discriminator 1
 210 006c 022B     		cmp	r3, #2
 211 006e 03D0     		beq	.L14
 212              		.loc 1 168 0 discriminator 2
 213 0070 A821     		movs	r1, #168
 214 0072 2D48     		ldr	r0, .L21+4
 215 0074 FFF7FEFF 		bl	assert_failed
 216              	.LVL20:
 217              	.L14:
 169:STM32F10x_StdPeriph_Driver/src/stm32f10x_spi.c ****   assert_param(IS_SPI_CPHA(SPI_InitStruct->SPI_CPHA));
 218              		.loc 1 169 0 is_stmt 1
 219 0078 2389     		ldrh	r3, [r4, #8]
 220 007a 012B     		cmp	r3, #1
 221 007c 03D9     		bls	.L15
 222              		.loc 1 169 0 is_stmt 0 discriminator 1
 223 007e A921     		movs	r1, #169
 224 0080 2948     		ldr	r0, .L21+4
 225 0082 FFF7FEFF 		bl	assert_failed
 226              	.LVL21:
 227              	.L15:
 170:STM32F10x_StdPeriph_Driver/src/stm32f10x_spi.c ****   assert_param(IS_SPI_NSS(SPI_InitStruct->SPI_NSS));
 228              		.loc 1 170 0 is_stmt 1
 229 0086 6389     		ldrh	r3, [r4, #10]
 230 0088 B3F5007F 		cmp	r3, #512
 231 008c 04D0     		beq	.L16
 232              		.loc 1 170 0 is_stmt 0 discriminator 1
ARM GAS  /var/folders/g9/bbpj86ld7fx45vd1b3pqxmp00000gn/T//ccxK7sY3.s 			page 8


 233 008e 1BB1     		cbz	r3, .L16
 234              		.loc 1 170 0 discriminator 2
 235 0090 AA21     		movs	r1, #170
 236 0092 2548     		ldr	r0, .L21+4
 237 0094 FFF7FEFF 		bl	assert_failed
 238              	.LVL22:
 239              	.L16:
 171:STM32F10x_StdPeriph_Driver/src/stm32f10x_spi.c ****   assert_param(IS_SPI_BAUDRATE_PRESCALER(SPI_InitStruct->SPI_BaudRatePrescaler));
 240              		.loc 1 171 0 is_stmt 1
 241 0098 A389     		ldrh	r3, [r4, #12]
 242 009a 8BB1     		cbz	r3, .L17
 243              		.loc 1 171 0 is_stmt 0 discriminator 1
 244 009c 082B     		cmp	r3, #8
 245 009e 0FD0     		beq	.L17
 246              		.loc 1 171 0 discriminator 2
 247 00a0 102B     		cmp	r3, #16
 248 00a2 0DD0     		beq	.L17
 249              		.loc 1 171 0 discriminator 3
 250 00a4 182B     		cmp	r3, #24
 251 00a6 0BD0     		beq	.L17
 252              		.loc 1 171 0 discriminator 4
 253 00a8 202B     		cmp	r3, #32
 254 00aa 09D0     		beq	.L17
 255              		.loc 1 171 0 discriminator 5
 256 00ac 282B     		cmp	r3, #40
 257 00ae 07D0     		beq	.L17
 258              		.loc 1 171 0 discriminator 6
 259 00b0 302B     		cmp	r3, #48
 260 00b2 05D0     		beq	.L17
 261              		.loc 1 171 0 discriminator 7
 262 00b4 382B     		cmp	r3, #56
 263 00b6 03D0     		beq	.L17
 264              		.loc 1 171 0 discriminator 8
 265 00b8 AB21     		movs	r1, #171
 266 00ba 1B48     		ldr	r0, .L21+4
 267 00bc FFF7FEFF 		bl	assert_failed
 268              	.LVL23:
 269              	.L17:
 172:STM32F10x_StdPeriph_Driver/src/stm32f10x_spi.c ****   assert_param(IS_SPI_FIRST_BIT(SPI_InitStruct->SPI_FirstBit));
 270              		.loc 1 172 0 is_stmt 1
 271 00c0 E389     		ldrh	r3, [r4, #14]
 272 00c2 2BB1     		cbz	r3, .L18
 273              		.loc 1 172 0 is_stmt 0 discriminator 1
 274 00c4 802B     		cmp	r3, #128
 275 00c6 03D0     		beq	.L18
 276              		.loc 1 172 0 discriminator 2
 277 00c8 AC21     		movs	r1, #172
 278 00ca 1748     		ldr	r0, .L21+4
 279 00cc FFF7FEFF 		bl	assert_failed
 280              	.LVL24:
 281              	.L18:
 173:STM32F10x_StdPeriph_Driver/src/stm32f10x_spi.c ****   assert_param(IS_SPI_CRC_POLYNOMIAL(SPI_InitStruct->SPI_CRCPolynomial));
 282              		.loc 1 173 0 is_stmt 1
 283 00d0 238A     		ldrh	r3, [r4, #16]
 284 00d2 1BB9     		cbnz	r3, .L19
 285              		.loc 1 173 0 is_stmt 0 discriminator 1
 286 00d4 AD21     		movs	r1, #173
ARM GAS  /var/folders/g9/bbpj86ld7fx45vd1b3pqxmp00000gn/T//ccxK7sY3.s 			page 9


 287 00d6 1448     		ldr	r0, .L21+4
 288 00d8 FFF7FEFF 		bl	assert_failed
 289              	.LVL25:
 290              	.L19:
 174:STM32F10x_StdPeriph_Driver/src/stm32f10x_spi.c **** 
 175:STM32F10x_StdPeriph_Driver/src/stm32f10x_spi.c **** /*---------------------------- SPIx CR1 Configuration ------------------------*/
 176:STM32F10x_StdPeriph_Driver/src/stm32f10x_spi.c ****   /* Get the SPIx CR1 value */
 177:STM32F10x_StdPeriph_Driver/src/stm32f10x_spi.c ****   tmpreg = SPIx->CR1;
 291              		.loc 1 177 0 is_stmt 1
 292 00dc 2B88     		ldrh	r3, [r5]
 293              	.LVL26:
 178:STM32F10x_StdPeriph_Driver/src/stm32f10x_spi.c ****   /* Clear BIDIMode, BIDIOE, RxONLY, SSM, SSI, LSBFirst, BR, MSTR, CPOL and CPHA bits */
 179:STM32F10x_StdPeriph_Driver/src/stm32f10x_spi.c ****   tmpreg &= CR1_CLEAR_Mask;
 294              		.loc 1 179 0
 295 00de 03F44157 		and	r7, r3, #12352
 296              	.LVL27:
 180:STM32F10x_StdPeriph_Driver/src/stm32f10x_spi.c ****   /* Configure SPIx: direction, NSS management, first transmitted bit, BaudRate prescaler
 181:STM32F10x_StdPeriph_Driver/src/stm32f10x_spi.c ****      master/salve mode, CPOL and CPHA */
 182:STM32F10x_StdPeriph_Driver/src/stm32f10x_spi.c ****   /* Set BIDImode, BIDIOE and RxONLY bits according to SPI_Direction value */
 183:STM32F10x_StdPeriph_Driver/src/stm32f10x_spi.c ****   /* Set SSM, SSI and MSTR bits according to SPI_Mode and SPI_NSS values */
 184:STM32F10x_StdPeriph_Driver/src/stm32f10x_spi.c ****   /* Set LSBFirst bit according to SPI_FirstBit value */
 185:STM32F10x_StdPeriph_Driver/src/stm32f10x_spi.c ****   /* Set BR bits according to SPI_BaudRatePrescaler value */
 186:STM32F10x_StdPeriph_Driver/src/stm32f10x_spi.c ****   /* Set CPOL bit according to SPI_CPOL value */
 187:STM32F10x_StdPeriph_Driver/src/stm32f10x_spi.c ****   /* Set CPHA bit according to SPI_CPHA value */
 188:STM32F10x_StdPeriph_Driver/src/stm32f10x_spi.c ****   tmpreg |= (uint16_t)((uint32_t)SPI_InitStruct->SPI_Direction | SPI_InitStruct->SPI_Mode |
 297              		.loc 1 188 0
 298 00e2 2088     		ldrh	r0, [r4]
 299 00e4 6688     		ldrh	r6, [r4, #2]
 189:STM32F10x_StdPeriph_Driver/src/stm32f10x_spi.c ****                   SPI_InitStruct->SPI_DataSize | SPI_InitStruct->SPI_CPOL |  
 300              		.loc 1 189 0
 301 00e6 A188     		ldrh	r1, [r4, #4]
 302 00e8 B4F80680 		ldrh	r8, [r4, #6]
 190:STM32F10x_StdPeriph_Driver/src/stm32f10x_spi.c ****                   SPI_InitStruct->SPI_CPHA | SPI_InitStruct->SPI_NSS |  
 303              		.loc 1 190 0
 304 00ec 2289     		ldrh	r2, [r4, #8]
 305 00ee B4F80AC0 		ldrh	ip, [r4, #10]
 191:STM32F10x_StdPeriph_Driver/src/stm32f10x_spi.c ****                   SPI_InitStruct->SPI_BaudRatePrescaler | SPI_InitStruct->SPI_FirstBit);
 306              		.loc 1 191 0
 307 00f2 A389     		ldrh	r3, [r4, #12]
 308 00f4 B4F80EE0 		ldrh	lr, [r4, #14]
 188:STM32F10x_StdPeriph_Driver/src/stm32f10x_spi.c ****                   SPI_InitStruct->SPI_DataSize | SPI_InitStruct->SPI_CPOL |  
 309              		.loc 1 188 0
 310 00f8 3043     		orrs	r0, r0, r6
 311 00fa 0843     		orrs	r0, r0, r1
 312 00fc 48EA0001 		orr	r1, r8, r0
 313 0100 1143     		orrs	r1, r1, r2
 314 0102 4CEA0102 		orr	r2, ip, r1
 315 0106 1A43     		orrs	r2, r2, r3
 316 0108 4EEA0203 		orr	r3, lr, r2
 317 010c 3B43     		orrs	r3, r3, r7
 318              	.LVL28:
 192:STM32F10x_StdPeriph_Driver/src/stm32f10x_spi.c ****   /* Write to SPIx CR1 */
 193:STM32F10x_StdPeriph_Driver/src/stm32f10x_spi.c ****   SPIx->CR1 = tmpreg;
 319              		.loc 1 193 0
 320 010e 2B80     		strh	r3, [r5]	@ movhi
 194:STM32F10x_StdPeriph_Driver/src/stm32f10x_spi.c ****   
 195:STM32F10x_StdPeriph_Driver/src/stm32f10x_spi.c ****   /* Activate the SPI mode (Reset I2SMOD bit in I2SCFGR register) */
ARM GAS  /var/folders/g9/bbpj86ld7fx45vd1b3pqxmp00000gn/T//ccxK7sY3.s 			page 10


 196:STM32F10x_StdPeriph_Driver/src/stm32f10x_spi.c ****   SPIx->I2SCFGR &= SPI_Mode_Select;		
 321              		.loc 1 196 0
 322 0110 AB8B     		ldrh	r3, [r5, #28]
 323              	.LVL29:
 324 0112 9BB2     		uxth	r3, r3
 325 0114 23F40063 		bic	r3, r3, #2048
 326 0118 9BB2     		uxth	r3, r3
 327 011a AB83     		strh	r3, [r5, #28]	@ movhi
 328              	.LVL30:
 197:STM32F10x_StdPeriph_Driver/src/stm32f10x_spi.c **** 
 198:STM32F10x_StdPeriph_Driver/src/stm32f10x_spi.c **** /*---------------------------- SPIx CRCPOLY Configuration --------------------*/
 199:STM32F10x_StdPeriph_Driver/src/stm32f10x_spi.c ****   /* Write to SPIx CRCPOLY */
 200:STM32F10x_StdPeriph_Driver/src/stm32f10x_spi.c ****   SPIx->CRCPR = SPI_InitStruct->SPI_CRCPolynomial;
 329              		.loc 1 200 0
 330 011c 238A     		ldrh	r3, [r4, #16]
 331 011e 2B82     		strh	r3, [r5, #16]	@ movhi
 332 0120 BDE8F081 		pop	{r4, r5, r6, r7, r8, pc}
 333              	.LVL31:
 334              	.L22:
 335              		.align	2
 336              	.L21:
 337 0124 00300140 		.word	1073819648
 338 0128 00000000 		.word	.LC0
 339              		.cfi_endproc
 340              	.LFE28:
 342              		.section	.text.I2S_Init,"ax",%progbits
 343              		.align	2
 344              		.global	I2S_Init
 345              		.thumb
 346              		.thumb_func
 348              	I2S_Init:
 349              	.LFB29:
 201:STM32F10x_StdPeriph_Driver/src/stm32f10x_spi.c **** }
 202:STM32F10x_StdPeriph_Driver/src/stm32f10x_spi.c **** 
 203:STM32F10x_StdPeriph_Driver/src/stm32f10x_spi.c **** /**
 204:STM32F10x_StdPeriph_Driver/src/stm32f10x_spi.c ****   * @brief  Initializes the SPIx peripheral according to the specified 
 205:STM32F10x_StdPeriph_Driver/src/stm32f10x_spi.c ****   *   parameters in the I2S_InitStruct.
 206:STM32F10x_StdPeriph_Driver/src/stm32f10x_spi.c ****   * @param  SPIx: where x can be  2 or 3 to select the SPI peripheral
 207:STM32F10x_StdPeriph_Driver/src/stm32f10x_spi.c ****   *   (configured in I2S mode).
 208:STM32F10x_StdPeriph_Driver/src/stm32f10x_spi.c ****   * @param  I2S_InitStruct: pointer to an I2S_InitTypeDef structure that
 209:STM32F10x_StdPeriph_Driver/src/stm32f10x_spi.c ****   *   contains the configuration information for the specified SPI peripheral
 210:STM32F10x_StdPeriph_Driver/src/stm32f10x_spi.c ****   *   configured in I2S mode.
 211:STM32F10x_StdPeriph_Driver/src/stm32f10x_spi.c ****   * @note
 212:STM32F10x_StdPeriph_Driver/src/stm32f10x_spi.c ****   *  The function calculates the optimal prescaler needed to obtain the most 
 213:STM32F10x_StdPeriph_Driver/src/stm32f10x_spi.c ****   *  accurate audio frequency (depending on the I2S clock source, the PLL values 
 214:STM32F10x_StdPeriph_Driver/src/stm32f10x_spi.c ****   *  and the product configuration). But in case the prescaler value is greater 
 215:STM32F10x_StdPeriph_Driver/src/stm32f10x_spi.c ****   *  than 511, the default value (0x02) will be configured instead.  *   
 216:STM32F10x_StdPeriph_Driver/src/stm32f10x_spi.c ****   * @retval None
 217:STM32F10x_StdPeriph_Driver/src/stm32f10x_spi.c ****   */
 218:STM32F10x_StdPeriph_Driver/src/stm32f10x_spi.c **** void I2S_Init(SPI_TypeDef* SPIx, I2S_InitTypeDef* I2S_InitStruct)
 219:STM32F10x_StdPeriph_Driver/src/stm32f10x_spi.c **** {
 350              		.loc 1 219 0
 351              		.cfi_startproc
 352              		@ args = 0, pretend = 0, frame = 24
 353              		@ frame_needed = 0, uses_anonymous_args = 0
 354              	.LVL32:
 355 0000 F0B5     		push	{r4, r5, r6, r7, lr}
ARM GAS  /var/folders/g9/bbpj86ld7fx45vd1b3pqxmp00000gn/T//ccxK7sY3.s 			page 11


 356              	.LCFI2:
 357              		.cfi_def_cfa_offset 20
 358              		.cfi_offset 4, -20
 359              		.cfi_offset 5, -16
 360              		.cfi_offset 6, -12
 361              		.cfi_offset 7, -8
 362              		.cfi_offset 14, -4
 363 0002 87B0     		sub	sp, sp, #28
 364              	.LCFI3:
 365              		.cfi_def_cfa_offset 48
 366 0004 0546     		mov	r5, r0
 367 0006 0C46     		mov	r4, r1
 368              	.LVL33:
 220:STM32F10x_StdPeriph_Driver/src/stm32f10x_spi.c ****   uint16_t tmpreg = 0, i2sdiv = 2, i2sodd = 0, packetlength = 1;
 221:STM32F10x_StdPeriph_Driver/src/stm32f10x_spi.c ****   uint32_t tmp = 0;
 222:STM32F10x_StdPeriph_Driver/src/stm32f10x_spi.c ****   RCC_ClocksTypeDef RCC_Clocks;
 223:STM32F10x_StdPeriph_Driver/src/stm32f10x_spi.c ****   uint32_t sourceclock = 0;
 224:STM32F10x_StdPeriph_Driver/src/stm32f10x_spi.c ****   
 225:STM32F10x_StdPeriph_Driver/src/stm32f10x_spi.c ****   /* Check the I2S parameters */
 226:STM32F10x_StdPeriph_Driver/src/stm32f10x_spi.c ****   assert_param(IS_SPI_23_PERIPH(SPIx));
 369              		.loc 1 226 0
 370 0008 5E4B     		ldr	r3, .L40
 371 000a 9842     		cmp	r0, r3
 372 000c 07D0     		beq	.L24
 373              		.loc 1 226 0 is_stmt 0 discriminator 1
 374 000e 03F58063 		add	r3, r3, #1024
 375 0012 9842     		cmp	r0, r3
 376 0014 03D0     		beq	.L24
 377              		.loc 1 226 0 discriminator 2
 378 0016 E221     		movs	r1, #226
 379              	.LVL34:
 380 0018 5B48     		ldr	r0, .L40+4
 381              	.LVL35:
 382 001a FFF7FEFF 		bl	assert_failed
 383              	.LVL36:
 384              	.L24:
 227:STM32F10x_StdPeriph_Driver/src/stm32f10x_spi.c ****   assert_param(IS_I2S_MODE(I2S_InitStruct->I2S_Mode));
 385              		.loc 1 227 0 is_stmt 1
 386 001e 2388     		ldrh	r3, [r4]
 387 0020 63B1     		cbz	r3, .L25
 388              		.loc 1 227 0 is_stmt 0 discriminator 1
 389 0022 B3F5807F 		cmp	r3, #256
 390 0026 09D0     		beq	.L25
 391              		.loc 1 227 0 discriminator 2
 392 0028 B3F5007F 		cmp	r3, #512
 393 002c 06D0     		beq	.L25
 394              		.loc 1 227 0 discriminator 3
 395 002e B3F5407F 		cmp	r3, #768
 396 0032 03D0     		beq	.L25
 397              		.loc 1 227 0 discriminator 4
 398 0034 E321     		movs	r1, #227
 399 0036 5448     		ldr	r0, .L40+4
 400 0038 FFF7FEFF 		bl	assert_failed
 401              	.LVL37:
 402              	.L25:
 228:STM32F10x_StdPeriph_Driver/src/stm32f10x_spi.c ****   assert_param(IS_I2S_STANDARD(I2S_InitStruct->I2S_Standard));
 403              		.loc 1 228 0 is_stmt 1
ARM GAS  /var/folders/g9/bbpj86ld7fx45vd1b3pqxmp00000gn/T//ccxK7sY3.s 			page 12


 404 003c 6388     		ldrh	r3, [r4, #2]
 405 003e 5BB1     		cbz	r3, .L26
 406              		.loc 1 228 0 is_stmt 0 discriminator 1
 407 0040 102B     		cmp	r3, #16
 408 0042 09D0     		beq	.L26
 409              		.loc 1 228 0 discriminator 2
 410 0044 202B     		cmp	r3, #32
 411 0046 07D0     		beq	.L26
 412              		.loc 1 228 0 discriminator 3
 413 0048 302B     		cmp	r3, #48
 414 004a 05D0     		beq	.L26
 415              		.loc 1 228 0 discriminator 4
 416 004c B02B     		cmp	r3, #176
 417 004e 03D0     		beq	.L26
 418              		.loc 1 228 0 discriminator 5
 419 0050 E421     		movs	r1, #228
 420 0052 4D48     		ldr	r0, .L40+4
 421 0054 FFF7FEFF 		bl	assert_failed
 422              	.LVL38:
 423              	.L26:
 229:STM32F10x_StdPeriph_Driver/src/stm32f10x_spi.c ****   assert_param(IS_I2S_DATA_FORMAT(I2S_InitStruct->I2S_DataFormat));
 424              		.loc 1 229 0 is_stmt 1
 425 0058 A388     		ldrh	r3, [r4, #4]
 426 005a 012B     		cmp	r3, #1
 427 005c 07D9     		bls	.L27
 428              		.loc 1 229 0 is_stmt 0 discriminator 1
 429 005e 032B     		cmp	r3, #3
 430 0060 05D0     		beq	.L27
 431              		.loc 1 229 0 discriminator 2
 432 0062 052B     		cmp	r3, #5
 433 0064 03D0     		beq	.L27
 434              		.loc 1 229 0 discriminator 3
 435 0066 E521     		movs	r1, #229
 436 0068 4748     		ldr	r0, .L40+4
 437 006a FFF7FEFF 		bl	assert_failed
 438              	.LVL39:
 439              	.L27:
 230:STM32F10x_StdPeriph_Driver/src/stm32f10x_spi.c ****   assert_param(IS_I2S_MCLK_OUTPUT(I2S_InitStruct->I2S_MCLKOutput));
 440              		.loc 1 230 0 is_stmt 1
 441 006e E388     		ldrh	r3, [r4, #6]
 442 0070 B3F5007F 		cmp	r3, #512
 443 0074 04D0     		beq	.L28
 444              		.loc 1 230 0 is_stmt 0 discriminator 1
 445 0076 1BB1     		cbz	r3, .L28
 446              		.loc 1 230 0 discriminator 2
 447 0078 E621     		movs	r1, #230
 448 007a 4348     		ldr	r0, .L40+4
 449 007c FFF7FEFF 		bl	assert_failed
 450              	.LVL40:
 451              	.L28:
 231:STM32F10x_StdPeriph_Driver/src/stm32f10x_spi.c ****   assert_param(IS_I2S_AUDIO_FREQ(I2S_InitStruct->I2S_AudioFreq));
 452              		.loc 1 231 0 is_stmt 1
 453 0080 A368     		ldr	r3, [r4, #8]
 454 0082 424A     		ldr	r2, .L40+8
 455 0084 9342     		cmp	r3, r2
 456 0086 1ED0     		beq	.L29
 457              		.loc 1 231 0 is_stmt 0 discriminator 1
ARM GAS  /var/folders/g9/bbpj86ld7fx45vd1b3pqxmp00000gn/T//ccxK7sY3.s 			page 13


 458 0088 4BF68032 		movw	r2, #48000
 459 008c 9342     		cmp	r3, r2
 460 008e 1AD0     		beq	.L29
 461              		.loc 1 231 0 discriminator 2
 462 0090 4AF64442 		movw	r2, #44100
 463 0094 9342     		cmp	r3, r2
 464 0096 16D0     		beq	.L29
 465              		.loc 1 231 0 discriminator 3
 466 0098 B3F5FA4F 		cmp	r3, #32000
 467 009c 13D0     		beq	.L29
 468              		.loc 1 231 0 discriminator 4
 469 009e 45F22262 		movw	r2, #22050
 470 00a2 9342     		cmp	r3, r2
 471 00a4 0FD0     		beq	.L29
 472              		.loc 1 231 0 discriminator 5
 473 00a6 B3F57A5F 		cmp	r3, #16000
 474 00aa 0CD0     		beq	.L29
 475              		.loc 1 231 0 discriminator 6
 476 00ac 42F61132 		movw	r2, #11025
 477 00b0 9342     		cmp	r3, r2
 478 00b2 08D0     		beq	.L29
 479              		.loc 1 231 0 discriminator 7
 480 00b4 B3F5FA5F 		cmp	r3, #8000
 481 00b8 05D0     		beq	.L29
 482              		.loc 1 231 0 discriminator 8
 483 00ba 022B     		cmp	r3, #2
 484 00bc 03D0     		beq	.L29
 485              		.loc 1 231 0 discriminator 9
 486 00be E721     		movs	r1, #231
 487 00c0 3148     		ldr	r0, .L40+4
 488 00c2 FFF7FEFF 		bl	assert_failed
 489              	.LVL41:
 490              	.L29:
 232:STM32F10x_StdPeriph_Driver/src/stm32f10x_spi.c ****   assert_param(IS_I2S_CPOL(I2S_InitStruct->I2S_CPOL));  
 491              		.loc 1 232 0 is_stmt 1
 492 00c6 A389     		ldrh	r3, [r4, #12]
 493 00c8 2BB1     		cbz	r3, .L30
 494              		.loc 1 232 0 is_stmt 0 discriminator 1
 495 00ca 082B     		cmp	r3, #8
 496 00cc 03D0     		beq	.L30
 497              		.loc 1 232 0 discriminator 2
 498 00ce E821     		movs	r1, #232
 499 00d0 2D48     		ldr	r0, .L40+4
 500 00d2 FFF7FEFF 		bl	assert_failed
 501              	.LVL42:
 502              	.L30:
 233:STM32F10x_StdPeriph_Driver/src/stm32f10x_spi.c **** 
 234:STM32F10x_StdPeriph_Driver/src/stm32f10x_spi.c **** /*----------------------- SPIx I2SCFGR & I2SPR Configuration -----------------*/
 235:STM32F10x_StdPeriph_Driver/src/stm32f10x_spi.c ****   /* Clear I2SMOD, I2SE, I2SCFG, PCMSYNC, I2SSTD, CKPOL, DATLEN and CHLEN bits */
 236:STM32F10x_StdPeriph_Driver/src/stm32f10x_spi.c ****   SPIx->I2SCFGR &= I2SCFGR_CLEAR_Mask; 
 503              		.loc 1 236 0 is_stmt 1
 504 00d6 AB8B     		ldrh	r3, [r5, #28]
 505 00d8 9BB2     		uxth	r3, r3
 506 00da 23F47B63 		bic	r3, r3, #4016
 507 00de 23F00F03 		bic	r3, r3, #15
 508 00e2 9BB2     		uxth	r3, r3
 509 00e4 AB83     		strh	r3, [r5, #28]	@ movhi
ARM GAS  /var/folders/g9/bbpj86ld7fx45vd1b3pqxmp00000gn/T//ccxK7sY3.s 			page 14


 237:STM32F10x_StdPeriph_Driver/src/stm32f10x_spi.c ****   SPIx->I2SPR = 0x0002;
 510              		.loc 1 237 0
 511 00e6 0223     		movs	r3, #2
 512 00e8 2B84     		strh	r3, [r5, #32]	@ movhi
 238:STM32F10x_StdPeriph_Driver/src/stm32f10x_spi.c ****   
 239:STM32F10x_StdPeriph_Driver/src/stm32f10x_spi.c ****   /* Get the I2SCFGR register value */
 240:STM32F10x_StdPeriph_Driver/src/stm32f10x_spi.c ****   tmpreg = SPIx->I2SCFGR;
 513              		.loc 1 240 0
 514 00ea AE8B     		ldrh	r6, [r5, #28]
 515 00ec B6B2     		uxth	r6, r6
 516              	.LVL43:
 241:STM32F10x_StdPeriph_Driver/src/stm32f10x_spi.c ****   
 242:STM32F10x_StdPeriph_Driver/src/stm32f10x_spi.c ****   /* If the default value has to be written, reinitialize i2sdiv and i2sodd*/
 243:STM32F10x_StdPeriph_Driver/src/stm32f10x_spi.c ****   if(I2S_InitStruct->I2S_AudioFreq == I2S_AudioFreq_Default)
 517              		.loc 1 243 0
 518 00ee A368     		ldr	r3, [r4, #8]
 519 00f0 022B     		cmp	r3, #2
 520 00f2 2DD0     		beq	.L36
 244:STM32F10x_StdPeriph_Driver/src/stm32f10x_spi.c ****   {
 245:STM32F10x_StdPeriph_Driver/src/stm32f10x_spi.c ****     i2sodd = (uint16_t)0;
 246:STM32F10x_StdPeriph_Driver/src/stm32f10x_spi.c ****     i2sdiv = (uint16_t)2;   
 247:STM32F10x_StdPeriph_Driver/src/stm32f10x_spi.c ****   }
 248:STM32F10x_StdPeriph_Driver/src/stm32f10x_spi.c ****   /* If the requested audio frequency is not the default, compute the prescaler */
 249:STM32F10x_StdPeriph_Driver/src/stm32f10x_spi.c ****   else
 250:STM32F10x_StdPeriph_Driver/src/stm32f10x_spi.c ****   {
 251:STM32F10x_StdPeriph_Driver/src/stm32f10x_spi.c ****     /* Check the frame length (For the Prescaler computing) */
 252:STM32F10x_StdPeriph_Driver/src/stm32f10x_spi.c ****     if(I2S_InitStruct->I2S_DataFormat == I2S_DataFormat_16b)
 521              		.loc 1 252 0
 522 00f4 A388     		ldrh	r3, [r4, #4]
 523 00f6 0BB9     		cbnz	r3, .L37
 253:STM32F10x_StdPeriph_Driver/src/stm32f10x_spi.c ****     {
 254:STM32F10x_StdPeriph_Driver/src/stm32f10x_spi.c ****       /* Packet length is 16 bits */
 255:STM32F10x_StdPeriph_Driver/src/stm32f10x_spi.c ****       packetlength = 1;
 524              		.loc 1 255 0
 525 00f8 0127     		movs	r7, #1
 526 00fa 00E0     		b	.L32
 527              	.L37:
 256:STM32F10x_StdPeriph_Driver/src/stm32f10x_spi.c ****     }
 257:STM32F10x_StdPeriph_Driver/src/stm32f10x_spi.c ****     else
 258:STM32F10x_StdPeriph_Driver/src/stm32f10x_spi.c ****     {
 259:STM32F10x_StdPeriph_Driver/src/stm32f10x_spi.c ****       /* Packet length is 32 bits */
 260:STM32F10x_StdPeriph_Driver/src/stm32f10x_spi.c ****       packetlength = 2;
 528              		.loc 1 260 0
 529 00fc 0227     		movs	r7, #2
 530              	.L32:
 531              	.LVL44:
 261:STM32F10x_StdPeriph_Driver/src/stm32f10x_spi.c ****     }
 262:STM32F10x_StdPeriph_Driver/src/stm32f10x_spi.c **** 
 263:STM32F10x_StdPeriph_Driver/src/stm32f10x_spi.c ****     /* Get the I2S clock source mask depending on the peripheral number */
 264:STM32F10x_StdPeriph_Driver/src/stm32f10x_spi.c ****     if(((uint32_t)SPIx) == SPI2_BASE)
 265:STM32F10x_StdPeriph_Driver/src/stm32f10x_spi.c ****     {
 266:STM32F10x_StdPeriph_Driver/src/stm32f10x_spi.c ****       /* The mask is relative to I2S2 */
 267:STM32F10x_StdPeriph_Driver/src/stm32f10x_spi.c ****       tmp = I2S2_CLOCK_SRC;
 268:STM32F10x_StdPeriph_Driver/src/stm32f10x_spi.c ****     }
 269:STM32F10x_StdPeriph_Driver/src/stm32f10x_spi.c ****     else 
 270:STM32F10x_StdPeriph_Driver/src/stm32f10x_spi.c ****     {
 271:STM32F10x_StdPeriph_Driver/src/stm32f10x_spi.c ****       /* The mask is relative to I2S3 */      
ARM GAS  /var/folders/g9/bbpj86ld7fx45vd1b3pqxmp00000gn/T//ccxK7sY3.s 			page 15


 272:STM32F10x_StdPeriph_Driver/src/stm32f10x_spi.c ****       tmp = I2S3_CLOCK_SRC;
 273:STM32F10x_StdPeriph_Driver/src/stm32f10x_spi.c ****     }
 274:STM32F10x_StdPeriph_Driver/src/stm32f10x_spi.c **** 
 275:STM32F10x_StdPeriph_Driver/src/stm32f10x_spi.c ****     /* Check the I2S clock source configuration depending on the Device:
 276:STM32F10x_StdPeriph_Driver/src/stm32f10x_spi.c ****        Only Connectivity line devices have the PLL3 VCO clock */
 277:STM32F10x_StdPeriph_Driver/src/stm32f10x_spi.c **** #ifdef STM32F10X_CL
 278:STM32F10x_StdPeriph_Driver/src/stm32f10x_spi.c ****     if((RCC->CFGR2 & tmp) != 0)
 279:STM32F10x_StdPeriph_Driver/src/stm32f10x_spi.c ****     {
 280:STM32F10x_StdPeriph_Driver/src/stm32f10x_spi.c ****       /* Get the configuration bits of RCC PLL3 multiplier */
 281:STM32F10x_StdPeriph_Driver/src/stm32f10x_spi.c ****       tmp = (uint32_t)((RCC->CFGR2 & I2S_MUL_MASK) >> 12);
 282:STM32F10x_StdPeriph_Driver/src/stm32f10x_spi.c **** 
 283:STM32F10x_StdPeriph_Driver/src/stm32f10x_spi.c ****       /* Get the value of the PLL3 multiplier */      
 284:STM32F10x_StdPeriph_Driver/src/stm32f10x_spi.c ****       if((tmp > 5) && (tmp < 15))
 285:STM32F10x_StdPeriph_Driver/src/stm32f10x_spi.c ****       {
 286:STM32F10x_StdPeriph_Driver/src/stm32f10x_spi.c ****         /* Multplier is between 8 and 14 (value 15 is forbidden) */
 287:STM32F10x_StdPeriph_Driver/src/stm32f10x_spi.c ****         tmp += 2;
 288:STM32F10x_StdPeriph_Driver/src/stm32f10x_spi.c ****       }
 289:STM32F10x_StdPeriph_Driver/src/stm32f10x_spi.c ****       else
 290:STM32F10x_StdPeriph_Driver/src/stm32f10x_spi.c ****       {
 291:STM32F10x_StdPeriph_Driver/src/stm32f10x_spi.c ****         if (tmp == 15)
 292:STM32F10x_StdPeriph_Driver/src/stm32f10x_spi.c ****         {
 293:STM32F10x_StdPeriph_Driver/src/stm32f10x_spi.c ****           /* Multiplier is 20 */
 294:STM32F10x_StdPeriph_Driver/src/stm32f10x_spi.c ****           tmp = 20;
 295:STM32F10x_StdPeriph_Driver/src/stm32f10x_spi.c ****         }
 296:STM32F10x_StdPeriph_Driver/src/stm32f10x_spi.c ****       }      
 297:STM32F10x_StdPeriph_Driver/src/stm32f10x_spi.c ****       /* Get the PREDIV2 value */
 298:STM32F10x_StdPeriph_Driver/src/stm32f10x_spi.c ****       sourceclock = (uint32_t)(((RCC->CFGR2 & I2S_DIV_MASK) >> 4) + 1);
 299:STM32F10x_StdPeriph_Driver/src/stm32f10x_spi.c ****       
 300:STM32F10x_StdPeriph_Driver/src/stm32f10x_spi.c ****       /* Calculate the Source Clock frequency based on PLL3 and PREDIV2 values */
 301:STM32F10x_StdPeriph_Driver/src/stm32f10x_spi.c ****       sourceclock = (uint32_t) ((HSE_Value / sourceclock) * tmp * 2); 
 302:STM32F10x_StdPeriph_Driver/src/stm32f10x_spi.c ****     }
 303:STM32F10x_StdPeriph_Driver/src/stm32f10x_spi.c ****     else
 304:STM32F10x_StdPeriph_Driver/src/stm32f10x_spi.c ****     {
 305:STM32F10x_StdPeriph_Driver/src/stm32f10x_spi.c ****       /* I2S Clock source is System clock: Get System Clock frequency */
 306:STM32F10x_StdPeriph_Driver/src/stm32f10x_spi.c ****       RCC_GetClocksFreq(&RCC_Clocks);      
 307:STM32F10x_StdPeriph_Driver/src/stm32f10x_spi.c ****       
 308:STM32F10x_StdPeriph_Driver/src/stm32f10x_spi.c ****       /* Get the source clock value: based on System Clock value */
 309:STM32F10x_StdPeriph_Driver/src/stm32f10x_spi.c ****       sourceclock = RCC_Clocks.SYSCLK_Frequency;
 310:STM32F10x_StdPeriph_Driver/src/stm32f10x_spi.c ****     }        
 311:STM32F10x_StdPeriph_Driver/src/stm32f10x_spi.c **** #else /* STM32F10X_HD */
 312:STM32F10x_StdPeriph_Driver/src/stm32f10x_spi.c ****     /* I2S Clock source is System clock: Get System Clock frequency */
 313:STM32F10x_StdPeriph_Driver/src/stm32f10x_spi.c ****     RCC_GetClocksFreq(&RCC_Clocks);      
 532              		.loc 1 313 0
 533 00fe 01A8     		add	r0, sp, #4
 534 0100 FFF7FEFF 		bl	RCC_GetClocksFreq
 535              	.LVL45:
 314:STM32F10x_StdPeriph_Driver/src/stm32f10x_spi.c ****       
 315:STM32F10x_StdPeriph_Driver/src/stm32f10x_spi.c ****     /* Get the source clock value: based on System Clock value */
 316:STM32F10x_StdPeriph_Driver/src/stm32f10x_spi.c ****     sourceclock = RCC_Clocks.SYSCLK_Frequency;    
 536              		.loc 1 316 0
 537 0104 019B     		ldr	r3, [sp, #4]
 538              	.LVL46:
 317:STM32F10x_StdPeriph_Driver/src/stm32f10x_spi.c **** #endif /* STM32F10X_CL */    
 318:STM32F10x_StdPeriph_Driver/src/stm32f10x_spi.c **** 
 319:STM32F10x_StdPeriph_Driver/src/stm32f10x_spi.c ****     /* Compute the Real divider depending on the MCLK output state with a flaoting point */
 320:STM32F10x_StdPeriph_Driver/src/stm32f10x_spi.c ****     if(I2S_InitStruct->I2S_MCLKOutput == I2S_MCLKOutput_Enable)
 539              		.loc 1 320 0
ARM GAS  /var/folders/g9/bbpj86ld7fx45vd1b3pqxmp00000gn/T//ccxK7sY3.s 			page 16


 540 0106 E288     		ldrh	r2, [r4, #6]
 541 0108 B2F5007F 		cmp	r2, #512
 542 010c 09D1     		bne	.L33
 321:STM32F10x_StdPeriph_Driver/src/stm32f10x_spi.c ****     {
 322:STM32F10x_StdPeriph_Driver/src/stm32f10x_spi.c ****       /* MCLK output is enabled */
 323:STM32F10x_StdPeriph_Driver/src/stm32f10x_spi.c ****       tmp = (uint16_t)(((((sourceclock / 256) * 10) / I2S_InitStruct->I2S_AudioFreq)) + 5);
 543              		.loc 1 323 0
 544 010e 1A0A     		lsrs	r2, r3, #8
 545 0110 02EB8202 		add	r2, r2, r2, lsl #2
 546 0114 5300     		lsls	r3, r2, #1
 547              	.LVL47:
 548 0116 A268     		ldr	r2, [r4, #8]
 549 0118 B3FBF2F3 		udiv	r3, r3, r2
 550 011c 0533     		adds	r3, r3, #5
 551 011e 9BB2     		uxth	r3, r3
 552              	.LVL48:
 553 0120 0AE0     		b	.L34
 554              	.LVL49:
 555              	.L33:
 324:STM32F10x_StdPeriph_Driver/src/stm32f10x_spi.c ****     }
 325:STM32F10x_StdPeriph_Driver/src/stm32f10x_spi.c ****     else
 326:STM32F10x_StdPeriph_Driver/src/stm32f10x_spi.c ****     {
 327:STM32F10x_StdPeriph_Driver/src/stm32f10x_spi.c ****       /* MCLK output is disabled */
 328:STM32F10x_StdPeriph_Driver/src/stm32f10x_spi.c ****       tmp = (uint16_t)(((((sourceclock / (32 * packetlength)) *10 ) / I2S_InitStruct->I2S_AudioFreq
 556              		.loc 1 328 0
 557 0122 7A01     		lsls	r2, r7, #5
 558 0124 B3FBF2F2 		udiv	r2, r3, r2
 559 0128 02EB8202 		add	r2, r2, r2, lsl #2
 560 012c 5300     		lsls	r3, r2, #1
 561              	.LVL50:
 562 012e A268     		ldr	r2, [r4, #8]
 563 0130 B3FBF2F3 		udiv	r3, r3, r2
 564 0134 0533     		adds	r3, r3, #5
 565 0136 9BB2     		uxth	r3, r3
 566              	.LVL51:
 567              	.L34:
 329:STM32F10x_StdPeriph_Driver/src/stm32f10x_spi.c ****     }
 330:STM32F10x_StdPeriph_Driver/src/stm32f10x_spi.c ****     
 331:STM32F10x_StdPeriph_Driver/src/stm32f10x_spi.c ****     /* Remove the flaoting point */
 332:STM32F10x_StdPeriph_Driver/src/stm32f10x_spi.c ****     tmp = tmp / 10;  
 568              		.loc 1 332 0
 569 0138 154A     		ldr	r2, .L40+12
 570 013a A2FB0323 		umull	r2, r3, r2, r3
 571              	.LVL52:
 572 013e DB08     		lsrs	r3, r3, #3
 573              	.LVL53:
 333:STM32F10x_StdPeriph_Driver/src/stm32f10x_spi.c ****       
 334:STM32F10x_StdPeriph_Driver/src/stm32f10x_spi.c ****     /* Check the parity of the divider */
 335:STM32F10x_StdPeriph_Driver/src/stm32f10x_spi.c ****     i2sodd = (uint16_t)(tmp & (uint16_t)0x0001);
 574              		.loc 1 335 0
 575 0140 03F00102 		and	r2, r3, #1
 576              	.LVL54:
 336:STM32F10x_StdPeriph_Driver/src/stm32f10x_spi.c ****    
 337:STM32F10x_StdPeriph_Driver/src/stm32f10x_spi.c ****     /* Compute the i2sdiv prescaler */
 338:STM32F10x_StdPeriph_Driver/src/stm32f10x_spi.c ****     i2sdiv = (uint16_t)((tmp - i2sodd) / 2);
 577              		.loc 1 338 0
 578 0144 9B1A     		subs	r3, r3, r2
ARM GAS  /var/folders/g9/bbpj86ld7fx45vd1b3pqxmp00000gn/T//ccxK7sY3.s 			page 17


 579              	.LVL55:
 580 0146 C3F34F03 		ubfx	r3, r3, #1, #16
 581              	.LVL56:
 339:STM32F10x_StdPeriph_Driver/src/stm32f10x_spi.c ****    
 340:STM32F10x_StdPeriph_Driver/src/stm32f10x_spi.c ****     /* Get the Mask for the Odd bit (SPI_I2SPR[8]) register */
 341:STM32F10x_StdPeriph_Driver/src/stm32f10x_spi.c ****     i2sodd = (uint16_t) (i2sodd << 8);
 582              		.loc 1 341 0
 583 014a 1202     		lsls	r2, r2, #8
 584              	.LVL57:
 585 014c 92B2     		uxth	r2, r2
 586              	.LVL58:
 587 014e 01E0     		b	.L31
 588              	.LVL59:
 589              	.L36:
 245:STM32F10x_StdPeriph_Driver/src/stm32f10x_spi.c ****     i2sdiv = (uint16_t)2;   
 590              		.loc 1 245 0
 591 0150 0022     		movs	r2, #0
 246:STM32F10x_StdPeriph_Driver/src/stm32f10x_spi.c ****   }
 592              		.loc 1 246 0
 593 0152 0223     		movs	r3, #2
 594              	.LVL60:
 595              	.L31:
 342:STM32F10x_StdPeriph_Driver/src/stm32f10x_spi.c ****   }
 343:STM32F10x_StdPeriph_Driver/src/stm32f10x_spi.c ****   
 344:STM32F10x_StdPeriph_Driver/src/stm32f10x_spi.c ****   /* Test if the divider is 1 or 0 or greater than 0xFF */
 345:STM32F10x_StdPeriph_Driver/src/stm32f10x_spi.c ****   if ((i2sdiv < 2) || (i2sdiv > 0xFF))
 596              		.loc 1 345 0
 597 0154 991E     		subs	r1, r3, #2
 598 0156 89B2     		uxth	r1, r1
 599 0158 FD29     		cmp	r1, #253
 600 015a 01D9     		bls	.L35
 346:STM32F10x_StdPeriph_Driver/src/stm32f10x_spi.c ****   {
 347:STM32F10x_StdPeriph_Driver/src/stm32f10x_spi.c ****     /* Set the default values */
 348:STM32F10x_StdPeriph_Driver/src/stm32f10x_spi.c ****     i2sdiv = 2;
 349:STM32F10x_StdPeriph_Driver/src/stm32f10x_spi.c ****     i2sodd = 0;
 601              		.loc 1 349 0
 602 015c 0022     		movs	r2, #0
 603              	.LVL61:
 348:STM32F10x_StdPeriph_Driver/src/stm32f10x_spi.c ****     i2sodd = 0;
 604              		.loc 1 348 0
 605 015e 0223     		movs	r3, #2
 606              	.LVL62:
 607              	.L35:
 350:STM32F10x_StdPeriph_Driver/src/stm32f10x_spi.c ****   }
 351:STM32F10x_StdPeriph_Driver/src/stm32f10x_spi.c **** 
 352:STM32F10x_StdPeriph_Driver/src/stm32f10x_spi.c ****   /* Write to SPIx I2SPR register the computed value */
 353:STM32F10x_StdPeriph_Driver/src/stm32f10x_spi.c ****   SPIx->I2SPR = (uint16_t)(i2sdiv | (uint16_t)(i2sodd | (uint16_t)I2S_InitStruct->I2S_MCLKOutput));
 608              		.loc 1 353 0
 609 0160 E188     		ldrh	r1, [r4, #6]
 610 0162 0A43     		orrs	r2, r2, r1
 611              	.LVL63:
 612 0164 1343     		orrs	r3, r3, r2
 613              	.LVL64:
 614 0166 2B84     		strh	r3, [r5, #32]	@ movhi
 354:STM32F10x_StdPeriph_Driver/src/stm32f10x_spi.c ****  
 355:STM32F10x_StdPeriph_Driver/src/stm32f10x_spi.c ****   /* Configure the I2S with the SPI_InitStruct values */
 356:STM32F10x_StdPeriph_Driver/src/stm32f10x_spi.c ****   tmpreg |= (uint16_t)(I2S_Mode_Select | (uint16_t)(I2S_InitStruct->I2S_Mode | \
ARM GAS  /var/folders/g9/bbpj86ld7fx45vd1b3pqxmp00000gn/T//ccxK7sY3.s 			page 18


 615              		.loc 1 356 0
 616 0168 2188     		ldrh	r1, [r4]
 357:STM32F10x_StdPeriph_Driver/src/stm32f10x_spi.c ****                   (uint16_t)(I2S_InitStruct->I2S_Standard | (uint16_t)(I2S_InitStruct->I2S_DataForm
 617              		.loc 1 357 0
 618 016a 6388     		ldrh	r3, [r4, #2]
 619 016c A088     		ldrh	r0, [r4, #4]
 358:STM32F10x_StdPeriph_Driver/src/stm32f10x_spi.c ****                   (uint16_t)I2S_InitStruct->I2S_CPOL))));
 620              		.loc 1 358 0
 621 016e A289     		ldrh	r2, [r4, #12]
 357:STM32F10x_StdPeriph_Driver/src/stm32f10x_spi.c ****                   (uint16_t)(I2S_InitStruct->I2S_Standard | (uint16_t)(I2S_InitStruct->I2S_DataForm
 622              		.loc 1 357 0
 623 0170 0243     		orrs	r2, r2, r0
 624 0172 1343     		orrs	r3, r3, r2
 356:STM32F10x_StdPeriph_Driver/src/stm32f10x_spi.c ****                   (uint16_t)(I2S_InitStruct->I2S_Standard | (uint16_t)(I2S_InitStruct->I2S_DataForm
 625              		.loc 1 356 0
 626 0174 0B43     		orrs	r3, r3, r1
 627 0176 1E43     		orrs	r6, r6, r3
 628              	.LVL65:
 629 0178 46F40066 		orr	r6, r6, #2048
 630              	.LVL66:
 359:STM32F10x_StdPeriph_Driver/src/stm32f10x_spi.c ****  
 360:STM32F10x_StdPeriph_Driver/src/stm32f10x_spi.c ****   /* Write to SPIx I2SCFGR */  
 361:STM32F10x_StdPeriph_Driver/src/stm32f10x_spi.c ****   SPIx->I2SCFGR = tmpreg;   
 631              		.loc 1 361 0
 632 017c AE83     		strh	r6, [r5, #28]	@ movhi
 362:STM32F10x_StdPeriph_Driver/src/stm32f10x_spi.c **** }
 633              		.loc 1 362 0
 634 017e 07B0     		add	sp, sp, #28
 635              	.LCFI4:
 636              		.cfi_def_cfa_offset 20
 637              		@ sp needed
 638 0180 F0BD     		pop	{r4, r5, r6, r7, pc}
 639              	.LVL67:
 640              	.L41:
 641 0182 00BF     		.align	2
 642              	.L40:
 643 0184 00380040 		.word	1073756160
 644 0188 00000000 		.word	.LC0
 645 018c 00770100 		.word	96000
 646 0190 CDCCCCCC 		.word	-858993459
 647              		.cfi_endproc
 648              	.LFE29:
 650              		.section	.text.SPI_StructInit,"ax",%progbits
 651              		.align	2
 652              		.global	SPI_StructInit
 653              		.thumb
 654              		.thumb_func
 656              	SPI_StructInit:
 657              	.LFB30:
 363:STM32F10x_StdPeriph_Driver/src/stm32f10x_spi.c **** 
 364:STM32F10x_StdPeriph_Driver/src/stm32f10x_spi.c **** /**
 365:STM32F10x_StdPeriph_Driver/src/stm32f10x_spi.c ****   * @brief  Fills each SPI_InitStruct member with its default value.
 366:STM32F10x_StdPeriph_Driver/src/stm32f10x_spi.c ****   * @param  SPI_InitStruct : pointer to a SPI_InitTypeDef structure which will be initialized.
 367:STM32F10x_StdPeriph_Driver/src/stm32f10x_spi.c ****   * @retval None
 368:STM32F10x_StdPeriph_Driver/src/stm32f10x_spi.c ****   */
 369:STM32F10x_StdPeriph_Driver/src/stm32f10x_spi.c **** void SPI_StructInit(SPI_InitTypeDef* SPI_InitStruct)
 370:STM32F10x_StdPeriph_Driver/src/stm32f10x_spi.c **** {
ARM GAS  /var/folders/g9/bbpj86ld7fx45vd1b3pqxmp00000gn/T//ccxK7sY3.s 			page 19


 658              		.loc 1 370 0
 659              		.cfi_startproc
 660              		@ args = 0, pretend = 0, frame = 0
 661              		@ frame_needed = 0, uses_anonymous_args = 0
 662              		@ link register save eliminated.
 663              	.LVL68:
 371:STM32F10x_StdPeriph_Driver/src/stm32f10x_spi.c **** /*--------------- Reset SPI init structure parameters values -----------------*/
 372:STM32F10x_StdPeriph_Driver/src/stm32f10x_spi.c ****   /* Initialize the SPI_Direction member */
 373:STM32F10x_StdPeriph_Driver/src/stm32f10x_spi.c ****   SPI_InitStruct->SPI_Direction = SPI_Direction_2Lines_FullDuplex;
 664              		.loc 1 373 0
 665 0000 0023     		movs	r3, #0
 666 0002 0380     		strh	r3, [r0]	@ movhi
 374:STM32F10x_StdPeriph_Driver/src/stm32f10x_spi.c ****   /* initialize the SPI_Mode member */
 375:STM32F10x_StdPeriph_Driver/src/stm32f10x_spi.c ****   SPI_InitStruct->SPI_Mode = SPI_Mode_Slave;
 667              		.loc 1 375 0
 668 0004 4380     		strh	r3, [r0, #2]	@ movhi
 376:STM32F10x_StdPeriph_Driver/src/stm32f10x_spi.c ****   /* initialize the SPI_DataSize member */
 377:STM32F10x_StdPeriph_Driver/src/stm32f10x_spi.c ****   SPI_InitStruct->SPI_DataSize = SPI_DataSize_8b;
 669              		.loc 1 377 0
 670 0006 8380     		strh	r3, [r0, #4]	@ movhi
 378:STM32F10x_StdPeriph_Driver/src/stm32f10x_spi.c ****   /* Initialize the SPI_CPOL member */
 379:STM32F10x_StdPeriph_Driver/src/stm32f10x_spi.c ****   SPI_InitStruct->SPI_CPOL = SPI_CPOL_Low;
 671              		.loc 1 379 0
 672 0008 C380     		strh	r3, [r0, #6]	@ movhi
 380:STM32F10x_StdPeriph_Driver/src/stm32f10x_spi.c ****   /* Initialize the SPI_CPHA member */
 381:STM32F10x_StdPeriph_Driver/src/stm32f10x_spi.c ****   SPI_InitStruct->SPI_CPHA = SPI_CPHA_1Edge;
 673              		.loc 1 381 0
 674 000a 0381     		strh	r3, [r0, #8]	@ movhi
 382:STM32F10x_StdPeriph_Driver/src/stm32f10x_spi.c ****   /* Initialize the SPI_NSS member */
 383:STM32F10x_StdPeriph_Driver/src/stm32f10x_spi.c ****   SPI_InitStruct->SPI_NSS = SPI_NSS_Hard;
 675              		.loc 1 383 0
 676 000c 4381     		strh	r3, [r0, #10]	@ movhi
 384:STM32F10x_StdPeriph_Driver/src/stm32f10x_spi.c ****   /* Initialize the SPI_BaudRatePrescaler member */
 385:STM32F10x_StdPeriph_Driver/src/stm32f10x_spi.c ****   SPI_InitStruct->SPI_BaudRatePrescaler = SPI_BaudRatePrescaler_2;
 677              		.loc 1 385 0
 678 000e 8381     		strh	r3, [r0, #12]	@ movhi
 386:STM32F10x_StdPeriph_Driver/src/stm32f10x_spi.c ****   /* Initialize the SPI_FirstBit member */
 387:STM32F10x_StdPeriph_Driver/src/stm32f10x_spi.c ****   SPI_InitStruct->SPI_FirstBit = SPI_FirstBit_MSB;
 679              		.loc 1 387 0
 680 0010 C381     		strh	r3, [r0, #14]	@ movhi
 388:STM32F10x_StdPeriph_Driver/src/stm32f10x_spi.c ****   /* Initialize the SPI_CRCPolynomial member */
 389:STM32F10x_StdPeriph_Driver/src/stm32f10x_spi.c ****   SPI_InitStruct->SPI_CRCPolynomial = 7;
 681              		.loc 1 389 0
 682 0012 0723     		movs	r3, #7
 683 0014 0382     		strh	r3, [r0, #16]	@ movhi
 684 0016 7047     		bx	lr
 685              		.cfi_endproc
 686              	.LFE30:
 688              		.section	.text.I2S_StructInit,"ax",%progbits
 689              		.align	2
 690              		.global	I2S_StructInit
 691              		.thumb
 692              		.thumb_func
 694              	I2S_StructInit:
 695              	.LFB31:
 390:STM32F10x_StdPeriph_Driver/src/stm32f10x_spi.c **** }
 391:STM32F10x_StdPeriph_Driver/src/stm32f10x_spi.c **** 
ARM GAS  /var/folders/g9/bbpj86ld7fx45vd1b3pqxmp00000gn/T//ccxK7sY3.s 			page 20


 392:STM32F10x_StdPeriph_Driver/src/stm32f10x_spi.c **** /**
 393:STM32F10x_StdPeriph_Driver/src/stm32f10x_spi.c ****   * @brief  Fills each I2S_InitStruct member with its default value.
 394:STM32F10x_StdPeriph_Driver/src/stm32f10x_spi.c ****   * @param  I2S_InitStruct : pointer to a I2S_InitTypeDef structure which will be initialized.
 395:STM32F10x_StdPeriph_Driver/src/stm32f10x_spi.c ****   * @retval None
 396:STM32F10x_StdPeriph_Driver/src/stm32f10x_spi.c ****   */
 397:STM32F10x_StdPeriph_Driver/src/stm32f10x_spi.c **** void I2S_StructInit(I2S_InitTypeDef* I2S_InitStruct)
 398:STM32F10x_StdPeriph_Driver/src/stm32f10x_spi.c **** {
 696              		.loc 1 398 0
 697              		.cfi_startproc
 698              		@ args = 0, pretend = 0, frame = 0
 699              		@ frame_needed = 0, uses_anonymous_args = 0
 700              		@ link register save eliminated.
 701              	.LVL69:
 399:STM32F10x_StdPeriph_Driver/src/stm32f10x_spi.c **** /*--------------- Reset I2S init structure parameters values -----------------*/
 400:STM32F10x_StdPeriph_Driver/src/stm32f10x_spi.c ****   /* Initialize the I2S_Mode member */
 401:STM32F10x_StdPeriph_Driver/src/stm32f10x_spi.c ****   I2S_InitStruct->I2S_Mode = I2S_Mode_SlaveTx;
 702              		.loc 1 401 0
 703 0000 0023     		movs	r3, #0
 704 0002 0380     		strh	r3, [r0]	@ movhi
 402:STM32F10x_StdPeriph_Driver/src/stm32f10x_spi.c ****   
 403:STM32F10x_StdPeriph_Driver/src/stm32f10x_spi.c ****   /* Initialize the I2S_Standard member */
 404:STM32F10x_StdPeriph_Driver/src/stm32f10x_spi.c ****   I2S_InitStruct->I2S_Standard = I2S_Standard_Phillips;
 705              		.loc 1 404 0
 706 0004 4380     		strh	r3, [r0, #2]	@ movhi
 405:STM32F10x_StdPeriph_Driver/src/stm32f10x_spi.c ****   
 406:STM32F10x_StdPeriph_Driver/src/stm32f10x_spi.c ****   /* Initialize the I2S_DataFormat member */
 407:STM32F10x_StdPeriph_Driver/src/stm32f10x_spi.c ****   I2S_InitStruct->I2S_DataFormat = I2S_DataFormat_16b;
 707              		.loc 1 407 0
 708 0006 8380     		strh	r3, [r0, #4]	@ movhi
 408:STM32F10x_StdPeriph_Driver/src/stm32f10x_spi.c ****   
 409:STM32F10x_StdPeriph_Driver/src/stm32f10x_spi.c ****   /* Initialize the I2S_MCLKOutput member */
 410:STM32F10x_StdPeriph_Driver/src/stm32f10x_spi.c ****   I2S_InitStruct->I2S_MCLKOutput = I2S_MCLKOutput_Disable;
 709              		.loc 1 410 0
 710 0008 C380     		strh	r3, [r0, #6]	@ movhi
 411:STM32F10x_StdPeriph_Driver/src/stm32f10x_spi.c ****   
 412:STM32F10x_StdPeriph_Driver/src/stm32f10x_spi.c ****   /* Initialize the I2S_AudioFreq member */
 413:STM32F10x_StdPeriph_Driver/src/stm32f10x_spi.c ****   I2S_InitStruct->I2S_AudioFreq = I2S_AudioFreq_Default;
 711              		.loc 1 413 0
 712 000a 0222     		movs	r2, #2
 713 000c 8260     		str	r2, [r0, #8]
 414:STM32F10x_StdPeriph_Driver/src/stm32f10x_spi.c ****   
 415:STM32F10x_StdPeriph_Driver/src/stm32f10x_spi.c ****   /* Initialize the I2S_CPOL member */
 416:STM32F10x_StdPeriph_Driver/src/stm32f10x_spi.c ****   I2S_InitStruct->I2S_CPOL = I2S_CPOL_Low;
 714              		.loc 1 416 0
 715 000e 8381     		strh	r3, [r0, #12]	@ movhi
 716 0010 7047     		bx	lr
 717              		.cfi_endproc
 718              	.LFE31:
 720 0012 00BF     		.section	.text.SPI_Cmd,"ax",%progbits
 721              		.align	2
 722              		.global	SPI_Cmd
 723              		.thumb
 724              		.thumb_func
 726              	SPI_Cmd:
 727              	.LFB32:
 417:STM32F10x_StdPeriph_Driver/src/stm32f10x_spi.c **** }
 418:STM32F10x_StdPeriph_Driver/src/stm32f10x_spi.c **** 
ARM GAS  /var/folders/g9/bbpj86ld7fx45vd1b3pqxmp00000gn/T//ccxK7sY3.s 			page 21


 419:STM32F10x_StdPeriph_Driver/src/stm32f10x_spi.c **** /**
 420:STM32F10x_StdPeriph_Driver/src/stm32f10x_spi.c ****   * @brief  Enables or disables the specified SPI peripheral.
 421:STM32F10x_StdPeriph_Driver/src/stm32f10x_spi.c ****   * @param  SPIx: where x can be 1, 2 or 3 to select the SPI peripheral.
 422:STM32F10x_StdPeriph_Driver/src/stm32f10x_spi.c ****   * @param  NewState: new state of the SPIx peripheral. 
 423:STM32F10x_StdPeriph_Driver/src/stm32f10x_spi.c ****   *   This parameter can be: ENABLE or DISABLE.
 424:STM32F10x_StdPeriph_Driver/src/stm32f10x_spi.c ****   * @retval None
 425:STM32F10x_StdPeriph_Driver/src/stm32f10x_spi.c ****   */
 426:STM32F10x_StdPeriph_Driver/src/stm32f10x_spi.c **** void SPI_Cmd(SPI_TypeDef* SPIx, FunctionalState NewState)
 427:STM32F10x_StdPeriph_Driver/src/stm32f10x_spi.c **** {
 728              		.loc 1 427 0
 729              		.cfi_startproc
 730              		@ args = 0, pretend = 0, frame = 0
 731              		@ frame_needed = 0, uses_anonymous_args = 0
 732              	.LVL70:
 733 0000 38B5     		push	{r3, r4, r5, lr}
 734              	.LCFI5:
 735              		.cfi_def_cfa_offset 16
 736              		.cfi_offset 3, -16
 737              		.cfi_offset 4, -12
 738              		.cfi_offset 5, -8
 739              		.cfi_offset 14, -4
 740 0002 0446     		mov	r4, r0
 741 0004 0D46     		mov	r5, r1
 428:STM32F10x_StdPeriph_Driver/src/stm32f10x_spi.c ****   /* Check the parameters */
 429:STM32F10x_StdPeriph_Driver/src/stm32f10x_spi.c ****   assert_param(IS_SPI_ALL_PERIPH(SPIx));
 742              		.loc 1 429 0
 743 0006 124B     		ldr	r3, .L50
 744 0008 9842     		cmp	r0, r3
 745 000a 0CD0     		beq	.L45
 746              		.loc 1 429 0 is_stmt 0 discriminator 1
 747 000c A3F57843 		sub	r3, r3, #63488
 748 0010 9842     		cmp	r0, r3
 749 0012 08D0     		beq	.L45
 750              		.loc 1 429 0 discriminator 2
 751 0014 03F58063 		add	r3, r3, #1024
 752 0018 9842     		cmp	r0, r3
 753 001a 04D0     		beq	.L45
 754              		.loc 1 429 0 discriminator 3
 755 001c 40F2AD11 		movw	r1, #429
 756              	.LVL71:
 757 0020 0C48     		ldr	r0, .L50+4
 758              	.LVL72:
 759 0022 FFF7FEFF 		bl	assert_failed
 760              	.LVL73:
 761              	.L45:
 430:STM32F10x_StdPeriph_Driver/src/stm32f10x_spi.c ****   assert_param(IS_FUNCTIONAL_STATE(NewState));
 762              		.loc 1 430 0 is_stmt 1
 763 0026 012D     		cmp	r5, #1
 764 0028 04D9     		bls	.L46
 765              		.loc 1 430 0 is_stmt 0 discriminator 1
 766 002a 4FF4D771 		mov	r1, #430
 767 002e 0948     		ldr	r0, .L50+4
 768 0030 FFF7FEFF 		bl	assert_failed
 769              	.LVL74:
 770              	.L46:
 431:STM32F10x_StdPeriph_Driver/src/stm32f10x_spi.c ****   if (NewState != DISABLE)
 771              		.loc 1 431 0 is_stmt 1
ARM GAS  /var/folders/g9/bbpj86ld7fx45vd1b3pqxmp00000gn/T//ccxK7sY3.s 			page 22


 772 0034 2DB1     		cbz	r5, .L47
 432:STM32F10x_StdPeriph_Driver/src/stm32f10x_spi.c ****   {
 433:STM32F10x_StdPeriph_Driver/src/stm32f10x_spi.c ****     /* Enable the selected SPI peripheral */
 434:STM32F10x_StdPeriph_Driver/src/stm32f10x_spi.c ****     SPIx->CR1 |= CR1_SPE_Set;
 773              		.loc 1 434 0
 774 0036 2388     		ldrh	r3, [r4]
 775 0038 9BB2     		uxth	r3, r3
 776 003a 43F04003 		orr	r3, r3, #64
 777 003e 2380     		strh	r3, [r4]	@ movhi
 778 0040 38BD     		pop	{r3, r4, r5, pc}
 779              	.LVL75:
 780              	.L47:
 435:STM32F10x_StdPeriph_Driver/src/stm32f10x_spi.c ****   }
 436:STM32F10x_StdPeriph_Driver/src/stm32f10x_spi.c ****   else
 437:STM32F10x_StdPeriph_Driver/src/stm32f10x_spi.c ****   {
 438:STM32F10x_StdPeriph_Driver/src/stm32f10x_spi.c ****     /* Disable the selected SPI peripheral */
 439:STM32F10x_StdPeriph_Driver/src/stm32f10x_spi.c ****     SPIx->CR1 &= CR1_SPE_Reset;
 781              		.loc 1 439 0
 782 0042 2388     		ldrh	r3, [r4]
 783 0044 9BB2     		uxth	r3, r3
 784 0046 23F04003 		bic	r3, r3, #64
 785 004a 9BB2     		uxth	r3, r3
 786 004c 2380     		strh	r3, [r4]	@ movhi
 787 004e 38BD     		pop	{r3, r4, r5, pc}
 788              	.LVL76:
 789              	.L51:
 790              		.align	2
 791              	.L50:
 792 0050 00300140 		.word	1073819648
 793 0054 00000000 		.word	.LC0
 794              		.cfi_endproc
 795              	.LFE32:
 797              		.section	.text.I2S_Cmd,"ax",%progbits
 798              		.align	2
 799              		.global	I2S_Cmd
 800              		.thumb
 801              		.thumb_func
 803              	I2S_Cmd:
 804              	.LFB33:
 440:STM32F10x_StdPeriph_Driver/src/stm32f10x_spi.c ****   }
 441:STM32F10x_StdPeriph_Driver/src/stm32f10x_spi.c **** }
 442:STM32F10x_StdPeriph_Driver/src/stm32f10x_spi.c **** 
 443:STM32F10x_StdPeriph_Driver/src/stm32f10x_spi.c **** /**
 444:STM32F10x_StdPeriph_Driver/src/stm32f10x_spi.c ****   * @brief  Enables or disables the specified SPI peripheral (in I2S mode).
 445:STM32F10x_StdPeriph_Driver/src/stm32f10x_spi.c ****   * @param  SPIx: where x can be 2 or 3 to select the SPI peripheral.
 446:STM32F10x_StdPeriph_Driver/src/stm32f10x_spi.c ****   * @param  NewState: new state of the SPIx peripheral. 
 447:STM32F10x_StdPeriph_Driver/src/stm32f10x_spi.c ****   *   This parameter can be: ENABLE or DISABLE.
 448:STM32F10x_StdPeriph_Driver/src/stm32f10x_spi.c ****   * @retval None
 449:STM32F10x_StdPeriph_Driver/src/stm32f10x_spi.c ****   */
 450:STM32F10x_StdPeriph_Driver/src/stm32f10x_spi.c **** void I2S_Cmd(SPI_TypeDef* SPIx, FunctionalState NewState)
 451:STM32F10x_StdPeriph_Driver/src/stm32f10x_spi.c **** {
 805              		.loc 1 451 0
 806              		.cfi_startproc
 807              		@ args = 0, pretend = 0, frame = 0
 808              		@ frame_needed = 0, uses_anonymous_args = 0
 809              	.LVL77:
 810 0000 38B5     		push	{r3, r4, r5, lr}
ARM GAS  /var/folders/g9/bbpj86ld7fx45vd1b3pqxmp00000gn/T//ccxK7sY3.s 			page 23


 811              	.LCFI6:
 812              		.cfi_def_cfa_offset 16
 813              		.cfi_offset 3, -16
 814              		.cfi_offset 4, -12
 815              		.cfi_offset 5, -8
 816              		.cfi_offset 14, -4
 817 0002 0446     		mov	r4, r0
 818 0004 0D46     		mov	r5, r1
 452:STM32F10x_StdPeriph_Driver/src/stm32f10x_spi.c ****   /* Check the parameters */
 453:STM32F10x_StdPeriph_Driver/src/stm32f10x_spi.c ****   assert_param(IS_SPI_23_PERIPH(SPIx));
 819              		.loc 1 453 0
 820 0006 104B     		ldr	r3, .L58
 821 0008 9842     		cmp	r0, r3
 822 000a 08D0     		beq	.L53
 823              		.loc 1 453 0 is_stmt 0 discriminator 1
 824 000c 03F58063 		add	r3, r3, #1024
 825 0010 9842     		cmp	r0, r3
 826 0012 04D0     		beq	.L53
 827              		.loc 1 453 0 discriminator 2
 828 0014 40F2C511 		movw	r1, #453
 829              	.LVL78:
 830 0018 0C48     		ldr	r0, .L58+4
 831              	.LVL79:
 832 001a FFF7FEFF 		bl	assert_failed
 833              	.LVL80:
 834              	.L53:
 454:STM32F10x_StdPeriph_Driver/src/stm32f10x_spi.c ****   assert_param(IS_FUNCTIONAL_STATE(NewState));
 835              		.loc 1 454 0 is_stmt 1
 836 001e 012D     		cmp	r5, #1
 837 0020 04D9     		bls	.L54
 838              		.loc 1 454 0 is_stmt 0 discriminator 1
 839 0022 4FF4E371 		mov	r1, #454
 840 0026 0948     		ldr	r0, .L58+4
 841 0028 FFF7FEFF 		bl	assert_failed
 842              	.LVL81:
 843              	.L54:
 455:STM32F10x_StdPeriph_Driver/src/stm32f10x_spi.c ****   if (NewState != DISABLE)
 844              		.loc 1 455 0 is_stmt 1
 845 002c 2DB1     		cbz	r5, .L55
 456:STM32F10x_StdPeriph_Driver/src/stm32f10x_spi.c ****   {
 457:STM32F10x_StdPeriph_Driver/src/stm32f10x_spi.c ****     /* Enable the selected SPI peripheral (in I2S mode) */
 458:STM32F10x_StdPeriph_Driver/src/stm32f10x_spi.c ****     SPIx->I2SCFGR |= I2SCFGR_I2SE_Set;
 846              		.loc 1 458 0
 847 002e A38B     		ldrh	r3, [r4, #28]
 848 0030 9BB2     		uxth	r3, r3
 849 0032 43F48063 		orr	r3, r3, #1024
 850 0036 A383     		strh	r3, [r4, #28]	@ movhi
 851 0038 38BD     		pop	{r3, r4, r5, pc}
 852              	.LVL82:
 853              	.L55:
 459:STM32F10x_StdPeriph_Driver/src/stm32f10x_spi.c ****   }
 460:STM32F10x_StdPeriph_Driver/src/stm32f10x_spi.c ****   else
 461:STM32F10x_StdPeriph_Driver/src/stm32f10x_spi.c ****   {
 462:STM32F10x_StdPeriph_Driver/src/stm32f10x_spi.c ****     /* Disable the selected SPI peripheral (in I2S mode) */
 463:STM32F10x_StdPeriph_Driver/src/stm32f10x_spi.c ****     SPIx->I2SCFGR &= I2SCFGR_I2SE_Reset;
 854              		.loc 1 463 0
 855 003a A38B     		ldrh	r3, [r4, #28]
ARM GAS  /var/folders/g9/bbpj86ld7fx45vd1b3pqxmp00000gn/T//ccxK7sY3.s 			page 24


 856 003c 9BB2     		uxth	r3, r3
 857 003e 23F48063 		bic	r3, r3, #1024
 858 0042 9BB2     		uxth	r3, r3
 859 0044 A383     		strh	r3, [r4, #28]	@ movhi
 860 0046 38BD     		pop	{r3, r4, r5, pc}
 861              	.LVL83:
 862              	.L59:
 863              		.align	2
 864              	.L58:
 865 0048 00380040 		.word	1073756160
 866 004c 00000000 		.word	.LC0
 867              		.cfi_endproc
 868              	.LFE33:
 870              		.section	.text.SPI_I2S_ITConfig,"ax",%progbits
 871              		.align	2
 872              		.global	SPI_I2S_ITConfig
 873              		.thumb
 874              		.thumb_func
 876              	SPI_I2S_ITConfig:
 877              	.LFB34:
 464:STM32F10x_StdPeriph_Driver/src/stm32f10x_spi.c ****   }
 465:STM32F10x_StdPeriph_Driver/src/stm32f10x_spi.c **** }
 466:STM32F10x_StdPeriph_Driver/src/stm32f10x_spi.c **** 
 467:STM32F10x_StdPeriph_Driver/src/stm32f10x_spi.c **** /**
 468:STM32F10x_StdPeriph_Driver/src/stm32f10x_spi.c ****   * @brief  Enables or disables the specified SPI/I2S interrupts.
 469:STM32F10x_StdPeriph_Driver/src/stm32f10x_spi.c ****   * @param  SPIx: where x can be
 470:STM32F10x_StdPeriph_Driver/src/stm32f10x_spi.c ****   *   - 1, 2 or 3 in SPI mode 
 471:STM32F10x_StdPeriph_Driver/src/stm32f10x_spi.c ****   *   - 2 or 3 in I2S mode
 472:STM32F10x_StdPeriph_Driver/src/stm32f10x_spi.c ****   * @param  SPI_I2S_IT: specifies the SPI/I2S interrupt source to be enabled or disabled. 
 473:STM32F10x_StdPeriph_Driver/src/stm32f10x_spi.c ****   *   This parameter can be one of the following values:
 474:STM32F10x_StdPeriph_Driver/src/stm32f10x_spi.c ****   *     @arg SPI_I2S_IT_TXE: Tx buffer empty interrupt mask
 475:STM32F10x_StdPeriph_Driver/src/stm32f10x_spi.c ****   *     @arg SPI_I2S_IT_RXNE: Rx buffer not empty interrupt mask
 476:STM32F10x_StdPeriph_Driver/src/stm32f10x_spi.c ****   *     @arg SPI_I2S_IT_ERR: Error interrupt mask
 477:STM32F10x_StdPeriph_Driver/src/stm32f10x_spi.c ****   * @param  NewState: new state of the specified SPI/I2S interrupt.
 478:STM32F10x_StdPeriph_Driver/src/stm32f10x_spi.c ****   *   This parameter can be: ENABLE or DISABLE.
 479:STM32F10x_StdPeriph_Driver/src/stm32f10x_spi.c ****   * @retval None
 480:STM32F10x_StdPeriph_Driver/src/stm32f10x_spi.c ****   */
 481:STM32F10x_StdPeriph_Driver/src/stm32f10x_spi.c **** void SPI_I2S_ITConfig(SPI_TypeDef* SPIx, uint8_t SPI_I2S_IT, FunctionalState NewState)
 482:STM32F10x_StdPeriph_Driver/src/stm32f10x_spi.c **** {
 878              		.loc 1 482 0
 879              		.cfi_startproc
 880              		@ args = 0, pretend = 0, frame = 0
 881              		@ frame_needed = 0, uses_anonymous_args = 0
 882              	.LVL84:
 883 0000 70B5     		push	{r4, r5, r6, lr}
 884              	.LCFI7:
 885              		.cfi_def_cfa_offset 16
 886              		.cfi_offset 4, -16
 887              		.cfi_offset 5, -12
 888              		.cfi_offset 6, -8
 889              		.cfi_offset 14, -4
 890 0002 0546     		mov	r5, r0
 891 0004 0C46     		mov	r4, r1
 892 0006 1646     		mov	r6, r2
 893              	.LVL85:
 483:STM32F10x_StdPeriph_Driver/src/stm32f10x_spi.c ****   uint16_t itpos = 0, itmask = 0 ;
 484:STM32F10x_StdPeriph_Driver/src/stm32f10x_spi.c ****   /* Check the parameters */
ARM GAS  /var/folders/g9/bbpj86ld7fx45vd1b3pqxmp00000gn/T//ccxK7sY3.s 			page 25


 485:STM32F10x_StdPeriph_Driver/src/stm32f10x_spi.c ****   assert_param(IS_SPI_ALL_PERIPH(SPIx));
 894              		.loc 1 485 0
 895 0008 194B     		ldr	r3, .L67
 896 000a 9842     		cmp	r0, r3
 897 000c 0CD0     		beq	.L61
 898              		.loc 1 485 0 is_stmt 0 discriminator 1
 899 000e A3F57843 		sub	r3, r3, #63488
 900 0012 9842     		cmp	r0, r3
 901 0014 08D0     		beq	.L61
 902              		.loc 1 485 0 discriminator 2
 903 0016 03F58063 		add	r3, r3, #1024
 904 001a 9842     		cmp	r0, r3
 905 001c 04D0     		beq	.L61
 906              		.loc 1 485 0 discriminator 3
 907 001e 40F2E511 		movw	r1, #485
 908              	.LVL86:
 909 0022 1448     		ldr	r0, .L67+4
 910              	.LVL87:
 911 0024 FFF7FEFF 		bl	assert_failed
 912              	.LVL88:
 913              	.L61:
 486:STM32F10x_StdPeriph_Driver/src/stm32f10x_spi.c ****   assert_param(IS_FUNCTIONAL_STATE(NewState));
 914              		.loc 1 486 0 is_stmt 1
 915 0028 012E     		cmp	r6, #1
 916 002a 04D9     		bls	.L62
 917              		.loc 1 486 0 is_stmt 0 discriminator 1
 918 002c 4FF4F371 		mov	r1, #486
 919 0030 1048     		ldr	r0, .L67+4
 920 0032 FFF7FEFF 		bl	assert_failed
 921              	.LVL89:
 922              	.L62:
 487:STM32F10x_StdPeriph_Driver/src/stm32f10x_spi.c ****   assert_param(IS_SPI_I2S_CONFIG_IT(SPI_I2S_IT));
 923              		.loc 1 487 0 is_stmt 1
 924 0036 712C     		cmp	r4, #113
 925 0038 08D0     		beq	.L63
 926              		.loc 1 487 0 is_stmt 0 discriminator 1
 927 003a 602C     		cmp	r4, #96
 928 003c 06D0     		beq	.L63
 929              		.loc 1 487 0 discriminator 2
 930 003e 502C     		cmp	r4, #80
 931 0040 04D0     		beq	.L63
 932              		.loc 1 487 0 discriminator 3
 933 0042 40F2E711 		movw	r1, #487
 934 0046 0B48     		ldr	r0, .L67+4
 935 0048 FFF7FEFF 		bl	assert_failed
 936              	.LVL90:
 937              	.L63:
 488:STM32F10x_StdPeriph_Driver/src/stm32f10x_spi.c **** 
 489:STM32F10x_StdPeriph_Driver/src/stm32f10x_spi.c ****   /* Get the SPI/I2S IT index */
 490:STM32F10x_StdPeriph_Driver/src/stm32f10x_spi.c ****   itpos = SPI_I2S_IT >> 4;
 938              		.loc 1 490 0 is_stmt 1
 939 004c 2109     		lsrs	r1, r4, #4
 940              	.LVL91:
 491:STM32F10x_StdPeriph_Driver/src/stm32f10x_spi.c **** 
 492:STM32F10x_StdPeriph_Driver/src/stm32f10x_spi.c ****   /* Set the IT mask */
 493:STM32F10x_StdPeriph_Driver/src/stm32f10x_spi.c ****   itmask = (uint16_t)1 << (uint16_t)itpos;
 941              		.loc 1 493 0
ARM GAS  /var/folders/g9/bbpj86ld7fx45vd1b3pqxmp00000gn/T//ccxK7sY3.s 			page 26


 942 004e 0123     		movs	r3, #1
 943 0050 03FA01F1 		lsl	r1, r3, r1
 944              	.LVL92:
 945 0054 89B2     		uxth	r1, r1
 946              	.LVL93:
 494:STM32F10x_StdPeriph_Driver/src/stm32f10x_spi.c **** 
 495:STM32F10x_StdPeriph_Driver/src/stm32f10x_spi.c ****   if (NewState != DISABLE)
 947              		.loc 1 495 0
 948 0056 26B1     		cbz	r6, .L64
 496:STM32F10x_StdPeriph_Driver/src/stm32f10x_spi.c ****   {
 497:STM32F10x_StdPeriph_Driver/src/stm32f10x_spi.c ****     /* Enable the selected SPI/I2S interrupt */
 498:STM32F10x_StdPeriph_Driver/src/stm32f10x_spi.c ****     SPIx->CR2 |= itmask;
 949              		.loc 1 498 0
 950 0058 AB88     		ldrh	r3, [r5, #4]
 951 005a 9BB2     		uxth	r3, r3
 952 005c 1943     		orrs	r1, r1, r3
 953              	.LVL94:
 954 005e A980     		strh	r1, [r5, #4]	@ movhi
 955 0060 70BD     		pop	{r4, r5, r6, pc}
 956              	.LVL95:
 957              	.L64:
 499:STM32F10x_StdPeriph_Driver/src/stm32f10x_spi.c ****   }
 500:STM32F10x_StdPeriph_Driver/src/stm32f10x_spi.c ****   else
 501:STM32F10x_StdPeriph_Driver/src/stm32f10x_spi.c ****   {
 502:STM32F10x_StdPeriph_Driver/src/stm32f10x_spi.c ****     /* Disable the selected SPI/I2S interrupt */
 503:STM32F10x_StdPeriph_Driver/src/stm32f10x_spi.c ****     SPIx->CR2 &= (uint16_t)~itmask;
 958              		.loc 1 503 0
 959 0062 AB88     		ldrh	r3, [r5, #4]
 960 0064 C943     		mvns	r1, r1
 961              	.LVL96:
 962 0066 89B2     		uxth	r1, r1
 963              	.LVL97:
 964 0068 1940     		ands	r1, r1, r3
 965 006a A980     		strh	r1, [r5, #4]	@ movhi
 966 006c 70BD     		pop	{r4, r5, r6, pc}
 967              	.LVL98:
 968              	.L68:
 969 006e 00BF     		.align	2
 970              	.L67:
 971 0070 00300140 		.word	1073819648
 972 0074 00000000 		.word	.LC0
 973              		.cfi_endproc
 974              	.LFE34:
 976              		.section	.text.SPI_I2S_DMACmd,"ax",%progbits
 977              		.align	2
 978              		.global	SPI_I2S_DMACmd
 979              		.thumb
 980              		.thumb_func
 982              	SPI_I2S_DMACmd:
 983              	.LFB35:
 504:STM32F10x_StdPeriph_Driver/src/stm32f10x_spi.c ****   }
 505:STM32F10x_StdPeriph_Driver/src/stm32f10x_spi.c **** }
 506:STM32F10x_StdPeriph_Driver/src/stm32f10x_spi.c **** 
 507:STM32F10x_StdPeriph_Driver/src/stm32f10x_spi.c **** /**
 508:STM32F10x_StdPeriph_Driver/src/stm32f10x_spi.c ****   * @brief  Enables or disables the SPIx/I2Sx DMA interface.
 509:STM32F10x_StdPeriph_Driver/src/stm32f10x_spi.c ****   * @param  SPIx: where x can be
 510:STM32F10x_StdPeriph_Driver/src/stm32f10x_spi.c ****   *   - 1, 2 or 3 in SPI mode 
ARM GAS  /var/folders/g9/bbpj86ld7fx45vd1b3pqxmp00000gn/T//ccxK7sY3.s 			page 27


 511:STM32F10x_StdPeriph_Driver/src/stm32f10x_spi.c ****   *   - 2 or 3 in I2S mode
 512:STM32F10x_StdPeriph_Driver/src/stm32f10x_spi.c ****   * @param  SPI_I2S_DMAReq: specifies the SPI/I2S DMA transfer request to be enabled or disabled. 
 513:STM32F10x_StdPeriph_Driver/src/stm32f10x_spi.c ****   *   This parameter can be any combination of the following values:
 514:STM32F10x_StdPeriph_Driver/src/stm32f10x_spi.c ****   *     @arg SPI_I2S_DMAReq_Tx: Tx buffer DMA transfer request
 515:STM32F10x_StdPeriph_Driver/src/stm32f10x_spi.c ****   *     @arg SPI_I2S_DMAReq_Rx: Rx buffer DMA transfer request
 516:STM32F10x_StdPeriph_Driver/src/stm32f10x_spi.c ****   * @param  NewState: new state of the selected SPI/I2S DMA transfer request.
 517:STM32F10x_StdPeriph_Driver/src/stm32f10x_spi.c ****   *   This parameter can be: ENABLE or DISABLE.
 518:STM32F10x_StdPeriph_Driver/src/stm32f10x_spi.c ****   * @retval None
 519:STM32F10x_StdPeriph_Driver/src/stm32f10x_spi.c ****   */
 520:STM32F10x_StdPeriph_Driver/src/stm32f10x_spi.c **** void SPI_I2S_DMACmd(SPI_TypeDef* SPIx, uint16_t SPI_I2S_DMAReq, FunctionalState NewState)
 521:STM32F10x_StdPeriph_Driver/src/stm32f10x_spi.c **** {
 984              		.loc 1 521 0
 985              		.cfi_startproc
 986              		@ args = 0, pretend = 0, frame = 0
 987              		@ frame_needed = 0, uses_anonymous_args = 0
 988              	.LVL99:
 989 0000 70B5     		push	{r4, r5, r6, lr}
 990              	.LCFI8:
 991              		.cfi_def_cfa_offset 16
 992              		.cfi_offset 4, -16
 993              		.cfi_offset 5, -12
 994              		.cfi_offset 6, -8
 995              		.cfi_offset 14, -4
 996 0002 0546     		mov	r5, r0
 997 0004 0C46     		mov	r4, r1
 998 0006 1646     		mov	r6, r2
 522:STM32F10x_StdPeriph_Driver/src/stm32f10x_spi.c ****   /* Check the parameters */
 523:STM32F10x_StdPeriph_Driver/src/stm32f10x_spi.c ****   assert_param(IS_SPI_ALL_PERIPH(SPIx));
 999              		.loc 1 523 0
 1000 0008 164B     		ldr	r3, .L77
 1001 000a 9842     		cmp	r0, r3
 1002 000c 0CD0     		beq	.L70
 1003              		.loc 1 523 0 is_stmt 0 discriminator 1
 1004 000e A3F57843 		sub	r3, r3, #63488
 1005 0012 9842     		cmp	r0, r3
 1006 0014 08D0     		beq	.L70
 1007              		.loc 1 523 0 discriminator 2
 1008 0016 03F58063 		add	r3, r3, #1024
 1009 001a 9842     		cmp	r0, r3
 1010 001c 04D0     		beq	.L70
 1011              		.loc 1 523 0 discriminator 3
 1012 001e 40F20B21 		movw	r1, #523
 1013              	.LVL100:
 1014 0022 1148     		ldr	r0, .L77+4
 1015              	.LVL101:
 1016 0024 FFF7FEFF 		bl	assert_failed
 1017              	.LVL102:
 1018              	.L70:
 524:STM32F10x_StdPeriph_Driver/src/stm32f10x_spi.c ****   assert_param(IS_FUNCTIONAL_STATE(NewState));
 1019              		.loc 1 524 0 is_stmt 1
 1020 0028 012E     		cmp	r6, #1
 1021 002a 04D9     		bls	.L71
 1022              		.loc 1 524 0 is_stmt 0 discriminator 1
 1023 002c 4FF40371 		mov	r1, #524
 1024 0030 0D48     		ldr	r0, .L77+4
 1025 0032 FFF7FEFF 		bl	assert_failed
 1026              	.LVL103:
ARM GAS  /var/folders/g9/bbpj86ld7fx45vd1b3pqxmp00000gn/T//ccxK7sY3.s 			page 28


 1027              	.L71:
 525:STM32F10x_StdPeriph_Driver/src/stm32f10x_spi.c ****   assert_param(IS_SPI_I2S_DMAREQ(SPI_I2S_DMAReq));
 1028              		.loc 1 525 0 is_stmt 1
 1029 0036 24F00303 		bic	r3, r4, #3
 1030 003a 9BB2     		uxth	r3, r3
 1031 003c 03B9     		cbnz	r3, .L72
 1032              		.loc 1 525 0 is_stmt 0 discriminator 2
 1033 003e 24B9     		cbnz	r4, .L73
 1034              	.L72:
 1035              		.loc 1 525 0 discriminator 3
 1036 0040 40F20D21 		movw	r1, #525
 1037 0044 0848     		ldr	r0, .L77+4
 1038 0046 FFF7FEFF 		bl	assert_failed
 1039              	.LVL104:
 1040              	.L73:
 526:STM32F10x_StdPeriph_Driver/src/stm32f10x_spi.c ****   if (NewState != DISABLE)
 1041              		.loc 1 526 0 is_stmt 1
 1042 004a 26B1     		cbz	r6, .L74
 527:STM32F10x_StdPeriph_Driver/src/stm32f10x_spi.c ****   {
 528:STM32F10x_StdPeriph_Driver/src/stm32f10x_spi.c ****     /* Enable the selected SPI/I2S DMA requests */
 529:STM32F10x_StdPeriph_Driver/src/stm32f10x_spi.c ****     SPIx->CR2 |= SPI_I2S_DMAReq;
 1043              		.loc 1 529 0
 1044 004c AB88     		ldrh	r3, [r5, #4]
 1045 004e 9BB2     		uxth	r3, r3
 1046 0050 1C43     		orrs	r4, r4, r3
 1047 0052 AC80     		strh	r4, [r5, #4]	@ movhi
 1048 0054 70BD     		pop	{r4, r5, r6, pc}
 1049              	.LVL105:
 1050              	.L74:
 530:STM32F10x_StdPeriph_Driver/src/stm32f10x_spi.c ****   }
 531:STM32F10x_StdPeriph_Driver/src/stm32f10x_spi.c ****   else
 532:STM32F10x_StdPeriph_Driver/src/stm32f10x_spi.c ****   {
 533:STM32F10x_StdPeriph_Driver/src/stm32f10x_spi.c ****     /* Disable the selected SPI/I2S DMA requests */
 534:STM32F10x_StdPeriph_Driver/src/stm32f10x_spi.c ****     SPIx->CR2 &= (uint16_t)~SPI_I2S_DMAReq;
 1051              		.loc 1 534 0
 1052 0056 AB88     		ldrh	r3, [r5, #4]
 1053 0058 E443     		mvns	r4, r4
 1054 005a A4B2     		uxth	r4, r4
 1055 005c 1C40     		ands	r4, r4, r3
 1056 005e AC80     		strh	r4, [r5, #4]	@ movhi
 1057 0060 70BD     		pop	{r4, r5, r6, pc}
 1058              	.LVL106:
 1059              	.L78:
 1060 0062 00BF     		.align	2
 1061              	.L77:
 1062 0064 00300140 		.word	1073819648
 1063 0068 00000000 		.word	.LC0
 1064              		.cfi_endproc
 1065              	.LFE35:
 1067              		.section	.text.SPI_I2S_SendData,"ax",%progbits
 1068              		.align	2
 1069              		.global	SPI_I2S_SendData
 1070              		.thumb
 1071              		.thumb_func
 1073              	SPI_I2S_SendData:
 1074              	.LFB36:
 535:STM32F10x_StdPeriph_Driver/src/stm32f10x_spi.c ****   }
ARM GAS  /var/folders/g9/bbpj86ld7fx45vd1b3pqxmp00000gn/T//ccxK7sY3.s 			page 29


 536:STM32F10x_StdPeriph_Driver/src/stm32f10x_spi.c **** }
 537:STM32F10x_StdPeriph_Driver/src/stm32f10x_spi.c **** 
 538:STM32F10x_StdPeriph_Driver/src/stm32f10x_spi.c **** /**
 539:STM32F10x_StdPeriph_Driver/src/stm32f10x_spi.c ****   * @brief  Transmits a Data through the SPIx/I2Sx peripheral.
 540:STM32F10x_StdPeriph_Driver/src/stm32f10x_spi.c ****   * @param  SPIx: where x can be
 541:STM32F10x_StdPeriph_Driver/src/stm32f10x_spi.c ****   *   - 1, 2 or 3 in SPI mode 
 542:STM32F10x_StdPeriph_Driver/src/stm32f10x_spi.c ****   *   - 2 or 3 in I2S mode
 543:STM32F10x_StdPeriph_Driver/src/stm32f10x_spi.c ****   * @param  Data : Data to be transmitted.
 544:STM32F10x_StdPeriph_Driver/src/stm32f10x_spi.c ****   * @retval None
 545:STM32F10x_StdPeriph_Driver/src/stm32f10x_spi.c ****   */
 546:STM32F10x_StdPeriph_Driver/src/stm32f10x_spi.c **** void SPI_I2S_SendData(SPI_TypeDef* SPIx, uint16_t Data)
 547:STM32F10x_StdPeriph_Driver/src/stm32f10x_spi.c **** {
 1075              		.loc 1 547 0
 1076              		.cfi_startproc
 1077              		@ args = 0, pretend = 0, frame = 0
 1078              		@ frame_needed = 0, uses_anonymous_args = 0
 1079              	.LVL107:
 1080 0000 38B5     		push	{r3, r4, r5, lr}
 1081              	.LCFI9:
 1082              		.cfi_def_cfa_offset 16
 1083              		.cfi_offset 3, -16
 1084              		.cfi_offset 4, -12
 1085              		.cfi_offset 5, -8
 1086              		.cfi_offset 14, -4
 1087 0002 0446     		mov	r4, r0
 1088 0004 0D46     		mov	r5, r1
 548:STM32F10x_StdPeriph_Driver/src/stm32f10x_spi.c ****   /* Check the parameters */
 549:STM32F10x_StdPeriph_Driver/src/stm32f10x_spi.c ****   assert_param(IS_SPI_ALL_PERIPH(SPIx));
 1089              		.loc 1 549 0
 1090 0006 094B     		ldr	r3, .L82
 1091 0008 9842     		cmp	r0, r3
 1092 000a 0CD0     		beq	.L80
 1093              		.loc 1 549 0 is_stmt 0 discriminator 1
 1094 000c A3F57843 		sub	r3, r3, #63488
 1095 0010 9842     		cmp	r0, r3
 1096 0012 08D0     		beq	.L80
 1097              		.loc 1 549 0 discriminator 2
 1098 0014 03F58063 		add	r3, r3, #1024
 1099 0018 9842     		cmp	r0, r3
 1100 001a 04D0     		beq	.L80
 1101              		.loc 1 549 0 discriminator 3
 1102 001c 40F22521 		movw	r1, #549
 1103              	.LVL108:
 1104 0020 0348     		ldr	r0, .L82+4
 1105              	.LVL109:
 1106 0022 FFF7FEFF 		bl	assert_failed
 1107              	.LVL110:
 1108              	.L80:
 550:STM32F10x_StdPeriph_Driver/src/stm32f10x_spi.c ****   
 551:STM32F10x_StdPeriph_Driver/src/stm32f10x_spi.c ****   /* Write in the DR register the data to be sent */
 552:STM32F10x_StdPeriph_Driver/src/stm32f10x_spi.c ****   SPIx->DR = Data;
 1109              		.loc 1 552 0 is_stmt 1
 1110 0026 A581     		strh	r5, [r4, #12]	@ movhi
 1111 0028 38BD     		pop	{r3, r4, r5, pc}
 1112              	.LVL111:
 1113              	.L83:
 1114 002a 00BF     		.align	2
ARM GAS  /var/folders/g9/bbpj86ld7fx45vd1b3pqxmp00000gn/T//ccxK7sY3.s 			page 30


 1115              	.L82:
 1116 002c 00300140 		.word	1073819648
 1117 0030 00000000 		.word	.LC0
 1118              		.cfi_endproc
 1119              	.LFE36:
 1121              		.section	.text.SPI_I2S_ReceiveData,"ax",%progbits
 1122              		.align	2
 1123              		.global	SPI_I2S_ReceiveData
 1124              		.thumb
 1125              		.thumb_func
 1127              	SPI_I2S_ReceiveData:
 1128              	.LFB37:
 553:STM32F10x_StdPeriph_Driver/src/stm32f10x_spi.c **** }
 554:STM32F10x_StdPeriph_Driver/src/stm32f10x_spi.c **** 
 555:STM32F10x_StdPeriph_Driver/src/stm32f10x_spi.c **** /**
 556:STM32F10x_StdPeriph_Driver/src/stm32f10x_spi.c ****   * @brief  Returns the most recent received data by the SPIx/I2Sx peripheral. 
 557:STM32F10x_StdPeriph_Driver/src/stm32f10x_spi.c ****   * @param  SPIx: where x can be
 558:STM32F10x_StdPeriph_Driver/src/stm32f10x_spi.c ****   *   - 1, 2 or 3 in SPI mode 
 559:STM32F10x_StdPeriph_Driver/src/stm32f10x_spi.c ****   *   - 2 or 3 in I2S mode
 560:STM32F10x_StdPeriph_Driver/src/stm32f10x_spi.c ****   * @retval The value of the received data.
 561:STM32F10x_StdPeriph_Driver/src/stm32f10x_spi.c ****   */
 562:STM32F10x_StdPeriph_Driver/src/stm32f10x_spi.c **** uint16_t SPI_I2S_ReceiveData(SPI_TypeDef* SPIx)
 563:STM32F10x_StdPeriph_Driver/src/stm32f10x_spi.c **** {
 1129              		.loc 1 563 0
 1130              		.cfi_startproc
 1131              		@ args = 0, pretend = 0, frame = 0
 1132              		@ frame_needed = 0, uses_anonymous_args = 0
 1133              	.LVL112:
 1134 0000 10B5     		push	{r4, lr}
 1135              	.LCFI10:
 1136              		.cfi_def_cfa_offset 8
 1137              		.cfi_offset 4, -8
 1138              		.cfi_offset 14, -4
 1139 0002 0446     		mov	r4, r0
 564:STM32F10x_StdPeriph_Driver/src/stm32f10x_spi.c ****   /* Check the parameters */
 565:STM32F10x_StdPeriph_Driver/src/stm32f10x_spi.c ****   assert_param(IS_SPI_ALL_PERIPH(SPIx));
 1140              		.loc 1 565 0
 1141 0004 094B     		ldr	r3, .L87
 1142 0006 9842     		cmp	r0, r3
 1143 0008 0CD0     		beq	.L85
 1144              		.loc 1 565 0 is_stmt 0 discriminator 1
 1145 000a A3F57843 		sub	r3, r3, #63488
 1146 000e 9842     		cmp	r0, r3
 1147 0010 08D0     		beq	.L85
 1148              		.loc 1 565 0 discriminator 2
 1149 0012 03F58063 		add	r3, r3, #1024
 1150 0016 9842     		cmp	r0, r3
 1151 0018 04D0     		beq	.L85
 1152              		.loc 1 565 0 discriminator 3
 1153 001a 40F23521 		movw	r1, #565
 1154 001e 0448     		ldr	r0, .L87+4
 1155              	.LVL113:
 1156 0020 FFF7FEFF 		bl	assert_failed
 1157              	.LVL114:
 1158              	.L85:
 566:STM32F10x_StdPeriph_Driver/src/stm32f10x_spi.c ****   
 567:STM32F10x_StdPeriph_Driver/src/stm32f10x_spi.c ****   /* Return the data in the DR register */
ARM GAS  /var/folders/g9/bbpj86ld7fx45vd1b3pqxmp00000gn/T//ccxK7sY3.s 			page 31


 568:STM32F10x_StdPeriph_Driver/src/stm32f10x_spi.c ****   return SPIx->DR;
 1159              		.loc 1 568 0 is_stmt 1
 1160 0024 A089     		ldrh	r0, [r4, #12]
 569:STM32F10x_StdPeriph_Driver/src/stm32f10x_spi.c **** }
 1161              		.loc 1 569 0
 1162 0026 80B2     		uxth	r0, r0
 1163 0028 10BD     		pop	{r4, pc}
 1164              	.LVL115:
 1165              	.L88:
 1166 002a 00BF     		.align	2
 1167              	.L87:
 1168 002c 00300140 		.word	1073819648
 1169 0030 00000000 		.word	.LC0
 1170              		.cfi_endproc
 1171              	.LFE37:
 1173              		.section	.text.SPI_NSSInternalSoftwareConfig,"ax",%progbits
 1174              		.align	2
 1175              		.global	SPI_NSSInternalSoftwareConfig
 1176              		.thumb
 1177              		.thumb_func
 1179              	SPI_NSSInternalSoftwareConfig:
 1180              	.LFB38:
 570:STM32F10x_StdPeriph_Driver/src/stm32f10x_spi.c **** 
 571:STM32F10x_StdPeriph_Driver/src/stm32f10x_spi.c **** /**
 572:STM32F10x_StdPeriph_Driver/src/stm32f10x_spi.c ****   * @brief  Configures internally by software the NSS pin for the selected SPI.
 573:STM32F10x_StdPeriph_Driver/src/stm32f10x_spi.c ****   * @param  SPIx: where x can be 1, 2 or 3 to select the SPI peripheral.
 574:STM32F10x_StdPeriph_Driver/src/stm32f10x_spi.c ****   * @param  SPI_NSSInternalSoft: specifies the SPI NSS internal state.
 575:STM32F10x_StdPeriph_Driver/src/stm32f10x_spi.c ****   *   This parameter can be one of the following values:
 576:STM32F10x_StdPeriph_Driver/src/stm32f10x_spi.c ****   *     @arg SPI_NSSInternalSoft_Set: Set NSS pin internally
 577:STM32F10x_StdPeriph_Driver/src/stm32f10x_spi.c ****   *     @arg SPI_NSSInternalSoft_Reset: Reset NSS pin internally
 578:STM32F10x_StdPeriph_Driver/src/stm32f10x_spi.c ****   * @retval None
 579:STM32F10x_StdPeriph_Driver/src/stm32f10x_spi.c ****   */
 580:STM32F10x_StdPeriph_Driver/src/stm32f10x_spi.c **** void SPI_NSSInternalSoftwareConfig(SPI_TypeDef* SPIx, uint16_t SPI_NSSInternalSoft)
 581:STM32F10x_StdPeriph_Driver/src/stm32f10x_spi.c **** {
 1181              		.loc 1 581 0
 1182              		.cfi_startproc
 1183              		@ args = 0, pretend = 0, frame = 0
 1184              		@ frame_needed = 0, uses_anonymous_args = 0
 1185              	.LVL116:
 1186 0000 38B5     		push	{r3, r4, r5, lr}
 1187              	.LCFI11:
 1188              		.cfi_def_cfa_offset 16
 1189              		.cfi_offset 3, -16
 1190              		.cfi_offset 4, -12
 1191              		.cfi_offset 5, -8
 1192              		.cfi_offset 14, -4
 1193 0002 0446     		mov	r4, r0
 1194 0004 0D46     		mov	r5, r1
 582:STM32F10x_StdPeriph_Driver/src/stm32f10x_spi.c ****   /* Check the parameters */
 583:STM32F10x_StdPeriph_Driver/src/stm32f10x_spi.c ****   assert_param(IS_SPI_ALL_PERIPH(SPIx));
 1195              		.loc 1 583 0
 1196 0006 164B     		ldr	r3, .L95
 1197 0008 9842     		cmp	r0, r3
 1198 000a 0CD0     		beq	.L90
 1199              		.loc 1 583 0 is_stmt 0 discriminator 1
 1200 000c A3F57843 		sub	r3, r3, #63488
 1201 0010 9842     		cmp	r0, r3
ARM GAS  /var/folders/g9/bbpj86ld7fx45vd1b3pqxmp00000gn/T//ccxK7sY3.s 			page 32


 1202 0012 08D0     		beq	.L90
 1203              		.loc 1 583 0 discriminator 2
 1204 0014 03F58063 		add	r3, r3, #1024
 1205 0018 9842     		cmp	r0, r3
 1206 001a 04D0     		beq	.L90
 1207              		.loc 1 583 0 discriminator 3
 1208 001c 40F24721 		movw	r1, #583
 1209              	.LVL117:
 1210 0020 1048     		ldr	r0, .L95+4
 1211              	.LVL118:
 1212 0022 FFF7FEFF 		bl	assert_failed
 1213              	.LVL119:
 1214              	.L90:
 584:STM32F10x_StdPeriph_Driver/src/stm32f10x_spi.c ****   assert_param(IS_SPI_NSS_INTERNAL(SPI_NSSInternalSoft));
 1215              		.loc 1 584 0 is_stmt 1
 1216 0026 B5F5807F 		cmp	r5, #256
 1217 002a 08D0     		beq	.L91
 1218              		.loc 1 584 0 is_stmt 0 discriminator 1
 1219 002c 4FF6FF63 		movw	r3, #65279
 1220 0030 9D42     		cmp	r5, r3
 1221 0032 04D0     		beq	.L91
 1222              		.loc 1 584 0 discriminator 2
 1223 0034 4FF41271 		mov	r1, #584
 1224 0038 0A48     		ldr	r0, .L95+4
 1225 003a FFF7FEFF 		bl	assert_failed
 1226              	.LVL120:
 1227              	.L91:
 585:STM32F10x_StdPeriph_Driver/src/stm32f10x_spi.c ****   if (SPI_NSSInternalSoft != SPI_NSSInternalSoft_Reset)
 1228              		.loc 1 585 0 is_stmt 1
 1229 003e 4FF6FF63 		movw	r3, #65279
 1230 0042 9D42     		cmp	r5, r3
 1231 0044 05D0     		beq	.L92
 586:STM32F10x_StdPeriph_Driver/src/stm32f10x_spi.c ****   {
 587:STM32F10x_StdPeriph_Driver/src/stm32f10x_spi.c ****     /* Set NSS pin internally by software */
 588:STM32F10x_StdPeriph_Driver/src/stm32f10x_spi.c ****     SPIx->CR1 |= SPI_NSSInternalSoft_Set;
 1232              		.loc 1 588 0
 1233 0046 2388     		ldrh	r3, [r4]
 1234 0048 9BB2     		uxth	r3, r3
 1235 004a 43F48073 		orr	r3, r3, #256
 1236 004e 2380     		strh	r3, [r4]	@ movhi
 1237 0050 38BD     		pop	{r3, r4, r5, pc}
 1238              	.LVL121:
 1239              	.L92:
 589:STM32F10x_StdPeriph_Driver/src/stm32f10x_spi.c ****   }
 590:STM32F10x_StdPeriph_Driver/src/stm32f10x_spi.c ****   else
 591:STM32F10x_StdPeriph_Driver/src/stm32f10x_spi.c ****   {
 592:STM32F10x_StdPeriph_Driver/src/stm32f10x_spi.c ****     /* Reset NSS pin internally by software */
 593:STM32F10x_StdPeriph_Driver/src/stm32f10x_spi.c ****     SPIx->CR1 &= SPI_NSSInternalSoft_Reset;
 1240              		.loc 1 593 0
 1241 0052 2388     		ldrh	r3, [r4]
 1242 0054 9BB2     		uxth	r3, r3
 1243 0056 23F48073 		bic	r3, r3, #256
 1244 005a 9BB2     		uxth	r3, r3
 1245 005c 2380     		strh	r3, [r4]	@ movhi
 1246 005e 38BD     		pop	{r3, r4, r5, pc}
 1247              	.LVL122:
 1248              	.L96:
ARM GAS  /var/folders/g9/bbpj86ld7fx45vd1b3pqxmp00000gn/T//ccxK7sY3.s 			page 33


 1249              		.align	2
 1250              	.L95:
 1251 0060 00300140 		.word	1073819648
 1252 0064 00000000 		.word	.LC0
 1253              		.cfi_endproc
 1254              	.LFE38:
 1256              		.section	.text.SPI_SSOutputCmd,"ax",%progbits
 1257              		.align	2
 1258              		.global	SPI_SSOutputCmd
 1259              		.thumb
 1260              		.thumb_func
 1262              	SPI_SSOutputCmd:
 1263              	.LFB39:
 594:STM32F10x_StdPeriph_Driver/src/stm32f10x_spi.c ****   }
 595:STM32F10x_StdPeriph_Driver/src/stm32f10x_spi.c **** }
 596:STM32F10x_StdPeriph_Driver/src/stm32f10x_spi.c **** 
 597:STM32F10x_StdPeriph_Driver/src/stm32f10x_spi.c **** /**
 598:STM32F10x_StdPeriph_Driver/src/stm32f10x_spi.c ****   * @brief  Enables or disables the SS output for the selected SPI.
 599:STM32F10x_StdPeriph_Driver/src/stm32f10x_spi.c ****   * @param  SPIx: where x can be 1, 2 or 3 to select the SPI peripheral.
 600:STM32F10x_StdPeriph_Driver/src/stm32f10x_spi.c ****   * @param  NewState: new state of the SPIx SS output. 
 601:STM32F10x_StdPeriph_Driver/src/stm32f10x_spi.c ****   *   This parameter can be: ENABLE or DISABLE.
 602:STM32F10x_StdPeriph_Driver/src/stm32f10x_spi.c ****   * @retval None
 603:STM32F10x_StdPeriph_Driver/src/stm32f10x_spi.c ****   */
 604:STM32F10x_StdPeriph_Driver/src/stm32f10x_spi.c **** void SPI_SSOutputCmd(SPI_TypeDef* SPIx, FunctionalState NewState)
 605:STM32F10x_StdPeriph_Driver/src/stm32f10x_spi.c **** {
 1264              		.loc 1 605 0
 1265              		.cfi_startproc
 1266              		@ args = 0, pretend = 0, frame = 0
 1267              		@ frame_needed = 0, uses_anonymous_args = 0
 1268              	.LVL123:
 1269 0000 38B5     		push	{r3, r4, r5, lr}
 1270              	.LCFI12:
 1271              		.cfi_def_cfa_offset 16
 1272              		.cfi_offset 3, -16
 1273              		.cfi_offset 4, -12
 1274              		.cfi_offset 5, -8
 1275              		.cfi_offset 14, -4
 1276 0002 0446     		mov	r4, r0
 1277 0004 0D46     		mov	r5, r1
 606:STM32F10x_StdPeriph_Driver/src/stm32f10x_spi.c ****   /* Check the parameters */
 607:STM32F10x_StdPeriph_Driver/src/stm32f10x_spi.c ****   assert_param(IS_SPI_ALL_PERIPH(SPIx));
 1278              		.loc 1 607 0
 1279 0006 124B     		ldr	r3, .L103
 1280 0008 9842     		cmp	r0, r3
 1281 000a 0CD0     		beq	.L98
 1282              		.loc 1 607 0 is_stmt 0 discriminator 1
 1283 000c A3F57843 		sub	r3, r3, #63488
 1284 0010 9842     		cmp	r0, r3
 1285 0012 08D0     		beq	.L98
 1286              		.loc 1 607 0 discriminator 2
 1287 0014 03F58063 		add	r3, r3, #1024
 1288 0018 9842     		cmp	r0, r3
 1289 001a 04D0     		beq	.L98
 1290              		.loc 1 607 0 discriminator 3
 1291 001c 40F25F21 		movw	r1, #607
 1292              	.LVL124:
 1293 0020 0C48     		ldr	r0, .L103+4
ARM GAS  /var/folders/g9/bbpj86ld7fx45vd1b3pqxmp00000gn/T//ccxK7sY3.s 			page 34


 1294              	.LVL125:
 1295 0022 FFF7FEFF 		bl	assert_failed
 1296              	.LVL126:
 1297              	.L98:
 608:STM32F10x_StdPeriph_Driver/src/stm32f10x_spi.c ****   assert_param(IS_FUNCTIONAL_STATE(NewState));
 1298              		.loc 1 608 0 is_stmt 1
 1299 0026 012D     		cmp	r5, #1
 1300 0028 04D9     		bls	.L99
 1301              		.loc 1 608 0 is_stmt 0 discriminator 1
 1302 002a 4FF41871 		mov	r1, #608
 1303 002e 0948     		ldr	r0, .L103+4
 1304 0030 FFF7FEFF 		bl	assert_failed
 1305              	.LVL127:
 1306              	.L99:
 609:STM32F10x_StdPeriph_Driver/src/stm32f10x_spi.c ****   if (NewState != DISABLE)
 1307              		.loc 1 609 0 is_stmt 1
 1308 0034 2DB1     		cbz	r5, .L100
 610:STM32F10x_StdPeriph_Driver/src/stm32f10x_spi.c ****   {
 611:STM32F10x_StdPeriph_Driver/src/stm32f10x_spi.c ****     /* Enable the selected SPI SS output */
 612:STM32F10x_StdPeriph_Driver/src/stm32f10x_spi.c ****     SPIx->CR2 |= CR2_SSOE_Set;
 1309              		.loc 1 612 0
 1310 0036 A388     		ldrh	r3, [r4, #4]
 1311 0038 9BB2     		uxth	r3, r3
 1312 003a 43F00403 		orr	r3, r3, #4
 1313 003e A380     		strh	r3, [r4, #4]	@ movhi
 1314 0040 38BD     		pop	{r3, r4, r5, pc}
 1315              	.LVL128:
 1316              	.L100:
 613:STM32F10x_StdPeriph_Driver/src/stm32f10x_spi.c ****   }
 614:STM32F10x_StdPeriph_Driver/src/stm32f10x_spi.c ****   else
 615:STM32F10x_StdPeriph_Driver/src/stm32f10x_spi.c ****   {
 616:STM32F10x_StdPeriph_Driver/src/stm32f10x_spi.c ****     /* Disable the selected SPI SS output */
 617:STM32F10x_StdPeriph_Driver/src/stm32f10x_spi.c ****     SPIx->CR2 &= CR2_SSOE_Reset;
 1317              		.loc 1 617 0
 1318 0042 A388     		ldrh	r3, [r4, #4]
 1319 0044 9BB2     		uxth	r3, r3
 1320 0046 23F00403 		bic	r3, r3, #4
 1321 004a 9BB2     		uxth	r3, r3
 1322 004c A380     		strh	r3, [r4, #4]	@ movhi
 1323 004e 38BD     		pop	{r3, r4, r5, pc}
 1324              	.LVL129:
 1325              	.L104:
 1326              		.align	2
 1327              	.L103:
 1328 0050 00300140 		.word	1073819648
 1329 0054 00000000 		.word	.LC0
 1330              		.cfi_endproc
 1331              	.LFE39:
 1333              		.section	.text.SPI_DataSizeConfig,"ax",%progbits
 1334              		.align	2
 1335              		.global	SPI_DataSizeConfig
 1336              		.thumb
 1337              		.thumb_func
 1339              	SPI_DataSizeConfig:
 1340              	.LFB40:
 618:STM32F10x_StdPeriph_Driver/src/stm32f10x_spi.c ****   }
 619:STM32F10x_StdPeriph_Driver/src/stm32f10x_spi.c **** }
ARM GAS  /var/folders/g9/bbpj86ld7fx45vd1b3pqxmp00000gn/T//ccxK7sY3.s 			page 35


 620:STM32F10x_StdPeriph_Driver/src/stm32f10x_spi.c **** 
 621:STM32F10x_StdPeriph_Driver/src/stm32f10x_spi.c **** /**
 622:STM32F10x_StdPeriph_Driver/src/stm32f10x_spi.c ****   * @brief  Configures the data size for the selected SPI.
 623:STM32F10x_StdPeriph_Driver/src/stm32f10x_spi.c ****   * @param  SPIx: where x can be 1, 2 or 3 to select the SPI peripheral.
 624:STM32F10x_StdPeriph_Driver/src/stm32f10x_spi.c ****   * @param  SPI_DataSize: specifies the SPI data size.
 625:STM32F10x_StdPeriph_Driver/src/stm32f10x_spi.c ****   *   This parameter can be one of the following values:
 626:STM32F10x_StdPeriph_Driver/src/stm32f10x_spi.c ****   *     @arg SPI_DataSize_16b: Set data frame format to 16bit
 627:STM32F10x_StdPeriph_Driver/src/stm32f10x_spi.c ****   *     @arg SPI_DataSize_8b: Set data frame format to 8bit
 628:STM32F10x_StdPeriph_Driver/src/stm32f10x_spi.c ****   * @retval None
 629:STM32F10x_StdPeriph_Driver/src/stm32f10x_spi.c ****   */
 630:STM32F10x_StdPeriph_Driver/src/stm32f10x_spi.c **** void SPI_DataSizeConfig(SPI_TypeDef* SPIx, uint16_t SPI_DataSize)
 631:STM32F10x_StdPeriph_Driver/src/stm32f10x_spi.c **** {
 1341              		.loc 1 631 0
 1342              		.cfi_startproc
 1343              		@ args = 0, pretend = 0, frame = 0
 1344              		@ frame_needed = 0, uses_anonymous_args = 0
 1345              	.LVL130:
 1346 0000 38B5     		push	{r3, r4, r5, lr}
 1347              	.LCFI13:
 1348              		.cfi_def_cfa_offset 16
 1349              		.cfi_offset 3, -16
 1350              		.cfi_offset 4, -12
 1351              		.cfi_offset 5, -8
 1352              		.cfi_offset 14, -4
 1353 0002 0446     		mov	r4, r0
 1354 0004 0D46     		mov	r5, r1
 632:STM32F10x_StdPeriph_Driver/src/stm32f10x_spi.c ****   /* Check the parameters */
 633:STM32F10x_StdPeriph_Driver/src/stm32f10x_spi.c ****   assert_param(IS_SPI_ALL_PERIPH(SPIx));
 1355              		.loc 1 633 0
 1356 0006 124B     		ldr	r3, .L109
 1357 0008 9842     		cmp	r0, r3
 1358 000a 0CD0     		beq	.L106
 1359              		.loc 1 633 0 is_stmt 0 discriminator 1
 1360 000c A3F57843 		sub	r3, r3, #63488
 1361 0010 9842     		cmp	r0, r3
 1362 0012 08D0     		beq	.L106
 1363              		.loc 1 633 0 discriminator 2
 1364 0014 03F58063 		add	r3, r3, #1024
 1365 0018 9842     		cmp	r0, r3
 1366 001a 04D0     		beq	.L106
 1367              		.loc 1 633 0 discriminator 3
 1368 001c 40F27921 		movw	r1, #633
 1369              	.LVL131:
 1370 0020 0C48     		ldr	r0, .L109+4
 1371              	.LVL132:
 1372 0022 FFF7FEFF 		bl	assert_failed
 1373              	.LVL133:
 1374              	.L106:
 634:STM32F10x_StdPeriph_Driver/src/stm32f10x_spi.c ****   assert_param(IS_SPI_DATASIZE(SPI_DataSize));
 1375              		.loc 1 634 0 is_stmt 1
 1376 0026 B5F5006F 		cmp	r5, #2048
 1377 002a 05D0     		beq	.L107
 1378              		.loc 1 634 0 is_stmt 0 discriminator 1
 1379 002c 25B1     		cbz	r5, .L107
 1380              		.loc 1 634 0 discriminator 2
 1381 002e 40F27A21 		movw	r1, #634
 1382 0032 0848     		ldr	r0, .L109+4
ARM GAS  /var/folders/g9/bbpj86ld7fx45vd1b3pqxmp00000gn/T//ccxK7sY3.s 			page 36


 1383 0034 FFF7FEFF 		bl	assert_failed
 1384              	.LVL134:
 1385              	.L107:
 635:STM32F10x_StdPeriph_Driver/src/stm32f10x_spi.c ****   /* Clear DFF bit */
 636:STM32F10x_StdPeriph_Driver/src/stm32f10x_spi.c ****   SPIx->CR1 &= (uint16_t)~SPI_DataSize_16b;
 1386              		.loc 1 636 0 is_stmt 1
 1387 0038 2388     		ldrh	r3, [r4]
 1388 003a 9BB2     		uxth	r3, r3
 1389 003c 23F40063 		bic	r3, r3, #2048
 1390 0040 9BB2     		uxth	r3, r3
 1391 0042 2380     		strh	r3, [r4]	@ movhi
 637:STM32F10x_StdPeriph_Driver/src/stm32f10x_spi.c ****   /* Set new DFF bit value */
 638:STM32F10x_StdPeriph_Driver/src/stm32f10x_spi.c ****   SPIx->CR1 |= SPI_DataSize;
 1392              		.loc 1 638 0
 1393 0044 2188     		ldrh	r1, [r4]
 1394 0046 89B2     		uxth	r1, r1
 1395 0048 2943     		orrs	r1, r1, r5
 1396 004a 2180     		strh	r1, [r4]	@ movhi
 1397 004c 38BD     		pop	{r3, r4, r5, pc}
 1398              	.LVL135:
 1399              	.L110:
 1400 004e 00BF     		.align	2
 1401              	.L109:
 1402 0050 00300140 		.word	1073819648
 1403 0054 00000000 		.word	.LC0
 1404              		.cfi_endproc
 1405              	.LFE40:
 1407              		.section	.text.SPI_TransmitCRC,"ax",%progbits
 1408              		.align	2
 1409              		.global	SPI_TransmitCRC
 1410              		.thumb
 1411              		.thumb_func
 1413              	SPI_TransmitCRC:
 1414              	.LFB41:
 639:STM32F10x_StdPeriph_Driver/src/stm32f10x_spi.c **** }
 640:STM32F10x_StdPeriph_Driver/src/stm32f10x_spi.c **** 
 641:STM32F10x_StdPeriph_Driver/src/stm32f10x_spi.c **** /**
 642:STM32F10x_StdPeriph_Driver/src/stm32f10x_spi.c ****   * @brief  Transmit the SPIx CRC value.
 643:STM32F10x_StdPeriph_Driver/src/stm32f10x_spi.c ****   * @param  SPIx: where x can be 1, 2 or 3 to select the SPI peripheral.
 644:STM32F10x_StdPeriph_Driver/src/stm32f10x_spi.c ****   * @retval None
 645:STM32F10x_StdPeriph_Driver/src/stm32f10x_spi.c ****   */
 646:STM32F10x_StdPeriph_Driver/src/stm32f10x_spi.c **** void SPI_TransmitCRC(SPI_TypeDef* SPIx)
 647:STM32F10x_StdPeriph_Driver/src/stm32f10x_spi.c **** {
 1415              		.loc 1 647 0
 1416              		.cfi_startproc
 1417              		@ args = 0, pretend = 0, frame = 0
 1418              		@ frame_needed = 0, uses_anonymous_args = 0
 1419              	.LVL136:
 1420 0000 10B5     		push	{r4, lr}
 1421              	.LCFI14:
 1422              		.cfi_def_cfa_offset 8
 1423              		.cfi_offset 4, -8
 1424              		.cfi_offset 14, -4
 1425 0002 0446     		mov	r4, r0
 648:STM32F10x_StdPeriph_Driver/src/stm32f10x_spi.c ****   /* Check the parameters */
 649:STM32F10x_StdPeriph_Driver/src/stm32f10x_spi.c ****   assert_param(IS_SPI_ALL_PERIPH(SPIx));
 1426              		.loc 1 649 0
ARM GAS  /var/folders/g9/bbpj86ld7fx45vd1b3pqxmp00000gn/T//ccxK7sY3.s 			page 37


 1427 0004 0A4B     		ldr	r3, .L114
 1428 0006 9842     		cmp	r0, r3
 1429 0008 0CD0     		beq	.L112
 1430              		.loc 1 649 0 is_stmt 0 discriminator 1
 1431 000a A3F57843 		sub	r3, r3, #63488
 1432 000e 9842     		cmp	r0, r3
 1433 0010 08D0     		beq	.L112
 1434              		.loc 1 649 0 discriminator 2
 1435 0012 03F58063 		add	r3, r3, #1024
 1436 0016 9842     		cmp	r0, r3
 1437 0018 04D0     		beq	.L112
 1438              		.loc 1 649 0 discriminator 3
 1439 001a 40F28921 		movw	r1, #649
 1440 001e 0548     		ldr	r0, .L114+4
 1441              	.LVL137:
 1442 0020 FFF7FEFF 		bl	assert_failed
 1443              	.LVL138:
 1444              	.L112:
 650:STM32F10x_StdPeriph_Driver/src/stm32f10x_spi.c ****   
 651:STM32F10x_StdPeriph_Driver/src/stm32f10x_spi.c ****   /* Enable the selected SPI CRC transmission */
 652:STM32F10x_StdPeriph_Driver/src/stm32f10x_spi.c ****   SPIx->CR1 |= CR1_CRCNext_Set;
 1445              		.loc 1 652 0 is_stmt 1
 1446 0024 2388     		ldrh	r3, [r4]
 1447 0026 9BB2     		uxth	r3, r3
 1448 0028 43F48053 		orr	r3, r3, #4096
 1449 002c 2380     		strh	r3, [r4]	@ movhi
 1450 002e 10BD     		pop	{r4, pc}
 1451              	.LVL139:
 1452              	.L115:
 1453              		.align	2
 1454              	.L114:
 1455 0030 00300140 		.word	1073819648
 1456 0034 00000000 		.word	.LC0
 1457              		.cfi_endproc
 1458              	.LFE41:
 1460              		.section	.text.SPI_CalculateCRC,"ax",%progbits
 1461              		.align	2
 1462              		.global	SPI_CalculateCRC
 1463              		.thumb
 1464              		.thumb_func
 1466              	SPI_CalculateCRC:
 1467              	.LFB42:
 653:STM32F10x_StdPeriph_Driver/src/stm32f10x_spi.c **** }
 654:STM32F10x_StdPeriph_Driver/src/stm32f10x_spi.c **** 
 655:STM32F10x_StdPeriph_Driver/src/stm32f10x_spi.c **** /**
 656:STM32F10x_StdPeriph_Driver/src/stm32f10x_spi.c ****   * @brief  Enables or disables the CRC value calculation of the transfered bytes.
 657:STM32F10x_StdPeriph_Driver/src/stm32f10x_spi.c ****   * @param  SPIx: where x can be 1, 2 or 3 to select the SPI peripheral.
 658:STM32F10x_StdPeriph_Driver/src/stm32f10x_spi.c ****   * @param  NewState: new state of the SPIx CRC value calculation.
 659:STM32F10x_StdPeriph_Driver/src/stm32f10x_spi.c ****   *   This parameter can be: ENABLE or DISABLE.
 660:STM32F10x_StdPeriph_Driver/src/stm32f10x_spi.c ****   * @retval None
 661:STM32F10x_StdPeriph_Driver/src/stm32f10x_spi.c ****   */
 662:STM32F10x_StdPeriph_Driver/src/stm32f10x_spi.c **** void SPI_CalculateCRC(SPI_TypeDef* SPIx, FunctionalState NewState)
 663:STM32F10x_StdPeriph_Driver/src/stm32f10x_spi.c **** {
 1468              		.loc 1 663 0
 1469              		.cfi_startproc
 1470              		@ args = 0, pretend = 0, frame = 0
 1471              		@ frame_needed = 0, uses_anonymous_args = 0
ARM GAS  /var/folders/g9/bbpj86ld7fx45vd1b3pqxmp00000gn/T//ccxK7sY3.s 			page 38


 1472              	.LVL140:
 1473 0000 38B5     		push	{r3, r4, r5, lr}
 1474              	.LCFI15:
 1475              		.cfi_def_cfa_offset 16
 1476              		.cfi_offset 3, -16
 1477              		.cfi_offset 4, -12
 1478              		.cfi_offset 5, -8
 1479              		.cfi_offset 14, -4
 1480 0002 0446     		mov	r4, r0
 1481 0004 0D46     		mov	r5, r1
 664:STM32F10x_StdPeriph_Driver/src/stm32f10x_spi.c ****   /* Check the parameters */
 665:STM32F10x_StdPeriph_Driver/src/stm32f10x_spi.c ****   assert_param(IS_SPI_ALL_PERIPH(SPIx));
 1482              		.loc 1 665 0
 1483 0006 124B     		ldr	r3, .L122
 1484 0008 9842     		cmp	r0, r3
 1485 000a 0CD0     		beq	.L117
 1486              		.loc 1 665 0 is_stmt 0 discriminator 1
 1487 000c A3F57843 		sub	r3, r3, #63488
 1488 0010 9842     		cmp	r0, r3
 1489 0012 08D0     		beq	.L117
 1490              		.loc 1 665 0 discriminator 2
 1491 0014 03F58063 		add	r3, r3, #1024
 1492 0018 9842     		cmp	r0, r3
 1493 001a 04D0     		beq	.L117
 1494              		.loc 1 665 0 discriminator 3
 1495 001c 40F29921 		movw	r1, #665
 1496              	.LVL141:
 1497 0020 0C48     		ldr	r0, .L122+4
 1498              	.LVL142:
 1499 0022 FFF7FEFF 		bl	assert_failed
 1500              	.LVL143:
 1501              	.L117:
 666:STM32F10x_StdPeriph_Driver/src/stm32f10x_spi.c ****   assert_param(IS_FUNCTIONAL_STATE(NewState));
 1502              		.loc 1 666 0 is_stmt 1
 1503 0026 012D     		cmp	r5, #1
 1504 0028 04D9     		bls	.L118
 1505              		.loc 1 666 0 is_stmt 0 discriminator 1
 1506 002a 40F29A21 		movw	r1, #666
 1507 002e 0948     		ldr	r0, .L122+4
 1508 0030 FFF7FEFF 		bl	assert_failed
 1509              	.LVL144:
 1510              	.L118:
 667:STM32F10x_StdPeriph_Driver/src/stm32f10x_spi.c ****   if (NewState != DISABLE)
 1511              		.loc 1 667 0 is_stmt 1
 1512 0034 2DB1     		cbz	r5, .L119
 668:STM32F10x_StdPeriph_Driver/src/stm32f10x_spi.c ****   {
 669:STM32F10x_StdPeriph_Driver/src/stm32f10x_spi.c ****     /* Enable the selected SPI CRC calculation */
 670:STM32F10x_StdPeriph_Driver/src/stm32f10x_spi.c ****     SPIx->CR1 |= CR1_CRCEN_Set;
 1513              		.loc 1 670 0
 1514 0036 2388     		ldrh	r3, [r4]
 1515 0038 9BB2     		uxth	r3, r3
 1516 003a 43F40053 		orr	r3, r3, #8192
 1517 003e 2380     		strh	r3, [r4]	@ movhi
 1518 0040 38BD     		pop	{r3, r4, r5, pc}
 1519              	.LVL145:
 1520              	.L119:
 671:STM32F10x_StdPeriph_Driver/src/stm32f10x_spi.c ****   }
ARM GAS  /var/folders/g9/bbpj86ld7fx45vd1b3pqxmp00000gn/T//ccxK7sY3.s 			page 39


 672:STM32F10x_StdPeriph_Driver/src/stm32f10x_spi.c ****   else
 673:STM32F10x_StdPeriph_Driver/src/stm32f10x_spi.c ****   {
 674:STM32F10x_StdPeriph_Driver/src/stm32f10x_spi.c ****     /* Disable the selected SPI CRC calculation */
 675:STM32F10x_StdPeriph_Driver/src/stm32f10x_spi.c ****     SPIx->CR1 &= CR1_CRCEN_Reset;
 1521              		.loc 1 675 0
 1522 0042 2388     		ldrh	r3, [r4]
 1523 0044 9BB2     		uxth	r3, r3
 1524 0046 23F40053 		bic	r3, r3, #8192
 1525 004a 9BB2     		uxth	r3, r3
 1526 004c 2380     		strh	r3, [r4]	@ movhi
 1527 004e 38BD     		pop	{r3, r4, r5, pc}
 1528              	.LVL146:
 1529              	.L123:
 1530              		.align	2
 1531              	.L122:
 1532 0050 00300140 		.word	1073819648
 1533 0054 00000000 		.word	.LC0
 1534              		.cfi_endproc
 1535              	.LFE42:
 1537              		.section	.text.SPI_GetCRC,"ax",%progbits
 1538              		.align	2
 1539              		.global	SPI_GetCRC
 1540              		.thumb
 1541              		.thumb_func
 1543              	SPI_GetCRC:
 1544              	.LFB43:
 676:STM32F10x_StdPeriph_Driver/src/stm32f10x_spi.c ****   }
 677:STM32F10x_StdPeriph_Driver/src/stm32f10x_spi.c **** }
 678:STM32F10x_StdPeriph_Driver/src/stm32f10x_spi.c **** 
 679:STM32F10x_StdPeriph_Driver/src/stm32f10x_spi.c **** /**
 680:STM32F10x_StdPeriph_Driver/src/stm32f10x_spi.c ****   * @brief  Returns the transmit or the receive CRC register value for the specified SPI.
 681:STM32F10x_StdPeriph_Driver/src/stm32f10x_spi.c ****   * @param  SPIx: where x can be 1, 2 or 3 to select the SPI peripheral.
 682:STM32F10x_StdPeriph_Driver/src/stm32f10x_spi.c ****   * @param  SPI_CRC: specifies the CRC register to be read.
 683:STM32F10x_StdPeriph_Driver/src/stm32f10x_spi.c ****   *   This parameter can be one of the following values:
 684:STM32F10x_StdPeriph_Driver/src/stm32f10x_spi.c ****   *     @arg SPI_CRC_Tx: Selects Tx CRC register
 685:STM32F10x_StdPeriph_Driver/src/stm32f10x_spi.c ****   *     @arg SPI_CRC_Rx: Selects Rx CRC register
 686:STM32F10x_StdPeriph_Driver/src/stm32f10x_spi.c ****   * @retval The selected CRC register value..
 687:STM32F10x_StdPeriph_Driver/src/stm32f10x_spi.c ****   */
 688:STM32F10x_StdPeriph_Driver/src/stm32f10x_spi.c **** uint16_t SPI_GetCRC(SPI_TypeDef* SPIx, uint8_t SPI_CRC)
 689:STM32F10x_StdPeriph_Driver/src/stm32f10x_spi.c **** {
 1545              		.loc 1 689 0
 1546              		.cfi_startproc
 1547              		@ args = 0, pretend = 0, frame = 0
 1548              		@ frame_needed = 0, uses_anonymous_args = 0
 1549              	.LVL147:
 1550 0000 38B5     		push	{r3, r4, r5, lr}
 1551              	.LCFI16:
 1552              		.cfi_def_cfa_offset 16
 1553              		.cfi_offset 3, -16
 1554              		.cfi_offset 4, -12
 1555              		.cfi_offset 5, -8
 1556              		.cfi_offset 14, -4
 1557 0002 0446     		mov	r4, r0
 1558 0004 0D46     		mov	r5, r1
 1559              	.LVL148:
 690:STM32F10x_StdPeriph_Driver/src/stm32f10x_spi.c ****   uint16_t crcreg = 0;
 691:STM32F10x_StdPeriph_Driver/src/stm32f10x_spi.c ****   /* Check the parameters */
ARM GAS  /var/folders/g9/bbpj86ld7fx45vd1b3pqxmp00000gn/T//ccxK7sY3.s 			page 40


 692:STM32F10x_StdPeriph_Driver/src/stm32f10x_spi.c ****   assert_param(IS_SPI_ALL_PERIPH(SPIx));
 1560              		.loc 1 692 0
 1561 0006 0F4B     		ldr	r3, .L130
 1562 0008 9842     		cmp	r0, r3
 1563 000a 0CD0     		beq	.L125
 1564              		.loc 1 692 0 is_stmt 0 discriminator 1
 1565 000c A3F57843 		sub	r3, r3, #63488
 1566 0010 9842     		cmp	r0, r3
 1567 0012 08D0     		beq	.L125
 1568              		.loc 1 692 0 discriminator 2
 1569 0014 03F58063 		add	r3, r3, #1024
 1570 0018 9842     		cmp	r0, r3
 1571 001a 04D0     		beq	.L125
 1572              		.loc 1 692 0 discriminator 3
 1573 001c 4FF42D71 		mov	r1, #692
 1574              	.LVL149:
 1575 0020 0948     		ldr	r0, .L130+4
 1576              	.LVL150:
 1577 0022 FFF7FEFF 		bl	assert_failed
 1578              	.LVL151:
 1579              	.L125:
 693:STM32F10x_StdPeriph_Driver/src/stm32f10x_spi.c ****   assert_param(IS_SPI_CRC(SPI_CRC));
 1580              		.loc 1 693 0 is_stmt 1
 1581 0026 012D     		cmp	r5, #1
 1582 0028 04D9     		bls	.L126
 1583              		.loc 1 693 0 is_stmt 0 discriminator 1
 1584 002a 40F2B521 		movw	r1, #693
 1585 002e 0648     		ldr	r0, .L130+4
 1586 0030 FFF7FEFF 		bl	assert_failed
 1587              	.LVL152:
 1588              	.L126:
 694:STM32F10x_StdPeriph_Driver/src/stm32f10x_spi.c ****   if (SPI_CRC != SPI_CRC_Rx)
 1589              		.loc 1 694 0 is_stmt 1
 1590 0034 012D     		cmp	r5, #1
 1591 0036 02D0     		beq	.L127
 695:STM32F10x_StdPeriph_Driver/src/stm32f10x_spi.c ****   {
 696:STM32F10x_StdPeriph_Driver/src/stm32f10x_spi.c ****     /* Get the Tx CRC register */
 697:STM32F10x_StdPeriph_Driver/src/stm32f10x_spi.c ****     crcreg = SPIx->TXCRCR;
 1592              		.loc 1 697 0
 1593 0038 208B     		ldrh	r0, [r4, #24]
 1594 003a 80B2     		uxth	r0, r0
 1595              	.LVL153:
 1596 003c 38BD     		pop	{r3, r4, r5, pc}
 1597              	.LVL154:
 1598              	.L127:
 698:STM32F10x_StdPeriph_Driver/src/stm32f10x_spi.c ****   }
 699:STM32F10x_StdPeriph_Driver/src/stm32f10x_spi.c ****   else
 700:STM32F10x_StdPeriph_Driver/src/stm32f10x_spi.c ****   {
 701:STM32F10x_StdPeriph_Driver/src/stm32f10x_spi.c ****     /* Get the Rx CRC register */
 702:STM32F10x_StdPeriph_Driver/src/stm32f10x_spi.c ****     crcreg = SPIx->RXCRCR;
 1599              		.loc 1 702 0
 1600 003e A08A     		ldrh	r0, [r4, #20]
 1601 0040 80B2     		uxth	r0, r0
 1602              	.LVL155:
 703:STM32F10x_StdPeriph_Driver/src/stm32f10x_spi.c ****   }
 704:STM32F10x_StdPeriph_Driver/src/stm32f10x_spi.c ****   /* Return the selected CRC register */
 705:STM32F10x_StdPeriph_Driver/src/stm32f10x_spi.c ****   return crcreg;
ARM GAS  /var/folders/g9/bbpj86ld7fx45vd1b3pqxmp00000gn/T//ccxK7sY3.s 			page 41


 706:STM32F10x_StdPeriph_Driver/src/stm32f10x_spi.c **** }
 1603              		.loc 1 706 0
 1604 0042 38BD     		pop	{r3, r4, r5, pc}
 1605              	.LVL156:
 1606              	.L131:
 1607              		.align	2
 1608              	.L130:
 1609 0044 00300140 		.word	1073819648
 1610 0048 00000000 		.word	.LC0
 1611              		.cfi_endproc
 1612              	.LFE43:
 1614              		.section	.text.SPI_GetCRCPolynomial,"ax",%progbits
 1615              		.align	2
 1616              		.global	SPI_GetCRCPolynomial
 1617              		.thumb
 1618              		.thumb_func
 1620              	SPI_GetCRCPolynomial:
 1621              	.LFB44:
 707:STM32F10x_StdPeriph_Driver/src/stm32f10x_spi.c **** 
 708:STM32F10x_StdPeriph_Driver/src/stm32f10x_spi.c **** /**
 709:STM32F10x_StdPeriph_Driver/src/stm32f10x_spi.c ****   * @brief  Returns the CRC Polynomial register value for the specified SPI.
 710:STM32F10x_StdPeriph_Driver/src/stm32f10x_spi.c ****   * @param  SPIx: where x can be 1, 2 or 3 to select the SPI peripheral.
 711:STM32F10x_StdPeriph_Driver/src/stm32f10x_spi.c ****   * @retval The CRC Polynomial register value.
 712:STM32F10x_StdPeriph_Driver/src/stm32f10x_spi.c ****   */
 713:STM32F10x_StdPeriph_Driver/src/stm32f10x_spi.c **** uint16_t SPI_GetCRCPolynomial(SPI_TypeDef* SPIx)
 714:STM32F10x_StdPeriph_Driver/src/stm32f10x_spi.c **** {
 1622              		.loc 1 714 0
 1623              		.cfi_startproc
 1624              		@ args = 0, pretend = 0, frame = 0
 1625              		@ frame_needed = 0, uses_anonymous_args = 0
 1626              	.LVL157:
 1627 0000 10B5     		push	{r4, lr}
 1628              	.LCFI17:
 1629              		.cfi_def_cfa_offset 8
 1630              		.cfi_offset 4, -8
 1631              		.cfi_offset 14, -4
 1632 0002 0446     		mov	r4, r0
 715:STM32F10x_StdPeriph_Driver/src/stm32f10x_spi.c ****   /* Check the parameters */
 716:STM32F10x_StdPeriph_Driver/src/stm32f10x_spi.c ****   assert_param(IS_SPI_ALL_PERIPH(SPIx));
 1633              		.loc 1 716 0
 1634 0004 094B     		ldr	r3, .L135
 1635 0006 9842     		cmp	r0, r3
 1636 0008 0CD0     		beq	.L133
 1637              		.loc 1 716 0 is_stmt 0 discriminator 1
 1638 000a A3F57843 		sub	r3, r3, #63488
 1639 000e 9842     		cmp	r0, r3
 1640 0010 08D0     		beq	.L133
 1641              		.loc 1 716 0 discriminator 2
 1642 0012 03F58063 		add	r3, r3, #1024
 1643 0016 9842     		cmp	r0, r3
 1644 0018 04D0     		beq	.L133
 1645              		.loc 1 716 0 discriminator 3
 1646 001a 4FF43371 		mov	r1, #716
 1647 001e 0448     		ldr	r0, .L135+4
 1648              	.LVL158:
 1649 0020 FFF7FEFF 		bl	assert_failed
 1650              	.LVL159:
ARM GAS  /var/folders/g9/bbpj86ld7fx45vd1b3pqxmp00000gn/T//ccxK7sY3.s 			page 42


 1651              	.L133:
 717:STM32F10x_StdPeriph_Driver/src/stm32f10x_spi.c ****   
 718:STM32F10x_StdPeriph_Driver/src/stm32f10x_spi.c ****   /* Return the CRC polynomial register */
 719:STM32F10x_StdPeriph_Driver/src/stm32f10x_spi.c ****   return SPIx->CRCPR;
 1652              		.loc 1 719 0 is_stmt 1
 1653 0024 208A     		ldrh	r0, [r4, #16]
 720:STM32F10x_StdPeriph_Driver/src/stm32f10x_spi.c **** }
 1654              		.loc 1 720 0
 1655 0026 80B2     		uxth	r0, r0
 1656 0028 10BD     		pop	{r4, pc}
 1657              	.LVL160:
 1658              	.L136:
 1659 002a 00BF     		.align	2
 1660              	.L135:
 1661 002c 00300140 		.word	1073819648
 1662 0030 00000000 		.word	.LC0
 1663              		.cfi_endproc
 1664              	.LFE44:
 1666              		.section	.text.SPI_BiDirectionalLineConfig,"ax",%progbits
 1667              		.align	2
 1668              		.global	SPI_BiDirectionalLineConfig
 1669              		.thumb
 1670              		.thumb_func
 1672              	SPI_BiDirectionalLineConfig:
 1673              	.LFB45:
 721:STM32F10x_StdPeriph_Driver/src/stm32f10x_spi.c **** 
 722:STM32F10x_StdPeriph_Driver/src/stm32f10x_spi.c **** /**
 723:STM32F10x_StdPeriph_Driver/src/stm32f10x_spi.c ****   * @brief  Selects the data transfer direction in bi-directional mode for the specified SPI.
 724:STM32F10x_StdPeriph_Driver/src/stm32f10x_spi.c ****   * @param  SPIx: where x can be 1, 2 or 3 to select the SPI peripheral.
 725:STM32F10x_StdPeriph_Driver/src/stm32f10x_spi.c ****   * @param  SPI_Direction: specifies the data transfer direction in bi-directional mode. 
 726:STM32F10x_StdPeriph_Driver/src/stm32f10x_spi.c ****   *   This parameter can be one of the following values:
 727:STM32F10x_StdPeriph_Driver/src/stm32f10x_spi.c ****   *     @arg SPI_Direction_Tx: Selects Tx transmission direction
 728:STM32F10x_StdPeriph_Driver/src/stm32f10x_spi.c ****   *     @arg SPI_Direction_Rx: Selects Rx receive direction
 729:STM32F10x_StdPeriph_Driver/src/stm32f10x_spi.c ****   * @retval None
 730:STM32F10x_StdPeriph_Driver/src/stm32f10x_spi.c ****   */
 731:STM32F10x_StdPeriph_Driver/src/stm32f10x_spi.c **** void SPI_BiDirectionalLineConfig(SPI_TypeDef* SPIx, uint16_t SPI_Direction)
 732:STM32F10x_StdPeriph_Driver/src/stm32f10x_spi.c **** {
 1674              		.loc 1 732 0
 1675              		.cfi_startproc
 1676              		@ args = 0, pretend = 0, frame = 0
 1677              		@ frame_needed = 0, uses_anonymous_args = 0
 1678              	.LVL161:
 1679 0000 38B5     		push	{r3, r4, r5, lr}
 1680              	.LCFI18:
 1681              		.cfi_def_cfa_offset 16
 1682              		.cfi_offset 3, -16
 1683              		.cfi_offset 4, -12
 1684              		.cfi_offset 5, -8
 1685              		.cfi_offset 14, -4
 1686 0002 0446     		mov	r4, r0
 1687 0004 0D46     		mov	r5, r1
 733:STM32F10x_StdPeriph_Driver/src/stm32f10x_spi.c ****   /* Check the parameters */
 734:STM32F10x_StdPeriph_Driver/src/stm32f10x_spi.c ****   assert_param(IS_SPI_ALL_PERIPH(SPIx));
 1688              		.loc 1 734 0
 1689 0006 164B     		ldr	r3, .L143
 1690 0008 9842     		cmp	r0, r3
 1691 000a 0CD0     		beq	.L138
ARM GAS  /var/folders/g9/bbpj86ld7fx45vd1b3pqxmp00000gn/T//ccxK7sY3.s 			page 43


 1692              		.loc 1 734 0 is_stmt 0 discriminator 1
 1693 000c A3F57843 		sub	r3, r3, #63488
 1694 0010 9842     		cmp	r0, r3
 1695 0012 08D0     		beq	.L138
 1696              		.loc 1 734 0 discriminator 2
 1697 0014 03F58063 		add	r3, r3, #1024
 1698 0018 9842     		cmp	r0, r3
 1699 001a 04D0     		beq	.L138
 1700              		.loc 1 734 0 discriminator 3
 1701 001c 40F2DE21 		movw	r1, #734
 1702              	.LVL162:
 1703 0020 1048     		ldr	r0, .L143+4
 1704              	.LVL163:
 1705 0022 FFF7FEFF 		bl	assert_failed
 1706              	.LVL164:
 1707              	.L138:
 735:STM32F10x_StdPeriph_Driver/src/stm32f10x_spi.c ****   assert_param(IS_SPI_DIRECTION(SPI_Direction));
 1708              		.loc 1 735 0 is_stmt 1
 1709 0026 4BF6FF73 		movw	r3, #49151
 1710 002a 9D42     		cmp	r5, r3
 1711 002c 07D0     		beq	.L139
 1712              		.loc 1 735 0 is_stmt 0 discriminator 1
 1713 002e B5F5804F 		cmp	r5, #16384
 1714 0032 04D0     		beq	.L139
 1715              		.loc 1 735 0 discriminator 2
 1716 0034 40F2DF21 		movw	r1, #735
 1717 0038 0A48     		ldr	r0, .L143+4
 1718 003a FFF7FEFF 		bl	assert_failed
 1719              	.LVL165:
 1720              	.L139:
 736:STM32F10x_StdPeriph_Driver/src/stm32f10x_spi.c ****   if (SPI_Direction == SPI_Direction_Tx)
 1721              		.loc 1 736 0 is_stmt 1
 1722 003e B5F5804F 		cmp	r5, #16384
 1723 0042 05D1     		bne	.L140
 737:STM32F10x_StdPeriph_Driver/src/stm32f10x_spi.c ****   {
 738:STM32F10x_StdPeriph_Driver/src/stm32f10x_spi.c ****     /* Set the Tx only mode */
 739:STM32F10x_StdPeriph_Driver/src/stm32f10x_spi.c ****     SPIx->CR1 |= SPI_Direction_Tx;
 1724              		.loc 1 739 0
 1725 0044 2388     		ldrh	r3, [r4]
 1726 0046 9BB2     		uxth	r3, r3
 1727 0048 43F48043 		orr	r3, r3, #16384
 1728 004c 2380     		strh	r3, [r4]	@ movhi
 1729 004e 38BD     		pop	{r3, r4, r5, pc}
 1730              	.LVL166:
 1731              	.L140:
 740:STM32F10x_StdPeriph_Driver/src/stm32f10x_spi.c ****   }
 741:STM32F10x_StdPeriph_Driver/src/stm32f10x_spi.c ****   else
 742:STM32F10x_StdPeriph_Driver/src/stm32f10x_spi.c ****   {
 743:STM32F10x_StdPeriph_Driver/src/stm32f10x_spi.c ****     /* Set the Rx only mode */
 744:STM32F10x_StdPeriph_Driver/src/stm32f10x_spi.c ****     SPIx->CR1 &= SPI_Direction_Rx;
 1732              		.loc 1 744 0
 1733 0050 2388     		ldrh	r3, [r4]
 1734 0052 9BB2     		uxth	r3, r3
 1735 0054 23F48043 		bic	r3, r3, #16384
 1736 0058 9BB2     		uxth	r3, r3
 1737 005a 2380     		strh	r3, [r4]	@ movhi
 1738 005c 38BD     		pop	{r3, r4, r5, pc}
ARM GAS  /var/folders/g9/bbpj86ld7fx45vd1b3pqxmp00000gn/T//ccxK7sY3.s 			page 44


 1739              	.LVL167:
 1740              	.L144:
 1741 005e 00BF     		.align	2
 1742              	.L143:
 1743 0060 00300140 		.word	1073819648
 1744 0064 00000000 		.word	.LC0
 1745              		.cfi_endproc
 1746              	.LFE45:
 1748              		.section	.text.SPI_I2S_GetFlagStatus,"ax",%progbits
 1749              		.align	2
 1750              		.global	SPI_I2S_GetFlagStatus
 1751              		.thumb
 1752              		.thumb_func
 1754              	SPI_I2S_GetFlagStatus:
 1755              	.LFB46:
 745:STM32F10x_StdPeriph_Driver/src/stm32f10x_spi.c ****   }
 746:STM32F10x_StdPeriph_Driver/src/stm32f10x_spi.c **** }
 747:STM32F10x_StdPeriph_Driver/src/stm32f10x_spi.c **** 
 748:STM32F10x_StdPeriph_Driver/src/stm32f10x_spi.c **** /**
 749:STM32F10x_StdPeriph_Driver/src/stm32f10x_spi.c ****   * @brief  Checks whether the specified SPI/I2S flag is set or not.
 750:STM32F10x_StdPeriph_Driver/src/stm32f10x_spi.c ****   * @param  SPIx: where x can be
 751:STM32F10x_StdPeriph_Driver/src/stm32f10x_spi.c ****   *   - 1, 2 or 3 in SPI mode 
 752:STM32F10x_StdPeriph_Driver/src/stm32f10x_spi.c ****   *   - 2 or 3 in I2S mode
 753:STM32F10x_StdPeriph_Driver/src/stm32f10x_spi.c ****   * @param  SPI_I2S_FLAG: specifies the SPI/I2S flag to check. 
 754:STM32F10x_StdPeriph_Driver/src/stm32f10x_spi.c ****   *   This parameter can be one of the following values:
 755:STM32F10x_StdPeriph_Driver/src/stm32f10x_spi.c ****   *     @arg SPI_I2S_FLAG_TXE: Transmit buffer empty flag.
 756:STM32F10x_StdPeriph_Driver/src/stm32f10x_spi.c ****   *     @arg SPI_I2S_FLAG_RXNE: Receive buffer not empty flag.
 757:STM32F10x_StdPeriph_Driver/src/stm32f10x_spi.c ****   *     @arg SPI_I2S_FLAG_BSY: Busy flag.
 758:STM32F10x_StdPeriph_Driver/src/stm32f10x_spi.c ****   *     @arg SPI_I2S_FLAG_OVR: Overrun flag.
 759:STM32F10x_StdPeriph_Driver/src/stm32f10x_spi.c ****   *     @arg SPI_FLAG_MODF: Mode Fault flag.
 760:STM32F10x_StdPeriph_Driver/src/stm32f10x_spi.c ****   *     @arg SPI_FLAG_CRCERR: CRC Error flag.
 761:STM32F10x_StdPeriph_Driver/src/stm32f10x_spi.c ****   *     @arg I2S_FLAG_UDR: Underrun Error flag.
 762:STM32F10x_StdPeriph_Driver/src/stm32f10x_spi.c ****   *     @arg I2S_FLAG_CHSIDE: Channel Side flag.
 763:STM32F10x_StdPeriph_Driver/src/stm32f10x_spi.c ****   * @retval The new state of SPI_I2S_FLAG (SET or RESET).
 764:STM32F10x_StdPeriph_Driver/src/stm32f10x_spi.c ****   */
 765:STM32F10x_StdPeriph_Driver/src/stm32f10x_spi.c **** FlagStatus SPI_I2S_GetFlagStatus(SPI_TypeDef* SPIx, uint16_t SPI_I2S_FLAG)
 766:STM32F10x_StdPeriph_Driver/src/stm32f10x_spi.c **** {
 1756              		.loc 1 766 0
 1757              		.cfi_startproc
 1758              		@ args = 0, pretend = 0, frame = 0
 1759              		@ frame_needed = 0, uses_anonymous_args = 0
 1760              	.LVL168:
 1761 0000 38B5     		push	{r3, r4, r5, lr}
 1762              	.LCFI19:
 1763              		.cfi_def_cfa_offset 16
 1764              		.cfi_offset 3, -16
 1765              		.cfi_offset 4, -12
 1766              		.cfi_offset 5, -8
 1767              		.cfi_offset 14, -4
 1768 0002 0546     		mov	r5, r0
 1769 0004 0C46     		mov	r4, r1
 1770              	.LVL169:
 767:STM32F10x_StdPeriph_Driver/src/stm32f10x_spi.c ****   FlagStatus bitstatus = RESET;
 768:STM32F10x_StdPeriph_Driver/src/stm32f10x_spi.c ****   /* Check the parameters */
 769:STM32F10x_StdPeriph_Driver/src/stm32f10x_spi.c ****   assert_param(IS_SPI_ALL_PERIPH(SPIx));
 1771              		.loc 1 769 0
 1772 0006 164B     		ldr	r3, .L151
ARM GAS  /var/folders/g9/bbpj86ld7fx45vd1b3pqxmp00000gn/T//ccxK7sY3.s 			page 45


 1773 0008 9842     		cmp	r0, r3
 1774 000a 0CD0     		beq	.L146
 1775              		.loc 1 769 0 is_stmt 0 discriminator 1
 1776 000c A3F57843 		sub	r3, r3, #63488
 1777 0010 9842     		cmp	r0, r3
 1778 0012 08D0     		beq	.L146
 1779              		.loc 1 769 0 discriminator 2
 1780 0014 03F58063 		add	r3, r3, #1024
 1781 0018 9842     		cmp	r0, r3
 1782 001a 04D0     		beq	.L146
 1783              		.loc 1 769 0 discriminator 3
 1784 001c 40F20131 		movw	r1, #769
 1785              	.LVL170:
 1786 0020 1048     		ldr	r0, .L151+4
 1787              	.LVL171:
 1788 0022 FFF7FEFF 		bl	assert_failed
 1789              	.LVL172:
 1790              	.L146:
 770:STM32F10x_StdPeriph_Driver/src/stm32f10x_spi.c ****   assert_param(IS_SPI_I2S_GET_FLAG(SPI_I2S_FLAG));
 1791              		.loc 1 770 0 is_stmt 1
 1792 0026 802C     		cmp	r4, #128
 1793 0028 12D0     		beq	.L147
 1794              		.loc 1 770 0 is_stmt 0 discriminator 1
 1795 002a 402C     		cmp	r4, #64
 1796 002c 10D0     		beq	.L147
 1797              		.loc 1 770 0 discriminator 2
 1798 002e 202C     		cmp	r4, #32
 1799 0030 0ED0     		beq	.L147
 1800              		.loc 1 770 0 discriminator 3
 1801 0032 102C     		cmp	r4, #16
 1802 0034 0CD0     		beq	.L147
 1803              		.loc 1 770 0 discriminator 4
 1804 0036 082C     		cmp	r4, #8
 1805 0038 0AD0     		beq	.L147
 1806              		.loc 1 770 0 discriminator 5
 1807 003a 042C     		cmp	r4, #4
 1808 003c 08D0     		beq	.L147
 1809              		.loc 1 770 0 discriminator 6
 1810 003e 022C     		cmp	r4, #2
 1811 0040 06D0     		beq	.L147
 1812              		.loc 1 770 0 discriminator 7
 1813 0042 012C     		cmp	r4, #1
 1814 0044 04D0     		beq	.L147
 1815              		.loc 1 770 0 discriminator 8
 1816 0046 40F20231 		movw	r1, #770
 1817 004a 0648     		ldr	r0, .L151+4
 1818 004c FFF7FEFF 		bl	assert_failed
 1819              	.LVL173:
 1820              	.L147:
 771:STM32F10x_StdPeriph_Driver/src/stm32f10x_spi.c ****   /* Check the status of the specified SPI/I2S flag */
 772:STM32F10x_StdPeriph_Driver/src/stm32f10x_spi.c ****   if ((SPIx->SR & SPI_I2S_FLAG) != (uint16_t)RESET)
 1821              		.loc 1 772 0 is_stmt 1
 1822 0050 2B89     		ldrh	r3, [r5, #8]
 1823 0052 1C42     		tst	r4, r3
 1824 0054 01D0     		beq	.L149
 773:STM32F10x_StdPeriph_Driver/src/stm32f10x_spi.c ****   {
 774:STM32F10x_StdPeriph_Driver/src/stm32f10x_spi.c ****     /* SPI_I2S_FLAG is set */
ARM GAS  /var/folders/g9/bbpj86ld7fx45vd1b3pqxmp00000gn/T//ccxK7sY3.s 			page 46


 775:STM32F10x_StdPeriph_Driver/src/stm32f10x_spi.c ****     bitstatus = SET;
 1825              		.loc 1 775 0
 1826 0056 0120     		movs	r0, #1
 1827 0058 38BD     		pop	{r3, r4, r5, pc}
 1828              	.LVL174:
 1829              	.L149:
 776:STM32F10x_StdPeriph_Driver/src/stm32f10x_spi.c ****   }
 777:STM32F10x_StdPeriph_Driver/src/stm32f10x_spi.c ****   else
 778:STM32F10x_StdPeriph_Driver/src/stm32f10x_spi.c ****   {
 779:STM32F10x_StdPeriph_Driver/src/stm32f10x_spi.c ****     /* SPI_I2S_FLAG is reset */
 780:STM32F10x_StdPeriph_Driver/src/stm32f10x_spi.c ****     bitstatus = RESET;
 1830              		.loc 1 780 0
 1831 005a 0020     		movs	r0, #0
 1832              	.LVL175:
 781:STM32F10x_StdPeriph_Driver/src/stm32f10x_spi.c ****   }
 782:STM32F10x_StdPeriph_Driver/src/stm32f10x_spi.c ****   /* Return the SPI_I2S_FLAG status */
 783:STM32F10x_StdPeriph_Driver/src/stm32f10x_spi.c ****   return  bitstatus;
 784:STM32F10x_StdPeriph_Driver/src/stm32f10x_spi.c **** }
 1833              		.loc 1 784 0
 1834 005c 38BD     		pop	{r3, r4, r5, pc}
 1835              	.LVL176:
 1836              	.L152:
 1837 005e 00BF     		.align	2
 1838              	.L151:
 1839 0060 00300140 		.word	1073819648
 1840 0064 00000000 		.word	.LC0
 1841              		.cfi_endproc
 1842              	.LFE46:
 1844              		.section	.text.SPI_I2S_ClearFlag,"ax",%progbits
 1845              		.align	2
 1846              		.global	SPI_I2S_ClearFlag
 1847              		.thumb
 1848              		.thumb_func
 1850              	SPI_I2S_ClearFlag:
 1851              	.LFB47:
 785:STM32F10x_StdPeriph_Driver/src/stm32f10x_spi.c **** 
 786:STM32F10x_StdPeriph_Driver/src/stm32f10x_spi.c **** /**
 787:STM32F10x_StdPeriph_Driver/src/stm32f10x_spi.c ****   * @brief  Clears the SPIx CRC Error (CRCERR) flag.
 788:STM32F10x_StdPeriph_Driver/src/stm32f10x_spi.c ****   * @param  SPIx: where x can be
 789:STM32F10x_StdPeriph_Driver/src/stm32f10x_spi.c ****   *   - 1, 2 or 3 in SPI mode 
 790:STM32F10x_StdPeriph_Driver/src/stm32f10x_spi.c ****   * @param  SPI_I2S_FLAG: specifies the SPI flag to clear. 
 791:STM32F10x_StdPeriph_Driver/src/stm32f10x_spi.c ****   *   This function clears only CRCERR flag.
 792:STM32F10x_StdPeriph_Driver/src/stm32f10x_spi.c ****   * @note
 793:STM32F10x_StdPeriph_Driver/src/stm32f10x_spi.c ****   *   - OVR (OverRun error) flag is cleared by software sequence: a read 
 794:STM32F10x_StdPeriph_Driver/src/stm32f10x_spi.c ****   *     operation to SPI_DR register (SPI_I2S_ReceiveData()) followed by a read 
 795:STM32F10x_StdPeriph_Driver/src/stm32f10x_spi.c ****   *     operation to SPI_SR register (SPI_I2S_GetFlagStatus()).
 796:STM32F10x_StdPeriph_Driver/src/stm32f10x_spi.c ****   *   - UDR (UnderRun error) flag is cleared by a read operation to 
 797:STM32F10x_StdPeriph_Driver/src/stm32f10x_spi.c ****   *     SPI_SR register (SPI_I2S_GetFlagStatus()).
 798:STM32F10x_StdPeriph_Driver/src/stm32f10x_spi.c ****   *   - MODF (Mode Fault) flag is cleared by software sequence: a read/write 
 799:STM32F10x_StdPeriph_Driver/src/stm32f10x_spi.c ****   *     operation to SPI_SR register (SPI_I2S_GetFlagStatus()) followed by a 
 800:STM32F10x_StdPeriph_Driver/src/stm32f10x_spi.c ****   *     write operation to SPI_CR1 register (SPI_Cmd() to enable the SPI).
 801:STM32F10x_StdPeriph_Driver/src/stm32f10x_spi.c ****   * @retval None
 802:STM32F10x_StdPeriph_Driver/src/stm32f10x_spi.c ****   */
 803:STM32F10x_StdPeriph_Driver/src/stm32f10x_spi.c **** void SPI_I2S_ClearFlag(SPI_TypeDef* SPIx, uint16_t SPI_I2S_FLAG)
 804:STM32F10x_StdPeriph_Driver/src/stm32f10x_spi.c **** {
 1852              		.loc 1 804 0
 1853              		.cfi_startproc
ARM GAS  /var/folders/g9/bbpj86ld7fx45vd1b3pqxmp00000gn/T//ccxK7sY3.s 			page 47


 1854              		@ args = 0, pretend = 0, frame = 0
 1855              		@ frame_needed = 0, uses_anonymous_args = 0
 1856              	.LVL177:
 1857 0000 38B5     		push	{r3, r4, r5, lr}
 1858              	.LCFI20:
 1859              		.cfi_def_cfa_offset 16
 1860              		.cfi_offset 3, -16
 1861              		.cfi_offset 4, -12
 1862              		.cfi_offset 5, -8
 1863              		.cfi_offset 14, -4
 1864 0002 0546     		mov	r5, r0
 1865 0004 0C46     		mov	r4, r1
 805:STM32F10x_StdPeriph_Driver/src/stm32f10x_spi.c ****   /* Check the parameters */
 806:STM32F10x_StdPeriph_Driver/src/stm32f10x_spi.c ****   assert_param(IS_SPI_ALL_PERIPH(SPIx));
 1866              		.loc 1 806 0
 1867 0006 0D4B     		ldr	r3, .L157
 1868 0008 9842     		cmp	r0, r3
 1869 000a 0CD0     		beq	.L154
 1870              		.loc 1 806 0 is_stmt 0 discriminator 1
 1871 000c A3F57843 		sub	r3, r3, #63488
 1872 0010 9842     		cmp	r0, r3
 1873 0012 08D0     		beq	.L154
 1874              		.loc 1 806 0 discriminator 2
 1875 0014 03F58063 		add	r3, r3, #1024
 1876 0018 9842     		cmp	r0, r3
 1877 001a 04D0     		beq	.L154
 1878              		.loc 1 806 0 discriminator 3
 1879 001c 40F22631 		movw	r1, #806
 1880              	.LVL178:
 1881 0020 0748     		ldr	r0, .L157+4
 1882              	.LVL179:
 1883 0022 FFF7FEFF 		bl	assert_failed
 1884              	.LVL180:
 1885              	.L154:
 807:STM32F10x_StdPeriph_Driver/src/stm32f10x_spi.c ****   assert_param(IS_SPI_I2S_CLEAR_FLAG(SPI_I2S_FLAG));
 1886              		.loc 1 807 0 is_stmt 1
 1887 0026 102C     		cmp	r4, #16
 1888 0028 04D0     		beq	.L155
 1889              		.loc 1 807 0 is_stmt 0 discriminator 1
 1890 002a 40F22731 		movw	r1, #807
 1891 002e 0448     		ldr	r0, .L157+4
 1892 0030 FFF7FEFF 		bl	assert_failed
 1893              	.LVL181:
 1894              	.L155:
 808:STM32F10x_StdPeriph_Driver/src/stm32f10x_spi.c ****     
 809:STM32F10x_StdPeriph_Driver/src/stm32f10x_spi.c ****     /* Clear the selected SPI CRC Error (CRCERR) flag */
 810:STM32F10x_StdPeriph_Driver/src/stm32f10x_spi.c ****     SPIx->SR = (uint16_t)~SPI_I2S_FLAG;
 1895              		.loc 1 810 0 is_stmt 1
 1896 0034 E443     		mvns	r4, r4
 1897 0036 A4B2     		uxth	r4, r4
 1898 0038 2C81     		strh	r4, [r5, #8]	@ movhi
 1899 003a 38BD     		pop	{r3, r4, r5, pc}
 1900              	.LVL182:
 1901              	.L158:
 1902              		.align	2
 1903              	.L157:
 1904 003c 00300140 		.word	1073819648
ARM GAS  /var/folders/g9/bbpj86ld7fx45vd1b3pqxmp00000gn/T//ccxK7sY3.s 			page 48


 1905 0040 00000000 		.word	.LC0
 1906              		.cfi_endproc
 1907              	.LFE47:
 1909              		.section	.text.SPI_I2S_GetITStatus,"ax",%progbits
 1910              		.align	2
 1911              		.global	SPI_I2S_GetITStatus
 1912              		.thumb
 1913              		.thumb_func
 1915              	SPI_I2S_GetITStatus:
 1916              	.LFB48:
 811:STM32F10x_StdPeriph_Driver/src/stm32f10x_spi.c **** }
 812:STM32F10x_StdPeriph_Driver/src/stm32f10x_spi.c **** 
 813:STM32F10x_StdPeriph_Driver/src/stm32f10x_spi.c **** /**
 814:STM32F10x_StdPeriph_Driver/src/stm32f10x_spi.c ****   * @brief  Checks whether the specified SPI/I2S interrupt has occurred or not.
 815:STM32F10x_StdPeriph_Driver/src/stm32f10x_spi.c ****   * @param  SPIx: where x can be
 816:STM32F10x_StdPeriph_Driver/src/stm32f10x_spi.c ****   *   - 1, 2 or 3 in SPI mode 
 817:STM32F10x_StdPeriph_Driver/src/stm32f10x_spi.c ****   *   - 2 or 3 in I2S mode
 818:STM32F10x_StdPeriph_Driver/src/stm32f10x_spi.c ****   * @param  SPI_I2S_IT: specifies the SPI/I2S interrupt source to check. 
 819:STM32F10x_StdPeriph_Driver/src/stm32f10x_spi.c ****   *   This parameter can be one of the following values:
 820:STM32F10x_StdPeriph_Driver/src/stm32f10x_spi.c ****   *     @arg SPI_I2S_IT_TXE: Transmit buffer empty interrupt.
 821:STM32F10x_StdPeriph_Driver/src/stm32f10x_spi.c ****   *     @arg SPI_I2S_IT_RXNE: Receive buffer not empty interrupt.
 822:STM32F10x_StdPeriph_Driver/src/stm32f10x_spi.c ****   *     @arg SPI_I2S_IT_OVR: Overrun interrupt.
 823:STM32F10x_StdPeriph_Driver/src/stm32f10x_spi.c ****   *     @arg SPI_IT_MODF: Mode Fault interrupt.
 824:STM32F10x_StdPeriph_Driver/src/stm32f10x_spi.c ****   *     @arg SPI_IT_CRCERR: CRC Error interrupt.
 825:STM32F10x_StdPeriph_Driver/src/stm32f10x_spi.c ****   *     @arg I2S_IT_UDR: Underrun Error interrupt.
 826:STM32F10x_StdPeriph_Driver/src/stm32f10x_spi.c ****   * @retval The new state of SPI_I2S_IT (SET or RESET).
 827:STM32F10x_StdPeriph_Driver/src/stm32f10x_spi.c ****   */
 828:STM32F10x_StdPeriph_Driver/src/stm32f10x_spi.c **** ITStatus SPI_I2S_GetITStatus(SPI_TypeDef* SPIx, uint8_t SPI_I2S_IT)
 829:STM32F10x_StdPeriph_Driver/src/stm32f10x_spi.c **** {
 1917              		.loc 1 829 0
 1918              		.cfi_startproc
 1919              		@ args = 0, pretend = 0, frame = 0
 1920              		@ frame_needed = 0, uses_anonymous_args = 0
 1921              	.LVL183:
 1922 0000 38B5     		push	{r3, r4, r5, lr}
 1923              	.LCFI21:
 1924              		.cfi_def_cfa_offset 16
 1925              		.cfi_offset 3, -16
 1926              		.cfi_offset 4, -12
 1927              		.cfi_offset 5, -8
 1928              		.cfi_offset 14, -4
 1929 0002 0546     		mov	r5, r0
 1930 0004 0C46     		mov	r4, r1
 1931              	.LVL184:
 830:STM32F10x_StdPeriph_Driver/src/stm32f10x_spi.c ****   ITStatus bitstatus = RESET;
 831:STM32F10x_StdPeriph_Driver/src/stm32f10x_spi.c ****   uint16_t itpos = 0, itmask = 0, enablestatus = 0;
 832:STM32F10x_StdPeriph_Driver/src/stm32f10x_spi.c **** 
 833:STM32F10x_StdPeriph_Driver/src/stm32f10x_spi.c ****   /* Check the parameters */
 834:STM32F10x_StdPeriph_Driver/src/stm32f10x_spi.c ****   assert_param(IS_SPI_ALL_PERIPH(SPIx));
 1932              		.loc 1 834 0
 1933 0006 1B4B     		ldr	r3, .L166
 1934 0008 9842     		cmp	r0, r3
 1935 000a 0CD0     		beq	.L160
 1936              		.loc 1 834 0 is_stmt 0 discriminator 1
 1937 000c A3F57843 		sub	r3, r3, #63488
 1938 0010 9842     		cmp	r0, r3
 1939 0012 08D0     		beq	.L160
ARM GAS  /var/folders/g9/bbpj86ld7fx45vd1b3pqxmp00000gn/T//ccxK7sY3.s 			page 49


 1940              		.loc 1 834 0 discriminator 2
 1941 0014 03F58063 		add	r3, r3, #1024
 1942 0018 9842     		cmp	r0, r3
 1943 001a 04D0     		beq	.L160
 1944              		.loc 1 834 0 discriminator 3
 1945 001c 40F24231 		movw	r1, #834
 1946              	.LVL185:
 1947 0020 1548     		ldr	r0, .L166+4
 1948              	.LVL186:
 1949 0022 FFF7FEFF 		bl	assert_failed
 1950              	.LVL187:
 1951              	.L160:
 835:STM32F10x_StdPeriph_Driver/src/stm32f10x_spi.c ****   assert_param(IS_SPI_I2S_GET_IT(SPI_I2S_IT));
 1952              		.loc 1 835 0 is_stmt 1
 1953 0026 602C     		cmp	r4, #96
 1954 0028 0ED0     		beq	.L161
 1955              		.loc 1 835 0 is_stmt 0 discriminator 1
 1956 002a 712C     		cmp	r4, #113
 1957 002c 0CD0     		beq	.L161
 1958              		.loc 1 835 0 discriminator 2
 1959 002e 532C     		cmp	r4, #83
 1960 0030 0AD0     		beq	.L161
 1961              		.loc 1 835 0 discriminator 3
 1962 0032 542C     		cmp	r4, #84
 1963 0034 08D0     		beq	.L161
 1964              		.loc 1 835 0 discriminator 4
 1965 0036 552C     		cmp	r4, #85
 1966 0038 06D0     		beq	.L161
 1967              		.loc 1 835 0 discriminator 5
 1968 003a 562C     		cmp	r4, #86
 1969 003c 04D0     		beq	.L161
 1970              		.loc 1 835 0 discriminator 6
 1971 003e 40F24331 		movw	r1, #835
 1972 0042 0D48     		ldr	r0, .L166+4
 1973 0044 FFF7FEFF 		bl	assert_failed
 1974              	.LVL188:
 1975              	.L161:
 836:STM32F10x_StdPeriph_Driver/src/stm32f10x_spi.c **** 
 837:STM32F10x_StdPeriph_Driver/src/stm32f10x_spi.c ****   /* Get the SPI/I2S IT index */
 838:STM32F10x_StdPeriph_Driver/src/stm32f10x_spi.c ****   itpos = 0x01 << (SPI_I2S_IT & 0x0F);
 1976              		.loc 1 838 0 is_stmt 1
 1977 0048 04F00F01 		and	r1, r4, #15
 1978 004c 0123     		movs	r3, #1
 1979 004e 03FA01F1 		lsl	r1, r3, r1
 1980              	.LVL189:
 839:STM32F10x_StdPeriph_Driver/src/stm32f10x_spi.c **** 
 840:STM32F10x_StdPeriph_Driver/src/stm32f10x_spi.c ****   /* Get the SPI/I2S IT mask */
 841:STM32F10x_StdPeriph_Driver/src/stm32f10x_spi.c ****   itmask = SPI_I2S_IT >> 4;
 1981              		.loc 1 841 0
 1982 0052 2409     		lsrs	r4, r4, #4
 1983              	.LVL190:
 842:STM32F10x_StdPeriph_Driver/src/stm32f10x_spi.c **** 
 843:STM32F10x_StdPeriph_Driver/src/stm32f10x_spi.c ****   /* Set the IT mask */
 844:STM32F10x_StdPeriph_Driver/src/stm32f10x_spi.c ****   itmask = 0x01 << itmask;
 1984              		.loc 1 844 0
 1985 0054 03FA04F4 		lsl	r4, r3, r4
 1986              	.LVL191:
ARM GAS  /var/folders/g9/bbpj86ld7fx45vd1b3pqxmp00000gn/T//ccxK7sY3.s 			page 50


 845:STM32F10x_StdPeriph_Driver/src/stm32f10x_spi.c **** 
 846:STM32F10x_StdPeriph_Driver/src/stm32f10x_spi.c ****   /* Get the SPI_I2S_IT enable bit status */
 847:STM32F10x_StdPeriph_Driver/src/stm32f10x_spi.c ****   enablestatus = (SPIx->CR2 & itmask) ;
 1987              		.loc 1 847 0
 1988 0058 AB88     		ldrh	r3, [r5, #4]
 1989 005a 9BB2     		uxth	r3, r3
 1990 005c 2340     		ands	r3, r3, r4
 1991              	.LVL192:
 848:STM32F10x_StdPeriph_Driver/src/stm32f10x_spi.c **** 
 849:STM32F10x_StdPeriph_Driver/src/stm32f10x_spi.c ****   /* Check the status of the specified SPI/I2S interrupt */
 850:STM32F10x_StdPeriph_Driver/src/stm32f10x_spi.c ****   if (((SPIx->SR & itpos) != (uint16_t)RESET) && enablestatus)
 1992              		.loc 1 850 0
 1993 005e 2A89     		ldrh	r2, [r5, #8]
 1994 0060 92B2     		uxth	r2, r2
 1995 0062 1142     		tst	r1, r2
 1996 0064 02D0     		beq	.L163
 1997              		.loc 1 850 0 is_stmt 0 discriminator 1
 1998 0066 1BB9     		cbnz	r3, .L164
 851:STM32F10x_StdPeriph_Driver/src/stm32f10x_spi.c ****   {
 852:STM32F10x_StdPeriph_Driver/src/stm32f10x_spi.c ****     /* SPI_I2S_IT is set */
 853:STM32F10x_StdPeriph_Driver/src/stm32f10x_spi.c ****     bitstatus = SET;
 854:STM32F10x_StdPeriph_Driver/src/stm32f10x_spi.c ****   }
 855:STM32F10x_StdPeriph_Driver/src/stm32f10x_spi.c ****   else
 856:STM32F10x_StdPeriph_Driver/src/stm32f10x_spi.c ****   {
 857:STM32F10x_StdPeriph_Driver/src/stm32f10x_spi.c ****     /* SPI_I2S_IT is reset */
 858:STM32F10x_StdPeriph_Driver/src/stm32f10x_spi.c ****     bitstatus = RESET;
 1999              		.loc 1 858 0 is_stmt 1
 2000 0068 0020     		movs	r0, #0
 2001 006a 38BD     		pop	{r3, r4, r5, pc}
 2002              	.LVL193:
 2003              	.L163:
 2004 006c 0020     		movs	r0, #0
 2005 006e 38BD     		pop	{r3, r4, r5, pc}
 2006              	.LVL194:
 2007              	.L164:
 853:STM32F10x_StdPeriph_Driver/src/stm32f10x_spi.c ****   }
 2008              		.loc 1 853 0
 2009 0070 0120     		movs	r0, #1
 2010              	.LVL195:
 859:STM32F10x_StdPeriph_Driver/src/stm32f10x_spi.c ****   }
 860:STM32F10x_StdPeriph_Driver/src/stm32f10x_spi.c ****   /* Return the SPI_I2S_IT status */
 861:STM32F10x_StdPeriph_Driver/src/stm32f10x_spi.c ****   return bitstatus;
 862:STM32F10x_StdPeriph_Driver/src/stm32f10x_spi.c **** }
 2011              		.loc 1 862 0
 2012 0072 38BD     		pop	{r3, r4, r5, pc}
 2013              	.LVL196:
 2014              	.L167:
 2015              		.align	2
 2016              	.L166:
 2017 0074 00300140 		.word	1073819648
 2018 0078 00000000 		.word	.LC0
 2019              		.cfi_endproc
 2020              	.LFE48:
 2022              		.section	.text.SPI_I2S_ClearITPendingBit,"ax",%progbits
 2023              		.align	2
 2024              		.global	SPI_I2S_ClearITPendingBit
 2025              		.thumb
ARM GAS  /var/folders/g9/bbpj86ld7fx45vd1b3pqxmp00000gn/T//ccxK7sY3.s 			page 51


 2026              		.thumb_func
 2028              	SPI_I2S_ClearITPendingBit:
 2029              	.LFB49:
 863:STM32F10x_StdPeriph_Driver/src/stm32f10x_spi.c **** 
 864:STM32F10x_StdPeriph_Driver/src/stm32f10x_spi.c **** /**
 865:STM32F10x_StdPeriph_Driver/src/stm32f10x_spi.c ****   * @brief  Clears the SPIx CRC Error (CRCERR) interrupt pending bit.
 866:STM32F10x_StdPeriph_Driver/src/stm32f10x_spi.c ****   * @param  SPIx: where x can be
 867:STM32F10x_StdPeriph_Driver/src/stm32f10x_spi.c ****   *   - 1, 2 or 3 in SPI mode 
 868:STM32F10x_StdPeriph_Driver/src/stm32f10x_spi.c ****   * @param  SPI_I2S_IT: specifies the SPI interrupt pending bit to clear.
 869:STM32F10x_StdPeriph_Driver/src/stm32f10x_spi.c ****   *   This function clears only CRCERR intetrrupt pending bit.   
 870:STM32F10x_StdPeriph_Driver/src/stm32f10x_spi.c ****   * @note
 871:STM32F10x_StdPeriph_Driver/src/stm32f10x_spi.c ****   *   - OVR (OverRun Error) interrupt pending bit is cleared by software 
 872:STM32F10x_StdPeriph_Driver/src/stm32f10x_spi.c ****   *     sequence: a read operation to SPI_DR register (SPI_I2S_ReceiveData()) 
 873:STM32F10x_StdPeriph_Driver/src/stm32f10x_spi.c ****   *     followed by a read operation to SPI_SR register (SPI_I2S_GetITStatus()).
 874:STM32F10x_StdPeriph_Driver/src/stm32f10x_spi.c ****   *   - UDR (UnderRun Error) interrupt pending bit is cleared by a read 
 875:STM32F10x_StdPeriph_Driver/src/stm32f10x_spi.c ****   *     operation to SPI_SR register (SPI_I2S_GetITStatus()).
 876:STM32F10x_StdPeriph_Driver/src/stm32f10x_spi.c ****   *   - MODF (Mode Fault) interrupt pending bit is cleared by software sequence:
 877:STM32F10x_StdPeriph_Driver/src/stm32f10x_spi.c ****   *     a read/write operation to SPI_SR register (SPI_I2S_GetITStatus()) 
 878:STM32F10x_StdPeriph_Driver/src/stm32f10x_spi.c ****   *     followed by a write operation to SPI_CR1 register (SPI_Cmd() to enable 
 879:STM32F10x_StdPeriph_Driver/src/stm32f10x_spi.c ****   *     the SPI).
 880:STM32F10x_StdPeriph_Driver/src/stm32f10x_spi.c ****   * @retval None
 881:STM32F10x_StdPeriph_Driver/src/stm32f10x_spi.c ****   */
 882:STM32F10x_StdPeriph_Driver/src/stm32f10x_spi.c **** void SPI_I2S_ClearITPendingBit(SPI_TypeDef* SPIx, uint8_t SPI_I2S_IT)
 883:STM32F10x_StdPeriph_Driver/src/stm32f10x_spi.c **** {
 2030              		.loc 1 883 0
 2031              		.cfi_startproc
 2032              		@ args = 0, pretend = 0, frame = 0
 2033              		@ frame_needed = 0, uses_anonymous_args = 0
 2034              	.LVL197:
 2035 0000 38B5     		push	{r3, r4, r5, lr}
 2036              	.LCFI22:
 2037              		.cfi_def_cfa_offset 16
 2038              		.cfi_offset 3, -16
 2039              		.cfi_offset 4, -12
 2040              		.cfi_offset 5, -8
 2041              		.cfi_offset 14, -4
 2042 0002 0546     		mov	r5, r0
 2043 0004 0C46     		mov	r4, r1
 2044              	.LVL198:
 884:STM32F10x_StdPeriph_Driver/src/stm32f10x_spi.c ****   uint16_t itpos = 0;
 885:STM32F10x_StdPeriph_Driver/src/stm32f10x_spi.c ****   /* Check the parameters */
 886:STM32F10x_StdPeriph_Driver/src/stm32f10x_spi.c ****   assert_param(IS_SPI_ALL_PERIPH(SPIx));
 2045              		.loc 1 886 0
 2046 0006 104B     		ldr	r3, .L172
 2047 0008 9842     		cmp	r0, r3
 2048 000a 0CD0     		beq	.L169
 2049              		.loc 1 886 0 is_stmt 0 discriminator 1
 2050 000c A3F57843 		sub	r3, r3, #63488
 2051 0010 9842     		cmp	r0, r3
 2052 0012 08D0     		beq	.L169
 2053              		.loc 1 886 0 discriminator 2
 2054 0014 03F58063 		add	r3, r3, #1024
 2055 0018 9842     		cmp	r0, r3
 2056 001a 04D0     		beq	.L169
 2057              		.loc 1 886 0 discriminator 3
 2058 001c 40F27631 		movw	r1, #886
 2059              	.LVL199:
ARM GAS  /var/folders/g9/bbpj86ld7fx45vd1b3pqxmp00000gn/T//ccxK7sY3.s 			page 52


 2060 0020 0A48     		ldr	r0, .L172+4
 2061              	.LVL200:
 2062 0022 FFF7FEFF 		bl	assert_failed
 2063              	.LVL201:
 2064              	.L169:
 887:STM32F10x_StdPeriph_Driver/src/stm32f10x_spi.c ****   assert_param(IS_SPI_I2S_CLEAR_IT(SPI_I2S_IT));
 2065              		.loc 1 887 0 is_stmt 1
 2066 0026 542C     		cmp	r4, #84
 2067 0028 04D0     		beq	.L170
 2068              		.loc 1 887 0 is_stmt 0 discriminator 1
 2069 002a 40F27731 		movw	r1, #887
 2070 002e 0748     		ldr	r0, .L172+4
 2071 0030 FFF7FEFF 		bl	assert_failed
 2072              	.LVL202:
 2073              	.L170:
 888:STM32F10x_StdPeriph_Driver/src/stm32f10x_spi.c **** 
 889:STM32F10x_StdPeriph_Driver/src/stm32f10x_spi.c ****   /* Get the SPI IT index */
 890:STM32F10x_StdPeriph_Driver/src/stm32f10x_spi.c ****   itpos = 0x01 << (SPI_I2S_IT & 0x0F);
 2074              		.loc 1 890 0 is_stmt 1
 2075 0034 04F00F03 		and	r3, r4, #15
 2076 0038 0122     		movs	r2, #1
 2077 003a 02FA03F3 		lsl	r3, r2, r3
 2078 003e 9BB2     		uxth	r3, r3
 2079              	.LVL203:
 891:STM32F10x_StdPeriph_Driver/src/stm32f10x_spi.c **** 
 892:STM32F10x_StdPeriph_Driver/src/stm32f10x_spi.c ****   /* Clear the selected SPI CRC Error (CRCERR) interrupt pending bit */
 893:STM32F10x_StdPeriph_Driver/src/stm32f10x_spi.c ****   SPIx->SR = (uint16_t)~itpos;
 2080              		.loc 1 893 0
 2081 0040 DB43     		mvns	r3, r3
 2082              	.LVL204:
 2083 0042 9BB2     		uxth	r3, r3
 2084              	.LVL205:
 2085 0044 2B81     		strh	r3, [r5, #8]	@ movhi
 2086 0046 38BD     		pop	{r3, r4, r5, pc}
 2087              	.LVL206:
 2088              	.L173:
 2089              		.align	2
 2090              	.L172:
 2091 0048 00300140 		.word	1073819648
 2092 004c 00000000 		.word	.LC0
 2093              		.cfi_endproc
 2094              	.LFE49:
 2096              		.section	.rodata.str1.4,"aMS",%progbits,1
 2097              		.align	2
 2098              	.LC0:
 2099 0000 53544D33 		.ascii	"STM32F10x_StdPeriph_Driver/src/stm32f10x_spi.c\000"
 2099      32463130 
 2099      785F5374 
 2099      64506572 
 2099      6970685F 
 2100              		.text
 2101              	.Letext0:
 2102              		.file 2 "/usr/local/Cellar/gcc-arm-none-eabi/20160926/arm-none-eabi/include/machine/_default_types
 2103              		.file 3 "/usr/local/Cellar/gcc-arm-none-eabi/20160926/arm-none-eabi/include/sys/_stdint.h"
 2104              		.file 4 "CMSIS/Core/CM3/stm32f10x.h"
 2105              		.file 5 "STM32F10x_StdPeriph_Driver/inc/stm32f10x_rcc.h"
 2106              		.file 6 "STM32F10x_StdPeriph_Driver/inc/stm32f10x_spi.h"
ARM GAS  /var/folders/g9/bbpj86ld7fx45vd1b3pqxmp00000gn/T//ccxK7sY3.s 			page 53


 2107              		.file 7 "Inc/stm32f10x_conf.h"
ARM GAS  /var/folders/g9/bbpj86ld7fx45vd1b3pqxmp00000gn/T//ccxK7sY3.s 			page 54

