ARM GAS  /var/folders/g9/bbpj86ld7fx45vd1b3pqxmp00000gn/T//ccOsGbDU.s 			page 1


   1              		.syntax unified
   2              		.cpu cortex-m3
   3              		.fpu softvfp
   4              		.eabi_attribute 20, 1
   5              		.eabi_attribute 21, 1
   6              		.eabi_attribute 23, 3
   7              		.eabi_attribute 24, 1
   8              		.eabi_attribute 25, 1
   9              		.eabi_attribute 26, 1
  10              		.eabi_attribute 30, 1
  11              		.eabi_attribute 34, 1
  12              		.eabi_attribute 18, 4
  13              		.thumb
  14              		.syntax unified
  15              		.file	"stm32f10x_it.c"
  16              		.text
  17              	.Ltext0:
  18              		.cfi_sections	.debug_frame
  19              		.section	.text.NMI_Handler,"ax",%progbits
  20              		.align	2
  21              		.global	NMI_Handler
  22              		.thumb
  23              		.thumb_func
  25              	NMI_Handler:
  26              	.LFB28:
  27              		.file 1 "src/stm32f10x_it.c"
   1:src/stm32f10x_it.c **** /**
   2:src/stm32f10x_it.c ****   ******************************************************************************
   3:src/stm32f10x_it.c ****   * @file    SysTick/stm32f10x_it.c 
   4:src/stm32f10x_it.c ****   * @author  MCD Application Team
   5:src/stm32f10x_it.c ****   * @version V3.1.0
   6:src/stm32f10x_it.c ****   * @date    06/19/2009
   7:src/stm32f10x_it.c ****   * @brief   Main Interrupt Service Routines.
   8:src/stm32f10x_it.c ****   *          This file provides template for all exceptions handler and peripherals
   9:src/stm32f10x_it.c ****   *          interrupt service routine.
  10:src/stm32f10x_it.c ****   ******************************************************************************
  11:src/stm32f10x_it.c ****   * @copy
  12:src/stm32f10x_it.c ****   *
  13:src/stm32f10x_it.c **** * THE PRESENT FIRMWARE WHICH IS FOR GUIDANCE ONLY AIMS AT PROVIDING CUSTOMERS
  14:src/stm32f10x_it.c ****   * WITH CODING INFORMATION REGARDING THEIR PRODUCTS IN ORDER FOR THEM TO SAVE
  15:src/stm32f10x_it.c ****   * TIME. AS A RESULT, STMICROELECTRONICS SHALL NOT BE HELD LIABLE FOR ANY
  16:src/stm32f10x_it.c ****   * DIRECT, INDIRECT OR CONSEQUENTIAL DAMAGES WITH RESPECT TO ANY CLAIMS ARISING
  17:src/stm32f10x_it.c ****   * FROM THE CONTENT OF SUCH FIRMWARE AND/OR THE USE MADE BY CUSTOMERS OF THE
  18:src/stm32f10x_it.c ****   * CODING INFORMATION CONTAINED HEREIN IN CONNECTION WITH THEIR PRODUCTS.
  19:src/stm32f10x_it.c ****   *
  20:src/stm32f10x_it.c ****   * <h2><center>&copy; COPYRIGHT 2009 STMicroelectronics</center></h2>
  21:src/stm32f10x_it.c ****   */ 
  22:src/stm32f10x_it.c **** 
  23:src/stm32f10x_it.c **** /* Includes ------------------------------------------------------------------*/
  24:src/stm32f10x_it.c **** #include "stm32f10x_it.h"
  25:src/stm32f10x_it.c **** #include "stm32f10x_exti.h"
  26:src/stm32f10x_it.c **** #include "stm32f10x_dma.h"
  27:src/stm32f10x_it.c **** 
  28:src/stm32f10x_it.c **** #include "hw_config.h"
  29:src/stm32f10x_it.c **** 
  30:src/stm32f10x_it.c **** /* Private typedef -----------------------------------------------------------*/
  31:src/stm32f10x_it.c **** 
ARM GAS  /var/folders/g9/bbpj86ld7fx45vd1b3pqxmp00000gn/T//ccOsGbDU.s 			page 2


  32:src/stm32f10x_it.c **** /* Private define ------------------------------------------------------------*/
  33:src/stm32f10x_it.c **** 
  34:src/stm32f10x_it.c **** /* Private macro -------------------------------------------------------------*/
  35:src/stm32f10x_it.c **** 
  36:src/stm32f10x_it.c **** /* Private variables ---------------------------------------------------------*/
  37:src/stm32f10x_it.c **** uint8_t Send_Buffer[2];
  38:src/stm32f10x_it.c **** extern uint32_t ADC_ConvertedValueX;
  39:src/stm32f10x_it.c **** extern uint32_t ADC_ConvertedValueX_1;
  40:src/stm32f10x_it.c **** 
  41:src/stm32f10x_it.c **** /* Private function prototypes -----------------------------------------------*/
  42:src/stm32f10x_it.c **** /* Private functions ---------------------------------------------------------*/
  43:src/stm32f10x_it.c **** 
  44:src/stm32f10x_it.c **** /******************************************************************************/
  45:src/stm32f10x_it.c **** /*            Cortex-M3 Processor Exceptions Handlers                         */
  46:src/stm32f10x_it.c **** /******************************************************************************/
  47:src/stm32f10x_it.c **** 
  48:src/stm32f10x_it.c **** /**
  49:src/stm32f10x_it.c ****   * @brief  This function handles NMI exception.
  50:src/stm32f10x_it.c ****   * @param  None
  51:src/stm32f10x_it.c ****   * @retval None
  52:src/stm32f10x_it.c ****   */
  53:src/stm32f10x_it.c **** void NMI_Handler(void)
  54:src/stm32f10x_it.c **** {
  28              		.loc 1 54 0
  29              		.cfi_startproc
  30              		@ args = 0, pretend = 0, frame = 0
  31              		@ frame_needed = 0, uses_anonymous_args = 0
  32              		@ link register save eliminated.
  33 0000 7047     		bx	lr
  34              		.cfi_endproc
  35              	.LFE28:
  37 0002 00BF     		.section	.text.HardFault_Handler,"ax",%progbits
  38              		.align	2
  39              		.global	HardFault_Handler
  40              		.thumb
  41              		.thumb_func
  43              	HardFault_Handler:
  44              	.LFB29:
  55:src/stm32f10x_it.c **** }
  56:src/stm32f10x_it.c **** 
  57:src/stm32f10x_it.c **** /**
  58:src/stm32f10x_it.c ****   * @brief  This function handles Hard Fault exception.
  59:src/stm32f10x_it.c ****   * @param  None
  60:src/stm32f10x_it.c ****   * @retval None
  61:src/stm32f10x_it.c ****   */
  62:src/stm32f10x_it.c **** void HardFault_Handler(void)
  63:src/stm32f10x_it.c **** {
  45              		.loc 1 63 0
  46              		.cfi_startproc
  47              		@ Volatile: function does not return.
  48              		@ args = 0, pretend = 0, frame = 0
  49              		@ frame_needed = 0, uses_anonymous_args = 0
  50              		@ link register save eliminated.
  51              	.L3:
  52 0000 FEE7     		b	.L3
  53              		.cfi_endproc
  54              	.LFE29:
ARM GAS  /var/folders/g9/bbpj86ld7fx45vd1b3pqxmp00000gn/T//ccOsGbDU.s 			page 3


  56 0002 00BF     		.section	.text.MemManage_Handler,"ax",%progbits
  57              		.align	2
  58              		.global	MemManage_Handler
  59              		.thumb
  60              		.thumb_func
  62              	MemManage_Handler:
  63              	.LFB30:
  64:src/stm32f10x_it.c ****     /* Go to infinite loop when Hard Fault exception occurs */
  65:src/stm32f10x_it.c ****     while (1)
  66:src/stm32f10x_it.c ****     {
  67:src/stm32f10x_it.c ****     }
  68:src/stm32f10x_it.c **** }
  69:src/stm32f10x_it.c **** 
  70:src/stm32f10x_it.c **** /**
  71:src/stm32f10x_it.c ****   * @brief  This function handles Memory Manage exception.
  72:src/stm32f10x_it.c ****   * @param  None
  73:src/stm32f10x_it.c ****   * @retval None
  74:src/stm32f10x_it.c ****   */
  75:src/stm32f10x_it.c **** void MemManage_Handler(void)
  76:src/stm32f10x_it.c **** {
  64              		.loc 1 76 0
  65              		.cfi_startproc
  66              		@ Volatile: function does not return.
  67              		@ args = 0, pretend = 0, frame = 0
  68              		@ frame_needed = 0, uses_anonymous_args = 0
  69              		@ link register save eliminated.
  70              	.L5:
  71 0000 FEE7     		b	.L5
  72              		.cfi_endproc
  73              	.LFE30:
  75 0002 00BF     		.section	.text.BusFault_Handler,"ax",%progbits
  76              		.align	2
  77              		.global	BusFault_Handler
  78              		.thumb
  79              		.thumb_func
  81              	BusFault_Handler:
  82              	.LFB31:
  77:src/stm32f10x_it.c ****     /* Go to infinite loop when Memory Manage exception occurs */
  78:src/stm32f10x_it.c ****     while (1)
  79:src/stm32f10x_it.c ****     {
  80:src/stm32f10x_it.c ****     }
  81:src/stm32f10x_it.c **** }
  82:src/stm32f10x_it.c **** 
  83:src/stm32f10x_it.c **** /**
  84:src/stm32f10x_it.c ****   * @brief  This function handles Bus Fault exception.
  85:src/stm32f10x_it.c ****   * @param  None
  86:src/stm32f10x_it.c ****   * @retval None
  87:src/stm32f10x_it.c ****   */
  88:src/stm32f10x_it.c **** void BusFault_Handler(void)
  89:src/stm32f10x_it.c **** {
  83              		.loc 1 89 0
  84              		.cfi_startproc
  85              		@ Volatile: function does not return.
  86              		@ args = 0, pretend = 0, frame = 0
  87              		@ frame_needed = 0, uses_anonymous_args = 0
  88              		@ link register save eliminated.
  89              	.L7:
ARM GAS  /var/folders/g9/bbpj86ld7fx45vd1b3pqxmp00000gn/T//ccOsGbDU.s 			page 4


  90 0000 FEE7     		b	.L7
  91              		.cfi_endproc
  92              	.LFE31:
  94 0002 00BF     		.section	.text.UsageFault_Handler,"ax",%progbits
  95              		.align	2
  96              		.global	UsageFault_Handler
  97              		.thumb
  98              		.thumb_func
 100              	UsageFault_Handler:
 101              	.LFB32:
  90:src/stm32f10x_it.c ****     /* Go to infinite loop when Bus Fault exception occurs */
  91:src/stm32f10x_it.c ****     while (1)
  92:src/stm32f10x_it.c ****     {
  93:src/stm32f10x_it.c ****     }
  94:src/stm32f10x_it.c **** }
  95:src/stm32f10x_it.c **** 
  96:src/stm32f10x_it.c **** /**
  97:src/stm32f10x_it.c ****   * @brief  This function handles Usage Fault exception.
  98:src/stm32f10x_it.c ****   * @param  None
  99:src/stm32f10x_it.c ****   * @retval None
 100:src/stm32f10x_it.c ****   */
 101:src/stm32f10x_it.c **** void UsageFault_Handler(void)
 102:src/stm32f10x_it.c **** {
 102              		.loc 1 102 0
 103              		.cfi_startproc
 104              		@ Volatile: function does not return.
 105              		@ args = 0, pretend = 0, frame = 0
 106              		@ frame_needed = 0, uses_anonymous_args = 0
 107              		@ link register save eliminated.
 108              	.L9:
 109 0000 FEE7     		b	.L9
 110              		.cfi_endproc
 111              	.LFE32:
 113 0002 00BF     		.section	.text.SVC_Handler,"ax",%progbits
 114              		.align	2
 115              		.global	SVC_Handler
 116              		.thumb
 117              		.thumb_func
 119              	SVC_Handler:
 120              	.LFB33:
 103:src/stm32f10x_it.c ****     /* Go to infinite loop when Usage Fault exception occurs */
 104:src/stm32f10x_it.c ****     while (1)
 105:src/stm32f10x_it.c ****     {
 106:src/stm32f10x_it.c ****     }
 107:src/stm32f10x_it.c **** }
 108:src/stm32f10x_it.c **** 
 109:src/stm32f10x_it.c **** /**
 110:src/stm32f10x_it.c ****   * @brief  This function handles SVCall exception.
 111:src/stm32f10x_it.c ****   * @param  None
 112:src/stm32f10x_it.c ****   * @retval None
 113:src/stm32f10x_it.c ****   */
 114:src/stm32f10x_it.c **** void SVC_Handler(void)
 115:src/stm32f10x_it.c **** {
 121              		.loc 1 115 0
 122              		.cfi_startproc
 123              		@ args = 0, pretend = 0, frame = 0
 124              		@ frame_needed = 0, uses_anonymous_args = 0
ARM GAS  /var/folders/g9/bbpj86ld7fx45vd1b3pqxmp00000gn/T//ccOsGbDU.s 			page 5


 125              		@ link register save eliminated.
 126 0000 7047     		bx	lr
 127              		.cfi_endproc
 128              	.LFE33:
 130 0002 00BF     		.section	.text.DebugMon_Handler,"ax",%progbits
 131              		.align	2
 132              		.global	DebugMon_Handler
 133              		.thumb
 134              		.thumb_func
 136              	DebugMon_Handler:
 137              	.LFB34:
 116:src/stm32f10x_it.c **** }
 117:src/stm32f10x_it.c **** 
 118:src/stm32f10x_it.c **** /**
 119:src/stm32f10x_it.c ****   * @brief  This function handles Debug Monitor exception.
 120:src/stm32f10x_it.c ****   * @param  None
 121:src/stm32f10x_it.c ****   * @retval None
 122:src/stm32f10x_it.c ****   */
 123:src/stm32f10x_it.c **** void DebugMon_Handler(void)
 124:src/stm32f10x_it.c **** {
 138              		.loc 1 124 0
 139              		.cfi_startproc
 140              		@ args = 0, pretend = 0, frame = 0
 141              		@ frame_needed = 0, uses_anonymous_args = 0
 142              		@ link register save eliminated.
 143 0000 7047     		bx	lr
 144              		.cfi_endproc
 145              	.LFE34:
 147 0002 00BF     		.section	.text.PendSV_Handler,"ax",%progbits
 148              		.align	2
 149              		.global	PendSV_Handler
 150              		.thumb
 151              		.thumb_func
 153              	PendSV_Handler:
 154              	.LFB35:
 125:src/stm32f10x_it.c **** }
 126:src/stm32f10x_it.c **** 
 127:src/stm32f10x_it.c **** /**
 128:src/stm32f10x_it.c ****   * @brief  This function handles PendSV_Handler exception.
 129:src/stm32f10x_it.c ****   * @param  None
 130:src/stm32f10x_it.c ****   * @retval None
 131:src/stm32f10x_it.c ****   */
 132:src/stm32f10x_it.c **** void PendSV_Handler(void)
 133:src/stm32f10x_it.c **** {
 155              		.loc 1 133 0
 156              		.cfi_startproc
 157              		@ args = 0, pretend = 0, frame = 0
 158              		@ frame_needed = 0, uses_anonymous_args = 0
 159              		@ link register save eliminated.
 160 0000 7047     		bx	lr
 161              		.cfi_endproc
 162              	.LFE35:
 164 0002 00BF     		.section	.text.SysTick_Handler,"ax",%progbits
 165              		.align	2
 166              		.global	SysTick_Handler
 167              		.thumb
 168              		.thumb_func
ARM GAS  /var/folders/g9/bbpj86ld7fx45vd1b3pqxmp00000gn/T//ccOsGbDU.s 			page 6


 170              	SysTick_Handler:
 171              	.LFB36:
 134:src/stm32f10x_it.c **** }
 135:src/stm32f10x_it.c **** 
 136:src/stm32f10x_it.c **** /**
 137:src/stm32f10x_it.c ****   * @brief  This function handles SysTick Handler.
 138:src/stm32f10x_it.c ****   * @param  None
 139:src/stm32f10x_it.c ****   * @retval None
 140:src/stm32f10x_it.c ****   */
 141:src/stm32f10x_it.c **** void SysTick_Handler(void)
 142:src/stm32f10x_it.c **** {
 172              		.loc 1 142 0
 173              		.cfi_startproc
 174              		@ args = 0, pretend = 0, frame = 0
 175              		@ frame_needed = 0, uses_anonymous_args = 0
 176              		.loc 1 142 0
 177 0000 08B5     		push	{r3, lr}
 178              	.LCFI0:
 179              		.cfi_def_cfa_offset 8
 180              		.cfi_offset 3, -8
 181              		.cfi_offset 14, -4
 143:src/stm32f10x_it.c ****     TimingDelay_Decrement();
 182              		.loc 1 143 0
 183 0002 FFF7FEFF 		bl	TimingDelay_Decrement
 184              	.LVL0:
 185 0006 08BD     		pop	{r3, pc}
 186              		.cfi_endproc
 187              	.LFE36:
 189              		.section	.text.WWDG_IRQHandler,"ax",%progbits
 190              		.align	2
 191              		.global	WWDG_IRQHandler
 192              		.thumb
 193              		.thumb_func
 195              	WWDG_IRQHandler:
 196              	.LFB37:
 144:src/stm32f10x_it.c **** }
 145:src/stm32f10x_it.c **** 
 146:src/stm32f10x_it.c **** /******************************************************************************/
 147:src/stm32f10x_it.c **** /*            STM32F10x Peripherals Interrupt Handlers                        */
 148:src/stm32f10x_it.c **** /*  Add here the Interrupt Handler for the used peripheral(s) (PPP), for the  */
 149:src/stm32f10x_it.c **** /*  available peripheral interrupt handler's name please refer to the startup */
 150:src/stm32f10x_it.c **** /*  file (startup_stm32f10x_xx.s).                                            */
 151:src/stm32f10x_it.c **** /******************************************************************************/
 152:src/stm32f10x_it.c **** 
 153:src/stm32f10x_it.c **** /*******************************************************************************
 154:src/stm32f10x_it.c **** * Function Name  : WWDG_IRQHandler
 155:src/stm32f10x_it.c **** * Description    : This function handles WWDG interrupt request.
 156:src/stm32f10x_it.c **** * Input          : None
 157:src/stm32f10x_it.c **** * Output         : None
 158:src/stm32f10x_it.c **** * Return         : None
 159:src/stm32f10x_it.c **** *******************************************************************************/
 160:src/stm32f10x_it.c **** void WWDG_IRQHandler(void)
 161:src/stm32f10x_it.c **** {
 197              		.loc 1 161 0
 198              		.cfi_startproc
 199              		@ args = 0, pretend = 0, frame = 0
 200              		@ frame_needed = 0, uses_anonymous_args = 0
ARM GAS  /var/folders/g9/bbpj86ld7fx45vd1b3pqxmp00000gn/T//ccOsGbDU.s 			page 7


 201              		@ link register save eliminated.
 202 0000 7047     		bx	lr
 203              		.cfi_endproc
 204              	.LFE37:
 206 0002 00BF     		.section	.text.PVD_IRQHandler,"ax",%progbits
 207              		.align	2
 208              		.global	PVD_IRQHandler
 209              		.thumb
 210              		.thumb_func
 212              	PVD_IRQHandler:
 213              	.LFB38:
 162:src/stm32f10x_it.c **** }
 163:src/stm32f10x_it.c **** 
 164:src/stm32f10x_it.c **** /*******************************************************************************
 165:src/stm32f10x_it.c **** * Function Name  : PVD_IRQHandler
 166:src/stm32f10x_it.c **** * Description    : This function handles PVD interrupt request.
 167:src/stm32f10x_it.c **** * Input          : None
 168:src/stm32f10x_it.c **** * Output         : None
 169:src/stm32f10x_it.c **** * Return         : None
 170:src/stm32f10x_it.c **** *******************************************************************************/
 171:src/stm32f10x_it.c **** void PVD_IRQHandler(void)
 172:src/stm32f10x_it.c **** {
 214              		.loc 1 172 0
 215              		.cfi_startproc
 216              		@ args = 0, pretend = 0, frame = 0
 217              		@ frame_needed = 0, uses_anonymous_args = 0
 218              		@ link register save eliminated.
 219 0000 7047     		bx	lr
 220              		.cfi_endproc
 221              	.LFE38:
 223 0002 00BF     		.section	.text.TAMPER_IRQHandler,"ax",%progbits
 224              		.align	2
 225              		.global	TAMPER_IRQHandler
 226              		.thumb
 227              		.thumb_func
 229              	TAMPER_IRQHandler:
 230              	.LFB39:
 173:src/stm32f10x_it.c **** }
 174:src/stm32f10x_it.c **** 
 175:src/stm32f10x_it.c **** /*******************************************************************************
 176:src/stm32f10x_it.c **** * Function Name  : TAMPER_IRQHandler
 177:src/stm32f10x_it.c **** * Description    : This function handles Tamper interrupt request. 
 178:src/stm32f10x_it.c **** * Input          : None
 179:src/stm32f10x_it.c **** * Output         : None
 180:src/stm32f10x_it.c **** * Return         : None
 181:src/stm32f10x_it.c **** *******************************************************************************/
 182:src/stm32f10x_it.c **** void TAMPER_IRQHandler(void)
 183:src/stm32f10x_it.c **** {
 231              		.loc 1 183 0
 232              		.cfi_startproc
 233              		@ args = 0, pretend = 0, frame = 0
 234              		@ frame_needed = 0, uses_anonymous_args = 0
 235              		@ link register save eliminated.
 236 0000 7047     		bx	lr
 237              		.cfi_endproc
 238              	.LFE39:
 240 0002 00BF     		.section	.text.RTC_IRQHandler,"ax",%progbits
ARM GAS  /var/folders/g9/bbpj86ld7fx45vd1b3pqxmp00000gn/T//ccOsGbDU.s 			page 8


 241              		.align	2
 242              		.global	RTC_IRQHandler
 243              		.thumb
 244              		.thumb_func
 246              	RTC_IRQHandler:
 247              	.LFB40:
 184:src/stm32f10x_it.c **** }
 185:src/stm32f10x_it.c **** 
 186:src/stm32f10x_it.c **** /*******************************************************************************
 187:src/stm32f10x_it.c **** * Function Name  : RTC_IRQHandler
 188:src/stm32f10x_it.c **** * Description    : This function handles RTC global interrupt request.
 189:src/stm32f10x_it.c **** * Input          : None
 190:src/stm32f10x_it.c **** * Output         : None
 191:src/stm32f10x_it.c **** * Return         : None
 192:src/stm32f10x_it.c **** *******************************************************************************/
 193:src/stm32f10x_it.c **** void RTC_IRQHandler(void)
 194:src/stm32f10x_it.c **** {
 248              		.loc 1 194 0
 249              		.cfi_startproc
 250              		@ args = 0, pretend = 0, frame = 0
 251              		@ frame_needed = 0, uses_anonymous_args = 0
 252              		@ link register save eliminated.
 253 0000 7047     		bx	lr
 254              		.cfi_endproc
 255              	.LFE40:
 257 0002 00BF     		.section	.text.FLASH_IRQHandler,"ax",%progbits
 258              		.align	2
 259              		.global	FLASH_IRQHandler
 260              		.thumb
 261              		.thumb_func
 263              	FLASH_IRQHandler:
 264              	.LFB41:
 195:src/stm32f10x_it.c **** }
 196:src/stm32f10x_it.c **** 
 197:src/stm32f10x_it.c **** /*******************************************************************************
 198:src/stm32f10x_it.c **** * Function Name  : FLASH_IRQHandler
 199:src/stm32f10x_it.c **** * Description    : This function handles Flash interrupt request.
 200:src/stm32f10x_it.c **** * Input          : None
 201:src/stm32f10x_it.c **** * Output         : None
 202:src/stm32f10x_it.c **** * Return         : None
 203:src/stm32f10x_it.c **** *******************************************************************************/
 204:src/stm32f10x_it.c **** void FLASH_IRQHandler(void)
 205:src/stm32f10x_it.c **** {
 265              		.loc 1 205 0
 266              		.cfi_startproc
 267              		@ args = 0, pretend = 0, frame = 0
 268              		@ frame_needed = 0, uses_anonymous_args = 0
 269              		@ link register save eliminated.
 270 0000 7047     		bx	lr
 271              		.cfi_endproc
 272              	.LFE41:
 274 0002 00BF     		.section	.text.RCC_IRQHandler,"ax",%progbits
 275              		.align	2
 276              		.global	RCC_IRQHandler
 277              		.thumb
 278              		.thumb_func
 280              	RCC_IRQHandler:
ARM GAS  /var/folders/g9/bbpj86ld7fx45vd1b3pqxmp00000gn/T//ccOsGbDU.s 			page 9


 281              	.LFB42:
 206:src/stm32f10x_it.c **** }
 207:src/stm32f10x_it.c **** 
 208:src/stm32f10x_it.c **** /*******************************************************************************
 209:src/stm32f10x_it.c **** * Function Name  : RCC_IRQHandler
 210:src/stm32f10x_it.c **** * Description    : This function handles RCC interrupt request. 
 211:src/stm32f10x_it.c **** * Input          : None
 212:src/stm32f10x_it.c **** * Output         : None
 213:src/stm32f10x_it.c **** * Return         : None
 214:src/stm32f10x_it.c **** *******************************************************************************/
 215:src/stm32f10x_it.c **** void RCC_IRQHandler(void)
 216:src/stm32f10x_it.c **** {
 282              		.loc 1 216 0
 283              		.cfi_startproc
 284              		@ args = 0, pretend = 0, frame = 0
 285              		@ frame_needed = 0, uses_anonymous_args = 0
 286              		@ link register save eliminated.
 287 0000 7047     		bx	lr
 288              		.cfi_endproc
 289              	.LFE42:
 291 0002 00BF     		.section	.text.EXTI0_IRQHandler,"ax",%progbits
 292              		.align	2
 293              		.global	EXTI0_IRQHandler
 294              		.thumb
 295              		.thumb_func
 297              	EXTI0_IRQHandler:
 298              	.LFB43:
 217:src/stm32f10x_it.c **** }
 218:src/stm32f10x_it.c **** 
 219:src/stm32f10x_it.c **** /*******************************************************************************
 220:src/stm32f10x_it.c **** * Function Name  : EXTI0_IRQHandler
 221:src/stm32f10x_it.c **** * Description    : This function handles External interrupt Line 0 request.
 222:src/stm32f10x_it.c **** * Input          : None
 223:src/stm32f10x_it.c **** * Output         : None
 224:src/stm32f10x_it.c **** * Return         : None
 225:src/stm32f10x_it.c **** *******************************************************************************/
 226:src/stm32f10x_it.c **** 
 227:src/stm32f10x_it.c **** static bool toggle_data_key1 = FALSE;
 228:src/stm32f10x_it.c **** 
 229:src/stm32f10x_it.c **** void EXTI0_IRQHandler(void)
 230:src/stm32f10x_it.c **** {
 299              		.loc 1 230 0
 300              		.cfi_startproc
 301              		@ args = 0, pretend = 0, frame = 0
 302              		@ frame_needed = 0, uses_anonymous_args = 0
 303              		@ link register save eliminated.
 304 0000 7047     		bx	lr
 305              		.cfi_endproc
 306              	.LFE43:
 308 0002 00BF     		.section	.text.EXTI1_IRQHandler,"ax",%progbits
 309              		.align	2
 310              		.global	EXTI1_IRQHandler
 311              		.thumb
 312              		.thumb_func
 314              	EXTI1_IRQHandler:
 315              	.LFB44:
 231:src/stm32f10x_it.c **** 
ARM GAS  /var/folders/g9/bbpj86ld7fx45vd1b3pqxmp00000gn/T//ccOsGbDU.s 			page 10


 232:src/stm32f10x_it.c **** }
 233:src/stm32f10x_it.c **** 
 234:src/stm32f10x_it.c **** /*******************************************************************************
 235:src/stm32f10x_it.c **** * Function Name  : EXTI1_IRQHandler
 236:src/stm32f10x_it.c **** * Description    : This function handles External interrupt Line 1 request.
 237:src/stm32f10x_it.c **** * Input          : None
 238:src/stm32f10x_it.c **** * Output         : None
 239:src/stm32f10x_it.c **** * Return         : None
 240:src/stm32f10x_it.c **** *******************************************************************************/
 241:src/stm32f10x_it.c **** 
 242:src/stm32f10x_it.c **** static bool toggle_data_key2 = FALSE;
 243:src/stm32f10x_it.c **** 
 244:src/stm32f10x_it.c **** void EXTI1_IRQHandler(void)
 245:src/stm32f10x_it.c **** {
 316              		.loc 1 245 0
 317              		.cfi_startproc
 318              		@ args = 0, pretend = 0, frame = 0
 319              		@ frame_needed = 0, uses_anonymous_args = 0
 320              		@ link register save eliminated.
 321 0000 7047     		bx	lr
 322              		.cfi_endproc
 323              	.LFE44:
 325 0002 00BF     		.section	.text.EXTI2_IRQHandler,"ax",%progbits
 326              		.align	2
 327              		.global	EXTI2_IRQHandler
 328              		.thumb
 329              		.thumb_func
 331              	EXTI2_IRQHandler:
 332              	.LFB45:
 246:src/stm32f10x_it.c ****  
 247:src/stm32f10x_it.c **** }
 248:src/stm32f10x_it.c **** 
 249:src/stm32f10x_it.c **** /*******************************************************************************
 250:src/stm32f10x_it.c **** * Function Name  : EXTI2_IRQHandler
 251:src/stm32f10x_it.c **** * Description    : This function handles External interrupt Line 2 request.
 252:src/stm32f10x_it.c **** * Input          : None
 253:src/stm32f10x_it.c **** * Output         : None
 254:src/stm32f10x_it.c **** * Return         : None
 255:src/stm32f10x_it.c **** *******************************************************************************/
 256:src/stm32f10x_it.c **** void EXTI2_IRQHandler(void)
 257:src/stm32f10x_it.c **** {
 333              		.loc 1 257 0
 334              		.cfi_startproc
 335              		@ args = 0, pretend = 0, frame = 0
 336              		@ frame_needed = 0, uses_anonymous_args = 0
 337              		@ link register save eliminated.
 338 0000 7047     		bx	lr
 339              		.cfi_endproc
 340              	.LFE45:
 342 0002 00BF     		.section	.text.EXTI3_IRQHandler,"ax",%progbits
 343              		.align	2
 344              		.global	EXTI3_IRQHandler
 345              		.thumb
 346              		.thumb_func
 348              	EXTI3_IRQHandler:
 349              	.LFB46:
 258:src/stm32f10x_it.c **** }
ARM GAS  /var/folders/g9/bbpj86ld7fx45vd1b3pqxmp00000gn/T//ccOsGbDU.s 			page 11


 259:src/stm32f10x_it.c **** 
 260:src/stm32f10x_it.c **** /*******************************************************************************
 261:src/stm32f10x_it.c **** * Function Name  : EXTI3_IRQHandler
 262:src/stm32f10x_it.c **** * Description    : This function handles External interrupt Line 3 request.
 263:src/stm32f10x_it.c **** * Input          : None
 264:src/stm32f10x_it.c **** * Output         : None
 265:src/stm32f10x_it.c **** * Return         : None
 266:src/stm32f10x_it.c **** *******************************************************************************/
 267:src/stm32f10x_it.c **** void EXTI3_IRQHandler(void)
 268:src/stm32f10x_it.c **** {
 350              		.loc 1 268 0
 351              		.cfi_startproc
 352              		@ args = 0, pretend = 0, frame = 0
 353              		@ frame_needed = 0, uses_anonymous_args = 0
 354              		@ link register save eliminated.
 355 0000 7047     		bx	lr
 356              		.cfi_endproc
 357              	.LFE46:
 359 0002 00BF     		.section	.text.EXTI4_IRQHandler,"ax",%progbits
 360              		.align	2
 361              		.global	EXTI4_IRQHandler
 362              		.thumb
 363              		.thumb_func
 365              	EXTI4_IRQHandler:
 366              	.LFB47:
 269:src/stm32f10x_it.c **** }
 270:src/stm32f10x_it.c **** 
 271:src/stm32f10x_it.c **** /*******************************************************************************
 272:src/stm32f10x_it.c **** * Function Name  : EXTI4_IRQHandler
 273:src/stm32f10x_it.c **** * Description    : This function handles External interrupt Line 4 request.
 274:src/stm32f10x_it.c **** * Input          : None
 275:src/stm32f10x_it.c **** * Output         : None
 276:src/stm32f10x_it.c **** * Return         : None
 277:src/stm32f10x_it.c **** *******************************************************************************/
 278:src/stm32f10x_it.c **** void EXTI4_IRQHandler(void)
 279:src/stm32f10x_it.c **** {
 367              		.loc 1 279 0
 368              		.cfi_startproc
 369              		@ args = 0, pretend = 0, frame = 0
 370              		@ frame_needed = 0, uses_anonymous_args = 0
 371              		@ link register save eliminated.
 372 0000 7047     		bx	lr
 373              		.cfi_endproc
 374              	.LFE47:
 376 0002 00BF     		.section	.text.DMA1_Channel1_IRQHandler,"ax",%progbits
 377              		.align	2
 378              		.global	DMA1_Channel1_IRQHandler
 379              		.thumb
 380              		.thumb_func
 382              	DMA1_Channel1_IRQHandler:
 383              	.LFB48:
 280:src/stm32f10x_it.c **** }
 281:src/stm32f10x_it.c **** 
 282:src/stm32f10x_it.c **** /*******************************************************************************
 283:src/stm32f10x_it.c **** * Function Name  : DMA1_Channel1_IRQHandler
 284:src/stm32f10x_it.c **** * Description    : This function handles DMA1 Channel 1 interrupt request.
 285:src/stm32f10x_it.c **** * Input          : None
ARM GAS  /var/folders/g9/bbpj86ld7fx45vd1b3pqxmp00000gn/T//ccOsGbDU.s 			page 12


 286:src/stm32f10x_it.c **** * Output         : None
 287:src/stm32f10x_it.c **** * Return         : None
 288:src/stm32f10x_it.c **** *******************************************************************************/
 289:src/stm32f10x_it.c **** void DMA1_Channel1_IRQHandler(void)
 290:src/stm32f10x_it.c **** {
 384              		.loc 1 290 0
 385              		.cfi_startproc
 386              		@ args = 0, pretend = 0, frame = 0
 387              		@ frame_needed = 0, uses_anonymous_args = 0
 388              		.loc 1 290 0
 389 0000 08B5     		push	{r3, lr}
 390              	.LCFI1:
 391              		.cfi_def_cfa_offset 8
 392              		.cfi_offset 3, -8
 393              		.cfi_offset 14, -4
 291:src/stm32f10x_it.c ****     Send_Buffer[0] = 0x07;
 394              		.loc 1 291 0
 395 0002 0722     		movs	r2, #7
 396 0004 104B     		ldr	r3, .L29
 397 0006 1A70     		strb	r2, [r3]
 292:src/stm32f10x_it.c **** 
 293:src/stm32f10x_it.c ****     if((ADC_ConvertedValueX >>4) - (ADC_ConvertedValueX_1 >>4) > 4)
 398              		.loc 1 293 0
 399 0008 104B     		ldr	r3, .L29+4
 400 000a 1B68     		ldr	r3, [r3]
 401 000c 1B09     		lsrs	r3, r3, #4
 402 000e 104A     		ldr	r2, .L29+8
 403 0010 1268     		ldr	r2, [r2]
 404 0012 A3EB1212 		sub	r2, r3, r2, lsr #4
 405 0016 042A     		cmp	r2, #4
 406 0018 11D9     		bls	.L27
 294:src/stm32f10x_it.c ****     {
 295:src/stm32f10x_it.c ****         Send_Buffer[1] = (uint8_t)(ADC_ConvertedValueX >>4);
 407              		.loc 1 295 0
 408 001a 0B48     		ldr	r0, .L29
 409 001c 4370     		strb	r3, [r0, #1]
 296:src/stm32f10x_it.c ****         UserToPMABufferCopy(Send_Buffer, ENDP1_TXADDR, 2);
 410              		.loc 1 296 0
 411 001e 0222     		movs	r2, #2
 412 0020 4FF48071 		mov	r1, #256
 413 0024 FFF7FEFF 		bl	UserToPMABufferCopy
 414              	.LVL1:
 297:src/stm32f10x_it.c ****         SetEPTxCount(ENDP1, 2);
 415              		.loc 1 297 0
 416 0028 0221     		movs	r1, #2
 417 002a 0120     		movs	r0, #1
 418 002c FFF7FEFF 		bl	SetEPTxCount
 419              	.LVL2:
 298:src/stm32f10x_it.c ****         SetEPTxValid(ENDP1);
 420              		.loc 1 298 0
 421 0030 0120     		movs	r0, #1
 422 0032 FFF7FEFF 		bl	SetEPTxValid
 423              	.LVL3:
 299:src/stm32f10x_it.c ****         ADC_ConvertedValueX_1 = ADC_ConvertedValueX;
 424              		.loc 1 299 0
 425 0036 054B     		ldr	r3, .L29+4
 426 0038 1A68     		ldr	r2, [r3]
ARM GAS  /var/folders/g9/bbpj86ld7fx45vd1b3pqxmp00000gn/T//ccOsGbDU.s 			page 13


 427 003a 054B     		ldr	r3, .L29+8
 428 003c 1A60     		str	r2, [r3]
 429              	.L27:
 300:src/stm32f10x_it.c ****     }
 301:src/stm32f10x_it.c **** 
 302:src/stm32f10x_it.c ****     DMA_ClearFlag(DMA1_FLAG_TC1);
 430              		.loc 1 302 0
 431 003e 0220     		movs	r0, #2
 432 0040 FFF7FEFF 		bl	DMA_ClearFlag
 433              	.LVL4:
 434 0044 08BD     		pop	{r3, pc}
 435              	.L30:
 436 0046 00BF     		.align	2
 437              	.L29:
 438 0048 00000000 		.word	Send_Buffer
 439 004c 00000000 		.word	ADC_ConvertedValueX
 440 0050 00000000 		.word	ADC_ConvertedValueX_1
 441              		.cfi_endproc
 442              	.LFE48:
 444              		.section	.text.DMA1_Channel2_IRQHandler,"ax",%progbits
 445              		.align	2
 446              		.global	DMA1_Channel2_IRQHandler
 447              		.thumb
 448              		.thumb_func
 450              	DMA1_Channel2_IRQHandler:
 451              	.LFB49:
 303:src/stm32f10x_it.c **** }
 304:src/stm32f10x_it.c **** 
 305:src/stm32f10x_it.c **** /*******************************************************************************
 306:src/stm32f10x_it.c **** * Function Name  : DMA1_Channel2_IRQHandler
 307:src/stm32f10x_it.c **** * Description    : This function handles DMA1 Channel 2 interrupt request.
 308:src/stm32f10x_it.c **** * Input          : None
 309:src/stm32f10x_it.c **** * Output         : None
 310:src/stm32f10x_it.c **** * Return         : None
 311:src/stm32f10x_it.c **** *******************************************************************************/
 312:src/stm32f10x_it.c **** void DMA1_Channel2_IRQHandler(void)
 313:src/stm32f10x_it.c **** {
 452              		.loc 1 313 0
 453              		.cfi_startproc
 454              		@ args = 0, pretend = 0, frame = 0
 455              		@ frame_needed = 0, uses_anonymous_args = 0
 456              		@ link register save eliminated.
 457 0000 7047     		bx	lr
 458              		.cfi_endproc
 459              	.LFE49:
 461 0002 00BF     		.section	.text.DMA1_Channel3_IRQHandler,"ax",%progbits
 462              		.align	2
 463              		.global	DMA1_Channel3_IRQHandler
 464              		.thumb
 465              		.thumb_func
 467              	DMA1_Channel3_IRQHandler:
 468              	.LFB50:
 314:src/stm32f10x_it.c **** }
 315:src/stm32f10x_it.c **** 
 316:src/stm32f10x_it.c **** /*******************************************************************************
 317:src/stm32f10x_it.c **** * Function Name  : DMA1_Channel3_IRQHandler
 318:src/stm32f10x_it.c **** * Description    : This function handles DMA1 Channel 3 interrupt request.
ARM GAS  /var/folders/g9/bbpj86ld7fx45vd1b3pqxmp00000gn/T//ccOsGbDU.s 			page 14


 319:src/stm32f10x_it.c **** * Input          : None
 320:src/stm32f10x_it.c **** * Output         : None
 321:src/stm32f10x_it.c **** * Return         : None
 322:src/stm32f10x_it.c **** *******************************************************************************/
 323:src/stm32f10x_it.c **** void DMA1_Channel3_IRQHandler(void)
 324:src/stm32f10x_it.c **** {
 469              		.loc 1 324 0
 470              		.cfi_startproc
 471              		@ args = 0, pretend = 0, frame = 0
 472              		@ frame_needed = 0, uses_anonymous_args = 0
 473              		@ link register save eliminated.
 474 0000 7047     		bx	lr
 475              		.cfi_endproc
 476              	.LFE50:
 478 0002 00BF     		.section	.text.DMA1_Channel4_IRQHandler,"ax",%progbits
 479              		.align	2
 480              		.global	DMA1_Channel4_IRQHandler
 481              		.thumb
 482              		.thumb_func
 484              	DMA1_Channel4_IRQHandler:
 485              	.LFB51:
 325:src/stm32f10x_it.c **** }
 326:src/stm32f10x_it.c **** 
 327:src/stm32f10x_it.c **** /*******************************************************************************
 328:src/stm32f10x_it.c **** * Function Name  : DMA1_Channel4_IRQHandler
 329:src/stm32f10x_it.c **** * Description    : This function handles DMA1 Channel 4 interrupt request.
 330:src/stm32f10x_it.c **** * Input          : None
 331:src/stm32f10x_it.c **** * Output         : None
 332:src/stm32f10x_it.c **** * Return         : None
 333:src/stm32f10x_it.c **** *******************************************************************************/
 334:src/stm32f10x_it.c **** void DMA1_Channel4_IRQHandler(void)
 335:src/stm32f10x_it.c **** {
 486              		.loc 1 335 0
 487              		.cfi_startproc
 488              		@ args = 0, pretend = 0, frame = 0
 489              		@ frame_needed = 0, uses_anonymous_args = 0
 490              		@ link register save eliminated.
 491 0000 7047     		bx	lr
 492              		.cfi_endproc
 493              	.LFE51:
 495 0002 00BF     		.section	.text.DMA1_Channel5_IRQHandler,"ax",%progbits
 496              		.align	2
 497              		.global	DMA1_Channel5_IRQHandler
 498              		.thumb
 499              		.thumb_func
 501              	DMA1_Channel5_IRQHandler:
 502              	.LFB52:
 336:src/stm32f10x_it.c **** }
 337:src/stm32f10x_it.c **** 
 338:src/stm32f10x_it.c **** /*******************************************************************************
 339:src/stm32f10x_it.c **** * Function Name  : DMA1_Channel5_IRQHandler
 340:src/stm32f10x_it.c **** * Description    : This function handles DMA1 Channel 5 interrupt request.
 341:src/stm32f10x_it.c **** * Input          : None
 342:src/stm32f10x_it.c **** * Output         : None
 343:src/stm32f10x_it.c **** * Return         : None
 344:src/stm32f10x_it.c **** *******************************************************************************/
 345:src/stm32f10x_it.c **** void DMA1_Channel5_IRQHandler(void)
ARM GAS  /var/folders/g9/bbpj86ld7fx45vd1b3pqxmp00000gn/T//ccOsGbDU.s 			page 15


 346:src/stm32f10x_it.c **** {
 503              		.loc 1 346 0
 504              		.cfi_startproc
 505              		@ args = 0, pretend = 0, frame = 0
 506              		@ frame_needed = 0, uses_anonymous_args = 0
 507              		@ link register save eliminated.
 508 0000 7047     		bx	lr
 509              		.cfi_endproc
 510              	.LFE52:
 512 0002 00BF     		.section	.text.DMA1_Channel6_IRQHandler,"ax",%progbits
 513              		.align	2
 514              		.global	DMA1_Channel6_IRQHandler
 515              		.thumb
 516              		.thumb_func
 518              	DMA1_Channel6_IRQHandler:
 519              	.LFB53:
 347:src/stm32f10x_it.c **** }
 348:src/stm32f10x_it.c **** 
 349:src/stm32f10x_it.c **** /*******************************************************************************
 350:src/stm32f10x_it.c **** * Function Name  : DMA1_Channel6_IRQHandler
 351:src/stm32f10x_it.c **** * Description    : This function handles DMA1 Channel 6 interrupt request.
 352:src/stm32f10x_it.c **** * Input          : None
 353:src/stm32f10x_it.c **** * Output         : None
 354:src/stm32f10x_it.c **** * Return         : None
 355:src/stm32f10x_it.c **** *******************************************************************************/
 356:src/stm32f10x_it.c **** void DMA1_Channel6_IRQHandler(void)
 357:src/stm32f10x_it.c **** {
 520              		.loc 1 357 0
 521              		.cfi_startproc
 522              		@ args = 0, pretend = 0, frame = 0
 523              		@ frame_needed = 0, uses_anonymous_args = 0
 524              		@ link register save eliminated.
 525 0000 7047     		bx	lr
 526              		.cfi_endproc
 527              	.LFE53:
 529 0002 00BF     		.section	.text.DMA1_Channel7_IRQHandler,"ax",%progbits
 530              		.align	2
 531              		.global	DMA1_Channel7_IRQHandler
 532              		.thumb
 533              		.thumb_func
 535              	DMA1_Channel7_IRQHandler:
 536              	.LFB54:
 358:src/stm32f10x_it.c **** }
 359:src/stm32f10x_it.c **** 
 360:src/stm32f10x_it.c **** /*******************************************************************************
 361:src/stm32f10x_it.c **** * Function Name  : DMA1_Channel7_IRQHandler
 362:src/stm32f10x_it.c **** * Description    : This function handles DMA1 Channel 7 interrupt request.
 363:src/stm32f10x_it.c **** * Input          : None
 364:src/stm32f10x_it.c **** * Output         : None
 365:src/stm32f10x_it.c **** * Return         : None
 366:src/stm32f10x_it.c **** *******************************************************************************/
 367:src/stm32f10x_it.c **** void DMA1_Channel7_IRQHandler(void)
 368:src/stm32f10x_it.c **** {
 537              		.loc 1 368 0
 538              		.cfi_startproc
 539              		@ args = 0, pretend = 0, frame = 0
 540              		@ frame_needed = 0, uses_anonymous_args = 0
ARM GAS  /var/folders/g9/bbpj86ld7fx45vd1b3pqxmp00000gn/T//ccOsGbDU.s 			page 16


 541              		@ link register save eliminated.
 542 0000 7047     		bx	lr
 543              		.cfi_endproc
 544              	.LFE54:
 546 0002 00BF     		.section	.text.ADC1_2_IRQHandler,"ax",%progbits
 547              		.align	2
 548              		.global	ADC1_2_IRQHandler
 549              		.thumb
 550              		.thumb_func
 552              	ADC1_2_IRQHandler:
 553              	.LFB55:
 369:src/stm32f10x_it.c **** }
 370:src/stm32f10x_it.c **** 
 371:src/stm32f10x_it.c **** /*******************************************************************************
 372:src/stm32f10x_it.c **** * Function Name  : ADC1_2_IRQHandler
 373:src/stm32f10x_it.c **** * Description    : This function handles ADC1 and ADC2 global interrupts requests.
 374:src/stm32f10x_it.c **** * Input          : None
 375:src/stm32f10x_it.c **** * Output         : None
 376:src/stm32f10x_it.c **** * Return         : None
 377:src/stm32f10x_it.c **** *******************************************************************************/
 378:src/stm32f10x_it.c **** void ADC1_2_IRQHandler(void)
 379:src/stm32f10x_it.c **** {
 554              		.loc 1 379 0
 555              		.cfi_startproc
 556              		@ args = 0, pretend = 0, frame = 0
 557              		@ frame_needed = 0, uses_anonymous_args = 0
 558              		@ link register save eliminated.
 559 0000 7047     		bx	lr
 560              		.cfi_endproc
 561              	.LFE55:
 563 0002 00BF     		.section	.text.USB_HP_CAN1_TX_IRQHandler,"ax",%progbits
 564              		.align	2
 565              		.global	USB_HP_CAN1_TX_IRQHandler
 566              		.thumb
 567              		.thumb_func
 569              	USB_HP_CAN1_TX_IRQHandler:
 570              	.LFB56:
 380:src/stm32f10x_it.c **** }
 381:src/stm32f10x_it.c **** 
 382:src/stm32f10x_it.c **** /*******************************************************************************
 383:src/stm32f10x_it.c **** * Function Name  : USB_HP_CAN_TX_IRQHandler
 384:src/stm32f10x_it.c **** * Description    : This function handles USB High Priority or CAN TX interrupts 
 385:src/stm32f10x_it.c **** *                  requests.
 386:src/stm32f10x_it.c **** * Input          : None
 387:src/stm32f10x_it.c **** * Output         : None
 388:src/stm32f10x_it.c **** * Return         : None
 389:src/stm32f10x_it.c **** *******************************************************************************/
 390:src/stm32f10x_it.c **** void USB_HP_CAN1_TX_IRQHandler(void)
 391:src/stm32f10x_it.c **** {
 571              		.loc 1 391 0
 572              		.cfi_startproc
 573              		@ args = 0, pretend = 0, frame = 0
 574              		@ frame_needed = 0, uses_anonymous_args = 0
 575              		@ link register save eliminated.
 576 0000 7047     		bx	lr
 577              		.cfi_endproc
 578              	.LFE56:
ARM GAS  /var/folders/g9/bbpj86ld7fx45vd1b3pqxmp00000gn/T//ccOsGbDU.s 			page 17


 580 0002 00BF     		.section	.text.USB_LP_CAN1_RX0_IRQHandler,"ax",%progbits
 581              		.align	2
 582              		.global	USB_LP_CAN1_RX0_IRQHandler
 583              		.thumb
 584              		.thumb_func
 586              	USB_LP_CAN1_RX0_IRQHandler:
 587              	.LFB57:
 392:src/stm32f10x_it.c **** }
 393:src/stm32f10x_it.c **** 
 394:src/stm32f10x_it.c **** /*******************************************************************************
 395:src/stm32f10x_it.c **** * Function Name  : USB_LP_CAN_RX0_IRQHandler
 396:src/stm32f10x_it.c **** * Description    : This function handles USB Low Priority or CAN RX0 interrupts 
 397:src/stm32f10x_it.c **** *                  requests.
 398:src/stm32f10x_it.c **** * Input          : None
 399:src/stm32f10x_it.c **** * Output         : None
 400:src/stm32f10x_it.c **** * Return         : None
 401:src/stm32f10x_it.c **** *******************************************************************************/
 402:src/stm32f10x_it.c **** void USB_LP_CAN1_RX0_IRQHandler(void)
 403:src/stm32f10x_it.c **** {
 588              		.loc 1 403 0
 589              		.cfi_startproc
 590              		@ args = 0, pretend = 0, frame = 0
 591              		@ frame_needed = 0, uses_anonymous_args = 0
 592              		.loc 1 403 0
 593 0000 08B5     		push	{r3, lr}
 594              	.LCFI2:
 595              		.cfi_def_cfa_offset 8
 596              		.cfi_offset 3, -8
 597              		.cfi_offset 14, -4
 404:src/stm32f10x_it.c ****     USB_Istr();
 598              		.loc 1 404 0
 599 0002 FFF7FEFF 		bl	USB_Istr
 600              	.LVL5:
 601 0006 08BD     		pop	{r3, pc}
 602              		.cfi_endproc
 603              	.LFE57:
 605              		.section	.text.CAN1_RX1_IRQHandler,"ax",%progbits
 606              		.align	2
 607              		.global	CAN1_RX1_IRQHandler
 608              		.thumb
 609              		.thumb_func
 611              	CAN1_RX1_IRQHandler:
 612              	.LFB58:
 405:src/stm32f10x_it.c **** }
 406:src/stm32f10x_it.c **** 
 407:src/stm32f10x_it.c **** /*******************************************************************************
 408:src/stm32f10x_it.c **** * Function Name  : CAN_RX1_IRQHandler
 409:src/stm32f10x_it.c **** * Description    : This function handles CAN RX1 interrupt request.
 410:src/stm32f10x_it.c **** * Input          : None
 411:src/stm32f10x_it.c **** * Output         : None
 412:src/stm32f10x_it.c **** * Return         : None
 413:src/stm32f10x_it.c **** *******************************************************************************/
 414:src/stm32f10x_it.c **** void CAN1_RX1_IRQHandler(void)
 415:src/stm32f10x_it.c **** {
 613              		.loc 1 415 0
 614              		.cfi_startproc
 615              		@ args = 0, pretend = 0, frame = 0
ARM GAS  /var/folders/g9/bbpj86ld7fx45vd1b3pqxmp00000gn/T//ccOsGbDU.s 			page 18


 616              		@ frame_needed = 0, uses_anonymous_args = 0
 617              		@ link register save eliminated.
 618 0000 7047     		bx	lr
 619              		.cfi_endproc
 620              	.LFE58:
 622 0002 00BF     		.section	.text.CAN1_SCE_IRQHandler,"ax",%progbits
 623              		.align	2
 624              		.global	CAN1_SCE_IRQHandler
 625              		.thumb
 626              		.thumb_func
 628              	CAN1_SCE_IRQHandler:
 629              	.LFB59:
 416:src/stm32f10x_it.c **** }
 417:src/stm32f10x_it.c **** 
 418:src/stm32f10x_it.c **** /*******************************************************************************
 419:src/stm32f10x_it.c **** * Function Name  : CAN_SCE_IRQHandler
 420:src/stm32f10x_it.c **** * Description    : This function handles CAN SCE interrupt request.
 421:src/stm32f10x_it.c **** * Input          : None
 422:src/stm32f10x_it.c **** * Output         : None
 423:src/stm32f10x_it.c **** * Return         : None
 424:src/stm32f10x_it.c **** *******************************************************************************/
 425:src/stm32f10x_it.c **** void CAN1_SCE_IRQHandler(void)
 426:src/stm32f10x_it.c **** {
 630              		.loc 1 426 0
 631              		.cfi_startproc
 632              		@ args = 0, pretend = 0, frame = 0
 633              		@ frame_needed = 0, uses_anonymous_args = 0
 634              		@ link register save eliminated.
 635 0000 7047     		bx	lr
 636              		.cfi_endproc
 637              	.LFE59:
 639 0002 00BF     		.section	.text.EXTI9_5_IRQHandler,"ax",%progbits
 640              		.align	2
 641              		.global	EXTI9_5_IRQHandler
 642              		.thumb
 643              		.thumb_func
 645              	EXTI9_5_IRQHandler:
 646              	.LFB60:
 427:src/stm32f10x_it.c **** }
 428:src/stm32f10x_it.c **** 
 429:src/stm32f10x_it.c **** /*******************************************************************************
 430:src/stm32f10x_it.c **** * Function Name  : EXTI9_5_IRQHandler
 431:src/stm32f10x_it.c **** * Description    : This function handles External lines 9 to 5 interrupt request.
 432:src/stm32f10x_it.c **** * Input          : None
 433:src/stm32f10x_it.c **** * Output         : None
 434:src/stm32f10x_it.c **** * Return         : None
 435:src/stm32f10x_it.c **** *******************************************************************************/
 436:src/stm32f10x_it.c **** void EXTI9_5_IRQHandler(void)
 437:src/stm32f10x_it.c **** {
 647              		.loc 1 437 0
 648              		.cfi_startproc
 649              		@ args = 0, pretend = 0, frame = 0
 650              		@ frame_needed = 0, uses_anonymous_args = 0
 651              		@ link register save eliminated.
 652 0000 7047     		bx	lr
 653              		.cfi_endproc
 654              	.LFE60:
ARM GAS  /var/folders/g9/bbpj86ld7fx45vd1b3pqxmp00000gn/T//ccOsGbDU.s 			page 19


 656 0002 00BF     		.section	.text.TIM1_BRK_IRQHandler,"ax",%progbits
 657              		.align	2
 658              		.global	TIM1_BRK_IRQHandler
 659              		.thumb
 660              		.thumb_func
 662              	TIM1_BRK_IRQHandler:
 663              	.LFB61:
 438:src/stm32f10x_it.c **** #ifdef  BOARD_DEF_MANGO_Z1
 439:src/stm32f10x_it.c ****     if(EXTI_GetITStatus(GPIO_EXTI_Line_RF_GPIO0) != RESET)
 440:src/stm32f10x_it.c ****     {
 441:src/stm32f10x_it.c ****         basicRfRxFrmDoneIsr();
 442:src/stm32f10x_it.c ****         EXTI_ClearITPendingBit(GPIO_EXTI_Line_RF_GPIO0);
 443:src/stm32f10x_it.c ****     }
 444:src/stm32f10x_it.c **** #endif
 445:src/stm32f10x_it.c **** }
 446:src/stm32f10x_it.c **** 
 447:src/stm32f10x_it.c **** /*******************************************************************************
 448:src/stm32f10x_it.c **** * Function Name  : TIM1_BRK_IRQHandler
 449:src/stm32f10x_it.c **** * Description    : This function handles TIM1 Break interrupt request.
 450:src/stm32f10x_it.c **** * Input          : None
 451:src/stm32f10x_it.c **** * Output         : None
 452:src/stm32f10x_it.c **** * Return         : None
 453:src/stm32f10x_it.c **** *******************************************************************************/
 454:src/stm32f10x_it.c **** void TIM1_BRK_IRQHandler(void)
 455:src/stm32f10x_it.c **** {
 664              		.loc 1 455 0
 665              		.cfi_startproc
 666              		@ args = 0, pretend = 0, frame = 0
 667              		@ frame_needed = 0, uses_anonymous_args = 0
 668              		@ link register save eliminated.
 669 0000 7047     		bx	lr
 670              		.cfi_endproc
 671              	.LFE61:
 673 0002 00BF     		.section	.text.TIM1_UP_IRQHandler,"ax",%progbits
 674              		.align	2
 675              		.global	TIM1_UP_IRQHandler
 676              		.thumb
 677              		.thumb_func
 679              	TIM1_UP_IRQHandler:
 680              	.LFB62:
 456:src/stm32f10x_it.c **** }
 457:src/stm32f10x_it.c **** 
 458:src/stm32f10x_it.c **** /*******************************************************************************
 459:src/stm32f10x_it.c **** * Function Name  : TIM1_UP_IRQHandler
 460:src/stm32f10x_it.c **** * Description    : This function handles TIM1 overflow and update interrupt 
 461:src/stm32f10x_it.c **** *                  request.
 462:src/stm32f10x_it.c **** * Input          : None
 463:src/stm32f10x_it.c **** * Output         : None
 464:src/stm32f10x_it.c **** * Return         : None
 465:src/stm32f10x_it.c **** *******************************************************************************/
 466:src/stm32f10x_it.c **** void TIM1_UP_IRQHandler(void)
 467:src/stm32f10x_it.c **** {
 681              		.loc 1 467 0
 682              		.cfi_startproc
 683              		@ args = 0, pretend = 0, frame = 0
 684              		@ frame_needed = 0, uses_anonymous_args = 0
 685              		@ link register save eliminated.
ARM GAS  /var/folders/g9/bbpj86ld7fx45vd1b3pqxmp00000gn/T//ccOsGbDU.s 			page 20


 686 0000 7047     		bx	lr
 687              		.cfi_endproc
 688              	.LFE62:
 690 0002 00BF     		.section	.text.TIM1_TRG_COM_IRQHandler,"ax",%progbits
 691              		.align	2
 692              		.global	TIM1_TRG_COM_IRQHandler
 693              		.thumb
 694              		.thumb_func
 696              	TIM1_TRG_COM_IRQHandler:
 697              	.LFB63:
 468:src/stm32f10x_it.c **** }
 469:src/stm32f10x_it.c **** 
 470:src/stm32f10x_it.c **** /*******************************************************************************
 471:src/stm32f10x_it.c **** * Function Name  : TIM1_TRG_COM_IRQHandler
 472:src/stm32f10x_it.c **** * Description    : This function handles TIM1 Trigger and commutation interrupts 
 473:src/stm32f10x_it.c **** *                  requests.
 474:src/stm32f10x_it.c **** * Input          : None
 475:src/stm32f10x_it.c **** * Output         : None
 476:src/stm32f10x_it.c **** * Return         : None
 477:src/stm32f10x_it.c **** *******************************************************************************/
 478:src/stm32f10x_it.c **** void TIM1_TRG_COM_IRQHandler(void)
 479:src/stm32f10x_it.c **** {
 698              		.loc 1 479 0
 699              		.cfi_startproc
 700              		@ args = 0, pretend = 0, frame = 0
 701              		@ frame_needed = 0, uses_anonymous_args = 0
 702              		@ link register save eliminated.
 703 0000 7047     		bx	lr
 704              		.cfi_endproc
 705              	.LFE63:
 707 0002 00BF     		.section	.text.TIM1_CC_IRQHandler,"ax",%progbits
 708              		.align	2
 709              		.global	TIM1_CC_IRQHandler
 710              		.thumb
 711              		.thumb_func
 713              	TIM1_CC_IRQHandler:
 714              	.LFB64:
 480:src/stm32f10x_it.c **** }
 481:src/stm32f10x_it.c **** 
 482:src/stm32f10x_it.c **** /*******************************************************************************
 483:src/stm32f10x_it.c **** * Function Name  : TIM1_CC_IRQHandler
 484:src/stm32f10x_it.c **** * Description    : This function handles TIM1 capture compare interrupt request.
 485:src/stm32f10x_it.c **** * Input          : None
 486:src/stm32f10x_it.c **** * Output         : None
 487:src/stm32f10x_it.c **** * Return         : None
 488:src/stm32f10x_it.c **** *******************************************************************************/
 489:src/stm32f10x_it.c **** void TIM1_CC_IRQHandler(void)
 490:src/stm32f10x_it.c **** {
 715              		.loc 1 490 0
 716              		.cfi_startproc
 717              		@ args = 0, pretend = 0, frame = 0
 718              		@ frame_needed = 0, uses_anonymous_args = 0
 719              		@ link register save eliminated.
 720 0000 7047     		bx	lr
 721              		.cfi_endproc
 722              	.LFE64:
 724 0002 00BF     		.section	.text.TIM2_IRQHandler,"ax",%progbits
ARM GAS  /var/folders/g9/bbpj86ld7fx45vd1b3pqxmp00000gn/T//ccOsGbDU.s 			page 21


 725              		.align	2
 726              		.global	TIM2_IRQHandler
 727              		.thumb
 728              		.thumb_func
 730              	TIM2_IRQHandler:
 731              	.LFB65:
 491:src/stm32f10x_it.c **** }
 492:src/stm32f10x_it.c **** 
 493:src/stm32f10x_it.c **** /*******************************************************************************
 494:src/stm32f10x_it.c **** * Function Name  : TIM2_IRQHandler
 495:src/stm32f10x_it.c **** * Description    : This function handles TIM2 global interrupt request.
 496:src/stm32f10x_it.c **** * Input          : None
 497:src/stm32f10x_it.c **** * Output         : None
 498:src/stm32f10x_it.c **** * Return         : None
 499:src/stm32f10x_it.c **** *******************************************************************************/
 500:src/stm32f10x_it.c **** void TIM2_IRQHandler(void)
 501:src/stm32f10x_it.c **** {
 732              		.loc 1 501 0
 733              		.cfi_startproc
 734              		@ args = 0, pretend = 0, frame = 0
 735              		@ frame_needed = 0, uses_anonymous_args = 0
 736              		@ link register save eliminated.
 737 0000 7047     		bx	lr
 738              		.cfi_endproc
 739              	.LFE65:
 741 0002 00BF     		.section	.text.TIM3_IRQHandler,"ax",%progbits
 742              		.align	2
 743              		.global	TIM3_IRQHandler
 744              		.thumb
 745              		.thumb_func
 747              	TIM3_IRQHandler:
 748              	.LFB66:
 502:src/stm32f10x_it.c **** }
 503:src/stm32f10x_it.c **** 
 504:src/stm32f10x_it.c **** /*******************************************************************************
 505:src/stm32f10x_it.c **** * Function Name  : TIM3_IRQHandler
 506:src/stm32f10x_it.c **** * Description    : This function handles TIM3 global interrupt request.
 507:src/stm32f10x_it.c **** * Input          : None
 508:src/stm32f10x_it.c **** * Output         : None
 509:src/stm32f10x_it.c **** * Return         : None
 510:src/stm32f10x_it.c **** *******************************************************************************/
 511:src/stm32f10x_it.c **** void TIM3_IRQHandler(void)
 512:src/stm32f10x_it.c **** {
 749              		.loc 1 512 0
 750              		.cfi_startproc
 751              		@ args = 0, pretend = 0, frame = 0
 752              		@ frame_needed = 0, uses_anonymous_args = 0
 753              		@ link register save eliminated.
 754 0000 7047     		bx	lr
 755              		.cfi_endproc
 756              	.LFE66:
 758 0002 00BF     		.section	.text.TIM4_IRQHandler,"ax",%progbits
 759              		.align	2
 760              		.global	TIM4_IRQHandler
 761              		.thumb
 762              		.thumb_func
 764              	TIM4_IRQHandler:
ARM GAS  /var/folders/g9/bbpj86ld7fx45vd1b3pqxmp00000gn/T//ccOsGbDU.s 			page 22


 765              	.LFB67:
 513:src/stm32f10x_it.c **** }
 514:src/stm32f10x_it.c **** 
 515:src/stm32f10x_it.c **** /*******************************************************************************
 516:src/stm32f10x_it.c **** * Function Name  : TIM4_IRQHandler
 517:src/stm32f10x_it.c **** * Description    : This function handles TIM4 global interrupt request.
 518:src/stm32f10x_it.c **** * Input          : None
 519:src/stm32f10x_it.c **** * Output         : None
 520:src/stm32f10x_it.c **** * Return         : None
 521:src/stm32f10x_it.c **** *******************************************************************************/
 522:src/stm32f10x_it.c **** void TIM4_IRQHandler(void)
 523:src/stm32f10x_it.c **** {
 766              		.loc 1 523 0
 767              		.cfi_startproc
 768              		@ args = 0, pretend = 0, frame = 0
 769              		@ frame_needed = 0, uses_anonymous_args = 0
 770              		@ link register save eliminated.
 771 0000 7047     		bx	lr
 772              		.cfi_endproc
 773              	.LFE67:
 775 0002 00BF     		.section	.text.I2C1_EV_IRQHandler,"ax",%progbits
 776              		.align	2
 777              		.global	I2C1_EV_IRQHandler
 778              		.thumb
 779              		.thumb_func
 781              	I2C1_EV_IRQHandler:
 782              	.LFB68:
 524:src/stm32f10x_it.c **** }
 525:src/stm32f10x_it.c **** 
 526:src/stm32f10x_it.c **** /*******************************************************************************
 527:src/stm32f10x_it.c **** * Function Name  : I2C1_EV_IRQHandler
 528:src/stm32f10x_it.c **** * Description    : This function handles I2C1 Event interrupt request.
 529:src/stm32f10x_it.c **** * Input          : None
 530:src/stm32f10x_it.c **** * Output         : None
 531:src/stm32f10x_it.c **** * Return         : None
 532:src/stm32f10x_it.c **** *******************************************************************************/
 533:src/stm32f10x_it.c **** void I2C1_EV_IRQHandler(void)
 534:src/stm32f10x_it.c **** {
 783              		.loc 1 534 0
 784              		.cfi_startproc
 785              		@ args = 0, pretend = 0, frame = 0
 786              		@ frame_needed = 0, uses_anonymous_args = 0
 787              		@ link register save eliminated.
 788 0000 7047     		bx	lr
 789              		.cfi_endproc
 790              	.LFE68:
 792 0002 00BF     		.section	.text.I2C1_ER_IRQHandler,"ax",%progbits
 793              		.align	2
 794              		.global	I2C1_ER_IRQHandler
 795              		.thumb
 796              		.thumb_func
 798              	I2C1_ER_IRQHandler:
 799              	.LFB69:
 535:src/stm32f10x_it.c **** }
 536:src/stm32f10x_it.c **** 
 537:src/stm32f10x_it.c **** /*******************************************************************************
 538:src/stm32f10x_it.c **** * Function Name  : I2C1_ER_IRQHandler
ARM GAS  /var/folders/g9/bbpj86ld7fx45vd1b3pqxmp00000gn/T//ccOsGbDU.s 			page 23


 539:src/stm32f10x_it.c **** * Description    : This function handles I2C1 Error interrupt request.
 540:src/stm32f10x_it.c **** * Input          : None
 541:src/stm32f10x_it.c **** * Output         : None
 542:src/stm32f10x_it.c **** * Return         : None
 543:src/stm32f10x_it.c **** *******************************************************************************/
 544:src/stm32f10x_it.c **** void I2C1_ER_IRQHandler(void)
 545:src/stm32f10x_it.c **** {
 800              		.loc 1 545 0
 801              		.cfi_startproc
 802              		@ args = 0, pretend = 0, frame = 0
 803              		@ frame_needed = 0, uses_anonymous_args = 0
 804              		@ link register save eliminated.
 805 0000 7047     		bx	lr
 806              		.cfi_endproc
 807              	.LFE69:
 809 0002 00BF     		.section	.text.I2C2_EV_IRQHandler,"ax",%progbits
 810              		.align	2
 811              		.global	I2C2_EV_IRQHandler
 812              		.thumb
 813              		.thumb_func
 815              	I2C2_EV_IRQHandler:
 816              	.LFB70:
 546:src/stm32f10x_it.c **** }
 547:src/stm32f10x_it.c **** 
 548:src/stm32f10x_it.c **** /*******************************************************************************
 549:src/stm32f10x_it.c **** * Function Name  : I2C2_EV_IRQHandler
 550:src/stm32f10x_it.c **** * Description    : This function handles I2C2 Event interrupt request.
 551:src/stm32f10x_it.c **** * Input          : None
 552:src/stm32f10x_it.c **** * Output         : None
 553:src/stm32f10x_it.c **** * Return         : None
 554:src/stm32f10x_it.c **** *******************************************************************************/
 555:src/stm32f10x_it.c **** void I2C2_EV_IRQHandler(void)
 556:src/stm32f10x_it.c **** {
 817              		.loc 1 556 0
 818              		.cfi_startproc
 819              		@ args = 0, pretend = 0, frame = 0
 820              		@ frame_needed = 0, uses_anonymous_args = 0
 821              		@ link register save eliminated.
 822 0000 7047     		bx	lr
 823              		.cfi_endproc
 824              	.LFE70:
 826 0002 00BF     		.section	.text.I2C2_ER_IRQHandler,"ax",%progbits
 827              		.align	2
 828              		.global	I2C2_ER_IRQHandler
 829              		.thumb
 830              		.thumb_func
 832              	I2C2_ER_IRQHandler:
 833              	.LFB71:
 557:src/stm32f10x_it.c **** }
 558:src/stm32f10x_it.c **** 
 559:src/stm32f10x_it.c **** /*******************************************************************************
 560:src/stm32f10x_it.c **** * Function Name  : I2C2_ER_IRQHandler
 561:src/stm32f10x_it.c **** * Description    : This function handles I2C2 Error interrupt request.
 562:src/stm32f10x_it.c **** * Input          : None
 563:src/stm32f10x_it.c **** * Output         : None
 564:src/stm32f10x_it.c **** * Return         : None
 565:src/stm32f10x_it.c **** *******************************************************************************/
ARM GAS  /var/folders/g9/bbpj86ld7fx45vd1b3pqxmp00000gn/T//ccOsGbDU.s 			page 24


 566:src/stm32f10x_it.c **** void I2C2_ER_IRQHandler(void)
 567:src/stm32f10x_it.c **** {
 834              		.loc 1 567 0
 835              		.cfi_startproc
 836              		@ args = 0, pretend = 0, frame = 0
 837              		@ frame_needed = 0, uses_anonymous_args = 0
 838              		@ link register save eliminated.
 839 0000 7047     		bx	lr
 840              		.cfi_endproc
 841              	.LFE71:
 843 0002 00BF     		.section	.text.SPI1_IRQHandler,"ax",%progbits
 844              		.align	2
 845              		.global	SPI1_IRQHandler
 846              		.thumb
 847              		.thumb_func
 849              	SPI1_IRQHandler:
 850              	.LFB72:
 568:src/stm32f10x_it.c **** }
 569:src/stm32f10x_it.c **** 
 570:src/stm32f10x_it.c **** /*******************************************************************************
 571:src/stm32f10x_it.c **** * Function Name  : SPI1_IRQHandler
 572:src/stm32f10x_it.c **** * Description    : This function handles SPI1 global interrupt request.
 573:src/stm32f10x_it.c **** * Input          : None
 574:src/stm32f10x_it.c **** * Output         : None
 575:src/stm32f10x_it.c **** * Return         : None
 576:src/stm32f10x_it.c **** *******************************************************************************/
 577:src/stm32f10x_it.c **** void SPI1_IRQHandler(void)
 578:src/stm32f10x_it.c **** {
 851              		.loc 1 578 0
 852              		.cfi_startproc
 853              		@ args = 0, pretend = 0, frame = 0
 854              		@ frame_needed = 0, uses_anonymous_args = 0
 855              		@ link register save eliminated.
 856 0000 7047     		bx	lr
 857              		.cfi_endproc
 858              	.LFE72:
 860 0002 00BF     		.section	.text.SPI2_IRQHandler,"ax",%progbits
 861              		.align	2
 862              		.global	SPI2_IRQHandler
 863              		.thumb
 864              		.thumb_func
 866              	SPI2_IRQHandler:
 867              	.LFB73:
 579:src/stm32f10x_it.c **** }
 580:src/stm32f10x_it.c **** 
 581:src/stm32f10x_it.c **** /*******************************************************************************
 582:src/stm32f10x_it.c **** * Function Name  : SPI2_IRQHandler
 583:src/stm32f10x_it.c **** * Description    : This function handles SPI2 global interrupt request.
 584:src/stm32f10x_it.c **** * Input          : None
 585:src/stm32f10x_it.c **** * Output         : None
 586:src/stm32f10x_it.c **** * Return         : None
 587:src/stm32f10x_it.c **** *******************************************************************************/
 588:src/stm32f10x_it.c **** void SPI2_IRQHandler(void)
 589:src/stm32f10x_it.c **** {
 868              		.loc 1 589 0
 869              		.cfi_startproc
 870              		@ args = 0, pretend = 0, frame = 0
ARM GAS  /var/folders/g9/bbpj86ld7fx45vd1b3pqxmp00000gn/T//ccOsGbDU.s 			page 25


 871              		@ frame_needed = 0, uses_anonymous_args = 0
 872              		@ link register save eliminated.
 873 0000 7047     		bx	lr
 874              		.cfi_endproc
 875              	.LFE73:
 877 0002 00BF     		.section	.text.USART1_IRQHandler,"ax",%progbits
 878              		.align	2
 879              		.global	USART1_IRQHandler
 880              		.thumb
 881              		.thumb_func
 883              	USART1_IRQHandler:
 884              	.LFB74:
 590:src/stm32f10x_it.c **** }
 591:src/stm32f10x_it.c **** 
 592:src/stm32f10x_it.c **** /*******************************************************************************
 593:src/stm32f10x_it.c **** * Function Name  : USART1_IRQHandler
 594:src/stm32f10x_it.c **** * Description    : This function handles USART1 global interrupt request.
 595:src/stm32f10x_it.c **** * Input          : None
 596:src/stm32f10x_it.c **** * Output         : None
 597:src/stm32f10x_it.c **** * Return         : None
 598:src/stm32f10x_it.c **** *******************************************************************************/
 599:src/stm32f10x_it.c **** void USART1_IRQHandler(void)
 600:src/stm32f10x_it.c **** {
 885              		.loc 1 600 0
 886              		.cfi_startproc
 887              		@ args = 0, pretend = 0, frame = 0
 888              		@ frame_needed = 0, uses_anonymous_args = 0
 889              		@ link register save eliminated.
 890 0000 7047     		bx	lr
 891              		.cfi_endproc
 892              	.LFE74:
 894 0002 00BF     		.section	.text.USART2_IRQHandler,"ax",%progbits
 895              		.align	2
 896              		.global	USART2_IRQHandler
 897              		.thumb
 898              		.thumb_func
 900              	USART2_IRQHandler:
 901              	.LFB75:
 601:src/stm32f10x_it.c **** }
 602:src/stm32f10x_it.c **** 
 603:src/stm32f10x_it.c **** /*******************************************************************************
 604:src/stm32f10x_it.c **** * Function Name  : USART2_IRQHandler
 605:src/stm32f10x_it.c **** * Description    : This function handles USART2 global interrupt request.
 606:src/stm32f10x_it.c **** * Input          : None
 607:src/stm32f10x_it.c **** * Output         : None
 608:src/stm32f10x_it.c **** * Return         : None
 609:src/stm32f10x_it.c **** *******************************************************************************/
 610:src/stm32f10x_it.c **** void USART2_IRQHandler(void)
 611:src/stm32f10x_it.c **** {
 902              		.loc 1 611 0
 903              		.cfi_startproc
 904              		@ args = 0, pretend = 0, frame = 0
 905              		@ frame_needed = 0, uses_anonymous_args = 0
 906              		@ link register save eliminated.
 907 0000 7047     		bx	lr
 908              		.cfi_endproc
 909              	.LFE75:
ARM GAS  /var/folders/g9/bbpj86ld7fx45vd1b3pqxmp00000gn/T//ccOsGbDU.s 			page 26


 911 0002 00BF     		.section	.text.USART3_IRQHandler,"ax",%progbits
 912              		.align	2
 913              		.global	USART3_IRQHandler
 914              		.thumb
 915              		.thumb_func
 917              	USART3_IRQHandler:
 918              	.LFB76:
 612:src/stm32f10x_it.c **** }
 613:src/stm32f10x_it.c **** 
 614:src/stm32f10x_it.c **** /*******************************************************************************
 615:src/stm32f10x_it.c **** * Function Name  : USART3_IRQHandler
 616:src/stm32f10x_it.c **** * Description    : This function handles USART3 global interrupt request.
 617:src/stm32f10x_it.c **** * Input          : None
 618:src/stm32f10x_it.c **** * Output         : None
 619:src/stm32f10x_it.c **** * Return         : None
 620:src/stm32f10x_it.c **** *******************************************************************************/
 621:src/stm32f10x_it.c **** void USART3_IRQHandler(void)
 622:src/stm32f10x_it.c **** {
 919              		.loc 1 622 0
 920              		.cfi_startproc
 921              		@ args = 0, pretend = 0, frame = 0
 922              		@ frame_needed = 0, uses_anonymous_args = 0
 923              		@ link register save eliminated.
 924 0000 7047     		bx	lr
 925              		.cfi_endproc
 926              	.LFE76:
 928 0002 00BF     		.section	.text.EXTI15_10_IRQHandler,"ax",%progbits
 929              		.align	2
 930              		.global	EXTI15_10_IRQHandler
 931              		.thumb
 932              		.thumb_func
 934              	EXTI15_10_IRQHandler:
 935              	.LFB77:
 623:src/stm32f10x_it.c **** }
 624:src/stm32f10x_it.c **** 
 625:src/stm32f10x_it.c **** /*******************************************************************************
 626:src/stm32f10x_it.c **** * Function Name  : EXTI15_10_IRQHandler
 627:src/stm32f10x_it.c **** * Description    : This function handles External lines 15 to 10 interrupt request.
 628:src/stm32f10x_it.c **** * Input          : None
 629:src/stm32f10x_it.c **** * Output         : None
 630:src/stm32f10x_it.c **** * Return         : None
 631:src/stm32f10x_it.c **** *******************************************************************************/
 632:src/stm32f10x_it.c **** void EXTI15_10_IRQHandler(void)
 633:src/stm32f10x_it.c **** {
 936              		.loc 1 633 0
 937              		.cfi_startproc
 938              		@ args = 0, pretend = 0, frame = 0
 939              		@ frame_needed = 0, uses_anonymous_args = 0
 940              		@ link register save eliminated.
 941 0000 7047     		bx	lr
 942              		.cfi_endproc
 943              	.LFE77:
 945 0002 00BF     		.section	.text.RTCAlarm_IRQHandler,"ax",%progbits
 946              		.align	2
 947              		.global	RTCAlarm_IRQHandler
 948              		.thumb
 949              		.thumb_func
ARM GAS  /var/folders/g9/bbpj86ld7fx45vd1b3pqxmp00000gn/T//ccOsGbDU.s 			page 27


 951              	RTCAlarm_IRQHandler:
 952              	.LFB78:
 634:src/stm32f10x_it.c **** }
 635:src/stm32f10x_it.c **** 
 636:src/stm32f10x_it.c **** /*******************************************************************************
 637:src/stm32f10x_it.c **** * Function Name  : RTCAlarm_IRQHandler
 638:src/stm32f10x_it.c **** * Description    : This function handles RTC Alarm interrupt request.
 639:src/stm32f10x_it.c **** * Input          : None
 640:src/stm32f10x_it.c **** * Output         : None
 641:src/stm32f10x_it.c **** * Return         : None
 642:src/stm32f10x_it.c **** *******************************************************************************/
 643:src/stm32f10x_it.c **** void RTCAlarm_IRQHandler(void)
 644:src/stm32f10x_it.c **** {
 953              		.loc 1 644 0
 954              		.cfi_startproc
 955              		@ args = 0, pretend = 0, frame = 0
 956              		@ frame_needed = 0, uses_anonymous_args = 0
 957              		@ link register save eliminated.
 958 0000 7047     		bx	lr
 959              		.cfi_endproc
 960              	.LFE78:
 962 0002 00BF     		.section	.text.USBWakeUp_IRQHandler,"ax",%progbits
 963              		.align	2
 964              		.global	USBWakeUp_IRQHandler
 965              		.thumb
 966              		.thumb_func
 968              	USBWakeUp_IRQHandler:
 969              	.LFB79:
 645:src/stm32f10x_it.c **** }
 646:src/stm32f10x_it.c **** 
 647:src/stm32f10x_it.c **** /*******************************************************************************
 648:src/stm32f10x_it.c **** * Function Name  : USBWakeUp_IRQHandler
 649:src/stm32f10x_it.c **** * Description    : This function handles USB WakeUp interrupt request.
 650:src/stm32f10x_it.c **** * Input          : None
 651:src/stm32f10x_it.c **** * Output         : None
 652:src/stm32f10x_it.c **** * Return         : None
 653:src/stm32f10x_it.c **** *******************************************************************************/
 654:src/stm32f10x_it.c **** void USBWakeUp_IRQHandler(void)
 655:src/stm32f10x_it.c **** {
 970              		.loc 1 655 0
 971              		.cfi_startproc
 972              		@ args = 0, pretend = 0, frame = 0
 973              		@ frame_needed = 0, uses_anonymous_args = 0
 974              		.loc 1 655 0
 975 0000 08B5     		push	{r3, lr}
 976              	.LCFI3:
 977              		.cfi_def_cfa_offset 8
 978              		.cfi_offset 3, -8
 979              		.cfi_offset 14, -4
 656:src/stm32f10x_it.c **** #if 1
 657:src/stm32f10x_it.c ****     EXTI_ClearITPendingBit(EXTI_Line18);
 980              		.loc 1 657 0
 981 0002 4FF48020 		mov	r0, #262144
 982 0006 FFF7FEFF 		bl	EXTI_ClearITPendingBit
 983              	.LVL6:
 984 000a 08BD     		pop	{r3, pc}
 985              		.cfi_endproc
ARM GAS  /var/folders/g9/bbpj86ld7fx45vd1b3pqxmp00000gn/T//ccOsGbDU.s 			page 28


 986              	.LFE79:
 988              		.comm	Send_Buffer,2,4
 989              		.text
 990              	.Letext0:
 991              		.file 2 "/usr/local/Cellar/gcc-arm-none-eabi/20160926/arm-none-eabi/include/machine/_default_types
 992              		.file 3 "/usr/local/Cellar/gcc-arm-none-eabi/20160926/arm-none-eabi/include/sys/_stdint.h"
 993              		.file 4 "CMSIS/Core/CM3/stm32f10x.h"
 994              		.file 5 "Inc/hw_config.h"
 995              		.file 6 "STM32_USB-FS-Device_Driver/inc/usb_mem.h"
 996              		.file 7 "STM32_USB-FS-Device_Driver/inc/usb_regs.h"
 997              		.file 8 "STM32F10x_StdPeriph_Driver/inc/stm32f10x_dma.h"
 998              		.file 9 "Inc/usb/usb_istr.h"
 999              		.file 10 "STM32F10x_StdPeriph_Driver/inc/stm32f10x_exti.h"
ARM GAS  /var/folders/g9/bbpj86ld7fx45vd1b3pqxmp00000gn/T//ccOsGbDU.s 			page 29


DEFINED SYMBOLS
                            *ABS*:0000000000000000 stm32f10x_it.c
/var/folders/g9/bbpj86ld7fx45vd1b3pqxmp00000gn/T//ccOsGbDU.s:20     .text.NMI_Handler:0000000000000000 $t
/var/folders/g9/bbpj86ld7fx45vd1b3pqxmp00000gn/T//ccOsGbDU.s:25     .text.NMI_Handler:0000000000000000 NMI_Handler
/var/folders/g9/bbpj86ld7fx45vd1b3pqxmp00000gn/T//ccOsGbDU.s:38     .text.HardFault_Handler:0000000000000000 $t
/var/folders/g9/bbpj86ld7fx45vd1b3pqxmp00000gn/T//ccOsGbDU.s:43     .text.HardFault_Handler:0000000000000000 HardFault_Handler
/var/folders/g9/bbpj86ld7fx45vd1b3pqxmp00000gn/T//ccOsGbDU.s:57     .text.MemManage_Handler:0000000000000000 $t
/var/folders/g9/bbpj86ld7fx45vd1b3pqxmp00000gn/T//ccOsGbDU.s:62     .text.MemManage_Handler:0000000000000000 MemManage_Handler
/var/folders/g9/bbpj86ld7fx45vd1b3pqxmp00000gn/T//ccOsGbDU.s:76     .text.BusFault_Handler:0000000000000000 $t
/var/folders/g9/bbpj86ld7fx45vd1b3pqxmp00000gn/T//ccOsGbDU.s:81     .text.BusFault_Handler:0000000000000000 BusFault_Handler
/var/folders/g9/bbpj86ld7fx45vd1b3pqxmp00000gn/T//ccOsGbDU.s:95     .text.UsageFault_Handler:0000000000000000 $t
/var/folders/g9/bbpj86ld7fx45vd1b3pqxmp00000gn/T//ccOsGbDU.s:100    .text.UsageFault_Handler:0000000000000000 UsageFault_Handler
/var/folders/g9/bbpj86ld7fx45vd1b3pqxmp00000gn/T//ccOsGbDU.s:114    .text.SVC_Handler:0000000000000000 $t
/var/folders/g9/bbpj86ld7fx45vd1b3pqxmp00000gn/T//ccOsGbDU.s:119    .text.SVC_Handler:0000000000000000 SVC_Handler
/var/folders/g9/bbpj86ld7fx45vd1b3pqxmp00000gn/T//ccOsGbDU.s:131    .text.DebugMon_Handler:0000000000000000 $t
/var/folders/g9/bbpj86ld7fx45vd1b3pqxmp00000gn/T//ccOsGbDU.s:136    .text.DebugMon_Handler:0000000000000000 DebugMon_Handler
/var/folders/g9/bbpj86ld7fx45vd1b3pqxmp00000gn/T//ccOsGbDU.s:148    .text.PendSV_Handler:0000000000000000 $t
/var/folders/g9/bbpj86ld7fx45vd1b3pqxmp00000gn/T//ccOsGbDU.s:153    .text.PendSV_Handler:0000000000000000 PendSV_Handler
/var/folders/g9/bbpj86ld7fx45vd1b3pqxmp00000gn/T//ccOsGbDU.s:165    .text.SysTick_Handler:0000000000000000 $t
/var/folders/g9/bbpj86ld7fx45vd1b3pqxmp00000gn/T//ccOsGbDU.s:170    .text.SysTick_Handler:0000000000000000 SysTick_Handler
/var/folders/g9/bbpj86ld7fx45vd1b3pqxmp00000gn/T//ccOsGbDU.s:190    .text.WWDG_IRQHandler:0000000000000000 $t
/var/folders/g9/bbpj86ld7fx45vd1b3pqxmp00000gn/T//ccOsGbDU.s:195    .text.WWDG_IRQHandler:0000000000000000 WWDG_IRQHandler
/var/folders/g9/bbpj86ld7fx45vd1b3pqxmp00000gn/T//ccOsGbDU.s:207    .text.PVD_IRQHandler:0000000000000000 $t
/var/folders/g9/bbpj86ld7fx45vd1b3pqxmp00000gn/T//ccOsGbDU.s:212    .text.PVD_IRQHandler:0000000000000000 PVD_IRQHandler
/var/folders/g9/bbpj86ld7fx45vd1b3pqxmp00000gn/T//ccOsGbDU.s:224    .text.TAMPER_IRQHandler:0000000000000000 $t
/var/folders/g9/bbpj86ld7fx45vd1b3pqxmp00000gn/T//ccOsGbDU.s:229    .text.TAMPER_IRQHandler:0000000000000000 TAMPER_IRQHandler
/var/folders/g9/bbpj86ld7fx45vd1b3pqxmp00000gn/T//ccOsGbDU.s:241    .text.RTC_IRQHandler:0000000000000000 $t
/var/folders/g9/bbpj86ld7fx45vd1b3pqxmp00000gn/T//ccOsGbDU.s:246    .text.RTC_IRQHandler:0000000000000000 RTC_IRQHandler
/var/folders/g9/bbpj86ld7fx45vd1b3pqxmp00000gn/T//ccOsGbDU.s:258    .text.FLASH_IRQHandler:0000000000000000 $t
/var/folders/g9/bbpj86ld7fx45vd1b3pqxmp00000gn/T//ccOsGbDU.s:263    .text.FLASH_IRQHandler:0000000000000000 FLASH_IRQHandler
/var/folders/g9/bbpj86ld7fx45vd1b3pqxmp00000gn/T//ccOsGbDU.s:275    .text.RCC_IRQHandler:0000000000000000 $t
/var/folders/g9/bbpj86ld7fx45vd1b3pqxmp00000gn/T//ccOsGbDU.s:280    .text.RCC_IRQHandler:0000000000000000 RCC_IRQHandler
/var/folders/g9/bbpj86ld7fx45vd1b3pqxmp00000gn/T//ccOsGbDU.s:292    .text.EXTI0_IRQHandler:0000000000000000 $t
/var/folders/g9/bbpj86ld7fx45vd1b3pqxmp00000gn/T//ccOsGbDU.s:297    .text.EXTI0_IRQHandler:0000000000000000 EXTI0_IRQHandler
/var/folders/g9/bbpj86ld7fx45vd1b3pqxmp00000gn/T//ccOsGbDU.s:309    .text.EXTI1_IRQHandler:0000000000000000 $t
/var/folders/g9/bbpj86ld7fx45vd1b3pqxmp00000gn/T//ccOsGbDU.s:314    .text.EXTI1_IRQHandler:0000000000000000 EXTI1_IRQHandler
/var/folders/g9/bbpj86ld7fx45vd1b3pqxmp00000gn/T//ccOsGbDU.s:326    .text.EXTI2_IRQHandler:0000000000000000 $t
/var/folders/g9/bbpj86ld7fx45vd1b3pqxmp00000gn/T//ccOsGbDU.s:331    .text.EXTI2_IRQHandler:0000000000000000 EXTI2_IRQHandler
/var/folders/g9/bbpj86ld7fx45vd1b3pqxmp00000gn/T//ccOsGbDU.s:343    .text.EXTI3_IRQHandler:0000000000000000 $t
/var/folders/g9/bbpj86ld7fx45vd1b3pqxmp00000gn/T//ccOsGbDU.s:348    .text.EXTI3_IRQHandler:0000000000000000 EXTI3_IRQHandler
/var/folders/g9/bbpj86ld7fx45vd1b3pqxmp00000gn/T//ccOsGbDU.s:360    .text.EXTI4_IRQHandler:0000000000000000 $t
/var/folders/g9/bbpj86ld7fx45vd1b3pqxmp00000gn/T//ccOsGbDU.s:365    .text.EXTI4_IRQHandler:0000000000000000 EXTI4_IRQHandler
/var/folders/g9/bbpj86ld7fx45vd1b3pqxmp00000gn/T//ccOsGbDU.s:377    .text.DMA1_Channel1_IRQHandler:0000000000000000 $t
/var/folders/g9/bbpj86ld7fx45vd1b3pqxmp00000gn/T//ccOsGbDU.s:382    .text.DMA1_Channel1_IRQHandler:0000000000000000 DMA1_Channel1_IRQHandler
/var/folders/g9/bbpj86ld7fx45vd1b3pqxmp00000gn/T//ccOsGbDU.s:438    .text.DMA1_Channel1_IRQHandler:0000000000000048 $d
                            *COM*:0000000000000002 Send_Buffer
/var/folders/g9/bbpj86ld7fx45vd1b3pqxmp00000gn/T//ccOsGbDU.s:445    .text.DMA1_Channel2_IRQHandler:0000000000000000 $t
/var/folders/g9/bbpj86ld7fx45vd1b3pqxmp00000gn/T//ccOsGbDU.s:450    .text.DMA1_Channel2_IRQHandler:0000000000000000 DMA1_Channel2_IRQHandler
/var/folders/g9/bbpj86ld7fx45vd1b3pqxmp00000gn/T//ccOsGbDU.s:462    .text.DMA1_Channel3_IRQHandler:0000000000000000 $t
/var/folders/g9/bbpj86ld7fx45vd1b3pqxmp00000gn/T//ccOsGbDU.s:467    .text.DMA1_Channel3_IRQHandler:0000000000000000 DMA1_Channel3_IRQHandler
/var/folders/g9/bbpj86ld7fx45vd1b3pqxmp00000gn/T//ccOsGbDU.s:479    .text.DMA1_Channel4_IRQHandler:0000000000000000 $t
/var/folders/g9/bbpj86ld7fx45vd1b3pqxmp00000gn/T//ccOsGbDU.s:484    .text.DMA1_Channel4_IRQHandler:0000000000000000 DMA1_Channel4_IRQHandler
/var/folders/g9/bbpj86ld7fx45vd1b3pqxmp00000gn/T//ccOsGbDU.s:496    .text.DMA1_Channel5_IRQHandler:0000000000000000 $t
/var/folders/g9/bbpj86ld7fx45vd1b3pqxmp00000gn/T//ccOsGbDU.s:501    .text.DMA1_Channel5_IRQHandler:0000000000000000 DMA1_Channel5_IRQHandler
/var/folders/g9/bbpj86ld7fx45vd1b3pqxmp00000gn/T//ccOsGbDU.s:513    .text.DMA1_Channel6_IRQHandler:0000000000000000 $t
/var/folders/g9/bbpj86ld7fx45vd1b3pqxmp00000gn/T//ccOsGbDU.s:518    .text.DMA1_Channel6_IRQHandler:0000000000000000 DMA1_Channel6_IRQHandler
/var/folders/g9/bbpj86ld7fx45vd1b3pqxmp00000gn/T//ccOsGbDU.s:530    .text.DMA1_Channel7_IRQHandler:0000000000000000 $t
ARM GAS  /var/folders/g9/bbpj86ld7fx45vd1b3pqxmp00000gn/T//ccOsGbDU.s 			page 30


/var/folders/g9/bbpj86ld7fx45vd1b3pqxmp00000gn/T//ccOsGbDU.s:535    .text.DMA1_Channel7_IRQHandler:0000000000000000 DMA1_Channel7_IRQHandler
/var/folders/g9/bbpj86ld7fx45vd1b3pqxmp00000gn/T//ccOsGbDU.s:547    .text.ADC1_2_IRQHandler:0000000000000000 $t
/var/folders/g9/bbpj86ld7fx45vd1b3pqxmp00000gn/T//ccOsGbDU.s:552    .text.ADC1_2_IRQHandler:0000000000000000 ADC1_2_IRQHandler
/var/folders/g9/bbpj86ld7fx45vd1b3pqxmp00000gn/T//ccOsGbDU.s:564    .text.USB_HP_CAN1_TX_IRQHandler:0000000000000000 $t
/var/folders/g9/bbpj86ld7fx45vd1b3pqxmp00000gn/T//ccOsGbDU.s:569    .text.USB_HP_CAN1_TX_IRQHandler:0000000000000000 USB_HP_CAN1_TX_IRQHandler
/var/folders/g9/bbpj86ld7fx45vd1b3pqxmp00000gn/T//ccOsGbDU.s:581    .text.USB_LP_CAN1_RX0_IRQHandler:0000000000000000 $t
/var/folders/g9/bbpj86ld7fx45vd1b3pqxmp00000gn/T//ccOsGbDU.s:586    .text.USB_LP_CAN1_RX0_IRQHandler:0000000000000000 USB_LP_CAN1_RX0_IRQHandler
/var/folders/g9/bbpj86ld7fx45vd1b3pqxmp00000gn/T//ccOsGbDU.s:606    .text.CAN1_RX1_IRQHandler:0000000000000000 $t
/var/folders/g9/bbpj86ld7fx45vd1b3pqxmp00000gn/T//ccOsGbDU.s:611    .text.CAN1_RX1_IRQHandler:0000000000000000 CAN1_RX1_IRQHandler
/var/folders/g9/bbpj86ld7fx45vd1b3pqxmp00000gn/T//ccOsGbDU.s:623    .text.CAN1_SCE_IRQHandler:0000000000000000 $t
/var/folders/g9/bbpj86ld7fx45vd1b3pqxmp00000gn/T//ccOsGbDU.s:628    .text.CAN1_SCE_IRQHandler:0000000000000000 CAN1_SCE_IRQHandler
/var/folders/g9/bbpj86ld7fx45vd1b3pqxmp00000gn/T//ccOsGbDU.s:640    .text.EXTI9_5_IRQHandler:0000000000000000 $t
/var/folders/g9/bbpj86ld7fx45vd1b3pqxmp00000gn/T//ccOsGbDU.s:645    .text.EXTI9_5_IRQHandler:0000000000000000 EXTI9_5_IRQHandler
/var/folders/g9/bbpj86ld7fx45vd1b3pqxmp00000gn/T//ccOsGbDU.s:657    .text.TIM1_BRK_IRQHandler:0000000000000000 $t
/var/folders/g9/bbpj86ld7fx45vd1b3pqxmp00000gn/T//ccOsGbDU.s:662    .text.TIM1_BRK_IRQHandler:0000000000000000 TIM1_BRK_IRQHandler
/var/folders/g9/bbpj86ld7fx45vd1b3pqxmp00000gn/T//ccOsGbDU.s:674    .text.TIM1_UP_IRQHandler:0000000000000000 $t
/var/folders/g9/bbpj86ld7fx45vd1b3pqxmp00000gn/T//ccOsGbDU.s:679    .text.TIM1_UP_IRQHandler:0000000000000000 TIM1_UP_IRQHandler
/var/folders/g9/bbpj86ld7fx45vd1b3pqxmp00000gn/T//ccOsGbDU.s:691    .text.TIM1_TRG_COM_IRQHandler:0000000000000000 $t
/var/folders/g9/bbpj86ld7fx45vd1b3pqxmp00000gn/T//ccOsGbDU.s:696    .text.TIM1_TRG_COM_IRQHandler:0000000000000000 TIM1_TRG_COM_IRQHandler
/var/folders/g9/bbpj86ld7fx45vd1b3pqxmp00000gn/T//ccOsGbDU.s:708    .text.TIM1_CC_IRQHandler:0000000000000000 $t
/var/folders/g9/bbpj86ld7fx45vd1b3pqxmp00000gn/T//ccOsGbDU.s:713    .text.TIM1_CC_IRQHandler:0000000000000000 TIM1_CC_IRQHandler
/var/folders/g9/bbpj86ld7fx45vd1b3pqxmp00000gn/T//ccOsGbDU.s:725    .text.TIM2_IRQHandler:0000000000000000 $t
/var/folders/g9/bbpj86ld7fx45vd1b3pqxmp00000gn/T//ccOsGbDU.s:730    .text.TIM2_IRQHandler:0000000000000000 TIM2_IRQHandler
/var/folders/g9/bbpj86ld7fx45vd1b3pqxmp00000gn/T//ccOsGbDU.s:742    .text.TIM3_IRQHandler:0000000000000000 $t
/var/folders/g9/bbpj86ld7fx45vd1b3pqxmp00000gn/T//ccOsGbDU.s:747    .text.TIM3_IRQHandler:0000000000000000 TIM3_IRQHandler
/var/folders/g9/bbpj86ld7fx45vd1b3pqxmp00000gn/T//ccOsGbDU.s:759    .text.TIM4_IRQHandler:0000000000000000 $t
/var/folders/g9/bbpj86ld7fx45vd1b3pqxmp00000gn/T//ccOsGbDU.s:764    .text.TIM4_IRQHandler:0000000000000000 TIM4_IRQHandler
/var/folders/g9/bbpj86ld7fx45vd1b3pqxmp00000gn/T//ccOsGbDU.s:776    .text.I2C1_EV_IRQHandler:0000000000000000 $t
/var/folders/g9/bbpj86ld7fx45vd1b3pqxmp00000gn/T//ccOsGbDU.s:781    .text.I2C1_EV_IRQHandler:0000000000000000 I2C1_EV_IRQHandler
/var/folders/g9/bbpj86ld7fx45vd1b3pqxmp00000gn/T//ccOsGbDU.s:793    .text.I2C1_ER_IRQHandler:0000000000000000 $t
/var/folders/g9/bbpj86ld7fx45vd1b3pqxmp00000gn/T//ccOsGbDU.s:798    .text.I2C1_ER_IRQHandler:0000000000000000 I2C1_ER_IRQHandler
/var/folders/g9/bbpj86ld7fx45vd1b3pqxmp00000gn/T//ccOsGbDU.s:810    .text.I2C2_EV_IRQHandler:0000000000000000 $t
/var/folders/g9/bbpj86ld7fx45vd1b3pqxmp00000gn/T//ccOsGbDU.s:815    .text.I2C2_EV_IRQHandler:0000000000000000 I2C2_EV_IRQHandler
/var/folders/g9/bbpj86ld7fx45vd1b3pqxmp00000gn/T//ccOsGbDU.s:827    .text.I2C2_ER_IRQHandler:0000000000000000 $t
/var/folders/g9/bbpj86ld7fx45vd1b3pqxmp00000gn/T//ccOsGbDU.s:832    .text.I2C2_ER_IRQHandler:0000000000000000 I2C2_ER_IRQHandler
/var/folders/g9/bbpj86ld7fx45vd1b3pqxmp00000gn/T//ccOsGbDU.s:844    .text.SPI1_IRQHandler:0000000000000000 $t
/var/folders/g9/bbpj86ld7fx45vd1b3pqxmp00000gn/T//ccOsGbDU.s:849    .text.SPI1_IRQHandler:0000000000000000 SPI1_IRQHandler
/var/folders/g9/bbpj86ld7fx45vd1b3pqxmp00000gn/T//ccOsGbDU.s:861    .text.SPI2_IRQHandler:0000000000000000 $t
/var/folders/g9/bbpj86ld7fx45vd1b3pqxmp00000gn/T//ccOsGbDU.s:866    .text.SPI2_IRQHandler:0000000000000000 SPI2_IRQHandler
/var/folders/g9/bbpj86ld7fx45vd1b3pqxmp00000gn/T//ccOsGbDU.s:878    .text.USART1_IRQHandler:0000000000000000 $t
/var/folders/g9/bbpj86ld7fx45vd1b3pqxmp00000gn/T//ccOsGbDU.s:883    .text.USART1_IRQHandler:0000000000000000 USART1_IRQHandler
/var/folders/g9/bbpj86ld7fx45vd1b3pqxmp00000gn/T//ccOsGbDU.s:895    .text.USART2_IRQHandler:0000000000000000 $t
/var/folders/g9/bbpj86ld7fx45vd1b3pqxmp00000gn/T//ccOsGbDU.s:900    .text.USART2_IRQHandler:0000000000000000 USART2_IRQHandler
/var/folders/g9/bbpj86ld7fx45vd1b3pqxmp00000gn/T//ccOsGbDU.s:912    .text.USART3_IRQHandler:0000000000000000 $t
/var/folders/g9/bbpj86ld7fx45vd1b3pqxmp00000gn/T//ccOsGbDU.s:917    .text.USART3_IRQHandler:0000000000000000 USART3_IRQHandler
/var/folders/g9/bbpj86ld7fx45vd1b3pqxmp00000gn/T//ccOsGbDU.s:929    .text.EXTI15_10_IRQHandler:0000000000000000 $t
/var/folders/g9/bbpj86ld7fx45vd1b3pqxmp00000gn/T//ccOsGbDU.s:934    .text.EXTI15_10_IRQHandler:0000000000000000 EXTI15_10_IRQHandler
/var/folders/g9/bbpj86ld7fx45vd1b3pqxmp00000gn/T//ccOsGbDU.s:946    .text.RTCAlarm_IRQHandler:0000000000000000 $t
/var/folders/g9/bbpj86ld7fx45vd1b3pqxmp00000gn/T//ccOsGbDU.s:951    .text.RTCAlarm_IRQHandler:0000000000000000 RTCAlarm_IRQHandler
/var/folders/g9/bbpj86ld7fx45vd1b3pqxmp00000gn/T//ccOsGbDU.s:963    .text.USBWakeUp_IRQHandler:0000000000000000 $t
/var/folders/g9/bbpj86ld7fx45vd1b3pqxmp00000gn/T//ccOsGbDU.s:968    .text.USBWakeUp_IRQHandler:0000000000000000 USBWakeUp_IRQHandler
                     .debug_frame:0000000000000010 $d

UNDEFINED SYMBOLS
TimingDelay_Decrement
UserToPMABufferCopy
SetEPTxCount
ARM GAS  /var/folders/g9/bbpj86ld7fx45vd1b3pqxmp00000gn/T//ccOsGbDU.s 			page 31


SetEPTxValid
DMA_ClearFlag
ADC_ConvertedValueX
ADC_ConvertedValueX_1
USB_Istr
EXTI_ClearITPendingBit
