ARM GAS  /var/folders/g9/bbpj86ld7fx45vd1b3pqxmp00000gn/T//ccwT0TNs.s 			page 1


   1              		.syntax unified
   2              		.cpu cortex-m3
   3              		.fpu softvfp
   4              		.eabi_attribute 20, 1
   5              		.eabi_attribute 21, 1
   6              		.eabi_attribute 23, 3
   7              		.eabi_attribute 24, 1
   8              		.eabi_attribute 25, 1
   9              		.eabi_attribute 26, 1
  10              		.eabi_attribute 30, 1
  11              		.eabi_attribute 34, 1
  12              		.eabi_attribute 18, 4
  13              		.thumb
  14              		.syntax unified
  15              		.file	"stm32f10x_dma.c"
  16              		.text
  17              	.Ltext0:
  18              		.cfi_sections	.debug_frame
  19              		.section	.text.DMA_DeInit,"ax",%progbits
  20              		.align	2
  21              		.global	DMA_DeInit
  22              		.thumb
  23              		.thumb_func
  25              	DMA_DeInit:
  26              	.LFB27:
  27              		.file 1 "STM32F10x_StdPeriph_Driver/src/stm32f10x_dma.c"
   1:STM32F10x_StdPeriph_Driver/src/stm32f10x_dma.c **** /**
   2:STM32F10x_StdPeriph_Driver/src/stm32f10x_dma.c ****   ******************************************************************************
   3:STM32F10x_StdPeriph_Driver/src/stm32f10x_dma.c ****   * @file    stm32f10x_dma.c
   4:STM32F10x_StdPeriph_Driver/src/stm32f10x_dma.c ****   * @author  MCD Application Team
   5:STM32F10x_StdPeriph_Driver/src/stm32f10x_dma.c ****   * @version V3.1.2
   6:STM32F10x_StdPeriph_Driver/src/stm32f10x_dma.c ****   * @date    09/28/2009
   7:STM32F10x_StdPeriph_Driver/src/stm32f10x_dma.c ****   * @brief   This file provides all the DMA firmware functions.
   8:STM32F10x_StdPeriph_Driver/src/stm32f10x_dma.c ****   ******************************************************************************
   9:STM32F10x_StdPeriph_Driver/src/stm32f10x_dma.c ****   * @copy
  10:STM32F10x_StdPeriph_Driver/src/stm32f10x_dma.c ****   *
  11:STM32F10x_StdPeriph_Driver/src/stm32f10x_dma.c ****   * THE PRESENT FIRMWARE WHICH IS FOR GUIDANCE ONLY AIMS AT PROVIDING CUSTOMERS
  12:STM32F10x_StdPeriph_Driver/src/stm32f10x_dma.c ****   * WITH CODING INFORMATION REGARDING THEIR PRODUCTS IN ORDER FOR THEM TO SAVE
  13:STM32F10x_StdPeriph_Driver/src/stm32f10x_dma.c ****   * TIME. AS A RESULT, STMICROELECTRONICS SHALL NOT BE HELD LIABLE FOR ANY
  14:STM32F10x_StdPeriph_Driver/src/stm32f10x_dma.c ****   * DIRECT, INDIRECT OR CONSEQUENTIAL DAMAGES WITH RESPECT TO ANY CLAIMS ARISING
  15:STM32F10x_StdPeriph_Driver/src/stm32f10x_dma.c ****   * FROM THE CONTENT OF SUCH FIRMWARE AND/OR THE USE MADE BY CUSTOMERS OF THE
  16:STM32F10x_StdPeriph_Driver/src/stm32f10x_dma.c ****   * CODING INFORMATION CONTAINED HEREIN IN CONNECTION WITH THEIR PRODUCTS.
  17:STM32F10x_StdPeriph_Driver/src/stm32f10x_dma.c ****   *
  18:STM32F10x_StdPeriph_Driver/src/stm32f10x_dma.c ****   * <h2><center>&copy; COPYRIGHT 2009 STMicroelectronics</center></h2>
  19:STM32F10x_StdPeriph_Driver/src/stm32f10x_dma.c ****   */ 
  20:STM32F10x_StdPeriph_Driver/src/stm32f10x_dma.c **** 
  21:STM32F10x_StdPeriph_Driver/src/stm32f10x_dma.c **** /* Includes ------------------------------------------------------------------*/
  22:STM32F10x_StdPeriph_Driver/src/stm32f10x_dma.c **** #include "stm32f10x_dma.h"
  23:STM32F10x_StdPeriph_Driver/src/stm32f10x_dma.c **** #include "stm32f10x_rcc.h"
  24:STM32F10x_StdPeriph_Driver/src/stm32f10x_dma.c **** 
  25:STM32F10x_StdPeriph_Driver/src/stm32f10x_dma.c **** /** @addtogroup STM32F10x_StdPeriph_Driver
  26:STM32F10x_StdPeriph_Driver/src/stm32f10x_dma.c ****   * @{
  27:STM32F10x_StdPeriph_Driver/src/stm32f10x_dma.c ****   */
  28:STM32F10x_StdPeriph_Driver/src/stm32f10x_dma.c **** 
  29:STM32F10x_StdPeriph_Driver/src/stm32f10x_dma.c **** /** @defgroup DMA 
  30:STM32F10x_StdPeriph_Driver/src/stm32f10x_dma.c ****   * @brief DMA driver modules
  31:STM32F10x_StdPeriph_Driver/src/stm32f10x_dma.c ****   * @{
ARM GAS  /var/folders/g9/bbpj86ld7fx45vd1b3pqxmp00000gn/T//ccwT0TNs.s 			page 2


  32:STM32F10x_StdPeriph_Driver/src/stm32f10x_dma.c ****   */ 
  33:STM32F10x_StdPeriph_Driver/src/stm32f10x_dma.c **** 
  34:STM32F10x_StdPeriph_Driver/src/stm32f10x_dma.c **** /** @defgroup DMA_Private_TypesDefinitions
  35:STM32F10x_StdPeriph_Driver/src/stm32f10x_dma.c ****   * @{
  36:STM32F10x_StdPeriph_Driver/src/stm32f10x_dma.c ****   */ 
  37:STM32F10x_StdPeriph_Driver/src/stm32f10x_dma.c **** /**
  38:STM32F10x_StdPeriph_Driver/src/stm32f10x_dma.c ****   * @}
  39:STM32F10x_StdPeriph_Driver/src/stm32f10x_dma.c ****   */
  40:STM32F10x_StdPeriph_Driver/src/stm32f10x_dma.c **** 
  41:STM32F10x_StdPeriph_Driver/src/stm32f10x_dma.c **** /** @defgroup DMA_Private_Defines
  42:STM32F10x_StdPeriph_Driver/src/stm32f10x_dma.c ****   * @{
  43:STM32F10x_StdPeriph_Driver/src/stm32f10x_dma.c ****   */
  44:STM32F10x_StdPeriph_Driver/src/stm32f10x_dma.c **** 
  45:STM32F10x_StdPeriph_Driver/src/stm32f10x_dma.c **** /* DMA ENABLE mask */
  46:STM32F10x_StdPeriph_Driver/src/stm32f10x_dma.c **** #define CCR_ENABLE_Set          ((uint32_t)0x00000001)
  47:STM32F10x_StdPeriph_Driver/src/stm32f10x_dma.c **** #define CCR_ENABLE_Reset        ((uint32_t)0xFFFFFFFE)
  48:STM32F10x_StdPeriph_Driver/src/stm32f10x_dma.c **** 
  49:STM32F10x_StdPeriph_Driver/src/stm32f10x_dma.c **** /* DMA1 Channelx interrupt pending bit masks */
  50:STM32F10x_StdPeriph_Driver/src/stm32f10x_dma.c **** #define DMA1_Channel1_IT_Mask    ((uint32_t)0x0000000F)
  51:STM32F10x_StdPeriph_Driver/src/stm32f10x_dma.c **** #define DMA1_Channel2_IT_Mask    ((uint32_t)0x000000F0)
  52:STM32F10x_StdPeriph_Driver/src/stm32f10x_dma.c **** #define DMA1_Channel3_IT_Mask    ((uint32_t)0x00000F00)
  53:STM32F10x_StdPeriph_Driver/src/stm32f10x_dma.c **** #define DMA1_Channel4_IT_Mask    ((uint32_t)0x0000F000)
  54:STM32F10x_StdPeriph_Driver/src/stm32f10x_dma.c **** #define DMA1_Channel5_IT_Mask    ((uint32_t)0x000F0000)
  55:STM32F10x_StdPeriph_Driver/src/stm32f10x_dma.c **** #define DMA1_Channel6_IT_Mask    ((uint32_t)0x00F00000)
  56:STM32F10x_StdPeriph_Driver/src/stm32f10x_dma.c **** #define DMA1_Channel7_IT_Mask    ((uint32_t)0x0F000000)
  57:STM32F10x_StdPeriph_Driver/src/stm32f10x_dma.c **** 
  58:STM32F10x_StdPeriph_Driver/src/stm32f10x_dma.c **** /* DMA2 Channelx interrupt pending bit masks */
  59:STM32F10x_StdPeriph_Driver/src/stm32f10x_dma.c **** #define DMA2_Channel1_IT_Mask    ((uint32_t)0x0000000F)
  60:STM32F10x_StdPeriph_Driver/src/stm32f10x_dma.c **** #define DMA2_Channel2_IT_Mask    ((uint32_t)0x000000F0)
  61:STM32F10x_StdPeriph_Driver/src/stm32f10x_dma.c **** #define DMA2_Channel3_IT_Mask    ((uint32_t)0x00000F00)
  62:STM32F10x_StdPeriph_Driver/src/stm32f10x_dma.c **** #define DMA2_Channel4_IT_Mask    ((uint32_t)0x0000F000)
  63:STM32F10x_StdPeriph_Driver/src/stm32f10x_dma.c **** #define DMA2_Channel5_IT_Mask    ((uint32_t)0x000F0000)
  64:STM32F10x_StdPeriph_Driver/src/stm32f10x_dma.c **** 
  65:STM32F10x_StdPeriph_Driver/src/stm32f10x_dma.c **** /* DMA2 FLAG mask */
  66:STM32F10x_StdPeriph_Driver/src/stm32f10x_dma.c **** #define FLAG_Mask                ((uint32_t)0x10000000)
  67:STM32F10x_StdPeriph_Driver/src/stm32f10x_dma.c **** 
  68:STM32F10x_StdPeriph_Driver/src/stm32f10x_dma.c **** /* DMA registers Masks */
  69:STM32F10x_StdPeriph_Driver/src/stm32f10x_dma.c **** #define CCR_CLEAR_Mask           ((uint32_t)0xFFFF800F)
  70:STM32F10x_StdPeriph_Driver/src/stm32f10x_dma.c **** 
  71:STM32F10x_StdPeriph_Driver/src/stm32f10x_dma.c **** /**
  72:STM32F10x_StdPeriph_Driver/src/stm32f10x_dma.c ****   * @}
  73:STM32F10x_StdPeriph_Driver/src/stm32f10x_dma.c ****   */
  74:STM32F10x_StdPeriph_Driver/src/stm32f10x_dma.c **** 
  75:STM32F10x_StdPeriph_Driver/src/stm32f10x_dma.c **** /** @defgroup DMA_Private_Macros
  76:STM32F10x_StdPeriph_Driver/src/stm32f10x_dma.c ****   * @{
  77:STM32F10x_StdPeriph_Driver/src/stm32f10x_dma.c ****   */
  78:STM32F10x_StdPeriph_Driver/src/stm32f10x_dma.c **** 
  79:STM32F10x_StdPeriph_Driver/src/stm32f10x_dma.c **** /**
  80:STM32F10x_StdPeriph_Driver/src/stm32f10x_dma.c ****   * @}
  81:STM32F10x_StdPeriph_Driver/src/stm32f10x_dma.c ****   */
  82:STM32F10x_StdPeriph_Driver/src/stm32f10x_dma.c **** 
  83:STM32F10x_StdPeriph_Driver/src/stm32f10x_dma.c **** /** @defgroup DMA_Private_Variables
  84:STM32F10x_StdPeriph_Driver/src/stm32f10x_dma.c ****   * @{
  85:STM32F10x_StdPeriph_Driver/src/stm32f10x_dma.c ****   */
  86:STM32F10x_StdPeriph_Driver/src/stm32f10x_dma.c **** 
  87:STM32F10x_StdPeriph_Driver/src/stm32f10x_dma.c **** /**
  88:STM32F10x_StdPeriph_Driver/src/stm32f10x_dma.c ****   * @}
ARM GAS  /var/folders/g9/bbpj86ld7fx45vd1b3pqxmp00000gn/T//ccwT0TNs.s 			page 3


  89:STM32F10x_StdPeriph_Driver/src/stm32f10x_dma.c ****   */
  90:STM32F10x_StdPeriph_Driver/src/stm32f10x_dma.c **** 
  91:STM32F10x_StdPeriph_Driver/src/stm32f10x_dma.c **** /** @defgroup DMA_Private_FunctionPrototypes
  92:STM32F10x_StdPeriph_Driver/src/stm32f10x_dma.c ****   * @{
  93:STM32F10x_StdPeriph_Driver/src/stm32f10x_dma.c ****   */
  94:STM32F10x_StdPeriph_Driver/src/stm32f10x_dma.c **** 
  95:STM32F10x_StdPeriph_Driver/src/stm32f10x_dma.c **** /**
  96:STM32F10x_StdPeriph_Driver/src/stm32f10x_dma.c ****   * @}
  97:STM32F10x_StdPeriph_Driver/src/stm32f10x_dma.c ****   */
  98:STM32F10x_StdPeriph_Driver/src/stm32f10x_dma.c **** 
  99:STM32F10x_StdPeriph_Driver/src/stm32f10x_dma.c **** /** @defgroup DMA_Private_Functions
 100:STM32F10x_StdPeriph_Driver/src/stm32f10x_dma.c ****   * @{
 101:STM32F10x_StdPeriph_Driver/src/stm32f10x_dma.c ****   */
 102:STM32F10x_StdPeriph_Driver/src/stm32f10x_dma.c **** 
 103:STM32F10x_StdPeriph_Driver/src/stm32f10x_dma.c **** /**
 104:STM32F10x_StdPeriph_Driver/src/stm32f10x_dma.c ****   * @brief  Deinitializes the DMAy Channelx registers to their default reset
 105:STM32F10x_StdPeriph_Driver/src/stm32f10x_dma.c ****   *   values.
 106:STM32F10x_StdPeriph_Driver/src/stm32f10x_dma.c ****   * @param  DMAy_Channelx: where y can be 1 or 2 to select the DMA and
 107:STM32F10x_StdPeriph_Driver/src/stm32f10x_dma.c ****   *   x can be 1 to 7 for DMA1 and 1 to 5 for DMA2 to select the DMA Channel.
 108:STM32F10x_StdPeriph_Driver/src/stm32f10x_dma.c ****   * @retval None
 109:STM32F10x_StdPeriph_Driver/src/stm32f10x_dma.c ****   */
 110:STM32F10x_StdPeriph_Driver/src/stm32f10x_dma.c **** void DMA_DeInit(DMA_Channel_TypeDef* DMAy_Channelx)
 111:STM32F10x_StdPeriph_Driver/src/stm32f10x_dma.c **** {
  28              		.loc 1 111 0
  29              		.cfi_startproc
  30              		@ args = 0, pretend = 0, frame = 0
  31              		@ frame_needed = 0, uses_anonymous_args = 0
  32              	.LVL0:
  33 0000 10B5     		push	{r4, lr}
  34              	.LCFI0:
  35              		.cfi_def_cfa_offset 8
  36              		.cfi_offset 4, -8
  37              		.cfi_offset 14, -4
  38 0002 0446     		mov	r4, r0
 112:STM32F10x_StdPeriph_Driver/src/stm32f10x_dma.c ****   /* Check the parameters */
 113:STM32F10x_StdPeriph_Driver/src/stm32f10x_dma.c ****   assert_param(IS_DMA_ALL_PERIPH(DMAy_Channelx));
  39              		.loc 1 113 0
  40 0004 4E4B     		ldr	r3, .L16
  41 0006 9842     		cmp	r0, r3
  42 0008 25D0     		beq	.L2
  43              		.loc 1 113 0 is_stmt 0 discriminator 1
  44 000a 1433     		adds	r3, r3, #20
  45 000c 9842     		cmp	r0, r3
  46 000e 22D0     		beq	.L2
  47              		.loc 1 113 0 discriminator 2
  48 0010 1433     		adds	r3, r3, #20
  49 0012 9842     		cmp	r0, r3
  50 0014 1FD0     		beq	.L2
  51              		.loc 1 113 0 discriminator 3
  52 0016 1433     		adds	r3, r3, #20
  53 0018 9842     		cmp	r0, r3
  54 001a 1CD0     		beq	.L2
  55              		.loc 1 113 0 discriminator 4
  56 001c 1433     		adds	r3, r3, #20
  57 001e 9842     		cmp	r0, r3
  58 0020 19D0     		beq	.L2
  59              		.loc 1 113 0 discriminator 5
ARM GAS  /var/folders/g9/bbpj86ld7fx45vd1b3pqxmp00000gn/T//ccwT0TNs.s 			page 4


  60 0022 1433     		adds	r3, r3, #20
  61 0024 9842     		cmp	r0, r3
  62 0026 16D0     		beq	.L2
  63              		.loc 1 113 0 discriminator 6
  64 0028 1433     		adds	r3, r3, #20
  65 002a 9842     		cmp	r0, r3
  66 002c 13D0     		beq	.L2
  67              		.loc 1 113 0 discriminator 7
  68 002e 03F56273 		add	r3, r3, #904
  69 0032 9842     		cmp	r0, r3
  70 0034 0FD0     		beq	.L2
  71              		.loc 1 113 0 discriminator 8
  72 0036 1433     		adds	r3, r3, #20
  73 0038 9842     		cmp	r0, r3
  74 003a 0CD0     		beq	.L2
  75              		.loc 1 113 0 discriminator 9
  76 003c 1433     		adds	r3, r3, #20
  77 003e 9842     		cmp	r0, r3
  78 0040 09D0     		beq	.L2
  79              		.loc 1 113 0 discriminator 10
  80 0042 1433     		adds	r3, r3, #20
  81 0044 9842     		cmp	r0, r3
  82 0046 06D0     		beq	.L2
  83              		.loc 1 113 0 discriminator 11
  84 0048 1433     		adds	r3, r3, #20
  85 004a 9842     		cmp	r0, r3
  86 004c 03D0     		beq	.L2
  87              		.loc 1 113 0 discriminator 12
  88 004e 7121     		movs	r1, #113
  89 0050 3C48     		ldr	r0, .L16+4
  90              	.LVL1:
  91 0052 FFF7FEFF 		bl	assert_failed
  92              	.LVL2:
  93              	.L2:
 114:STM32F10x_StdPeriph_Driver/src/stm32f10x_dma.c ****   /* Disable the selected DMAy Channelx */
 115:STM32F10x_StdPeriph_Driver/src/stm32f10x_dma.c ****   DMAy_Channelx->CCR &= CCR_ENABLE_Reset;
  94              		.loc 1 115 0 is_stmt 1
  95 0056 2368     		ldr	r3, [r4]
  96 0058 23F00103 		bic	r3, r3, #1
  97 005c 2360     		str	r3, [r4]
 116:STM32F10x_StdPeriph_Driver/src/stm32f10x_dma.c ****   /* Reset DMAy Channelx control register */
 117:STM32F10x_StdPeriph_Driver/src/stm32f10x_dma.c ****   DMAy_Channelx->CCR  = 0;
  98              		.loc 1 117 0
  99 005e 0023     		movs	r3, #0
 100 0060 2360     		str	r3, [r4]
 118:STM32F10x_StdPeriph_Driver/src/stm32f10x_dma.c ****   
 119:STM32F10x_StdPeriph_Driver/src/stm32f10x_dma.c ****   /* Reset DMAy Channelx remaining bytes register */
 120:STM32F10x_StdPeriph_Driver/src/stm32f10x_dma.c ****   DMAy_Channelx->CNDTR = 0;
 101              		.loc 1 120 0
 102 0062 6360     		str	r3, [r4, #4]
 121:STM32F10x_StdPeriph_Driver/src/stm32f10x_dma.c ****   
 122:STM32F10x_StdPeriph_Driver/src/stm32f10x_dma.c ****   /* Reset DMAy Channelx peripheral address register */
 123:STM32F10x_StdPeriph_Driver/src/stm32f10x_dma.c ****   DMAy_Channelx->CPAR  = 0;
 103              		.loc 1 123 0
 104 0064 A360     		str	r3, [r4, #8]
 124:STM32F10x_StdPeriph_Driver/src/stm32f10x_dma.c ****   
 125:STM32F10x_StdPeriph_Driver/src/stm32f10x_dma.c ****   /* Reset DMAy Channelx memory address register */
ARM GAS  /var/folders/g9/bbpj86ld7fx45vd1b3pqxmp00000gn/T//ccwT0TNs.s 			page 5


 126:STM32F10x_StdPeriph_Driver/src/stm32f10x_dma.c ****   DMAy_Channelx->CMAR = 0;
 105              		.loc 1 126 0
 106 0066 E360     		str	r3, [r4, #12]
 127:STM32F10x_StdPeriph_Driver/src/stm32f10x_dma.c ****   
 128:STM32F10x_StdPeriph_Driver/src/stm32f10x_dma.c ****   if (DMAy_Channelx == DMA1_Channel1)
 107              		.loc 1 128 0
 108 0068 354B     		ldr	r3, .L16
 109 006a 9C42     		cmp	r4, r3
 110 006c 05D1     		bne	.L3
 129:STM32F10x_StdPeriph_Driver/src/stm32f10x_dma.c ****   {
 130:STM32F10x_StdPeriph_Driver/src/stm32f10x_dma.c ****     /* Reset interrupt pending bits for DMA1 Channel1 */
 131:STM32F10x_StdPeriph_Driver/src/stm32f10x_dma.c ****     DMA1->IFCR |= DMA1_Channel1_IT_Mask;
 111              		.loc 1 131 0
 112 006e 364A     		ldr	r2, .L16+8
 113 0070 5368     		ldr	r3, [r2, #4]
 114 0072 43F00F03 		orr	r3, r3, #15
 115 0076 5360     		str	r3, [r2, #4]
 116 0078 10BD     		pop	{r4, pc}
 117              	.LVL3:
 118              	.L3:
 132:STM32F10x_StdPeriph_Driver/src/stm32f10x_dma.c ****   }
 133:STM32F10x_StdPeriph_Driver/src/stm32f10x_dma.c ****   else if (DMAy_Channelx == DMA1_Channel2)
 119              		.loc 1 133 0
 120 007a 344B     		ldr	r3, .L16+12
 121 007c 9C42     		cmp	r4, r3
 122 007e 05D1     		bne	.L5
 134:STM32F10x_StdPeriph_Driver/src/stm32f10x_dma.c ****   {
 135:STM32F10x_StdPeriph_Driver/src/stm32f10x_dma.c ****     /* Reset interrupt pending bits for DMA1 Channel2 */
 136:STM32F10x_StdPeriph_Driver/src/stm32f10x_dma.c ****     DMA1->IFCR |= DMA1_Channel2_IT_Mask;
 123              		.loc 1 136 0
 124 0080 314A     		ldr	r2, .L16+8
 125 0082 5368     		ldr	r3, [r2, #4]
 126 0084 43F0F003 		orr	r3, r3, #240
 127 0088 5360     		str	r3, [r2, #4]
 128 008a 10BD     		pop	{r4, pc}
 129              	.LVL4:
 130              	.L5:
 137:STM32F10x_StdPeriph_Driver/src/stm32f10x_dma.c ****   }
 138:STM32F10x_StdPeriph_Driver/src/stm32f10x_dma.c ****   else if (DMAy_Channelx == DMA1_Channel3)
 131              		.loc 1 138 0
 132 008c 304B     		ldr	r3, .L16+16
 133 008e 9C42     		cmp	r4, r3
 134 0090 05D1     		bne	.L6
 139:STM32F10x_StdPeriph_Driver/src/stm32f10x_dma.c ****   {
 140:STM32F10x_StdPeriph_Driver/src/stm32f10x_dma.c ****     /* Reset interrupt pending bits for DMA1 Channel3 */
 141:STM32F10x_StdPeriph_Driver/src/stm32f10x_dma.c ****     DMA1->IFCR |= DMA1_Channel3_IT_Mask;
 135              		.loc 1 141 0
 136 0092 2D4A     		ldr	r2, .L16+8
 137 0094 5368     		ldr	r3, [r2, #4]
 138 0096 43F47063 		orr	r3, r3, #3840
 139 009a 5360     		str	r3, [r2, #4]
 140 009c 10BD     		pop	{r4, pc}
 141              	.LVL5:
 142              	.L6:
 142:STM32F10x_StdPeriph_Driver/src/stm32f10x_dma.c ****   }
 143:STM32F10x_StdPeriph_Driver/src/stm32f10x_dma.c ****   else if (DMAy_Channelx == DMA1_Channel4)
 143              		.loc 1 143 0
ARM GAS  /var/folders/g9/bbpj86ld7fx45vd1b3pqxmp00000gn/T//ccwT0TNs.s 			page 6


 144 009e 2D4B     		ldr	r3, .L16+20
 145 00a0 9C42     		cmp	r4, r3
 146 00a2 05D1     		bne	.L7
 144:STM32F10x_StdPeriph_Driver/src/stm32f10x_dma.c ****   {
 145:STM32F10x_StdPeriph_Driver/src/stm32f10x_dma.c ****     /* Reset interrupt pending bits for DMA1 Channel4 */
 146:STM32F10x_StdPeriph_Driver/src/stm32f10x_dma.c ****     DMA1->IFCR |= DMA1_Channel4_IT_Mask;
 147              		.loc 1 146 0
 148 00a4 284A     		ldr	r2, .L16+8
 149 00a6 5368     		ldr	r3, [r2, #4]
 150 00a8 43F47043 		orr	r3, r3, #61440
 151 00ac 5360     		str	r3, [r2, #4]
 152 00ae 10BD     		pop	{r4, pc}
 153              	.LVL6:
 154              	.L7:
 147:STM32F10x_StdPeriph_Driver/src/stm32f10x_dma.c ****   }
 148:STM32F10x_StdPeriph_Driver/src/stm32f10x_dma.c ****   else if (DMAy_Channelx == DMA1_Channel5)
 155              		.loc 1 148 0
 156 00b0 294B     		ldr	r3, .L16+24
 157 00b2 9C42     		cmp	r4, r3
 158 00b4 05D1     		bne	.L8
 149:STM32F10x_StdPeriph_Driver/src/stm32f10x_dma.c ****   {
 150:STM32F10x_StdPeriph_Driver/src/stm32f10x_dma.c ****     /* Reset interrupt pending bits for DMA1 Channel5 */
 151:STM32F10x_StdPeriph_Driver/src/stm32f10x_dma.c ****     DMA1->IFCR |= DMA1_Channel5_IT_Mask;
 159              		.loc 1 151 0
 160 00b6 244A     		ldr	r2, .L16+8
 161 00b8 5368     		ldr	r3, [r2, #4]
 162 00ba 43F47023 		orr	r3, r3, #983040
 163 00be 5360     		str	r3, [r2, #4]
 164 00c0 10BD     		pop	{r4, pc}
 165              	.LVL7:
 166              	.L8:
 152:STM32F10x_StdPeriph_Driver/src/stm32f10x_dma.c ****   }
 153:STM32F10x_StdPeriph_Driver/src/stm32f10x_dma.c ****   else if (DMAy_Channelx == DMA1_Channel6)
 167              		.loc 1 153 0
 168 00c2 264B     		ldr	r3, .L16+28
 169 00c4 9C42     		cmp	r4, r3
 170 00c6 05D1     		bne	.L9
 154:STM32F10x_StdPeriph_Driver/src/stm32f10x_dma.c ****   {
 155:STM32F10x_StdPeriph_Driver/src/stm32f10x_dma.c ****     /* Reset interrupt pending bits for DMA1 Channel6 */
 156:STM32F10x_StdPeriph_Driver/src/stm32f10x_dma.c ****     DMA1->IFCR |= DMA1_Channel6_IT_Mask;
 171              		.loc 1 156 0
 172 00c8 1F4A     		ldr	r2, .L16+8
 173 00ca 5368     		ldr	r3, [r2, #4]
 174 00cc 43F47003 		orr	r3, r3, #15728640
 175 00d0 5360     		str	r3, [r2, #4]
 176 00d2 10BD     		pop	{r4, pc}
 177              	.LVL8:
 178              	.L9:
 157:STM32F10x_StdPeriph_Driver/src/stm32f10x_dma.c ****   }
 158:STM32F10x_StdPeriph_Driver/src/stm32f10x_dma.c ****   else if (DMAy_Channelx == DMA1_Channel7)
 179              		.loc 1 158 0
 180 00d4 224B     		ldr	r3, .L16+32
 181 00d6 9C42     		cmp	r4, r3
 182 00d8 05D1     		bne	.L10
 159:STM32F10x_StdPeriph_Driver/src/stm32f10x_dma.c ****   {
 160:STM32F10x_StdPeriph_Driver/src/stm32f10x_dma.c ****     /* Reset interrupt pending bits for DMA1 Channel7 */
 161:STM32F10x_StdPeriph_Driver/src/stm32f10x_dma.c ****     DMA1->IFCR |= DMA1_Channel7_IT_Mask;
ARM GAS  /var/folders/g9/bbpj86ld7fx45vd1b3pqxmp00000gn/T//ccwT0TNs.s 			page 7


 183              		.loc 1 161 0
 184 00da 1B4A     		ldr	r2, .L16+8
 185 00dc 5368     		ldr	r3, [r2, #4]
 186 00de 43F07063 		orr	r3, r3, #251658240
 187 00e2 5360     		str	r3, [r2, #4]
 188 00e4 10BD     		pop	{r4, pc}
 189              	.LVL9:
 190              	.L10:
 162:STM32F10x_StdPeriph_Driver/src/stm32f10x_dma.c ****   }
 163:STM32F10x_StdPeriph_Driver/src/stm32f10x_dma.c ****   else if (DMAy_Channelx == DMA2_Channel1)
 191              		.loc 1 163 0
 192 00e6 1F4B     		ldr	r3, .L16+36
 193 00e8 9C42     		cmp	r4, r3
 194 00ea 05D1     		bne	.L11
 164:STM32F10x_StdPeriph_Driver/src/stm32f10x_dma.c ****   {
 165:STM32F10x_StdPeriph_Driver/src/stm32f10x_dma.c ****     /* Reset interrupt pending bits for DMA2 Channel1 */
 166:STM32F10x_StdPeriph_Driver/src/stm32f10x_dma.c ****     DMA2->IFCR |= DMA2_Channel1_IT_Mask;
 195              		.loc 1 166 0
 196 00ec 1E4A     		ldr	r2, .L16+40
 197 00ee 5368     		ldr	r3, [r2, #4]
 198 00f0 43F00F03 		orr	r3, r3, #15
 199 00f4 5360     		str	r3, [r2, #4]
 200 00f6 10BD     		pop	{r4, pc}
 201              	.LVL10:
 202              	.L11:
 167:STM32F10x_StdPeriph_Driver/src/stm32f10x_dma.c ****   }
 168:STM32F10x_StdPeriph_Driver/src/stm32f10x_dma.c ****   else if (DMAy_Channelx == DMA2_Channel2)
 203              		.loc 1 168 0
 204 00f8 1C4B     		ldr	r3, .L16+44
 205 00fa 9C42     		cmp	r4, r3
 206 00fc 05D1     		bne	.L12
 169:STM32F10x_StdPeriph_Driver/src/stm32f10x_dma.c ****   {
 170:STM32F10x_StdPeriph_Driver/src/stm32f10x_dma.c ****     /* Reset interrupt pending bits for DMA2 Channel2 */
 171:STM32F10x_StdPeriph_Driver/src/stm32f10x_dma.c ****     DMA2->IFCR |= DMA2_Channel2_IT_Mask;
 207              		.loc 1 171 0
 208 00fe 1A4A     		ldr	r2, .L16+40
 209 0100 5368     		ldr	r3, [r2, #4]
 210 0102 43F0F003 		orr	r3, r3, #240
 211 0106 5360     		str	r3, [r2, #4]
 212 0108 10BD     		pop	{r4, pc}
 213              	.LVL11:
 214              	.L12:
 172:STM32F10x_StdPeriph_Driver/src/stm32f10x_dma.c ****   }
 173:STM32F10x_StdPeriph_Driver/src/stm32f10x_dma.c ****   else if (DMAy_Channelx == DMA2_Channel3)
 215              		.loc 1 173 0
 216 010a 194B     		ldr	r3, .L16+48
 217 010c 9C42     		cmp	r4, r3
 218 010e 05D1     		bne	.L13
 174:STM32F10x_StdPeriph_Driver/src/stm32f10x_dma.c ****   {
 175:STM32F10x_StdPeriph_Driver/src/stm32f10x_dma.c ****     /* Reset interrupt pending bits for DMA2 Channel3 */
 176:STM32F10x_StdPeriph_Driver/src/stm32f10x_dma.c ****     DMA2->IFCR |= DMA2_Channel3_IT_Mask;
 219              		.loc 1 176 0
 220 0110 154A     		ldr	r2, .L16+40
 221 0112 5368     		ldr	r3, [r2, #4]
 222 0114 43F47063 		orr	r3, r3, #3840
 223 0118 5360     		str	r3, [r2, #4]
 224 011a 10BD     		pop	{r4, pc}
ARM GAS  /var/folders/g9/bbpj86ld7fx45vd1b3pqxmp00000gn/T//ccwT0TNs.s 			page 8


 225              	.LVL12:
 226              	.L13:
 177:STM32F10x_StdPeriph_Driver/src/stm32f10x_dma.c ****   }
 178:STM32F10x_StdPeriph_Driver/src/stm32f10x_dma.c ****   else if (DMAy_Channelx == DMA2_Channel4)
 227              		.loc 1 178 0
 228 011c 154B     		ldr	r3, .L16+52
 229 011e 9C42     		cmp	r4, r3
 230 0120 05D1     		bne	.L14
 179:STM32F10x_StdPeriph_Driver/src/stm32f10x_dma.c ****   {
 180:STM32F10x_StdPeriph_Driver/src/stm32f10x_dma.c ****     /* Reset interrupt pending bits for DMA2 Channel4 */
 181:STM32F10x_StdPeriph_Driver/src/stm32f10x_dma.c ****     DMA2->IFCR |= DMA2_Channel4_IT_Mask;
 231              		.loc 1 181 0
 232 0122 114A     		ldr	r2, .L16+40
 233 0124 5368     		ldr	r3, [r2, #4]
 234 0126 43F47043 		orr	r3, r3, #61440
 235 012a 5360     		str	r3, [r2, #4]
 236 012c 10BD     		pop	{r4, pc}
 237              	.LVL13:
 238              	.L14:
 182:STM32F10x_StdPeriph_Driver/src/stm32f10x_dma.c ****   }
 183:STM32F10x_StdPeriph_Driver/src/stm32f10x_dma.c ****   else
 184:STM32F10x_StdPeriph_Driver/src/stm32f10x_dma.c ****   { 
 185:STM32F10x_StdPeriph_Driver/src/stm32f10x_dma.c ****     if (DMAy_Channelx == DMA2_Channel5)
 239              		.loc 1 185 0
 240 012e 124B     		ldr	r3, .L16+56
 241 0130 9C42     		cmp	r4, r3
 242 0132 04D1     		bne	.L1
 186:STM32F10x_StdPeriph_Driver/src/stm32f10x_dma.c ****     {
 187:STM32F10x_StdPeriph_Driver/src/stm32f10x_dma.c ****       /* Reset interrupt pending bits for DMA2 Channel5 */
 188:STM32F10x_StdPeriph_Driver/src/stm32f10x_dma.c ****       DMA2->IFCR |= DMA2_Channel5_IT_Mask;
 243              		.loc 1 188 0
 244 0134 0C4A     		ldr	r2, .L16+40
 245 0136 5368     		ldr	r3, [r2, #4]
 246 0138 43F47023 		orr	r3, r3, #983040
 247 013c 5360     		str	r3, [r2, #4]
 248              	.L1:
 249 013e 10BD     		pop	{r4, pc}
 250              	.LVL14:
 251              	.L17:
 252              		.align	2
 253              	.L16:
 254 0140 08000240 		.word	1073872904
 255 0144 00000000 		.word	.LC0
 256 0148 00000240 		.word	1073872896
 257 014c 1C000240 		.word	1073872924
 258 0150 30000240 		.word	1073872944
 259 0154 44000240 		.word	1073872964
 260 0158 58000240 		.word	1073872984
 261 015c 6C000240 		.word	1073873004
 262 0160 80000240 		.word	1073873024
 263 0164 08040240 		.word	1073873928
 264 0168 00040240 		.word	1073873920
 265 016c 1C040240 		.word	1073873948
 266 0170 30040240 		.word	1073873968
 267 0174 44040240 		.word	1073873988
 268 0178 58040240 		.word	1073874008
 269              		.cfi_endproc
ARM GAS  /var/folders/g9/bbpj86ld7fx45vd1b3pqxmp00000gn/T//ccwT0TNs.s 			page 9


 270              	.LFE27:
 272              		.section	.text.DMA_Init,"ax",%progbits
 273              		.align	2
 274              		.global	DMA_Init
 275              		.thumb
 276              		.thumb_func
 278              	DMA_Init:
 279              	.LFB28:
 189:STM32F10x_StdPeriph_Driver/src/stm32f10x_dma.c ****     }
 190:STM32F10x_StdPeriph_Driver/src/stm32f10x_dma.c ****   }
 191:STM32F10x_StdPeriph_Driver/src/stm32f10x_dma.c **** }
 192:STM32F10x_StdPeriph_Driver/src/stm32f10x_dma.c **** 
 193:STM32F10x_StdPeriph_Driver/src/stm32f10x_dma.c **** /**
 194:STM32F10x_StdPeriph_Driver/src/stm32f10x_dma.c ****   * @brief  Initializes the DMAy Channelx according to the specified
 195:STM32F10x_StdPeriph_Driver/src/stm32f10x_dma.c ****   *   parameters in the DMA_InitStruct.
 196:STM32F10x_StdPeriph_Driver/src/stm32f10x_dma.c ****   * @param  DMAy_Channelx: where y can be 1 or 2 to select the DMA and 
 197:STM32F10x_StdPeriph_Driver/src/stm32f10x_dma.c ****   *   x can be 1 to 7 for DMA1 and 1 to 5 for DMA2 to select the DMA Channel.
 198:STM32F10x_StdPeriph_Driver/src/stm32f10x_dma.c ****   * @param  DMA_InitStruct: pointer to a DMA_InitTypeDef structure that
 199:STM32F10x_StdPeriph_Driver/src/stm32f10x_dma.c ****   *   contains the configuration information for the specified DMA Channel.
 200:STM32F10x_StdPeriph_Driver/src/stm32f10x_dma.c ****   * @retval None
 201:STM32F10x_StdPeriph_Driver/src/stm32f10x_dma.c ****   */
 202:STM32F10x_StdPeriph_Driver/src/stm32f10x_dma.c **** void DMA_Init(DMA_Channel_TypeDef* DMAy_Channelx, DMA_InitTypeDef* DMA_InitStruct)
 203:STM32F10x_StdPeriph_Driver/src/stm32f10x_dma.c **** {
 280              		.loc 1 203 0
 281              		.cfi_startproc
 282              		@ args = 0, pretend = 0, frame = 0
 283              		@ frame_needed = 0, uses_anonymous_args = 0
 284              	.LVL15:
 285 0000 38B5     		push	{r3, r4, r5, lr}
 286              	.LCFI1:
 287              		.cfi_def_cfa_offset 16
 288              		.cfi_offset 3, -16
 289              		.cfi_offset 4, -12
 290              		.cfi_offset 5, -8
 291              		.cfi_offset 14, -4
 292 0002 0546     		mov	r5, r0
 293 0004 0C46     		mov	r4, r1
 294              	.LVL16:
 204:STM32F10x_StdPeriph_Driver/src/stm32f10x_dma.c ****   uint32_t tmpreg = 0;
 205:STM32F10x_StdPeriph_Driver/src/stm32f10x_dma.c **** 
 206:STM32F10x_StdPeriph_Driver/src/stm32f10x_dma.c ****   /* Check the parameters */
 207:STM32F10x_StdPeriph_Driver/src/stm32f10x_dma.c ****   assert_param(IS_DMA_ALL_PERIPH(DMAy_Channelx));
 295              		.loc 1 207 0
 296 0006 504B     		ldr	r3, .L30
 297 0008 9842     		cmp	r0, r3
 298 000a 25D0     		beq	.L19
 299              		.loc 1 207 0 is_stmt 0 discriminator 1
 300 000c 1433     		adds	r3, r3, #20
 301 000e 9842     		cmp	r0, r3
 302 0010 22D0     		beq	.L19
 303              		.loc 1 207 0 discriminator 2
 304 0012 1433     		adds	r3, r3, #20
 305 0014 9842     		cmp	r0, r3
 306 0016 1FD0     		beq	.L19
 307              		.loc 1 207 0 discriminator 3
 308 0018 1433     		adds	r3, r3, #20
 309 001a 9842     		cmp	r0, r3
ARM GAS  /var/folders/g9/bbpj86ld7fx45vd1b3pqxmp00000gn/T//ccwT0TNs.s 			page 10


 310 001c 1CD0     		beq	.L19
 311              		.loc 1 207 0 discriminator 4
 312 001e 1433     		adds	r3, r3, #20
 313 0020 9842     		cmp	r0, r3
 314 0022 19D0     		beq	.L19
 315              		.loc 1 207 0 discriminator 5
 316 0024 1433     		adds	r3, r3, #20
 317 0026 9842     		cmp	r0, r3
 318 0028 16D0     		beq	.L19
 319              		.loc 1 207 0 discriminator 6
 320 002a 1433     		adds	r3, r3, #20
 321 002c 9842     		cmp	r0, r3
 322 002e 13D0     		beq	.L19
 323              		.loc 1 207 0 discriminator 7
 324 0030 03F56273 		add	r3, r3, #904
 325 0034 9842     		cmp	r0, r3
 326 0036 0FD0     		beq	.L19
 327              		.loc 1 207 0 discriminator 8
 328 0038 1433     		adds	r3, r3, #20
 329 003a 9842     		cmp	r0, r3
 330 003c 0CD0     		beq	.L19
 331              		.loc 1 207 0 discriminator 9
 332 003e 1433     		adds	r3, r3, #20
 333 0040 9842     		cmp	r0, r3
 334 0042 09D0     		beq	.L19
 335              		.loc 1 207 0 discriminator 10
 336 0044 1433     		adds	r3, r3, #20
 337 0046 9842     		cmp	r0, r3
 338 0048 06D0     		beq	.L19
 339              		.loc 1 207 0 discriminator 11
 340 004a 1433     		adds	r3, r3, #20
 341 004c 9842     		cmp	r0, r3
 342 004e 03D0     		beq	.L19
 343              		.loc 1 207 0 discriminator 12
 344 0050 CF21     		movs	r1, #207
 345              	.LVL17:
 346 0052 3E48     		ldr	r0, .L30+4
 347              	.LVL18:
 348 0054 FFF7FEFF 		bl	assert_failed
 349              	.LVL19:
 350              	.L19:
 208:STM32F10x_StdPeriph_Driver/src/stm32f10x_dma.c ****   assert_param(IS_DMA_DIR(DMA_InitStruct->DMA_DIR));
 351              		.loc 1 208 0 is_stmt 1
 352 0058 A368     		ldr	r3, [r4, #8]
 353 005a 102B     		cmp	r3, #16
 354 005c 04D0     		beq	.L20
 355              		.loc 1 208 0 is_stmt 0 discriminator 1
 356 005e 1BB1     		cbz	r3, .L20
 357              		.loc 1 208 0 discriminator 2
 358 0060 D021     		movs	r1, #208
 359 0062 3A48     		ldr	r0, .L30+4
 360 0064 FFF7FEFF 		bl	assert_failed
 361              	.LVL20:
 362              	.L20:
 209:STM32F10x_StdPeriph_Driver/src/stm32f10x_dma.c ****   assert_param(IS_DMA_BUFFER_SIZE(DMA_InitStruct->DMA_BufferSize));
 363              		.loc 1 209 0 is_stmt 1
 364 0068 E368     		ldr	r3, [r4, #12]
ARM GAS  /var/folders/g9/bbpj86ld7fx45vd1b3pqxmp00000gn/T//ccwT0TNs.s 			page 11


 365 006a 013B     		subs	r3, r3, #1
 366 006c 4FF6FE72 		movw	r2, #65534
 367 0070 9342     		cmp	r3, r2
 368 0072 03D9     		bls	.L21
 369              		.loc 1 209 0 is_stmt 0 discriminator 1
 370 0074 D121     		movs	r1, #209
 371 0076 3548     		ldr	r0, .L30+4
 372 0078 FFF7FEFF 		bl	assert_failed
 373              	.LVL21:
 374              	.L21:
 210:STM32F10x_StdPeriph_Driver/src/stm32f10x_dma.c ****   assert_param(IS_DMA_PERIPHERAL_INC_STATE(DMA_InitStruct->DMA_PeripheralInc));
 375              		.loc 1 210 0 is_stmt 1
 376 007c 2369     		ldr	r3, [r4, #16]
 377 007e 402B     		cmp	r3, #64
 378 0080 04D0     		beq	.L22
 379              		.loc 1 210 0 is_stmt 0 discriminator 1
 380 0082 1BB1     		cbz	r3, .L22
 381              		.loc 1 210 0 discriminator 2
 382 0084 D221     		movs	r1, #210
 383 0086 3148     		ldr	r0, .L30+4
 384 0088 FFF7FEFF 		bl	assert_failed
 385              	.LVL22:
 386              	.L22:
 211:STM32F10x_StdPeriph_Driver/src/stm32f10x_dma.c ****   assert_param(IS_DMA_MEMORY_INC_STATE(DMA_InitStruct->DMA_MemoryInc));   
 387              		.loc 1 211 0 is_stmt 1
 388 008c 6369     		ldr	r3, [r4, #20]
 389 008e 802B     		cmp	r3, #128
 390 0090 04D0     		beq	.L23
 391              		.loc 1 211 0 is_stmt 0 discriminator 1
 392 0092 1BB1     		cbz	r3, .L23
 393              		.loc 1 211 0 discriminator 2
 394 0094 D321     		movs	r1, #211
 395 0096 2D48     		ldr	r0, .L30+4
 396 0098 FFF7FEFF 		bl	assert_failed
 397              	.LVL23:
 398              	.L23:
 212:STM32F10x_StdPeriph_Driver/src/stm32f10x_dma.c ****   assert_param(IS_DMA_PERIPHERAL_DATA_SIZE(DMA_InitStruct->DMA_PeripheralDataSize));
 399              		.loc 1 212 0 is_stmt 1
 400 009c A369     		ldr	r3, [r4, #24]
 401 009e 4BB1     		cbz	r3, .L24
 402              		.loc 1 212 0 is_stmt 0 discriminator 1
 403 00a0 B3F5807F 		cmp	r3, #256
 404 00a4 06D0     		beq	.L24
 405              		.loc 1 212 0 discriminator 2
 406 00a6 B3F5007F 		cmp	r3, #512
 407 00aa 03D0     		beq	.L24
 408              		.loc 1 212 0 discriminator 3
 409 00ac D421     		movs	r1, #212
 410 00ae 2748     		ldr	r0, .L30+4
 411 00b0 FFF7FEFF 		bl	assert_failed
 412              	.LVL24:
 413              	.L24:
 213:STM32F10x_StdPeriph_Driver/src/stm32f10x_dma.c ****   assert_param(IS_DMA_MEMORY_DATA_SIZE(DMA_InitStruct->DMA_MemoryDataSize));
 414              		.loc 1 213 0 is_stmt 1
 415 00b4 E369     		ldr	r3, [r4, #28]
 416 00b6 4BB1     		cbz	r3, .L25
 417              		.loc 1 213 0 is_stmt 0 discriminator 1
ARM GAS  /var/folders/g9/bbpj86ld7fx45vd1b3pqxmp00000gn/T//ccwT0TNs.s 			page 12


 418 00b8 B3F5806F 		cmp	r3, #1024
 419 00bc 06D0     		beq	.L25
 420              		.loc 1 213 0 discriminator 2
 421 00be B3F5006F 		cmp	r3, #2048
 422 00c2 03D0     		beq	.L25
 423              		.loc 1 213 0 discriminator 3
 424 00c4 D521     		movs	r1, #213
 425 00c6 2148     		ldr	r0, .L30+4
 426 00c8 FFF7FEFF 		bl	assert_failed
 427              	.LVL25:
 428              	.L25:
 214:STM32F10x_StdPeriph_Driver/src/stm32f10x_dma.c ****   assert_param(IS_DMA_MODE(DMA_InitStruct->DMA_Mode));
 429              		.loc 1 214 0 is_stmt 1
 430 00cc 236A     		ldr	r3, [r4, #32]
 431 00ce 202B     		cmp	r3, #32
 432 00d0 04D0     		beq	.L26
 433              		.loc 1 214 0 is_stmt 0 discriminator 1
 434 00d2 1BB1     		cbz	r3, .L26
 435              		.loc 1 214 0 discriminator 2
 436 00d4 D621     		movs	r1, #214
 437 00d6 1D48     		ldr	r0, .L30+4
 438 00d8 FFF7FEFF 		bl	assert_failed
 439              	.LVL26:
 440              	.L26:
 215:STM32F10x_StdPeriph_Driver/src/stm32f10x_dma.c ****   assert_param(IS_DMA_PRIORITY(DMA_InitStruct->DMA_Priority));
 441              		.loc 1 215 0 is_stmt 1
 442 00dc 636A     		ldr	r3, [r4, #36]
 443 00de B3F5405F 		cmp	r3, #12288
 444 00e2 0AD0     		beq	.L27
 445              		.loc 1 215 0 is_stmt 0 discriminator 1
 446 00e4 B3F5005F 		cmp	r3, #8192
 447 00e8 07D0     		beq	.L27
 448              		.loc 1 215 0 discriminator 2
 449 00ea B3F5805F 		cmp	r3, #4096
 450 00ee 04D0     		beq	.L27
 451              		.loc 1 215 0 discriminator 3
 452 00f0 1BB1     		cbz	r3, .L27
 453              		.loc 1 215 0 discriminator 4
 454 00f2 D721     		movs	r1, #215
 455 00f4 1548     		ldr	r0, .L30+4
 456 00f6 FFF7FEFF 		bl	assert_failed
 457              	.LVL27:
 458              	.L27:
 216:STM32F10x_StdPeriph_Driver/src/stm32f10x_dma.c ****   assert_param(IS_DMA_M2M_STATE(DMA_InitStruct->DMA_M2M));
 459              		.loc 1 216 0 is_stmt 1
 460 00fa A36A     		ldr	r3, [r4, #40]
 461 00fc B3F5804F 		cmp	r3, #16384
 462 0100 04D0     		beq	.L28
 463              		.loc 1 216 0 is_stmt 0 discriminator 1
 464 0102 1BB1     		cbz	r3, .L28
 465              		.loc 1 216 0 discriminator 2
 466 0104 D821     		movs	r1, #216
 467 0106 1148     		ldr	r0, .L30+4
 468 0108 FFF7FEFF 		bl	assert_failed
 469              	.LVL28:
 470              	.L28:
 217:STM32F10x_StdPeriph_Driver/src/stm32f10x_dma.c **** 
ARM GAS  /var/folders/g9/bbpj86ld7fx45vd1b3pqxmp00000gn/T//ccwT0TNs.s 			page 13


 218:STM32F10x_StdPeriph_Driver/src/stm32f10x_dma.c **** /*--------------------------- DMAy Channelx CCR Configuration -----------------*/
 219:STM32F10x_StdPeriph_Driver/src/stm32f10x_dma.c ****   /* Get the DMAy_Channelx CCR value */
 220:STM32F10x_StdPeriph_Driver/src/stm32f10x_dma.c ****   tmpreg = DMAy_Channelx->CCR;
 471              		.loc 1 220 0 is_stmt 1
 472 010c 2B68     		ldr	r3, [r5]
 473              	.LVL29:
 221:STM32F10x_StdPeriph_Driver/src/stm32f10x_dma.c ****   /* Clear MEM2MEM, PL, MSIZE, PSIZE, MINC, PINC, CIRC and DIR bits */
 222:STM32F10x_StdPeriph_Driver/src/stm32f10x_dma.c ****   tmpreg &= CCR_CLEAR_Mask;
 474              		.loc 1 222 0
 475 010e 23F4FF42 		bic	r2, r3, #32640
 476 0112 22F07002 		bic	r2, r2, #112
 477              	.LVL30:
 223:STM32F10x_StdPeriph_Driver/src/stm32f10x_dma.c ****   /* Configure DMAy Channelx: data transfer, data size, priority level and mode */
 224:STM32F10x_StdPeriph_Driver/src/stm32f10x_dma.c ****   /* Set DIR bit according to DMA_DIR value */
 225:STM32F10x_StdPeriph_Driver/src/stm32f10x_dma.c ****   /* Set CIRC bit according to DMA_Mode value */
 226:STM32F10x_StdPeriph_Driver/src/stm32f10x_dma.c ****   /* Set PINC bit according to DMA_PeripheralInc value */
 227:STM32F10x_StdPeriph_Driver/src/stm32f10x_dma.c ****   /* Set MINC bit according to DMA_MemoryInc value */
 228:STM32F10x_StdPeriph_Driver/src/stm32f10x_dma.c ****   /* Set PSIZE bits according to DMA_PeripheralDataSize value */
 229:STM32F10x_StdPeriph_Driver/src/stm32f10x_dma.c ****   /* Set MSIZE bits according to DMA_MemoryDataSize value */
 230:STM32F10x_StdPeriph_Driver/src/stm32f10x_dma.c ****   /* Set PL bits according to DMA_Priority value */
 231:STM32F10x_StdPeriph_Driver/src/stm32f10x_dma.c ****   /* Set the MEM2MEM bit according to DMA_M2M value */
 232:STM32F10x_StdPeriph_Driver/src/stm32f10x_dma.c ****   tmpreg |= DMA_InitStruct->DMA_DIR | DMA_InitStruct->DMA_Mode |
 478              		.loc 1 232 0
 479 0116 A168     		ldr	r1, [r4, #8]
 480 0118 236A     		ldr	r3, [r4, #32]
 481 011a 1943     		orrs	r1, r1, r3
 233:STM32F10x_StdPeriph_Driver/src/stm32f10x_dma.c ****             DMA_InitStruct->DMA_PeripheralInc | DMA_InitStruct->DMA_MemoryInc |
 482              		.loc 1 233 0
 483 011c 2369     		ldr	r3, [r4, #16]
 232:STM32F10x_StdPeriph_Driver/src/stm32f10x_dma.c ****             DMA_InitStruct->DMA_PeripheralInc | DMA_InitStruct->DMA_MemoryInc |
 484              		.loc 1 232 0
 485 011e 1943     		orrs	r1, r1, r3
 486              		.loc 1 233 0
 487 0120 6369     		ldr	r3, [r4, #20]
 488 0122 1943     		orrs	r1, r1, r3
 234:STM32F10x_StdPeriph_Driver/src/stm32f10x_dma.c ****             DMA_InitStruct->DMA_PeripheralDataSize | DMA_InitStruct->DMA_MemoryDataSize |
 489              		.loc 1 234 0
 490 0124 A369     		ldr	r3, [r4, #24]
 233:STM32F10x_StdPeriph_Driver/src/stm32f10x_dma.c ****             DMA_InitStruct->DMA_PeripheralInc | DMA_InitStruct->DMA_MemoryInc |
 491              		.loc 1 233 0
 492 0126 1943     		orrs	r1, r1, r3
 493              		.loc 1 234 0
 494 0128 E369     		ldr	r3, [r4, #28]
 495 012a 1943     		orrs	r1, r1, r3
 235:STM32F10x_StdPeriph_Driver/src/stm32f10x_dma.c ****             DMA_InitStruct->DMA_Priority | DMA_InitStruct->DMA_M2M;
 496              		.loc 1 235 0
 497 012c 636A     		ldr	r3, [r4, #36]
 234:STM32F10x_StdPeriph_Driver/src/stm32f10x_dma.c ****             DMA_InitStruct->DMA_PeripheralDataSize | DMA_InitStruct->DMA_MemoryDataSize |
 498              		.loc 1 234 0
 499 012e 1943     		orrs	r1, r1, r3
 500              		.loc 1 235 0
 501 0130 A36A     		ldr	r3, [r4, #40]
 502 0132 0B43     		orrs	r3, r3, r1
 232:STM32F10x_StdPeriph_Driver/src/stm32f10x_dma.c ****             DMA_InitStruct->DMA_PeripheralInc | DMA_InitStruct->DMA_MemoryInc |
 503              		.loc 1 232 0
 504 0134 1343     		orrs	r3, r3, r2
 505              	.LVL31:
ARM GAS  /var/folders/g9/bbpj86ld7fx45vd1b3pqxmp00000gn/T//ccwT0TNs.s 			page 14


 236:STM32F10x_StdPeriph_Driver/src/stm32f10x_dma.c **** 
 237:STM32F10x_StdPeriph_Driver/src/stm32f10x_dma.c ****   /* Write to DMAy Channelx CCR */
 238:STM32F10x_StdPeriph_Driver/src/stm32f10x_dma.c ****   DMAy_Channelx->CCR = tmpreg;
 506              		.loc 1 238 0
 507 0136 2B60     		str	r3, [r5]
 239:STM32F10x_StdPeriph_Driver/src/stm32f10x_dma.c **** 
 240:STM32F10x_StdPeriph_Driver/src/stm32f10x_dma.c **** /*--------------------------- DMAy Channelx CNDTR Configuration ---------------*/
 241:STM32F10x_StdPeriph_Driver/src/stm32f10x_dma.c ****   /* Write to DMAy Channelx CNDTR */
 242:STM32F10x_StdPeriph_Driver/src/stm32f10x_dma.c ****   DMAy_Channelx->CNDTR = DMA_InitStruct->DMA_BufferSize;
 508              		.loc 1 242 0
 509 0138 E368     		ldr	r3, [r4, #12]
 510              	.LVL32:
 511 013a 6B60     		str	r3, [r5, #4]
 512              	.LVL33:
 243:STM32F10x_StdPeriph_Driver/src/stm32f10x_dma.c **** 
 244:STM32F10x_StdPeriph_Driver/src/stm32f10x_dma.c **** /*--------------------------- DMAy Channelx CPAR Configuration ----------------*/
 245:STM32F10x_StdPeriph_Driver/src/stm32f10x_dma.c ****   /* Write to DMAy Channelx CPAR */
 246:STM32F10x_StdPeriph_Driver/src/stm32f10x_dma.c ****   DMAy_Channelx->CPAR = DMA_InitStruct->DMA_PeripheralBaseAddr;
 513              		.loc 1 246 0
 514 013c 2368     		ldr	r3, [r4]
 515 013e AB60     		str	r3, [r5, #8]
 247:STM32F10x_StdPeriph_Driver/src/stm32f10x_dma.c **** 
 248:STM32F10x_StdPeriph_Driver/src/stm32f10x_dma.c **** /*--------------------------- DMAy Channelx CMAR Configuration ----------------*/
 249:STM32F10x_StdPeriph_Driver/src/stm32f10x_dma.c ****   /* Write to DMAy Channelx CMAR */
 250:STM32F10x_StdPeriph_Driver/src/stm32f10x_dma.c ****   DMAy_Channelx->CMAR = DMA_InitStruct->DMA_MemoryBaseAddr;
 516              		.loc 1 250 0
 517 0140 6368     		ldr	r3, [r4, #4]
 518 0142 EB60     		str	r3, [r5, #12]
 519 0144 38BD     		pop	{r3, r4, r5, pc}
 520              	.LVL34:
 521              	.L31:
 522 0146 00BF     		.align	2
 523              	.L30:
 524 0148 08000240 		.word	1073872904
 525 014c 00000000 		.word	.LC0
 526              		.cfi_endproc
 527              	.LFE28:
 529              		.section	.text.DMA_StructInit,"ax",%progbits
 530              		.align	2
 531              		.global	DMA_StructInit
 532              		.thumb
 533              		.thumb_func
 535              	DMA_StructInit:
 536              	.LFB29:
 251:STM32F10x_StdPeriph_Driver/src/stm32f10x_dma.c **** }
 252:STM32F10x_StdPeriph_Driver/src/stm32f10x_dma.c **** 
 253:STM32F10x_StdPeriph_Driver/src/stm32f10x_dma.c **** /**
 254:STM32F10x_StdPeriph_Driver/src/stm32f10x_dma.c ****   * @brief  Fills each DMA_InitStruct member with its default value.
 255:STM32F10x_StdPeriph_Driver/src/stm32f10x_dma.c ****   * @param  DMA_InitStruct : pointer to a DMA_InitTypeDef structure which will
 256:STM32F10x_StdPeriph_Driver/src/stm32f10x_dma.c ****   *   be initialized.
 257:STM32F10x_StdPeriph_Driver/src/stm32f10x_dma.c ****   * @retval None
 258:STM32F10x_StdPeriph_Driver/src/stm32f10x_dma.c ****   */
 259:STM32F10x_StdPeriph_Driver/src/stm32f10x_dma.c **** void DMA_StructInit(DMA_InitTypeDef* DMA_InitStruct)
 260:STM32F10x_StdPeriph_Driver/src/stm32f10x_dma.c **** {
 537              		.loc 1 260 0
 538              		.cfi_startproc
 539              		@ args = 0, pretend = 0, frame = 0
ARM GAS  /var/folders/g9/bbpj86ld7fx45vd1b3pqxmp00000gn/T//ccwT0TNs.s 			page 15


 540              		@ frame_needed = 0, uses_anonymous_args = 0
 541              		@ link register save eliminated.
 542              	.LVL35:
 261:STM32F10x_StdPeriph_Driver/src/stm32f10x_dma.c **** /*-------------- Reset DMA init structure parameters values ------------------*/
 262:STM32F10x_StdPeriph_Driver/src/stm32f10x_dma.c ****   /* Initialize the DMA_PeripheralBaseAddr member */
 263:STM32F10x_StdPeriph_Driver/src/stm32f10x_dma.c ****   DMA_InitStruct->DMA_PeripheralBaseAddr = 0;
 543              		.loc 1 263 0
 544 0000 0023     		movs	r3, #0
 545 0002 0360     		str	r3, [r0]
 264:STM32F10x_StdPeriph_Driver/src/stm32f10x_dma.c ****   /* Initialize the DMA_MemoryBaseAddr member */
 265:STM32F10x_StdPeriph_Driver/src/stm32f10x_dma.c ****   DMA_InitStruct->DMA_MemoryBaseAddr = 0;
 546              		.loc 1 265 0
 547 0004 4360     		str	r3, [r0, #4]
 266:STM32F10x_StdPeriph_Driver/src/stm32f10x_dma.c ****   /* Initialize the DMA_DIR member */
 267:STM32F10x_StdPeriph_Driver/src/stm32f10x_dma.c ****   DMA_InitStruct->DMA_DIR = DMA_DIR_PeripheralSRC;
 548              		.loc 1 267 0
 549 0006 8360     		str	r3, [r0, #8]
 268:STM32F10x_StdPeriph_Driver/src/stm32f10x_dma.c ****   /* Initialize the DMA_BufferSize member */
 269:STM32F10x_StdPeriph_Driver/src/stm32f10x_dma.c ****   DMA_InitStruct->DMA_BufferSize = 0;
 550              		.loc 1 269 0
 551 0008 C360     		str	r3, [r0, #12]
 270:STM32F10x_StdPeriph_Driver/src/stm32f10x_dma.c ****   /* Initialize the DMA_PeripheralInc member */
 271:STM32F10x_StdPeriph_Driver/src/stm32f10x_dma.c ****   DMA_InitStruct->DMA_PeripheralInc = DMA_PeripheralInc_Disable;
 552              		.loc 1 271 0
 553 000a 0361     		str	r3, [r0, #16]
 272:STM32F10x_StdPeriph_Driver/src/stm32f10x_dma.c ****   /* Initialize the DMA_MemoryInc member */
 273:STM32F10x_StdPeriph_Driver/src/stm32f10x_dma.c ****   DMA_InitStruct->DMA_MemoryInc = DMA_MemoryInc_Disable;
 554              		.loc 1 273 0
 555 000c 4361     		str	r3, [r0, #20]
 274:STM32F10x_StdPeriph_Driver/src/stm32f10x_dma.c ****   /* Initialize the DMA_PeripheralDataSize member */
 275:STM32F10x_StdPeriph_Driver/src/stm32f10x_dma.c ****   DMA_InitStruct->DMA_PeripheralDataSize = DMA_PeripheralDataSize_Byte;
 556              		.loc 1 275 0
 557 000e 8361     		str	r3, [r0, #24]
 276:STM32F10x_StdPeriph_Driver/src/stm32f10x_dma.c ****   /* Initialize the DMA_MemoryDataSize member */
 277:STM32F10x_StdPeriph_Driver/src/stm32f10x_dma.c ****   DMA_InitStruct->DMA_MemoryDataSize = DMA_MemoryDataSize_Byte;
 558              		.loc 1 277 0
 559 0010 C361     		str	r3, [r0, #28]
 278:STM32F10x_StdPeriph_Driver/src/stm32f10x_dma.c ****   /* Initialize the DMA_Mode member */
 279:STM32F10x_StdPeriph_Driver/src/stm32f10x_dma.c ****   DMA_InitStruct->DMA_Mode = DMA_Mode_Normal;
 560              		.loc 1 279 0
 561 0012 0362     		str	r3, [r0, #32]
 280:STM32F10x_StdPeriph_Driver/src/stm32f10x_dma.c ****   /* Initialize the DMA_Priority member */
 281:STM32F10x_StdPeriph_Driver/src/stm32f10x_dma.c ****   DMA_InitStruct->DMA_Priority = DMA_Priority_Low;
 562              		.loc 1 281 0
 563 0014 4362     		str	r3, [r0, #36]
 282:STM32F10x_StdPeriph_Driver/src/stm32f10x_dma.c ****   /* Initialize the DMA_M2M member */
 283:STM32F10x_StdPeriph_Driver/src/stm32f10x_dma.c ****   DMA_InitStruct->DMA_M2M = DMA_M2M_Disable;
 564              		.loc 1 283 0
 565 0016 8362     		str	r3, [r0, #40]
 566 0018 7047     		bx	lr
 567              		.cfi_endproc
 568              	.LFE29:
 570 001a 00BF     		.section	.text.DMA_Cmd,"ax",%progbits
 571              		.align	2
 572              		.global	DMA_Cmd
 573              		.thumb
 574              		.thumb_func
ARM GAS  /var/folders/g9/bbpj86ld7fx45vd1b3pqxmp00000gn/T//ccwT0TNs.s 			page 16


 576              	DMA_Cmd:
 577              	.LFB30:
 284:STM32F10x_StdPeriph_Driver/src/stm32f10x_dma.c **** }
 285:STM32F10x_StdPeriph_Driver/src/stm32f10x_dma.c **** 
 286:STM32F10x_StdPeriph_Driver/src/stm32f10x_dma.c **** /**
 287:STM32F10x_StdPeriph_Driver/src/stm32f10x_dma.c ****   * @brief  Enables or disables the specified DMAy Channelx.
 288:STM32F10x_StdPeriph_Driver/src/stm32f10x_dma.c ****   * @param  DMAy_Channelx: where y can be 1 or 2 to select the DMA and 
 289:STM32F10x_StdPeriph_Driver/src/stm32f10x_dma.c ****   *   x can be 1 to 7 for DMA1 and 1 to 5 for DMA2 to select the DMA Channel.
 290:STM32F10x_StdPeriph_Driver/src/stm32f10x_dma.c ****   * @param  NewState: new state of the DMAy Channelx. 
 291:STM32F10x_StdPeriph_Driver/src/stm32f10x_dma.c ****   *   This parameter can be: ENABLE or DISABLE.
 292:STM32F10x_StdPeriph_Driver/src/stm32f10x_dma.c ****   * @retval None
 293:STM32F10x_StdPeriph_Driver/src/stm32f10x_dma.c ****   */
 294:STM32F10x_StdPeriph_Driver/src/stm32f10x_dma.c **** void DMA_Cmd(DMA_Channel_TypeDef* DMAy_Channelx, FunctionalState NewState)
 295:STM32F10x_StdPeriph_Driver/src/stm32f10x_dma.c **** {
 578              		.loc 1 295 0
 579              		.cfi_startproc
 580              		@ args = 0, pretend = 0, frame = 0
 581              		@ frame_needed = 0, uses_anonymous_args = 0
 582              	.LVL36:
 583 0000 38B5     		push	{r3, r4, r5, lr}
 584              	.LCFI2:
 585              		.cfi_def_cfa_offset 16
 586              		.cfi_offset 3, -16
 587              		.cfi_offset 4, -12
 588              		.cfi_offset 5, -8
 589              		.cfi_offset 14, -4
 590 0002 0446     		mov	r4, r0
 591 0004 0D46     		mov	r5, r1
 296:STM32F10x_StdPeriph_Driver/src/stm32f10x_dma.c ****   /* Check the parameters */
 297:STM32F10x_StdPeriph_Driver/src/stm32f10x_dma.c ****   assert_param(IS_DMA_ALL_PERIPH(DMAy_Channelx));
 592              		.loc 1 297 0
 593 0006 1E4B     		ldr	r3, .L39
 594 0008 9842     		cmp	r0, r3
 595 000a 26D0     		beq	.L34
 596              		.loc 1 297 0 is_stmt 0 discriminator 1
 597 000c 1433     		adds	r3, r3, #20
 598 000e 9842     		cmp	r0, r3
 599 0010 23D0     		beq	.L34
 600              		.loc 1 297 0 discriminator 2
 601 0012 1433     		adds	r3, r3, #20
 602 0014 9842     		cmp	r0, r3
 603 0016 20D0     		beq	.L34
 604              		.loc 1 297 0 discriminator 3
 605 0018 1433     		adds	r3, r3, #20
 606 001a 9842     		cmp	r0, r3
 607 001c 1DD0     		beq	.L34
 608              		.loc 1 297 0 discriminator 4
 609 001e 1433     		adds	r3, r3, #20
 610 0020 9842     		cmp	r0, r3
 611 0022 1AD0     		beq	.L34
 612              		.loc 1 297 0 discriminator 5
 613 0024 1433     		adds	r3, r3, #20
 614 0026 9842     		cmp	r0, r3
 615 0028 17D0     		beq	.L34
 616              		.loc 1 297 0 discriminator 6
 617 002a 1433     		adds	r3, r3, #20
 618 002c 9842     		cmp	r0, r3
ARM GAS  /var/folders/g9/bbpj86ld7fx45vd1b3pqxmp00000gn/T//ccwT0TNs.s 			page 17


 619 002e 14D0     		beq	.L34
 620              		.loc 1 297 0 discriminator 7
 621 0030 03F56273 		add	r3, r3, #904
 622 0034 9842     		cmp	r0, r3
 623 0036 10D0     		beq	.L34
 624              		.loc 1 297 0 discriminator 8
 625 0038 1433     		adds	r3, r3, #20
 626 003a 9842     		cmp	r0, r3
 627 003c 0DD0     		beq	.L34
 628              		.loc 1 297 0 discriminator 9
 629 003e 1433     		adds	r3, r3, #20
 630 0040 9842     		cmp	r0, r3
 631 0042 0AD0     		beq	.L34
 632              		.loc 1 297 0 discriminator 10
 633 0044 1433     		adds	r3, r3, #20
 634 0046 9842     		cmp	r0, r3
 635 0048 07D0     		beq	.L34
 636              		.loc 1 297 0 discriminator 11
 637 004a 1433     		adds	r3, r3, #20
 638 004c 9842     		cmp	r0, r3
 639 004e 04D0     		beq	.L34
 640              		.loc 1 297 0 discriminator 12
 641 0050 40F22911 		movw	r1, #297
 642              	.LVL37:
 643 0054 0B48     		ldr	r0, .L39+4
 644              	.LVL38:
 645 0056 FFF7FEFF 		bl	assert_failed
 646              	.LVL39:
 647              	.L34:
 298:STM32F10x_StdPeriph_Driver/src/stm32f10x_dma.c ****   assert_param(IS_FUNCTIONAL_STATE(NewState));
 648              		.loc 1 298 0 is_stmt 1
 649 005a 012D     		cmp	r5, #1
 650 005c 04D9     		bls	.L35
 651              		.loc 1 298 0 is_stmt 0 discriminator 1
 652 005e 4FF49571 		mov	r1, #298
 653 0062 0848     		ldr	r0, .L39+4
 654 0064 FFF7FEFF 		bl	assert_failed
 655              	.LVL40:
 656              	.L35:
 299:STM32F10x_StdPeriph_Driver/src/stm32f10x_dma.c **** 
 300:STM32F10x_StdPeriph_Driver/src/stm32f10x_dma.c ****   if (NewState != DISABLE)
 657              		.loc 1 300 0 is_stmt 1
 658 0068 25B1     		cbz	r5, .L36
 301:STM32F10x_StdPeriph_Driver/src/stm32f10x_dma.c ****   {
 302:STM32F10x_StdPeriph_Driver/src/stm32f10x_dma.c ****     /* Enable the selected DMAy Channelx */
 303:STM32F10x_StdPeriph_Driver/src/stm32f10x_dma.c ****     DMAy_Channelx->CCR |= CCR_ENABLE_Set;
 659              		.loc 1 303 0
 660 006a 2368     		ldr	r3, [r4]
 661 006c 43F00103 		orr	r3, r3, #1
 662 0070 2360     		str	r3, [r4]
 663 0072 38BD     		pop	{r3, r4, r5, pc}
 664              	.LVL41:
 665              	.L36:
 304:STM32F10x_StdPeriph_Driver/src/stm32f10x_dma.c ****   }
 305:STM32F10x_StdPeriph_Driver/src/stm32f10x_dma.c ****   else
 306:STM32F10x_StdPeriph_Driver/src/stm32f10x_dma.c ****   {
 307:STM32F10x_StdPeriph_Driver/src/stm32f10x_dma.c ****     /* Disable the selected DMAy Channelx */
ARM GAS  /var/folders/g9/bbpj86ld7fx45vd1b3pqxmp00000gn/T//ccwT0TNs.s 			page 18


 308:STM32F10x_StdPeriph_Driver/src/stm32f10x_dma.c ****     DMAy_Channelx->CCR &= CCR_ENABLE_Reset;
 666              		.loc 1 308 0
 667 0074 2368     		ldr	r3, [r4]
 668 0076 23F00103 		bic	r3, r3, #1
 669 007a 2360     		str	r3, [r4]
 670 007c 38BD     		pop	{r3, r4, r5, pc}
 671              	.LVL42:
 672              	.L40:
 673 007e 00BF     		.align	2
 674              	.L39:
 675 0080 08000240 		.word	1073872904
 676 0084 00000000 		.word	.LC0
 677              		.cfi_endproc
 678              	.LFE30:
 680              		.section	.text.DMA_ITConfig,"ax",%progbits
 681              		.align	2
 682              		.global	DMA_ITConfig
 683              		.thumb
 684              		.thumb_func
 686              	DMA_ITConfig:
 687              	.LFB31:
 309:STM32F10x_StdPeriph_Driver/src/stm32f10x_dma.c ****   }
 310:STM32F10x_StdPeriph_Driver/src/stm32f10x_dma.c **** }
 311:STM32F10x_StdPeriph_Driver/src/stm32f10x_dma.c **** 
 312:STM32F10x_StdPeriph_Driver/src/stm32f10x_dma.c **** /**
 313:STM32F10x_StdPeriph_Driver/src/stm32f10x_dma.c ****   * @brief  Enables or disables the specified DMAy Channelx interrupts.
 314:STM32F10x_StdPeriph_Driver/src/stm32f10x_dma.c ****   * @param  DMAy_Channelx: where y can be 1 or 2 to select the DMA and 
 315:STM32F10x_StdPeriph_Driver/src/stm32f10x_dma.c ****   *   x can be 1 to 7 for DMA1 and 1 to 5 for DMA2 to select the DMA Channel.
 316:STM32F10x_StdPeriph_Driver/src/stm32f10x_dma.c ****   * @param  DMA_IT: specifies the DMA interrupts sources to be enabled
 317:STM32F10x_StdPeriph_Driver/src/stm32f10x_dma.c ****   *   or disabled. 
 318:STM32F10x_StdPeriph_Driver/src/stm32f10x_dma.c ****   *   This parameter can be any combination of the following values:
 319:STM32F10x_StdPeriph_Driver/src/stm32f10x_dma.c ****   *     @arg DMA_IT_TC:  Transfer complete interrupt mask
 320:STM32F10x_StdPeriph_Driver/src/stm32f10x_dma.c ****   *     @arg DMA_IT_HT:  Half transfer interrupt mask
 321:STM32F10x_StdPeriph_Driver/src/stm32f10x_dma.c ****   *     @arg DMA_IT_TE:  Transfer error interrupt mask
 322:STM32F10x_StdPeriph_Driver/src/stm32f10x_dma.c ****   * @param  NewState: new state of the specified DMA interrupts.
 323:STM32F10x_StdPeriph_Driver/src/stm32f10x_dma.c ****   *   This parameter can be: ENABLE or DISABLE.
 324:STM32F10x_StdPeriph_Driver/src/stm32f10x_dma.c ****   * @retval None
 325:STM32F10x_StdPeriph_Driver/src/stm32f10x_dma.c ****   */
 326:STM32F10x_StdPeriph_Driver/src/stm32f10x_dma.c **** void DMA_ITConfig(DMA_Channel_TypeDef* DMAy_Channelx, uint32_t DMA_IT, FunctionalState NewState)
 327:STM32F10x_StdPeriph_Driver/src/stm32f10x_dma.c **** {
 688              		.loc 1 327 0
 689              		.cfi_startproc
 690              		@ args = 0, pretend = 0, frame = 0
 691              		@ frame_needed = 0, uses_anonymous_args = 0
 692              	.LVL43:
 693 0000 70B5     		push	{r4, r5, r6, lr}
 694              	.LCFI3:
 695              		.cfi_def_cfa_offset 16
 696              		.cfi_offset 4, -16
 697              		.cfi_offset 5, -12
 698              		.cfi_offset 6, -8
 699              		.cfi_offset 14, -4
 700 0002 0446     		mov	r4, r0
 701 0004 0D46     		mov	r5, r1
 702 0006 1646     		mov	r6, r2
 328:STM32F10x_StdPeriph_Driver/src/stm32f10x_dma.c ****   /* Check the parameters */
 329:STM32F10x_StdPeriph_Driver/src/stm32f10x_dma.c ****   assert_param(IS_DMA_ALL_PERIPH(DMAy_Channelx));
ARM GAS  /var/folders/g9/bbpj86ld7fx45vd1b3pqxmp00000gn/T//ccwT0TNs.s 			page 19


 703              		.loc 1 329 0
 704 0008 214B     		ldr	r3, .L49
 705 000a 9842     		cmp	r0, r3
 706 000c 26D0     		beq	.L42
 707              		.loc 1 329 0 is_stmt 0 discriminator 1
 708 000e 1433     		adds	r3, r3, #20
 709 0010 9842     		cmp	r0, r3
 710 0012 23D0     		beq	.L42
 711              		.loc 1 329 0 discriminator 2
 712 0014 1433     		adds	r3, r3, #20
 713 0016 9842     		cmp	r0, r3
 714 0018 20D0     		beq	.L42
 715              		.loc 1 329 0 discriminator 3
 716 001a 1433     		adds	r3, r3, #20
 717 001c 9842     		cmp	r0, r3
 718 001e 1DD0     		beq	.L42
 719              		.loc 1 329 0 discriminator 4
 720 0020 1433     		adds	r3, r3, #20
 721 0022 9842     		cmp	r0, r3
 722 0024 1AD0     		beq	.L42
 723              		.loc 1 329 0 discriminator 5
 724 0026 1433     		adds	r3, r3, #20
 725 0028 9842     		cmp	r0, r3
 726 002a 17D0     		beq	.L42
 727              		.loc 1 329 0 discriminator 6
 728 002c 1433     		adds	r3, r3, #20
 729 002e 9842     		cmp	r0, r3
 730 0030 14D0     		beq	.L42
 731              		.loc 1 329 0 discriminator 7
 732 0032 03F56273 		add	r3, r3, #904
 733 0036 9842     		cmp	r0, r3
 734 0038 10D0     		beq	.L42
 735              		.loc 1 329 0 discriminator 8
 736 003a 1433     		adds	r3, r3, #20
 737 003c 9842     		cmp	r0, r3
 738 003e 0DD0     		beq	.L42
 739              		.loc 1 329 0 discriminator 9
 740 0040 1433     		adds	r3, r3, #20
 741 0042 9842     		cmp	r0, r3
 742 0044 0AD0     		beq	.L42
 743              		.loc 1 329 0 discriminator 10
 744 0046 1433     		adds	r3, r3, #20
 745 0048 9842     		cmp	r0, r3
 746 004a 07D0     		beq	.L42
 747              		.loc 1 329 0 discriminator 11
 748 004c 1433     		adds	r3, r3, #20
 749 004e 9842     		cmp	r0, r3
 750 0050 04D0     		beq	.L42
 751              		.loc 1 329 0 discriminator 12
 752 0052 40F24911 		movw	r1, #329
 753              	.LVL44:
 754 0056 0F48     		ldr	r0, .L49+4
 755              	.LVL45:
 756 0058 FFF7FEFF 		bl	assert_failed
 757              	.LVL46:
 758              	.L42:
 330:STM32F10x_StdPeriph_Driver/src/stm32f10x_dma.c ****   assert_param(IS_DMA_CONFIG_IT(DMA_IT));
ARM GAS  /var/folders/g9/bbpj86ld7fx45vd1b3pqxmp00000gn/T//ccwT0TNs.s 			page 20


 759              		.loc 1 330 0 is_stmt 1
 760 005c 35F00E03 		bics	r3, r5, #14
 761 0060 00D1     		bne	.L43
 762              		.loc 1 330 0 is_stmt 0 discriminator 2
 763 0062 25B9     		cbnz	r5, .L44
 764              	.L43:
 765              		.loc 1 330 0 discriminator 3
 766 0064 4FF4A571 		mov	r1, #330
 767 0068 0A48     		ldr	r0, .L49+4
 768 006a FFF7FEFF 		bl	assert_failed
 769              	.LVL47:
 770              	.L44:
 331:STM32F10x_StdPeriph_Driver/src/stm32f10x_dma.c ****   assert_param(IS_FUNCTIONAL_STATE(NewState));
 771              		.loc 1 331 0 is_stmt 1
 772 006e 012E     		cmp	r6, #1
 773 0070 04D9     		bls	.L45
 774              		.loc 1 331 0 is_stmt 0 discriminator 1
 775 0072 40F24B11 		movw	r1, #331
 776 0076 0748     		ldr	r0, .L49+4
 777 0078 FFF7FEFF 		bl	assert_failed
 778              	.LVL48:
 779              	.L45:
 332:STM32F10x_StdPeriph_Driver/src/stm32f10x_dma.c ****   if (NewState != DISABLE)
 780              		.loc 1 332 0 is_stmt 1
 781 007c 1EB1     		cbz	r6, .L46
 333:STM32F10x_StdPeriph_Driver/src/stm32f10x_dma.c ****   {
 334:STM32F10x_StdPeriph_Driver/src/stm32f10x_dma.c ****     /* Enable the selected DMA interrupts */
 335:STM32F10x_StdPeriph_Driver/src/stm32f10x_dma.c ****     DMAy_Channelx->CCR |= DMA_IT;
 782              		.loc 1 335 0
 783 007e 2368     		ldr	r3, [r4]
 784 0080 1D43     		orrs	r5, r5, r3
 785              	.LVL49:
 786 0082 2560     		str	r5, [r4]
 787 0084 70BD     		pop	{r4, r5, r6, pc}
 788              	.LVL50:
 789              	.L46:
 336:STM32F10x_StdPeriph_Driver/src/stm32f10x_dma.c ****   }
 337:STM32F10x_StdPeriph_Driver/src/stm32f10x_dma.c ****   else
 338:STM32F10x_StdPeriph_Driver/src/stm32f10x_dma.c ****   {
 339:STM32F10x_StdPeriph_Driver/src/stm32f10x_dma.c ****     /* Disable the selected DMA interrupts */
 340:STM32F10x_StdPeriph_Driver/src/stm32f10x_dma.c ****     DMAy_Channelx->CCR &= ~DMA_IT;
 790              		.loc 1 340 0
 791 0086 2368     		ldr	r3, [r4]
 792 0088 23EA0505 		bic	r5, r3, r5
 793              	.LVL51:
 794 008c 2560     		str	r5, [r4]
 795 008e 70BD     		pop	{r4, r5, r6, pc}
 796              	.LVL52:
 797              	.L50:
 798              		.align	2
 799              	.L49:
 800 0090 08000240 		.word	1073872904
 801 0094 00000000 		.word	.LC0
 802              		.cfi_endproc
 803              	.LFE31:
 805              		.section	.text.DMA_GetCurrDataCounter,"ax",%progbits
 806              		.align	2
ARM GAS  /var/folders/g9/bbpj86ld7fx45vd1b3pqxmp00000gn/T//ccwT0TNs.s 			page 21


 807              		.global	DMA_GetCurrDataCounter
 808              		.thumb
 809              		.thumb_func
 811              	DMA_GetCurrDataCounter:
 812              	.LFB32:
 341:STM32F10x_StdPeriph_Driver/src/stm32f10x_dma.c ****   }
 342:STM32F10x_StdPeriph_Driver/src/stm32f10x_dma.c **** }
 343:STM32F10x_StdPeriph_Driver/src/stm32f10x_dma.c **** 
 344:STM32F10x_StdPeriph_Driver/src/stm32f10x_dma.c **** /**
 345:STM32F10x_StdPeriph_Driver/src/stm32f10x_dma.c ****   * @brief  Returns the number of remaining data units in the current
 346:STM32F10x_StdPeriph_Driver/src/stm32f10x_dma.c ****   *   DMAy Channelx transfer.
 347:STM32F10x_StdPeriph_Driver/src/stm32f10x_dma.c ****   * @param  DMAy_Channelx: where y can be 1 or 2 to select the DMA and 
 348:STM32F10x_StdPeriph_Driver/src/stm32f10x_dma.c ****   *   x can be 1 to 7 for DMA1 and 1 to 5 for DMA2 to select the DMA Channel.
 349:STM32F10x_StdPeriph_Driver/src/stm32f10x_dma.c ****   * @retval The number of remaining data units in the current DMAy Channelx
 350:STM32F10x_StdPeriph_Driver/src/stm32f10x_dma.c ****   *   transfer.
 351:STM32F10x_StdPeriph_Driver/src/stm32f10x_dma.c ****   */
 352:STM32F10x_StdPeriph_Driver/src/stm32f10x_dma.c **** uint16_t DMA_GetCurrDataCounter(DMA_Channel_TypeDef* DMAy_Channelx)
 353:STM32F10x_StdPeriph_Driver/src/stm32f10x_dma.c **** {
 813              		.loc 1 353 0
 814              		.cfi_startproc
 815              		@ args = 0, pretend = 0, frame = 0
 816              		@ frame_needed = 0, uses_anonymous_args = 0
 817              	.LVL53:
 818 0000 10B5     		push	{r4, lr}
 819              	.LCFI4:
 820              		.cfi_def_cfa_offset 8
 821              		.cfi_offset 4, -8
 822              		.cfi_offset 14, -4
 823 0002 0446     		mov	r4, r0
 354:STM32F10x_StdPeriph_Driver/src/stm32f10x_dma.c ****   /* Check the parameters */
 355:STM32F10x_StdPeriph_Driver/src/stm32f10x_dma.c ****   assert_param(IS_DMA_ALL_PERIPH(DMAy_Channelx));
 824              		.loc 1 355 0
 825 0004 164B     		ldr	r3, .L54
 826 0006 9842     		cmp	r0, r3
 827 0008 26D0     		beq	.L52
 828              		.loc 1 355 0 is_stmt 0 discriminator 1
 829 000a 1433     		adds	r3, r3, #20
 830 000c 9842     		cmp	r0, r3
 831 000e 23D0     		beq	.L52
 832              		.loc 1 355 0 discriminator 2
 833 0010 1433     		adds	r3, r3, #20
 834 0012 9842     		cmp	r0, r3
 835 0014 20D0     		beq	.L52
 836              		.loc 1 355 0 discriminator 3
 837 0016 1433     		adds	r3, r3, #20
 838 0018 9842     		cmp	r0, r3
 839 001a 1DD0     		beq	.L52
 840              		.loc 1 355 0 discriminator 4
 841 001c 1433     		adds	r3, r3, #20
 842 001e 9842     		cmp	r0, r3
 843 0020 1AD0     		beq	.L52
 844              		.loc 1 355 0 discriminator 5
 845 0022 1433     		adds	r3, r3, #20
 846 0024 9842     		cmp	r0, r3
 847 0026 17D0     		beq	.L52
 848              		.loc 1 355 0 discriminator 6
 849 0028 1433     		adds	r3, r3, #20
ARM GAS  /var/folders/g9/bbpj86ld7fx45vd1b3pqxmp00000gn/T//ccwT0TNs.s 			page 22


 850 002a 9842     		cmp	r0, r3
 851 002c 14D0     		beq	.L52
 852              		.loc 1 355 0 discriminator 7
 853 002e 03F56273 		add	r3, r3, #904
 854 0032 9842     		cmp	r0, r3
 855 0034 10D0     		beq	.L52
 856              		.loc 1 355 0 discriminator 8
 857 0036 1433     		adds	r3, r3, #20
 858 0038 9842     		cmp	r0, r3
 859 003a 0DD0     		beq	.L52
 860              		.loc 1 355 0 discriminator 9
 861 003c 1433     		adds	r3, r3, #20
 862 003e 9842     		cmp	r0, r3
 863 0040 0AD0     		beq	.L52
 864              		.loc 1 355 0 discriminator 10
 865 0042 1433     		adds	r3, r3, #20
 866 0044 9842     		cmp	r0, r3
 867 0046 07D0     		beq	.L52
 868              		.loc 1 355 0 discriminator 11
 869 0048 1433     		adds	r3, r3, #20
 870 004a 9842     		cmp	r0, r3
 871 004c 04D0     		beq	.L52
 872              		.loc 1 355 0 discriminator 12
 873 004e 40F26311 		movw	r1, #355
 874 0052 0448     		ldr	r0, .L54+4
 875              	.LVL54:
 876 0054 FFF7FEFF 		bl	assert_failed
 877              	.LVL55:
 878              	.L52:
 356:STM32F10x_StdPeriph_Driver/src/stm32f10x_dma.c ****   /* Return the number of remaining data units for DMAy Channelx */
 357:STM32F10x_StdPeriph_Driver/src/stm32f10x_dma.c ****   return ((uint16_t)(DMAy_Channelx->CNDTR));
 879              		.loc 1 357 0 is_stmt 1
 880 0058 6068     		ldr	r0, [r4, #4]
 358:STM32F10x_StdPeriph_Driver/src/stm32f10x_dma.c **** }
 881              		.loc 1 358 0
 882 005a 80B2     		uxth	r0, r0
 883 005c 10BD     		pop	{r4, pc}
 884              	.LVL56:
 885              	.L55:
 886 005e 00BF     		.align	2
 887              	.L54:
 888 0060 08000240 		.word	1073872904
 889 0064 00000000 		.word	.LC0
 890              		.cfi_endproc
 891              	.LFE32:
 893              		.section	.text.DMA_GetFlagStatus,"ax",%progbits
 894              		.align	2
 895              		.global	DMA_GetFlagStatus
 896              		.thumb
 897              		.thumb_func
 899              	DMA_GetFlagStatus:
 900              	.LFB33:
 359:STM32F10x_StdPeriph_Driver/src/stm32f10x_dma.c **** 
 360:STM32F10x_StdPeriph_Driver/src/stm32f10x_dma.c **** /**
 361:STM32F10x_StdPeriph_Driver/src/stm32f10x_dma.c ****   * @brief  Checks whether the specified DMAy Channelx flag is set or not.
 362:STM32F10x_StdPeriph_Driver/src/stm32f10x_dma.c ****   * @param  DMA_FLAG: specifies the flag to check.
 363:STM32F10x_StdPeriph_Driver/src/stm32f10x_dma.c ****   *   This parameter can be one of the following values:
ARM GAS  /var/folders/g9/bbpj86ld7fx45vd1b3pqxmp00000gn/T//ccwT0TNs.s 			page 23


 364:STM32F10x_StdPeriph_Driver/src/stm32f10x_dma.c ****   *     @arg DMA1_FLAG_GL1: DMA1 Channel1 global flag.
 365:STM32F10x_StdPeriph_Driver/src/stm32f10x_dma.c ****   *     @arg DMA1_FLAG_TC1: DMA1 Channel1 transfer complete flag.
 366:STM32F10x_StdPeriph_Driver/src/stm32f10x_dma.c ****   *     @arg DMA1_FLAG_HT1: DMA1 Channel1 half transfer flag.
 367:STM32F10x_StdPeriph_Driver/src/stm32f10x_dma.c ****   *     @arg DMA1_FLAG_TE1: DMA1 Channel1 transfer error flag.
 368:STM32F10x_StdPeriph_Driver/src/stm32f10x_dma.c ****   *     @arg DMA1_FLAG_GL2: DMA1 Channel2 global flag.
 369:STM32F10x_StdPeriph_Driver/src/stm32f10x_dma.c ****   *     @arg DMA1_FLAG_TC2: DMA1 Channel2 transfer complete flag.
 370:STM32F10x_StdPeriph_Driver/src/stm32f10x_dma.c ****   *     @arg DMA1_FLAG_HT2: DMA1 Channel2 half transfer flag.
 371:STM32F10x_StdPeriph_Driver/src/stm32f10x_dma.c ****   *     @arg DMA1_FLAG_TE2: DMA1 Channel2 transfer error flag.
 372:STM32F10x_StdPeriph_Driver/src/stm32f10x_dma.c ****   *     @arg DMA1_FLAG_GL3: DMA1 Channel3 global flag.
 373:STM32F10x_StdPeriph_Driver/src/stm32f10x_dma.c ****   *     @arg DMA1_FLAG_TC3: DMA1 Channel3 transfer complete flag.
 374:STM32F10x_StdPeriph_Driver/src/stm32f10x_dma.c ****   *     @arg DMA1_FLAG_HT3: DMA1 Channel3 half transfer flag.
 375:STM32F10x_StdPeriph_Driver/src/stm32f10x_dma.c ****   *     @arg DMA1_FLAG_TE3: DMA1 Channel3 transfer error flag.
 376:STM32F10x_StdPeriph_Driver/src/stm32f10x_dma.c ****   *     @arg DMA1_FLAG_GL4: DMA1 Channel4 global flag.
 377:STM32F10x_StdPeriph_Driver/src/stm32f10x_dma.c ****   *     @arg DMA1_FLAG_TC4: DMA1 Channel4 transfer complete flag.
 378:STM32F10x_StdPeriph_Driver/src/stm32f10x_dma.c ****   *     @arg DMA1_FLAG_HT4: DMA1 Channel4 half transfer flag.
 379:STM32F10x_StdPeriph_Driver/src/stm32f10x_dma.c ****   *     @arg DMA1_FLAG_TE4: DMA1 Channel4 transfer error flag.
 380:STM32F10x_StdPeriph_Driver/src/stm32f10x_dma.c ****   *     @arg DMA1_FLAG_GL5: DMA1 Channel5 global flag.
 381:STM32F10x_StdPeriph_Driver/src/stm32f10x_dma.c ****   *     @arg DMA1_FLAG_TC5: DMA1 Channel5 transfer complete flag.
 382:STM32F10x_StdPeriph_Driver/src/stm32f10x_dma.c ****   *     @arg DMA1_FLAG_HT5: DMA1 Channel5 half transfer flag.
 383:STM32F10x_StdPeriph_Driver/src/stm32f10x_dma.c ****   *     @arg DMA1_FLAG_TE5: DMA1 Channel5 transfer error flag.
 384:STM32F10x_StdPeriph_Driver/src/stm32f10x_dma.c ****   *     @arg DMA1_FLAG_GL6: DMA1 Channel6 global flag.
 385:STM32F10x_StdPeriph_Driver/src/stm32f10x_dma.c ****   *     @arg DMA1_FLAG_TC6: DMA1 Channel6 transfer complete flag.
 386:STM32F10x_StdPeriph_Driver/src/stm32f10x_dma.c ****   *     @arg DMA1_FLAG_HT6: DMA1 Channel6 half transfer flag.
 387:STM32F10x_StdPeriph_Driver/src/stm32f10x_dma.c ****   *     @arg DMA1_FLAG_TE6: DMA1 Channel6 transfer error flag.
 388:STM32F10x_StdPeriph_Driver/src/stm32f10x_dma.c ****   *     @arg DMA1_FLAG_GL7: DMA1 Channel7 global flag.
 389:STM32F10x_StdPeriph_Driver/src/stm32f10x_dma.c ****   *     @arg DMA1_FLAG_TC7: DMA1 Channel7 transfer complete flag.
 390:STM32F10x_StdPeriph_Driver/src/stm32f10x_dma.c ****   *     @arg DMA1_FLAG_HT7: DMA1 Channel7 half transfer flag.
 391:STM32F10x_StdPeriph_Driver/src/stm32f10x_dma.c ****   *     @arg DMA1_FLAG_TE7: DMA1 Channel7 transfer error flag.
 392:STM32F10x_StdPeriph_Driver/src/stm32f10x_dma.c ****   *     @arg DMA2_FLAG_GL1: DMA2 Channel1 global flag.
 393:STM32F10x_StdPeriph_Driver/src/stm32f10x_dma.c ****   *     @arg DMA2_FLAG_TC1: DMA2 Channel1 transfer complete flag.
 394:STM32F10x_StdPeriph_Driver/src/stm32f10x_dma.c ****   *     @arg DMA2_FLAG_HT1: DMA2 Channel1 half transfer flag.
 395:STM32F10x_StdPeriph_Driver/src/stm32f10x_dma.c ****   *     @arg DMA2_FLAG_TE1: DMA2 Channel1 transfer error flag.
 396:STM32F10x_StdPeriph_Driver/src/stm32f10x_dma.c ****   *     @arg DMA2_FLAG_GL2: DMA2 Channel2 global flag.
 397:STM32F10x_StdPeriph_Driver/src/stm32f10x_dma.c ****   *     @arg DMA2_FLAG_TC2: DMA2 Channel2 transfer complete flag.
 398:STM32F10x_StdPeriph_Driver/src/stm32f10x_dma.c ****   *     @arg DMA2_FLAG_HT2: DMA2 Channel2 half transfer flag.
 399:STM32F10x_StdPeriph_Driver/src/stm32f10x_dma.c ****   *     @arg DMA2_FLAG_TE2: DMA2 Channel2 transfer error flag.
 400:STM32F10x_StdPeriph_Driver/src/stm32f10x_dma.c ****   *     @arg DMA2_FLAG_GL3: DMA2 Channel3 global flag.
 401:STM32F10x_StdPeriph_Driver/src/stm32f10x_dma.c ****   *     @arg DMA2_FLAG_TC3: DMA2 Channel3 transfer complete flag.
 402:STM32F10x_StdPeriph_Driver/src/stm32f10x_dma.c ****   *     @arg DMA2_FLAG_HT3: DMA2 Channel3 half transfer flag.
 403:STM32F10x_StdPeriph_Driver/src/stm32f10x_dma.c ****   *     @arg DMA2_FLAG_TE3: DMA2 Channel3 transfer error flag.
 404:STM32F10x_StdPeriph_Driver/src/stm32f10x_dma.c ****   *     @arg DMA2_FLAG_GL4: DMA2 Channel4 global flag.
 405:STM32F10x_StdPeriph_Driver/src/stm32f10x_dma.c ****   *     @arg DMA2_FLAG_TC4: DMA2 Channel4 transfer complete flag.
 406:STM32F10x_StdPeriph_Driver/src/stm32f10x_dma.c ****   *     @arg DMA2_FLAG_HT4: DMA2 Channel4 half transfer flag.
 407:STM32F10x_StdPeriph_Driver/src/stm32f10x_dma.c ****   *     @arg DMA2_FLAG_TE4: DMA2 Channel4 transfer error flag.
 408:STM32F10x_StdPeriph_Driver/src/stm32f10x_dma.c ****   *     @arg DMA2_FLAG_GL5: DMA2 Channel5 global flag.
 409:STM32F10x_StdPeriph_Driver/src/stm32f10x_dma.c ****   *     @arg DMA2_FLAG_TC5: DMA2 Channel5 transfer complete flag.
 410:STM32F10x_StdPeriph_Driver/src/stm32f10x_dma.c ****   *     @arg DMA2_FLAG_HT5: DMA2 Channel5 half transfer flag.
 411:STM32F10x_StdPeriph_Driver/src/stm32f10x_dma.c ****   *     @arg DMA2_FLAG_TE5: DMA2 Channel5 transfer error flag.
 412:STM32F10x_StdPeriph_Driver/src/stm32f10x_dma.c ****   * @retval The new state of DMA_FLAG (SET or RESET).
 413:STM32F10x_StdPeriph_Driver/src/stm32f10x_dma.c ****   */
 414:STM32F10x_StdPeriph_Driver/src/stm32f10x_dma.c **** FlagStatus DMA_GetFlagStatus(uint32_t DMA_FLAG)
 415:STM32F10x_StdPeriph_Driver/src/stm32f10x_dma.c **** {
 901              		.loc 1 415 0
 902              		.cfi_startproc
 903              		@ args = 0, pretend = 0, frame = 0
 904              		@ frame_needed = 0, uses_anonymous_args = 0
 905              	.LVL57:
ARM GAS  /var/folders/g9/bbpj86ld7fx45vd1b3pqxmp00000gn/T//ccwT0TNs.s 			page 24


 906 0000 10B5     		push	{r4, lr}
 907              	.LCFI5:
 908              		.cfi_def_cfa_offset 8
 909              		.cfi_offset 4, -8
 910              		.cfi_offset 14, -4
 911 0002 0446     		mov	r4, r0
 912              	.LVL58:
 416:STM32F10x_StdPeriph_Driver/src/stm32f10x_dma.c ****   FlagStatus bitstatus = RESET;
 417:STM32F10x_StdPeriph_Driver/src/stm32f10x_dma.c ****   uint32_t tmpreg = 0;
 418:STM32F10x_StdPeriph_Driver/src/stm32f10x_dma.c ****   /* Check the parameters */
 419:STM32F10x_StdPeriph_Driver/src/stm32f10x_dma.c ****   assert_param(IS_DMA_GET_FLAG(DMA_FLAG));
 913              		.loc 1 419 0
 914 0004 431E     		subs	r3, r0, #1
 915 0006 012B     		cmp	r3, #1
 916 0008 40F29B80 		bls	.L57
 917              		.loc 1 419 0 is_stmt 0 discriminator 1
 918 000c 0428     		cmp	r0, #4
 919 000e 00F09880 		beq	.L57
 920              		.loc 1 419 0 discriminator 2
 921 0012 0828     		cmp	r0, #8
 922 0014 00F09580 		beq	.L57
 923              		.loc 1 419 0 discriminator 3
 924 0018 1028     		cmp	r0, #16
 925 001a 00F09280 		beq	.L57
 926              		.loc 1 419 0 discriminator 4
 927 001e 2028     		cmp	r0, #32
 928 0020 00F08F80 		beq	.L57
 929              		.loc 1 419 0 discriminator 5
 930 0024 4028     		cmp	r0, #64
 931 0026 00F08C80 		beq	.L57
 932              		.loc 1 419 0 discriminator 6
 933 002a 8028     		cmp	r0, #128
 934 002c 00F08980 		beq	.L57
 935              		.loc 1 419 0 discriminator 7
 936 0030 B0F5807F 		cmp	r0, #256
 937 0034 00F08580 		beq	.L57
 938              		.loc 1 419 0 discriminator 8
 939 0038 B0F5007F 		cmp	r0, #512
 940 003c 00F08180 		beq	.L57
 941              		.loc 1 419 0 discriminator 9
 942 0040 B0F5806F 		cmp	r0, #1024
 943 0044 7DD0     		beq	.L57
 944              		.loc 1 419 0 discriminator 10
 945 0046 B0F5006F 		cmp	r0, #2048
 946 004a 7AD0     		beq	.L57
 947              		.loc 1 419 0 discriminator 11
 948 004c B0F5805F 		cmp	r0, #4096
 949 0050 77D0     		beq	.L57
 950              		.loc 1 419 0 discriminator 12
 951 0052 B0F5005F 		cmp	r0, #8192
 952 0056 74D0     		beq	.L57
 953              		.loc 1 419 0 discriminator 13
 954 0058 B0F5804F 		cmp	r0, #16384
 955 005c 71D0     		beq	.L57
 956              		.loc 1 419 0 discriminator 14
 957 005e B0F5004F 		cmp	r0, #32768
 958 0062 6ED0     		beq	.L57
ARM GAS  /var/folders/g9/bbpj86ld7fx45vd1b3pqxmp00000gn/T//ccwT0TNs.s 			page 25


 959              		.loc 1 419 0 discriminator 15
 960 0064 B0F5803F 		cmp	r0, #65536
 961 0068 6BD0     		beq	.L57
 962              		.loc 1 419 0 discriminator 16
 963 006a B0F5003F 		cmp	r0, #131072
 964 006e 68D0     		beq	.L57
 965              		.loc 1 419 0 discriminator 17
 966 0070 B0F5802F 		cmp	r0, #262144
 967 0074 65D0     		beq	.L57
 968              		.loc 1 419 0 discriminator 18
 969 0076 B0F5002F 		cmp	r0, #524288
 970 007a 62D0     		beq	.L57
 971              		.loc 1 419 0 discriminator 19
 972 007c B0F5801F 		cmp	r0, #1048576
 973 0080 5FD0     		beq	.L57
 974              		.loc 1 419 0 discriminator 20
 975 0082 B0F5001F 		cmp	r0, #2097152
 976 0086 5CD0     		beq	.L57
 977              		.loc 1 419 0 discriminator 21
 978 0088 B0F5800F 		cmp	r0, #4194304
 979 008c 59D0     		beq	.L57
 980              		.loc 1 419 0 discriminator 22
 981 008e B0F5000F 		cmp	r0, #8388608
 982 0092 56D0     		beq	.L57
 983              		.loc 1 419 0 discriminator 23
 984 0094 B0F1807F 		cmp	r0, #16777216
 985 0098 53D0     		beq	.L57
 986              		.loc 1 419 0 discriminator 24
 987 009a B0F1007F 		cmp	r0, #33554432
 988 009e 50D0     		beq	.L57
 989              		.loc 1 419 0 discriminator 25
 990 00a0 B0F1806F 		cmp	r0, #67108864
 991 00a4 4DD0     		beq	.L57
 992              		.loc 1 419 0 discriminator 26
 993 00a6 B0F1006F 		cmp	r0, #134217728
 994 00aa 4AD0     		beq	.L57
 995              		.loc 1 419 0 discriminator 27
 996 00ac 2C4B     		ldr	r3, .L63
 997 00ae 9842     		cmp	r0, r3
 998 00b0 47D0     		beq	.L57
 999              		.loc 1 419 0 discriminator 28
 1000 00b2 0133     		adds	r3, r3, #1
 1001 00b4 9842     		cmp	r0, r3
 1002 00b6 44D0     		beq	.L57
 1003              		.loc 1 419 0 discriminator 29
 1004 00b8 0233     		adds	r3, r3, #2
 1005 00ba 9842     		cmp	r0, r3
 1006 00bc 41D0     		beq	.L57
 1007              		.loc 1 419 0 discriminator 30
 1008 00be 0433     		adds	r3, r3, #4
 1009 00c0 9842     		cmp	r0, r3
 1010 00c2 3ED0     		beq	.L57
 1011              		.loc 1 419 0 discriminator 31
 1012 00c4 0833     		adds	r3, r3, #8
 1013 00c6 9842     		cmp	r0, r3
 1014 00c8 3BD0     		beq	.L57
 1015              		.loc 1 419 0 discriminator 32
ARM GAS  /var/folders/g9/bbpj86ld7fx45vd1b3pqxmp00000gn/T//ccwT0TNs.s 			page 26


 1016 00ca 1033     		adds	r3, r3, #16
 1017 00cc 9842     		cmp	r0, r3
 1018 00ce 38D0     		beq	.L57
 1019              		.loc 1 419 0 discriminator 33
 1020 00d0 2033     		adds	r3, r3, #32
 1021 00d2 9842     		cmp	r0, r3
 1022 00d4 35D0     		beq	.L57
 1023              		.loc 1 419 0 discriminator 34
 1024 00d6 4033     		adds	r3, r3, #64
 1025 00d8 9842     		cmp	r0, r3
 1026 00da 32D0     		beq	.L57
 1027              		.loc 1 419 0 discriminator 35
 1028 00dc 8033     		adds	r3, r3, #128
 1029 00de 9842     		cmp	r0, r3
 1030 00e0 2FD0     		beq	.L57
 1031              		.loc 1 419 0 discriminator 36
 1032 00e2 03F58073 		add	r3, r3, #256
 1033 00e6 9842     		cmp	r0, r3
 1034 00e8 2BD0     		beq	.L57
 1035              		.loc 1 419 0 discriminator 37
 1036 00ea 03F50073 		add	r3, r3, #512
 1037 00ee 9842     		cmp	r0, r3
 1038 00f0 27D0     		beq	.L57
 1039              		.loc 1 419 0 discriminator 38
 1040 00f2 03F58063 		add	r3, r3, #1024
 1041 00f6 9842     		cmp	r0, r3
 1042 00f8 23D0     		beq	.L57
 1043              		.loc 1 419 0 discriminator 39
 1044 00fa B0F1102F 		cmp	r0, #268439552
 1045 00fe 20D0     		beq	.L57
 1046              		.loc 1 419 0 discriminator 40
 1047 0100 03F5C053 		add	r3, r3, #6144
 1048 0104 9842     		cmp	r0, r3
 1049 0106 1CD0     		beq	.L57
 1050              		.loc 1 419 0 discriminator 41
 1051 0108 03F50053 		add	r3, r3, #8192
 1052 010c 9842     		cmp	r0, r3
 1053 010e 18D0     		beq	.L57
 1054              		.loc 1 419 0 discriminator 42
 1055 0110 03F58043 		add	r3, r3, #16384
 1056 0114 9842     		cmp	r0, r3
 1057 0116 14D0     		beq	.L57
 1058              		.loc 1 419 0 discriminator 43
 1059 0118 03F50043 		add	r3, r3, #32768
 1060 011c 9842     		cmp	r0, r3
 1061 011e 10D0     		beq	.L57
 1062              		.loc 1 419 0 discriminator 44
 1063 0120 03F58033 		add	r3, r3, #65536
 1064 0124 9842     		cmp	r0, r3
 1065 0126 0CD0     		beq	.L57
 1066              		.loc 1 419 0 discriminator 45
 1067 0128 03F50033 		add	r3, r3, #131072
 1068 012c 9842     		cmp	r0, r3
 1069 012e 08D0     		beq	.L57
 1070              		.loc 1 419 0 discriminator 46
 1071 0130 03F58023 		add	r3, r3, #262144
 1072 0134 9842     		cmp	r0, r3
ARM GAS  /var/folders/g9/bbpj86ld7fx45vd1b3pqxmp00000gn/T//ccwT0TNs.s 			page 27


 1073 0136 04D0     		beq	.L57
 1074              		.loc 1 419 0 discriminator 47
 1075 0138 40F2A311 		movw	r1, #419
 1076 013c 0948     		ldr	r0, .L63+4
 1077              	.LVL59:
 1078 013e FFF7FEFF 		bl	assert_failed
 1079              	.LVL60:
 1080              	.L57:
 420:STM32F10x_StdPeriph_Driver/src/stm32f10x_dma.c **** 
 421:STM32F10x_StdPeriph_Driver/src/stm32f10x_dma.c ****   /* Calculate the used DMA */
 422:STM32F10x_StdPeriph_Driver/src/stm32f10x_dma.c ****   if ((DMA_FLAG & FLAG_Mask) != (uint32_t)RESET)
 1081              		.loc 1 422 0 is_stmt 1
 1082 0142 14F0805F 		tst	r4, #268435456
 1083 0146 02D0     		beq	.L58
 423:STM32F10x_StdPeriph_Driver/src/stm32f10x_dma.c ****   {
 424:STM32F10x_StdPeriph_Driver/src/stm32f10x_dma.c ****     /* Get DMA2 ISR register value */
 425:STM32F10x_StdPeriph_Driver/src/stm32f10x_dma.c ****     tmpreg = DMA2->ISR ;
 1084              		.loc 1 425 0
 1085 0148 074B     		ldr	r3, .L63+8
 1086 014a 1B68     		ldr	r3, [r3]
 1087              	.LVL61:
 1088 014c 01E0     		b	.L59
 1089              	.LVL62:
 1090              	.L58:
 426:STM32F10x_StdPeriph_Driver/src/stm32f10x_dma.c ****   }
 427:STM32F10x_StdPeriph_Driver/src/stm32f10x_dma.c ****   else
 428:STM32F10x_StdPeriph_Driver/src/stm32f10x_dma.c ****   {
 429:STM32F10x_StdPeriph_Driver/src/stm32f10x_dma.c ****     /* Get DMA1 ISR register value */
 430:STM32F10x_StdPeriph_Driver/src/stm32f10x_dma.c ****     tmpreg = DMA1->ISR ;
 1091              		.loc 1 430 0
 1092 014e 074B     		ldr	r3, .L63+12
 1093 0150 1B68     		ldr	r3, [r3]
 1094              	.LVL63:
 1095              	.L59:
 431:STM32F10x_StdPeriph_Driver/src/stm32f10x_dma.c ****   }
 432:STM32F10x_StdPeriph_Driver/src/stm32f10x_dma.c **** 
 433:STM32F10x_StdPeriph_Driver/src/stm32f10x_dma.c ****   /* Check the status of the specified DMA flag */
 434:STM32F10x_StdPeriph_Driver/src/stm32f10x_dma.c ****   if ((tmpreg & DMA_FLAG) != (uint32_t)RESET)
 1096              		.loc 1 434 0
 1097 0152 2342     		tst	r3, r4
 1098 0154 01D0     		beq	.L61
 435:STM32F10x_StdPeriph_Driver/src/stm32f10x_dma.c ****   {
 436:STM32F10x_StdPeriph_Driver/src/stm32f10x_dma.c ****     /* DMA_FLAG is set */
 437:STM32F10x_StdPeriph_Driver/src/stm32f10x_dma.c ****     bitstatus = SET;
 1099              		.loc 1 437 0
 1100 0156 0120     		movs	r0, #1
 1101 0158 10BD     		pop	{r4, pc}
 1102              	.LVL64:
 1103              	.L61:
 438:STM32F10x_StdPeriph_Driver/src/stm32f10x_dma.c ****   }
 439:STM32F10x_StdPeriph_Driver/src/stm32f10x_dma.c ****   else
 440:STM32F10x_StdPeriph_Driver/src/stm32f10x_dma.c ****   {
 441:STM32F10x_StdPeriph_Driver/src/stm32f10x_dma.c ****     /* DMA_FLAG is reset */
 442:STM32F10x_StdPeriph_Driver/src/stm32f10x_dma.c ****     bitstatus = RESET;
 1104              		.loc 1 442 0
 1105 015a 0020     		movs	r0, #0
 1106              	.LVL65:
ARM GAS  /var/folders/g9/bbpj86ld7fx45vd1b3pqxmp00000gn/T//ccwT0TNs.s 			page 28


 443:STM32F10x_StdPeriph_Driver/src/stm32f10x_dma.c ****   }
 444:STM32F10x_StdPeriph_Driver/src/stm32f10x_dma.c ****   
 445:STM32F10x_StdPeriph_Driver/src/stm32f10x_dma.c ****   /* Return the DMA_FLAG status */
 446:STM32F10x_StdPeriph_Driver/src/stm32f10x_dma.c ****   return  bitstatus;
 447:STM32F10x_StdPeriph_Driver/src/stm32f10x_dma.c **** }
 1107              		.loc 1 447 0
 1108 015c 10BD     		pop	{r4, pc}
 1109              	.LVL66:
 1110              	.L64:
 1111 015e 00BF     		.align	2
 1112              	.L63:
 1113 0160 01000010 		.word	268435457
 1114 0164 00000000 		.word	.LC0
 1115 0168 00040240 		.word	1073873920
 1116 016c 00000240 		.word	1073872896
 1117              		.cfi_endproc
 1118              	.LFE33:
 1120              		.section	.text.DMA_ClearFlag,"ax",%progbits
 1121              		.align	2
 1122              		.global	DMA_ClearFlag
 1123              		.thumb
 1124              		.thumb_func
 1126              	DMA_ClearFlag:
 1127              	.LFB34:
 448:STM32F10x_StdPeriph_Driver/src/stm32f10x_dma.c **** 
 449:STM32F10x_StdPeriph_Driver/src/stm32f10x_dma.c **** /**
 450:STM32F10x_StdPeriph_Driver/src/stm32f10x_dma.c ****   * @brief  Clears the DMAy Channelx's pending flags.
 451:STM32F10x_StdPeriph_Driver/src/stm32f10x_dma.c ****   * @param  DMA_FLAG: specifies the flag to clear.
 452:STM32F10x_StdPeriph_Driver/src/stm32f10x_dma.c ****   *   This parameter can be any combination (for the same DMA) of the following values:
 453:STM32F10x_StdPeriph_Driver/src/stm32f10x_dma.c ****   *     @arg DMA1_FLAG_GL1: DMA1 Channel1 global flag.
 454:STM32F10x_StdPeriph_Driver/src/stm32f10x_dma.c ****   *     @arg DMA1_FLAG_TC1: DMA1 Channel1 transfer complete flag.
 455:STM32F10x_StdPeriph_Driver/src/stm32f10x_dma.c ****   *     @arg DMA1_FLAG_HT1: DMA1 Channel1 half transfer flag.
 456:STM32F10x_StdPeriph_Driver/src/stm32f10x_dma.c ****   *     @arg DMA1_FLAG_TE1: DMA1 Channel1 transfer error flag.
 457:STM32F10x_StdPeriph_Driver/src/stm32f10x_dma.c ****   *     @arg DMA1_FLAG_GL2: DMA1 Channel2 global flag.
 458:STM32F10x_StdPeriph_Driver/src/stm32f10x_dma.c ****   *     @arg DMA1_FLAG_TC2: DMA1 Channel2 transfer complete flag.
 459:STM32F10x_StdPeriph_Driver/src/stm32f10x_dma.c ****   *     @arg DMA1_FLAG_HT2: DMA1 Channel2 half transfer flag.
 460:STM32F10x_StdPeriph_Driver/src/stm32f10x_dma.c ****   *     @arg DMA1_FLAG_TE2: DMA1 Channel2 transfer error flag.
 461:STM32F10x_StdPeriph_Driver/src/stm32f10x_dma.c ****   *     @arg DMA1_FLAG_GL3: DMA1 Channel3 global flag.
 462:STM32F10x_StdPeriph_Driver/src/stm32f10x_dma.c ****   *     @arg DMA1_FLAG_TC3: DMA1 Channel3 transfer complete flag.
 463:STM32F10x_StdPeriph_Driver/src/stm32f10x_dma.c ****   *     @arg DMA1_FLAG_HT3: DMA1 Channel3 half transfer flag.
 464:STM32F10x_StdPeriph_Driver/src/stm32f10x_dma.c ****   *     @arg DMA1_FLAG_TE3: DMA1 Channel3 transfer error flag.
 465:STM32F10x_StdPeriph_Driver/src/stm32f10x_dma.c ****   *     @arg DMA1_FLAG_GL4: DMA1 Channel4 global flag.
 466:STM32F10x_StdPeriph_Driver/src/stm32f10x_dma.c ****   *     @arg DMA1_FLAG_TC4: DMA1 Channel4 transfer complete flag.
 467:STM32F10x_StdPeriph_Driver/src/stm32f10x_dma.c ****   *     @arg DMA1_FLAG_HT4: DMA1 Channel4 half transfer flag.
 468:STM32F10x_StdPeriph_Driver/src/stm32f10x_dma.c ****   *     @arg DMA1_FLAG_TE4: DMA1 Channel4 transfer error flag.
 469:STM32F10x_StdPeriph_Driver/src/stm32f10x_dma.c ****   *     @arg DMA1_FLAG_GL5: DMA1 Channel5 global flag.
 470:STM32F10x_StdPeriph_Driver/src/stm32f10x_dma.c ****   *     @arg DMA1_FLAG_TC5: DMA1 Channel5 transfer complete flag.
 471:STM32F10x_StdPeriph_Driver/src/stm32f10x_dma.c ****   *     @arg DMA1_FLAG_HT5: DMA1 Channel5 half transfer flag.
 472:STM32F10x_StdPeriph_Driver/src/stm32f10x_dma.c ****   *     @arg DMA1_FLAG_TE5: DMA1 Channel5 transfer error flag.
 473:STM32F10x_StdPeriph_Driver/src/stm32f10x_dma.c ****   *     @arg DMA1_FLAG_GL6: DMA1 Channel6 global flag.
 474:STM32F10x_StdPeriph_Driver/src/stm32f10x_dma.c ****   *     @arg DMA1_FLAG_TC6: DMA1 Channel6 transfer complete flag.
 475:STM32F10x_StdPeriph_Driver/src/stm32f10x_dma.c ****   *     @arg DMA1_FLAG_HT6: DMA1 Channel6 half transfer flag.
 476:STM32F10x_StdPeriph_Driver/src/stm32f10x_dma.c ****   *     @arg DMA1_FLAG_TE6: DMA1 Channel6 transfer error flag.
 477:STM32F10x_StdPeriph_Driver/src/stm32f10x_dma.c ****   *     @arg DMA1_FLAG_GL7: DMA1 Channel7 global flag.
 478:STM32F10x_StdPeriph_Driver/src/stm32f10x_dma.c ****   *     @arg DMA1_FLAG_TC7: DMA1 Channel7 transfer complete flag.
 479:STM32F10x_StdPeriph_Driver/src/stm32f10x_dma.c ****   *     @arg DMA1_FLAG_HT7: DMA1 Channel7 half transfer flag.
 480:STM32F10x_StdPeriph_Driver/src/stm32f10x_dma.c ****   *     @arg DMA1_FLAG_TE7: DMA1 Channel7 transfer error flag.
ARM GAS  /var/folders/g9/bbpj86ld7fx45vd1b3pqxmp00000gn/T//ccwT0TNs.s 			page 29


 481:STM32F10x_StdPeriph_Driver/src/stm32f10x_dma.c ****   *     @arg DMA2_FLAG_GL1: DMA2 Channel1 global flag.
 482:STM32F10x_StdPeriph_Driver/src/stm32f10x_dma.c ****   *     @arg DMA2_FLAG_TC1: DMA2 Channel1 transfer complete flag.
 483:STM32F10x_StdPeriph_Driver/src/stm32f10x_dma.c ****   *     @arg DMA2_FLAG_HT1: DMA2 Channel1 half transfer flag.
 484:STM32F10x_StdPeriph_Driver/src/stm32f10x_dma.c ****   *     @arg DMA2_FLAG_TE1: DMA2 Channel1 transfer error flag.
 485:STM32F10x_StdPeriph_Driver/src/stm32f10x_dma.c ****   *     @arg DMA2_FLAG_GL2: DMA2 Channel2 global flag.
 486:STM32F10x_StdPeriph_Driver/src/stm32f10x_dma.c ****   *     @arg DMA2_FLAG_TC2: DMA2 Channel2 transfer complete flag.
 487:STM32F10x_StdPeriph_Driver/src/stm32f10x_dma.c ****   *     @arg DMA2_FLAG_HT2: DMA2 Channel2 half transfer flag.
 488:STM32F10x_StdPeriph_Driver/src/stm32f10x_dma.c ****   *     @arg DMA2_FLAG_TE2: DMA2 Channel2 transfer error flag.
 489:STM32F10x_StdPeriph_Driver/src/stm32f10x_dma.c ****   *     @arg DMA2_FLAG_GL3: DMA2 Channel3 global flag.
 490:STM32F10x_StdPeriph_Driver/src/stm32f10x_dma.c ****   *     @arg DMA2_FLAG_TC3: DMA2 Channel3 transfer complete flag.
 491:STM32F10x_StdPeriph_Driver/src/stm32f10x_dma.c ****   *     @arg DMA2_FLAG_HT3: DMA2 Channel3 half transfer flag.
 492:STM32F10x_StdPeriph_Driver/src/stm32f10x_dma.c ****   *     @arg DMA2_FLAG_TE3: DMA2 Channel3 transfer error flag.
 493:STM32F10x_StdPeriph_Driver/src/stm32f10x_dma.c ****   *     @arg DMA2_FLAG_GL4: DMA2 Channel4 global flag.
 494:STM32F10x_StdPeriph_Driver/src/stm32f10x_dma.c ****   *     @arg DMA2_FLAG_TC4: DMA2 Channel4 transfer complete flag.
 495:STM32F10x_StdPeriph_Driver/src/stm32f10x_dma.c ****   *     @arg DMA2_FLAG_HT4: DMA2 Channel4 half transfer flag.
 496:STM32F10x_StdPeriph_Driver/src/stm32f10x_dma.c ****   *     @arg DMA2_FLAG_TE4: DMA2 Channel4 transfer error flag.
 497:STM32F10x_StdPeriph_Driver/src/stm32f10x_dma.c ****   *     @arg DMA2_FLAG_GL5: DMA2 Channel5 global flag.
 498:STM32F10x_StdPeriph_Driver/src/stm32f10x_dma.c ****   *     @arg DMA2_FLAG_TC5: DMA2 Channel5 transfer complete flag.
 499:STM32F10x_StdPeriph_Driver/src/stm32f10x_dma.c ****   *     @arg DMA2_FLAG_HT5: DMA2 Channel5 half transfer flag.
 500:STM32F10x_StdPeriph_Driver/src/stm32f10x_dma.c ****   *     @arg DMA2_FLAG_TE5: DMA2 Channel5 transfer error flag.
 501:STM32F10x_StdPeriph_Driver/src/stm32f10x_dma.c ****   * @retval None
 502:STM32F10x_StdPeriph_Driver/src/stm32f10x_dma.c ****   */
 503:STM32F10x_StdPeriph_Driver/src/stm32f10x_dma.c **** void DMA_ClearFlag(uint32_t DMA_FLAG)
 504:STM32F10x_StdPeriph_Driver/src/stm32f10x_dma.c **** {
 1128              		.loc 1 504 0
 1129              		.cfi_startproc
 1130              		@ args = 0, pretend = 0, frame = 0
 1131              		@ frame_needed = 0, uses_anonymous_args = 0
 1132              	.LVL67:
 1133 0000 10B5     		push	{r4, lr}
 1134              	.LCFI6:
 1135              		.cfi_def_cfa_offset 8
 1136              		.cfi_offset 4, -8
 1137              		.cfi_offset 14, -4
 1138 0002 0446     		mov	r4, r0
 505:STM32F10x_StdPeriph_Driver/src/stm32f10x_dma.c ****   /* Check the parameters */
 506:STM32F10x_StdPeriph_Driver/src/stm32f10x_dma.c ****   assert_param(IS_DMA_CLEAR_FLAG(DMA_FLAG));
 1139              		.loc 1 506 0
 1140 0004 10F0704F 		tst	r0, #-268435456
 1141 0008 02D0     		beq	.L66
 1142              		.loc 1 506 0 is_stmt 0 discriminator 1
 1143 000a 094B     		ldr	r3, .L72
 1144 000c 0340     		ands	r3, r3, r0
 1145 000e 03B9     		cbnz	r3, .L67
 1146              	.L66:
 1147              		.loc 1 506 0 discriminator 4
 1148 0010 24B9     		cbnz	r4, .L68
 1149              	.L67:
 1150              		.loc 1 506 0 discriminator 5
 1151 0012 4FF4FD71 		mov	r1, #506
 1152 0016 0748     		ldr	r0, .L72+4
 1153              	.LVL68:
 1154 0018 FFF7FEFF 		bl	assert_failed
 1155              	.LVL69:
 1156              	.L68:
 507:STM32F10x_StdPeriph_Driver/src/stm32f10x_dma.c ****   /* Calculate the used DMA */
 508:STM32F10x_StdPeriph_Driver/src/stm32f10x_dma.c **** 
ARM GAS  /var/folders/g9/bbpj86ld7fx45vd1b3pqxmp00000gn/T//ccwT0TNs.s 			page 30


 509:STM32F10x_StdPeriph_Driver/src/stm32f10x_dma.c ****   if ((DMA_FLAG & FLAG_Mask) != (uint32_t)RESET)
 1157              		.loc 1 509 0 is_stmt 1
 1158 001c 14F0805F 		tst	r4, #268435456
 1159 0020 02D0     		beq	.L69
 510:STM32F10x_StdPeriph_Driver/src/stm32f10x_dma.c ****   {
 511:STM32F10x_StdPeriph_Driver/src/stm32f10x_dma.c ****     /* Clear the selected DMA flags */
 512:STM32F10x_StdPeriph_Driver/src/stm32f10x_dma.c ****     DMA2->IFCR = DMA_FLAG;
 1160              		.loc 1 512 0
 1161 0022 054B     		ldr	r3, .L72+8
 1162 0024 5C60     		str	r4, [r3, #4]
 1163 0026 10BD     		pop	{r4, pc}
 1164              	.LVL70:
 1165              	.L69:
 513:STM32F10x_StdPeriph_Driver/src/stm32f10x_dma.c ****   }
 514:STM32F10x_StdPeriph_Driver/src/stm32f10x_dma.c ****   else
 515:STM32F10x_StdPeriph_Driver/src/stm32f10x_dma.c ****   {
 516:STM32F10x_StdPeriph_Driver/src/stm32f10x_dma.c ****     /* Clear the selected DMA flags */
 517:STM32F10x_StdPeriph_Driver/src/stm32f10x_dma.c ****     DMA1->IFCR = DMA_FLAG;
 1166              		.loc 1 517 0
 1167 0028 044B     		ldr	r3, .L72+12
 1168 002a 5C60     		str	r4, [r3, #4]
 1169 002c 10BD     		pop	{r4, pc}
 1170              	.LVL71:
 1171              	.L73:
 1172 002e 00BF     		.align	2
 1173              	.L72:
 1174 0030 0000F0EF 		.word	-269484032
 1175 0034 00000000 		.word	.LC0
 1176 0038 00040240 		.word	1073873920
 1177 003c 00000240 		.word	1073872896
 1178              		.cfi_endproc
 1179              	.LFE34:
 1181              		.section	.text.DMA_GetITStatus,"ax",%progbits
 1182              		.align	2
 1183              		.global	DMA_GetITStatus
 1184              		.thumb
 1185              		.thumb_func
 1187              	DMA_GetITStatus:
 1188              	.LFB35:
 518:STM32F10x_StdPeriph_Driver/src/stm32f10x_dma.c ****   }
 519:STM32F10x_StdPeriph_Driver/src/stm32f10x_dma.c **** }
 520:STM32F10x_StdPeriph_Driver/src/stm32f10x_dma.c **** 
 521:STM32F10x_StdPeriph_Driver/src/stm32f10x_dma.c **** /**
 522:STM32F10x_StdPeriph_Driver/src/stm32f10x_dma.c ****   * @brief  Checks whether the specified DMAy Channelx interrupt has occurred or not.
 523:STM32F10x_StdPeriph_Driver/src/stm32f10x_dma.c ****   * @param  DMA_IT: specifies the DMA interrupt source to check. 
 524:STM32F10x_StdPeriph_Driver/src/stm32f10x_dma.c ****   *   This parameter can be one of the following values:
 525:STM32F10x_StdPeriph_Driver/src/stm32f10x_dma.c ****   *     @arg DMA1_IT_GL1: DMA1 Channel1 global interrupt.
 526:STM32F10x_StdPeriph_Driver/src/stm32f10x_dma.c ****   *     @arg DMA1_IT_TC1: DMA1 Channel1 transfer complete interrupt.
 527:STM32F10x_StdPeriph_Driver/src/stm32f10x_dma.c ****   *     @arg DMA1_IT_HT1: DMA1 Channel1 half transfer interrupt.
 528:STM32F10x_StdPeriph_Driver/src/stm32f10x_dma.c ****   *     @arg DMA1_IT_TE1: DMA1 Channel1 transfer error interrupt.
 529:STM32F10x_StdPeriph_Driver/src/stm32f10x_dma.c ****   *     @arg DMA1_IT_GL2: DMA1 Channel2 global interrupt.
 530:STM32F10x_StdPeriph_Driver/src/stm32f10x_dma.c ****   *     @arg DMA1_IT_TC2: DMA1 Channel2 transfer complete interrupt.
 531:STM32F10x_StdPeriph_Driver/src/stm32f10x_dma.c ****   *     @arg DMA1_IT_HT2: DMA1 Channel2 half transfer interrupt.
 532:STM32F10x_StdPeriph_Driver/src/stm32f10x_dma.c ****   *     @arg DMA1_IT_TE2: DMA1 Channel2 transfer error interrupt.
 533:STM32F10x_StdPeriph_Driver/src/stm32f10x_dma.c ****   *     @arg DMA1_IT_GL3: DMA1 Channel3 global interrupt.
 534:STM32F10x_StdPeriph_Driver/src/stm32f10x_dma.c ****   *     @arg DMA1_IT_TC3: DMA1 Channel3 transfer complete interrupt.
 535:STM32F10x_StdPeriph_Driver/src/stm32f10x_dma.c ****   *     @arg DMA1_IT_HT3: DMA1 Channel3 half transfer interrupt.
ARM GAS  /var/folders/g9/bbpj86ld7fx45vd1b3pqxmp00000gn/T//ccwT0TNs.s 			page 31


 536:STM32F10x_StdPeriph_Driver/src/stm32f10x_dma.c ****   *     @arg DMA1_IT_TE3: DMA1 Channel3 transfer error interrupt.
 537:STM32F10x_StdPeriph_Driver/src/stm32f10x_dma.c ****   *     @arg DMA1_IT_GL4: DMA1 Channel4 global interrupt.
 538:STM32F10x_StdPeriph_Driver/src/stm32f10x_dma.c ****   *     @arg DMA1_IT_TC4: DMA1 Channel4 transfer complete interrupt.
 539:STM32F10x_StdPeriph_Driver/src/stm32f10x_dma.c ****   *     @arg DMA1_IT_HT4: DMA1 Channel4 half transfer interrupt.
 540:STM32F10x_StdPeriph_Driver/src/stm32f10x_dma.c ****   *     @arg DMA1_IT_TE4: DMA1 Channel4 transfer error interrupt.
 541:STM32F10x_StdPeriph_Driver/src/stm32f10x_dma.c ****   *     @arg DMA1_IT_GL5: DMA1 Channel5 global interrupt.
 542:STM32F10x_StdPeriph_Driver/src/stm32f10x_dma.c ****   *     @arg DMA1_IT_TC5: DMA1 Channel5 transfer complete interrupt.
 543:STM32F10x_StdPeriph_Driver/src/stm32f10x_dma.c ****   *     @arg DMA1_IT_HT5: DMA1 Channel5 half transfer interrupt.
 544:STM32F10x_StdPeriph_Driver/src/stm32f10x_dma.c ****   *     @arg DMA1_IT_TE5: DMA1 Channel5 transfer error interrupt.
 545:STM32F10x_StdPeriph_Driver/src/stm32f10x_dma.c ****   *     @arg DMA1_IT_GL6: DMA1 Channel6 global interrupt.
 546:STM32F10x_StdPeriph_Driver/src/stm32f10x_dma.c ****   *     @arg DMA1_IT_TC6: DMA1 Channel6 transfer complete interrupt.
 547:STM32F10x_StdPeriph_Driver/src/stm32f10x_dma.c ****   *     @arg DMA1_IT_HT6: DMA1 Channel6 half transfer interrupt.
 548:STM32F10x_StdPeriph_Driver/src/stm32f10x_dma.c ****   *     @arg DMA1_IT_TE6: DMA1 Channel6 transfer error interrupt.
 549:STM32F10x_StdPeriph_Driver/src/stm32f10x_dma.c ****   *     @arg DMA1_IT_GL7: DMA1 Channel7 global interrupt.
 550:STM32F10x_StdPeriph_Driver/src/stm32f10x_dma.c ****   *     @arg DMA1_IT_TC7: DMA1 Channel7 transfer complete interrupt.
 551:STM32F10x_StdPeriph_Driver/src/stm32f10x_dma.c ****   *     @arg DMA1_IT_HT7: DMA1 Channel7 half transfer interrupt.
 552:STM32F10x_StdPeriph_Driver/src/stm32f10x_dma.c ****   *     @arg DMA1_IT_TE7: DMA1 Channel7 transfer error interrupt.
 553:STM32F10x_StdPeriph_Driver/src/stm32f10x_dma.c ****   *     @arg DMA2_IT_GL1: DMA2 Channel1 global interrupt.
 554:STM32F10x_StdPeriph_Driver/src/stm32f10x_dma.c ****   *     @arg DMA2_IT_TC1: DMA2 Channel1 transfer complete interrupt.
 555:STM32F10x_StdPeriph_Driver/src/stm32f10x_dma.c ****   *     @arg DMA2_IT_HT1: DMA2 Channel1 half transfer interrupt.
 556:STM32F10x_StdPeriph_Driver/src/stm32f10x_dma.c ****   *     @arg DMA2_IT_TE1: DMA2 Channel1 transfer error interrupt.
 557:STM32F10x_StdPeriph_Driver/src/stm32f10x_dma.c ****   *     @arg DMA2_IT_GL2: DMA2 Channel2 global interrupt.
 558:STM32F10x_StdPeriph_Driver/src/stm32f10x_dma.c ****   *     @arg DMA2_IT_TC2: DMA2 Channel2 transfer complete interrupt.
 559:STM32F10x_StdPeriph_Driver/src/stm32f10x_dma.c ****   *     @arg DMA2_IT_HT2: DMA2 Channel2 half transfer interrupt.
 560:STM32F10x_StdPeriph_Driver/src/stm32f10x_dma.c ****   *     @arg DMA2_IT_TE2: DMA2 Channel2 transfer error interrupt.
 561:STM32F10x_StdPeriph_Driver/src/stm32f10x_dma.c ****   *     @arg DMA2_IT_GL3: DMA2 Channel3 global interrupt.
 562:STM32F10x_StdPeriph_Driver/src/stm32f10x_dma.c ****   *     @arg DMA2_IT_TC3: DMA2 Channel3 transfer complete interrupt.
 563:STM32F10x_StdPeriph_Driver/src/stm32f10x_dma.c ****   *     @arg DMA2_IT_HT3: DMA2 Channel3 half transfer interrupt.
 564:STM32F10x_StdPeriph_Driver/src/stm32f10x_dma.c ****   *     @arg DMA2_IT_TE3: DMA2 Channel3 transfer error interrupt.
 565:STM32F10x_StdPeriph_Driver/src/stm32f10x_dma.c ****   *     @arg DMA2_IT_GL4: DMA2 Channel4 global interrupt.
 566:STM32F10x_StdPeriph_Driver/src/stm32f10x_dma.c ****   *     @arg DMA2_IT_TC4: DMA2 Channel4 transfer complete interrupt.
 567:STM32F10x_StdPeriph_Driver/src/stm32f10x_dma.c ****   *     @arg DMA2_IT_HT4: DMA2 Channel4 half transfer interrupt.
 568:STM32F10x_StdPeriph_Driver/src/stm32f10x_dma.c ****   *     @arg DMA2_IT_TE4: DMA2 Channel4 transfer error interrupt.
 569:STM32F10x_StdPeriph_Driver/src/stm32f10x_dma.c ****   *     @arg DMA2_IT_GL5: DMA2 Channel5 global interrupt.
 570:STM32F10x_StdPeriph_Driver/src/stm32f10x_dma.c ****   *     @arg DMA2_IT_TC5: DMA2 Channel5 transfer complete interrupt.
 571:STM32F10x_StdPeriph_Driver/src/stm32f10x_dma.c ****   *     @arg DMA2_IT_HT5: DMA2 Channel5 half transfer interrupt.
 572:STM32F10x_StdPeriph_Driver/src/stm32f10x_dma.c ****   *     @arg DMA2_IT_TE5: DMA2 Channel5 transfer error interrupt.
 573:STM32F10x_StdPeriph_Driver/src/stm32f10x_dma.c ****   * @retval The new state of DMA_IT (SET or RESET).
 574:STM32F10x_StdPeriph_Driver/src/stm32f10x_dma.c ****   */
 575:STM32F10x_StdPeriph_Driver/src/stm32f10x_dma.c **** ITStatus DMA_GetITStatus(uint32_t DMA_IT)
 576:STM32F10x_StdPeriph_Driver/src/stm32f10x_dma.c **** {
 1189              		.loc 1 576 0
 1190              		.cfi_startproc
 1191              		@ args = 0, pretend = 0, frame = 0
 1192              		@ frame_needed = 0, uses_anonymous_args = 0
 1193              	.LVL72:
 1194 0000 10B5     		push	{r4, lr}
 1195              	.LCFI7:
 1196              		.cfi_def_cfa_offset 8
 1197              		.cfi_offset 4, -8
 1198              		.cfi_offset 14, -4
 1199 0002 0446     		mov	r4, r0
 1200              	.LVL73:
 577:STM32F10x_StdPeriph_Driver/src/stm32f10x_dma.c ****   ITStatus bitstatus = RESET;
 578:STM32F10x_StdPeriph_Driver/src/stm32f10x_dma.c ****   uint32_t tmpreg = 0;
 579:STM32F10x_StdPeriph_Driver/src/stm32f10x_dma.c ****   /* Check the parameters */
 580:STM32F10x_StdPeriph_Driver/src/stm32f10x_dma.c ****   assert_param(IS_DMA_GET_IT(DMA_IT));
ARM GAS  /var/folders/g9/bbpj86ld7fx45vd1b3pqxmp00000gn/T//ccwT0TNs.s 			page 32


 1201              		.loc 1 580 0
 1202 0004 431E     		subs	r3, r0, #1
 1203 0006 012B     		cmp	r3, #1
 1204 0008 40F29B80 		bls	.L75
 1205              		.loc 1 580 0 is_stmt 0 discriminator 1
 1206 000c 0428     		cmp	r0, #4
 1207 000e 00F09880 		beq	.L75
 1208              		.loc 1 580 0 discriminator 2
 1209 0012 0828     		cmp	r0, #8
 1210 0014 00F09580 		beq	.L75
 1211              		.loc 1 580 0 discriminator 3
 1212 0018 1028     		cmp	r0, #16
 1213 001a 00F09280 		beq	.L75
 1214              		.loc 1 580 0 discriminator 4
 1215 001e 2028     		cmp	r0, #32
 1216 0020 00F08F80 		beq	.L75
 1217              		.loc 1 580 0 discriminator 5
 1218 0024 4028     		cmp	r0, #64
 1219 0026 00F08C80 		beq	.L75
 1220              		.loc 1 580 0 discriminator 6
 1221 002a 8028     		cmp	r0, #128
 1222 002c 00F08980 		beq	.L75
 1223              		.loc 1 580 0 discriminator 7
 1224 0030 B0F5807F 		cmp	r0, #256
 1225 0034 00F08580 		beq	.L75
 1226              		.loc 1 580 0 discriminator 8
 1227 0038 B0F5007F 		cmp	r0, #512
 1228 003c 00F08180 		beq	.L75
 1229              		.loc 1 580 0 discriminator 9
 1230 0040 B0F5806F 		cmp	r0, #1024
 1231 0044 7DD0     		beq	.L75
 1232              		.loc 1 580 0 discriminator 10
 1233 0046 B0F5006F 		cmp	r0, #2048
 1234 004a 7AD0     		beq	.L75
 1235              		.loc 1 580 0 discriminator 11
 1236 004c B0F5805F 		cmp	r0, #4096
 1237 0050 77D0     		beq	.L75
 1238              		.loc 1 580 0 discriminator 12
 1239 0052 B0F5005F 		cmp	r0, #8192
 1240 0056 74D0     		beq	.L75
 1241              		.loc 1 580 0 discriminator 13
 1242 0058 B0F5804F 		cmp	r0, #16384
 1243 005c 71D0     		beq	.L75
 1244              		.loc 1 580 0 discriminator 14
 1245 005e B0F5004F 		cmp	r0, #32768
 1246 0062 6ED0     		beq	.L75
 1247              		.loc 1 580 0 discriminator 15
 1248 0064 B0F5803F 		cmp	r0, #65536
 1249 0068 6BD0     		beq	.L75
 1250              		.loc 1 580 0 discriminator 16
 1251 006a B0F5003F 		cmp	r0, #131072
 1252 006e 68D0     		beq	.L75
 1253              		.loc 1 580 0 discriminator 17
 1254 0070 B0F5802F 		cmp	r0, #262144
 1255 0074 65D0     		beq	.L75
 1256              		.loc 1 580 0 discriminator 18
 1257 0076 B0F5002F 		cmp	r0, #524288
ARM GAS  /var/folders/g9/bbpj86ld7fx45vd1b3pqxmp00000gn/T//ccwT0TNs.s 			page 33


 1258 007a 62D0     		beq	.L75
 1259              		.loc 1 580 0 discriminator 19
 1260 007c B0F5801F 		cmp	r0, #1048576
 1261 0080 5FD0     		beq	.L75
 1262              		.loc 1 580 0 discriminator 20
 1263 0082 B0F5001F 		cmp	r0, #2097152
 1264 0086 5CD0     		beq	.L75
 1265              		.loc 1 580 0 discriminator 21
 1266 0088 B0F5800F 		cmp	r0, #4194304
 1267 008c 59D0     		beq	.L75
 1268              		.loc 1 580 0 discriminator 22
 1269 008e B0F5000F 		cmp	r0, #8388608
 1270 0092 56D0     		beq	.L75
 1271              		.loc 1 580 0 discriminator 23
 1272 0094 B0F1807F 		cmp	r0, #16777216
 1273 0098 53D0     		beq	.L75
 1274              		.loc 1 580 0 discriminator 24
 1275 009a B0F1007F 		cmp	r0, #33554432
 1276 009e 50D0     		beq	.L75
 1277              		.loc 1 580 0 discriminator 25
 1278 00a0 B0F1806F 		cmp	r0, #67108864
 1279 00a4 4DD0     		beq	.L75
 1280              		.loc 1 580 0 discriminator 26
 1281 00a6 B0F1006F 		cmp	r0, #134217728
 1282 00aa 4AD0     		beq	.L75
 1283              		.loc 1 580 0 discriminator 27
 1284 00ac 2C4B     		ldr	r3, .L81
 1285 00ae 9842     		cmp	r0, r3
 1286 00b0 47D0     		beq	.L75
 1287              		.loc 1 580 0 discriminator 28
 1288 00b2 0133     		adds	r3, r3, #1
 1289 00b4 9842     		cmp	r0, r3
 1290 00b6 44D0     		beq	.L75
 1291              		.loc 1 580 0 discriminator 29
 1292 00b8 0233     		adds	r3, r3, #2
 1293 00ba 9842     		cmp	r0, r3
 1294 00bc 41D0     		beq	.L75
 1295              		.loc 1 580 0 discriminator 30
 1296 00be 0433     		adds	r3, r3, #4
 1297 00c0 9842     		cmp	r0, r3
 1298 00c2 3ED0     		beq	.L75
 1299              		.loc 1 580 0 discriminator 31
 1300 00c4 0833     		adds	r3, r3, #8
 1301 00c6 9842     		cmp	r0, r3
 1302 00c8 3BD0     		beq	.L75
 1303              		.loc 1 580 0 discriminator 32
 1304 00ca 1033     		adds	r3, r3, #16
 1305 00cc 9842     		cmp	r0, r3
 1306 00ce 38D0     		beq	.L75
 1307              		.loc 1 580 0 discriminator 33
 1308 00d0 2033     		adds	r3, r3, #32
 1309 00d2 9842     		cmp	r0, r3
 1310 00d4 35D0     		beq	.L75
 1311              		.loc 1 580 0 discriminator 34
 1312 00d6 4033     		adds	r3, r3, #64
 1313 00d8 9842     		cmp	r0, r3
 1314 00da 32D0     		beq	.L75
ARM GAS  /var/folders/g9/bbpj86ld7fx45vd1b3pqxmp00000gn/T//ccwT0TNs.s 			page 34


 1315              		.loc 1 580 0 discriminator 35
 1316 00dc 8033     		adds	r3, r3, #128
 1317 00de 9842     		cmp	r0, r3
 1318 00e0 2FD0     		beq	.L75
 1319              		.loc 1 580 0 discriminator 36
 1320 00e2 03F58073 		add	r3, r3, #256
 1321 00e6 9842     		cmp	r0, r3
 1322 00e8 2BD0     		beq	.L75
 1323              		.loc 1 580 0 discriminator 37
 1324 00ea 03F50073 		add	r3, r3, #512
 1325 00ee 9842     		cmp	r0, r3
 1326 00f0 27D0     		beq	.L75
 1327              		.loc 1 580 0 discriminator 38
 1328 00f2 03F58063 		add	r3, r3, #1024
 1329 00f6 9842     		cmp	r0, r3
 1330 00f8 23D0     		beq	.L75
 1331              		.loc 1 580 0 discriminator 39
 1332 00fa B0F1102F 		cmp	r0, #268439552
 1333 00fe 20D0     		beq	.L75
 1334              		.loc 1 580 0 discriminator 40
 1335 0100 03F5C053 		add	r3, r3, #6144
 1336 0104 9842     		cmp	r0, r3
 1337 0106 1CD0     		beq	.L75
 1338              		.loc 1 580 0 discriminator 41
 1339 0108 03F50053 		add	r3, r3, #8192
 1340 010c 9842     		cmp	r0, r3
 1341 010e 18D0     		beq	.L75
 1342              		.loc 1 580 0 discriminator 42
 1343 0110 03F58043 		add	r3, r3, #16384
 1344 0114 9842     		cmp	r0, r3
 1345 0116 14D0     		beq	.L75
 1346              		.loc 1 580 0 discriminator 43
 1347 0118 03F50043 		add	r3, r3, #32768
 1348 011c 9842     		cmp	r0, r3
 1349 011e 10D0     		beq	.L75
 1350              		.loc 1 580 0 discriminator 44
 1351 0120 03F58033 		add	r3, r3, #65536
 1352 0124 9842     		cmp	r0, r3
 1353 0126 0CD0     		beq	.L75
 1354              		.loc 1 580 0 discriminator 45
 1355 0128 03F50033 		add	r3, r3, #131072
 1356 012c 9842     		cmp	r0, r3
 1357 012e 08D0     		beq	.L75
 1358              		.loc 1 580 0 discriminator 46
 1359 0130 03F58023 		add	r3, r3, #262144
 1360 0134 9842     		cmp	r0, r3
 1361 0136 04D0     		beq	.L75
 1362              		.loc 1 580 0 discriminator 47
 1363 0138 4FF41171 		mov	r1, #580
 1364 013c 0948     		ldr	r0, .L81+4
 1365              	.LVL74:
 1366 013e FFF7FEFF 		bl	assert_failed
 1367              	.LVL75:
 1368              	.L75:
 581:STM32F10x_StdPeriph_Driver/src/stm32f10x_dma.c **** 
 582:STM32F10x_StdPeriph_Driver/src/stm32f10x_dma.c ****   /* Calculate the used DMA */
 583:STM32F10x_StdPeriph_Driver/src/stm32f10x_dma.c ****   if ((DMA_IT & FLAG_Mask) != (uint32_t)RESET)
ARM GAS  /var/folders/g9/bbpj86ld7fx45vd1b3pqxmp00000gn/T//ccwT0TNs.s 			page 35


 1369              		.loc 1 583 0 is_stmt 1
 1370 0142 14F0805F 		tst	r4, #268435456
 1371 0146 02D0     		beq	.L76
 584:STM32F10x_StdPeriph_Driver/src/stm32f10x_dma.c ****   {
 585:STM32F10x_StdPeriph_Driver/src/stm32f10x_dma.c ****     /* Get DMA2 ISR register value */
 586:STM32F10x_StdPeriph_Driver/src/stm32f10x_dma.c ****     tmpreg = DMA2->ISR ;
 1372              		.loc 1 586 0
 1373 0148 074B     		ldr	r3, .L81+8
 1374 014a 1B68     		ldr	r3, [r3]
 1375              	.LVL76:
 1376 014c 01E0     		b	.L77
 1377              	.LVL77:
 1378              	.L76:
 587:STM32F10x_StdPeriph_Driver/src/stm32f10x_dma.c ****   }
 588:STM32F10x_StdPeriph_Driver/src/stm32f10x_dma.c ****   else
 589:STM32F10x_StdPeriph_Driver/src/stm32f10x_dma.c ****   {
 590:STM32F10x_StdPeriph_Driver/src/stm32f10x_dma.c ****     /* Get DMA1 ISR register value */
 591:STM32F10x_StdPeriph_Driver/src/stm32f10x_dma.c ****     tmpreg = DMA1->ISR ;
 1379              		.loc 1 591 0
 1380 014e 074B     		ldr	r3, .L81+12
 1381 0150 1B68     		ldr	r3, [r3]
 1382              	.LVL78:
 1383              	.L77:
 592:STM32F10x_StdPeriph_Driver/src/stm32f10x_dma.c ****   }
 593:STM32F10x_StdPeriph_Driver/src/stm32f10x_dma.c **** 
 594:STM32F10x_StdPeriph_Driver/src/stm32f10x_dma.c ****   /* Check the status of the specified DMA interrupt */
 595:STM32F10x_StdPeriph_Driver/src/stm32f10x_dma.c ****   if ((tmpreg & DMA_IT) != (uint32_t)RESET)
 1384              		.loc 1 595 0
 1385 0152 2342     		tst	r3, r4
 1386 0154 01D0     		beq	.L79
 596:STM32F10x_StdPeriph_Driver/src/stm32f10x_dma.c ****   {
 597:STM32F10x_StdPeriph_Driver/src/stm32f10x_dma.c ****     /* DMA_IT is set */
 598:STM32F10x_StdPeriph_Driver/src/stm32f10x_dma.c ****     bitstatus = SET;
 1387              		.loc 1 598 0
 1388 0156 0120     		movs	r0, #1
 1389 0158 10BD     		pop	{r4, pc}
 1390              	.LVL79:
 1391              	.L79:
 599:STM32F10x_StdPeriph_Driver/src/stm32f10x_dma.c ****   }
 600:STM32F10x_StdPeriph_Driver/src/stm32f10x_dma.c ****   else
 601:STM32F10x_StdPeriph_Driver/src/stm32f10x_dma.c ****   {
 602:STM32F10x_StdPeriph_Driver/src/stm32f10x_dma.c ****     /* DMA_IT is reset */
 603:STM32F10x_StdPeriph_Driver/src/stm32f10x_dma.c ****     bitstatus = RESET;
 1392              		.loc 1 603 0
 1393 015a 0020     		movs	r0, #0
 1394              	.LVL80:
 604:STM32F10x_StdPeriph_Driver/src/stm32f10x_dma.c ****   }
 605:STM32F10x_StdPeriph_Driver/src/stm32f10x_dma.c ****   /* Return the DMA_IT status */
 606:STM32F10x_StdPeriph_Driver/src/stm32f10x_dma.c ****   return  bitstatus;
 607:STM32F10x_StdPeriph_Driver/src/stm32f10x_dma.c **** }
 1395              		.loc 1 607 0
 1396 015c 10BD     		pop	{r4, pc}
 1397              	.LVL81:
 1398              	.L82:
 1399 015e 00BF     		.align	2
 1400              	.L81:
 1401 0160 01000010 		.word	268435457
ARM GAS  /var/folders/g9/bbpj86ld7fx45vd1b3pqxmp00000gn/T//ccwT0TNs.s 			page 36


 1402 0164 00000000 		.word	.LC0
 1403 0168 00040240 		.word	1073873920
 1404 016c 00000240 		.word	1073872896
 1405              		.cfi_endproc
 1406              	.LFE35:
 1408              		.section	.text.DMA_ClearITPendingBit,"ax",%progbits
 1409              		.align	2
 1410              		.global	DMA_ClearITPendingBit
 1411              		.thumb
 1412              		.thumb_func
 1414              	DMA_ClearITPendingBit:
 1415              	.LFB36:
 608:STM32F10x_StdPeriph_Driver/src/stm32f10x_dma.c **** 
 609:STM32F10x_StdPeriph_Driver/src/stm32f10x_dma.c **** /**
 610:STM32F10x_StdPeriph_Driver/src/stm32f10x_dma.c ****   * @brief  Clears the DMAy Channelxs interrupt pending bits.
 611:STM32F10x_StdPeriph_Driver/src/stm32f10x_dma.c ****   * @param  DMA_IT: specifies the DMA interrupt pending bit to clear.
 612:STM32F10x_StdPeriph_Driver/src/stm32f10x_dma.c ****   *   This parameter can be any combination (for the same DMA) of the following values:
 613:STM32F10x_StdPeriph_Driver/src/stm32f10x_dma.c ****   *     @arg DMA1_IT_GL1: DMA1 Channel1 global interrupt.
 614:STM32F10x_StdPeriph_Driver/src/stm32f10x_dma.c ****   *     @arg DMA1_IT_TC1: DMA1 Channel1 transfer complete interrupt.
 615:STM32F10x_StdPeriph_Driver/src/stm32f10x_dma.c ****   *     @arg DMA1_IT_HT1: DMA1 Channel1 half transfer interrupt.
 616:STM32F10x_StdPeriph_Driver/src/stm32f10x_dma.c ****   *     @arg DMA1_IT_TE1: DMA1 Channel1 transfer error interrupt.
 617:STM32F10x_StdPeriph_Driver/src/stm32f10x_dma.c ****   *     @arg DMA1_IT_GL2: DMA1 Channel2 global interrupt.
 618:STM32F10x_StdPeriph_Driver/src/stm32f10x_dma.c ****   *     @arg DMA1_IT_TC2: DMA1 Channel2 transfer complete interrupt.
 619:STM32F10x_StdPeriph_Driver/src/stm32f10x_dma.c ****   *     @arg DMA1_IT_HT2: DMA1 Channel2 half transfer interrupt.
 620:STM32F10x_StdPeriph_Driver/src/stm32f10x_dma.c ****   *     @arg DMA1_IT_TE2: DMA1 Channel2 transfer error interrupt.
 621:STM32F10x_StdPeriph_Driver/src/stm32f10x_dma.c ****   *     @arg DMA1_IT_GL3: DMA1 Channel3 global interrupt.
 622:STM32F10x_StdPeriph_Driver/src/stm32f10x_dma.c ****   *     @arg DMA1_IT_TC3: DMA1 Channel3 transfer complete interrupt.
 623:STM32F10x_StdPeriph_Driver/src/stm32f10x_dma.c ****   *     @arg DMA1_IT_HT3: DMA1 Channel3 half transfer interrupt.
 624:STM32F10x_StdPeriph_Driver/src/stm32f10x_dma.c ****   *     @arg DMA1_IT_TE3: DMA1 Channel3 transfer error interrupt.
 625:STM32F10x_StdPeriph_Driver/src/stm32f10x_dma.c ****   *     @arg DMA1_IT_GL4: DMA1 Channel4 global interrupt.
 626:STM32F10x_StdPeriph_Driver/src/stm32f10x_dma.c ****   *     @arg DMA1_IT_TC4: DMA1 Channel4 transfer complete interrupt.
 627:STM32F10x_StdPeriph_Driver/src/stm32f10x_dma.c ****   *     @arg DMA1_IT_HT4: DMA1 Channel4 half transfer interrupt.
 628:STM32F10x_StdPeriph_Driver/src/stm32f10x_dma.c ****   *     @arg DMA1_IT_TE4: DMA1 Channel4 transfer error interrupt.
 629:STM32F10x_StdPeriph_Driver/src/stm32f10x_dma.c ****   *     @arg DMA1_IT_GL5: DMA1 Channel5 global interrupt.
 630:STM32F10x_StdPeriph_Driver/src/stm32f10x_dma.c ****   *     @arg DMA1_IT_TC5: DMA1 Channel5 transfer complete interrupt.
 631:STM32F10x_StdPeriph_Driver/src/stm32f10x_dma.c ****   *     @arg DMA1_IT_HT5: DMA1 Channel5 half transfer interrupt.
 632:STM32F10x_StdPeriph_Driver/src/stm32f10x_dma.c ****   *     @arg DMA1_IT_TE5: DMA1 Channel5 transfer error interrupt.
 633:STM32F10x_StdPeriph_Driver/src/stm32f10x_dma.c ****   *     @arg DMA1_IT_GL6: DMA1 Channel6 global interrupt.
 634:STM32F10x_StdPeriph_Driver/src/stm32f10x_dma.c ****   *     @arg DMA1_IT_TC6: DMA1 Channel6 transfer complete interrupt.
 635:STM32F10x_StdPeriph_Driver/src/stm32f10x_dma.c ****   *     @arg DMA1_IT_HT6: DMA1 Channel6 half transfer interrupt.
 636:STM32F10x_StdPeriph_Driver/src/stm32f10x_dma.c ****   *     @arg DMA1_IT_TE6: DMA1 Channel6 transfer error interrupt.
 637:STM32F10x_StdPeriph_Driver/src/stm32f10x_dma.c ****   *     @arg DMA1_IT_GL7: DMA1 Channel7 global interrupt.
 638:STM32F10x_StdPeriph_Driver/src/stm32f10x_dma.c ****   *     @arg DMA1_IT_TC7: DMA1 Channel7 transfer complete interrupt.
 639:STM32F10x_StdPeriph_Driver/src/stm32f10x_dma.c ****   *     @arg DMA1_IT_HT7: DMA1 Channel7 half transfer interrupt.
 640:STM32F10x_StdPeriph_Driver/src/stm32f10x_dma.c ****   *     @arg DMA1_IT_TE7: DMA1 Channel7 transfer error interrupt.
 641:STM32F10x_StdPeriph_Driver/src/stm32f10x_dma.c ****   *     @arg DMA2_IT_GL1: DMA2 Channel1 global interrupt.
 642:STM32F10x_StdPeriph_Driver/src/stm32f10x_dma.c ****   *     @arg DMA2_IT_TC1: DMA2 Channel1 transfer complete interrupt.
 643:STM32F10x_StdPeriph_Driver/src/stm32f10x_dma.c ****   *     @arg DMA2_IT_HT1: DMA2 Channel1 half transfer interrupt.
 644:STM32F10x_StdPeriph_Driver/src/stm32f10x_dma.c ****   *     @arg DMA2_IT_TE1: DMA2 Channel1 transfer error interrupt.
 645:STM32F10x_StdPeriph_Driver/src/stm32f10x_dma.c ****   *     @arg DMA2_IT_GL2: DMA2 Channel2 global interrupt.
 646:STM32F10x_StdPeriph_Driver/src/stm32f10x_dma.c ****   *     @arg DMA2_IT_TC2: DMA2 Channel2 transfer complete interrupt.
 647:STM32F10x_StdPeriph_Driver/src/stm32f10x_dma.c ****   *     @arg DMA2_IT_HT2: DMA2 Channel2 half transfer interrupt.
 648:STM32F10x_StdPeriph_Driver/src/stm32f10x_dma.c ****   *     @arg DMA2_IT_TE2: DMA2 Channel2 transfer error interrupt.
 649:STM32F10x_StdPeriph_Driver/src/stm32f10x_dma.c ****   *     @arg DMA2_IT_GL3: DMA2 Channel3 global interrupt.
 650:STM32F10x_StdPeriph_Driver/src/stm32f10x_dma.c ****   *     @arg DMA2_IT_TC3: DMA2 Channel3 transfer complete interrupt.
 651:STM32F10x_StdPeriph_Driver/src/stm32f10x_dma.c ****   *     @arg DMA2_IT_HT3: DMA2 Channel3 half transfer interrupt.
 652:STM32F10x_StdPeriph_Driver/src/stm32f10x_dma.c ****   *     @arg DMA2_IT_TE3: DMA2 Channel3 transfer error interrupt.
ARM GAS  /var/folders/g9/bbpj86ld7fx45vd1b3pqxmp00000gn/T//ccwT0TNs.s 			page 37


 653:STM32F10x_StdPeriph_Driver/src/stm32f10x_dma.c ****   *     @arg DMA2_IT_GL4: DMA2 Channel4 global interrupt.
 654:STM32F10x_StdPeriph_Driver/src/stm32f10x_dma.c ****   *     @arg DMA2_IT_TC4: DMA2 Channel4 transfer complete interrupt.
 655:STM32F10x_StdPeriph_Driver/src/stm32f10x_dma.c ****   *     @arg DMA2_IT_HT4: DMA2 Channel4 half transfer interrupt.
 656:STM32F10x_StdPeriph_Driver/src/stm32f10x_dma.c ****   *     @arg DMA2_IT_TE4: DMA2 Channel4 transfer error interrupt.
 657:STM32F10x_StdPeriph_Driver/src/stm32f10x_dma.c ****   *     @arg DMA2_IT_GL5: DMA2 Channel5 global interrupt.
 658:STM32F10x_StdPeriph_Driver/src/stm32f10x_dma.c ****   *     @arg DMA2_IT_TC5: DMA2 Channel5 transfer complete interrupt.
 659:STM32F10x_StdPeriph_Driver/src/stm32f10x_dma.c ****   *     @arg DMA2_IT_HT5: DMA2 Channel5 half transfer interrupt.
 660:STM32F10x_StdPeriph_Driver/src/stm32f10x_dma.c ****   *     @arg DMA2_IT_TE5: DMA2 Channel5 transfer error interrupt.
 661:STM32F10x_StdPeriph_Driver/src/stm32f10x_dma.c ****   * @retval None
 662:STM32F10x_StdPeriph_Driver/src/stm32f10x_dma.c ****   */
 663:STM32F10x_StdPeriph_Driver/src/stm32f10x_dma.c **** void DMA_ClearITPendingBit(uint32_t DMA_IT)
 664:STM32F10x_StdPeriph_Driver/src/stm32f10x_dma.c **** {
 1416              		.loc 1 664 0
 1417              		.cfi_startproc
 1418              		@ args = 0, pretend = 0, frame = 0
 1419              		@ frame_needed = 0, uses_anonymous_args = 0
 1420              	.LVL82:
 1421 0000 10B5     		push	{r4, lr}
 1422              	.LCFI8:
 1423              		.cfi_def_cfa_offset 8
 1424              		.cfi_offset 4, -8
 1425              		.cfi_offset 14, -4
 1426 0002 0446     		mov	r4, r0
 665:STM32F10x_StdPeriph_Driver/src/stm32f10x_dma.c ****   /* Check the parameters */
 666:STM32F10x_StdPeriph_Driver/src/stm32f10x_dma.c ****   assert_param(IS_DMA_CLEAR_IT(DMA_IT));
 1427              		.loc 1 666 0
 1428 0004 10F0704F 		tst	r0, #-268435456
 1429 0008 02D0     		beq	.L84
 1430              		.loc 1 666 0 is_stmt 0 discriminator 1
 1431 000a 094B     		ldr	r3, .L90
 1432 000c 0340     		ands	r3, r3, r0
 1433 000e 03B9     		cbnz	r3, .L85
 1434              	.L84:
 1435              		.loc 1 666 0 discriminator 4
 1436 0010 24B9     		cbnz	r4, .L86
 1437              	.L85:
 1438              		.loc 1 666 0 discriminator 5
 1439 0012 40F29A21 		movw	r1, #666
 1440 0016 0748     		ldr	r0, .L90+4
 1441              	.LVL83:
 1442 0018 FFF7FEFF 		bl	assert_failed
 1443              	.LVL84:
 1444              	.L86:
 667:STM32F10x_StdPeriph_Driver/src/stm32f10x_dma.c **** 
 668:STM32F10x_StdPeriph_Driver/src/stm32f10x_dma.c ****   /* Calculate the used DMA */
 669:STM32F10x_StdPeriph_Driver/src/stm32f10x_dma.c ****   if ((DMA_IT & FLAG_Mask) != (uint32_t)RESET)
 1445              		.loc 1 669 0 is_stmt 1
 1446 001c 14F0805F 		tst	r4, #268435456
 1447 0020 02D0     		beq	.L87
 670:STM32F10x_StdPeriph_Driver/src/stm32f10x_dma.c ****   {
 671:STM32F10x_StdPeriph_Driver/src/stm32f10x_dma.c ****     /* Clear the selected DMA interrupt pending bits */
 672:STM32F10x_StdPeriph_Driver/src/stm32f10x_dma.c ****     DMA2->IFCR = DMA_IT;
 1448              		.loc 1 672 0
 1449 0022 054B     		ldr	r3, .L90+8
 1450 0024 5C60     		str	r4, [r3, #4]
 1451 0026 10BD     		pop	{r4, pc}
 1452              	.LVL85:
ARM GAS  /var/folders/g9/bbpj86ld7fx45vd1b3pqxmp00000gn/T//ccwT0TNs.s 			page 38


 1453              	.L87:
 673:STM32F10x_StdPeriph_Driver/src/stm32f10x_dma.c ****   }
 674:STM32F10x_StdPeriph_Driver/src/stm32f10x_dma.c ****   else
 675:STM32F10x_StdPeriph_Driver/src/stm32f10x_dma.c ****   {
 676:STM32F10x_StdPeriph_Driver/src/stm32f10x_dma.c ****     /* Clear the selected DMA interrupt pending bits */
 677:STM32F10x_StdPeriph_Driver/src/stm32f10x_dma.c ****     DMA1->IFCR = DMA_IT;
 1454              		.loc 1 677 0
 1455 0028 044B     		ldr	r3, .L90+12
 1456 002a 5C60     		str	r4, [r3, #4]
 1457 002c 10BD     		pop	{r4, pc}
 1458              	.LVL86:
 1459              	.L91:
 1460 002e 00BF     		.align	2
 1461              	.L90:
 1462 0030 0000F0EF 		.word	-269484032
 1463 0034 00000000 		.word	.LC0
 1464 0038 00040240 		.word	1073873920
 1465 003c 00000240 		.word	1073872896
 1466              		.cfi_endproc
 1467              	.LFE36:
 1469              		.section	.rodata.str1.4,"aMS",%progbits,1
 1470              		.align	2
 1471              	.LC0:
 1472 0000 53544D33 		.ascii	"STM32F10x_StdPeriph_Driver/src/stm32f10x_dma.c\000"
 1472      32463130 
 1472      785F5374 
 1472      64506572 
 1472      6970685F 
 1473              		.text
 1474              	.Letext0:
 1475              		.file 2 "/usr/local/Cellar/gcc-arm-none-eabi/20160926/arm-none-eabi/include/machine/_default_types
 1476              		.file 3 "/usr/local/Cellar/gcc-arm-none-eabi/20160926/arm-none-eabi/include/sys/_stdint.h"
 1477              		.file 4 "CMSIS/Core/CM3/stm32f10x.h"
 1478              		.file 5 "STM32F10x_StdPeriph_Driver/inc/stm32f10x_dma.h"
 1479              		.file 6 "Inc/stm32f10x_conf.h"
ARM GAS  /var/folders/g9/bbpj86ld7fx45vd1b3pqxmp00000gn/T//ccwT0TNs.s 			page 39

