ARM GAS  /var/folders/g9/bbpj86ld7fx45vd1b3pqxmp00000gn/T//cc7tuhUR.s 			page 1


   1              		.syntax unified
   2              		.cpu cortex-m3
   3              		.fpu softvfp
   4              		.eabi_attribute 20, 1
   5              		.eabi_attribute 21, 1
   6              		.eabi_attribute 23, 3
   7              		.eabi_attribute 24, 1
   8              		.eabi_attribute 25, 1
   9              		.eabi_attribute 26, 1
  10              		.eabi_attribute 30, 1
  11              		.eabi_attribute 34, 1
  12              		.eabi_attribute 18, 4
  13              		.thumb
  14              		.syntax unified
  15              		.file	"stm32f10x_adc.c"
  16              		.text
  17              	.Ltext0:
  18              		.cfi_sections	.debug_frame
  19              		.section	.text.ADC_DeInit,"ax",%progbits
  20              		.align	2
  21              		.global	ADC_DeInit
  22              		.thumb
  23              		.thumb_func
  25              	ADC_DeInit:
  26              	.LFB27:
  27              		.file 1 "STM32F10x_StdPeriph_Driver/src/stm32f10x_adc.c"
   1:STM32F10x_StdPeriph_Driver/src/stm32f10x_adc.c **** /**
   2:STM32F10x_StdPeriph_Driver/src/stm32f10x_adc.c ****   ******************************************************************************
   3:STM32F10x_StdPeriph_Driver/src/stm32f10x_adc.c ****   * @file    stm32f10x_adc.c
   4:STM32F10x_StdPeriph_Driver/src/stm32f10x_adc.c ****   * @author  MCD Application Team
   5:STM32F10x_StdPeriph_Driver/src/stm32f10x_adc.c ****   * @version V3.1.2
   6:STM32F10x_StdPeriph_Driver/src/stm32f10x_adc.c ****   * @date    09/28/2009
   7:STM32F10x_StdPeriph_Driver/src/stm32f10x_adc.c ****   * @brief   This file provides all the ADC firmware functions.
   8:STM32F10x_StdPeriph_Driver/src/stm32f10x_adc.c ****   ******************************************************************************
   9:STM32F10x_StdPeriph_Driver/src/stm32f10x_adc.c ****   * @copy
  10:STM32F10x_StdPeriph_Driver/src/stm32f10x_adc.c ****   *
  11:STM32F10x_StdPeriph_Driver/src/stm32f10x_adc.c ****   * THE PRESENT FIRMWARE WHICH IS FOR GUIDANCE ONLY AIMS AT PROVIDING CUSTOMERS
  12:STM32F10x_StdPeriph_Driver/src/stm32f10x_adc.c ****   * WITH CODING INFORMATION REGARDING THEIR PRODUCTS IN ORDER FOR THEM TO SAVE
  13:STM32F10x_StdPeriph_Driver/src/stm32f10x_adc.c ****   * TIME. AS A RESULT, STMICROELECTRONICS SHALL NOT BE HELD LIABLE FOR ANY
  14:STM32F10x_StdPeriph_Driver/src/stm32f10x_adc.c ****   * DIRECT, INDIRECT OR CONSEQUENTIAL DAMAGES WITH RESPECT TO ANY CLAIMS ARISING
  15:STM32F10x_StdPeriph_Driver/src/stm32f10x_adc.c ****   * FROM THE CONTENT OF SUCH FIRMWARE AND/OR THE USE MADE BY CUSTOMERS OF THE
  16:STM32F10x_StdPeriph_Driver/src/stm32f10x_adc.c ****   * CODING INFORMATION CONTAINED HEREIN IN CONNECTION WITH THEIR PRODUCTS.
  17:STM32F10x_StdPeriph_Driver/src/stm32f10x_adc.c ****   *
  18:STM32F10x_StdPeriph_Driver/src/stm32f10x_adc.c ****   * <h2><center>&copy; COPYRIGHT 2009 STMicroelectronics</center></h2>
  19:STM32F10x_StdPeriph_Driver/src/stm32f10x_adc.c ****   */ 
  20:STM32F10x_StdPeriph_Driver/src/stm32f10x_adc.c **** 
  21:STM32F10x_StdPeriph_Driver/src/stm32f10x_adc.c **** /* Includes ------------------------------------------------------------------*/
  22:STM32F10x_StdPeriph_Driver/src/stm32f10x_adc.c **** #include "stm32f10x_adc.h"
  23:STM32F10x_StdPeriph_Driver/src/stm32f10x_adc.c **** #include "stm32f10x_rcc.h"
  24:STM32F10x_StdPeriph_Driver/src/stm32f10x_adc.c **** 
  25:STM32F10x_StdPeriph_Driver/src/stm32f10x_adc.c **** /** @addtogroup STM32F10x_StdPeriph_Driver
  26:STM32F10x_StdPeriph_Driver/src/stm32f10x_adc.c ****   * @{
  27:STM32F10x_StdPeriph_Driver/src/stm32f10x_adc.c ****   */
  28:STM32F10x_StdPeriph_Driver/src/stm32f10x_adc.c **** 
  29:STM32F10x_StdPeriph_Driver/src/stm32f10x_adc.c **** /** @defgroup ADC 
  30:STM32F10x_StdPeriph_Driver/src/stm32f10x_adc.c ****   * @brief ADC driver modules
  31:STM32F10x_StdPeriph_Driver/src/stm32f10x_adc.c ****   * @{
ARM GAS  /var/folders/g9/bbpj86ld7fx45vd1b3pqxmp00000gn/T//cc7tuhUR.s 			page 2


  32:STM32F10x_StdPeriph_Driver/src/stm32f10x_adc.c ****   */
  33:STM32F10x_StdPeriph_Driver/src/stm32f10x_adc.c **** 
  34:STM32F10x_StdPeriph_Driver/src/stm32f10x_adc.c **** /** @defgroup ADC_Private_TypesDefinitions
  35:STM32F10x_StdPeriph_Driver/src/stm32f10x_adc.c ****   * @{
  36:STM32F10x_StdPeriph_Driver/src/stm32f10x_adc.c ****   */
  37:STM32F10x_StdPeriph_Driver/src/stm32f10x_adc.c **** 
  38:STM32F10x_StdPeriph_Driver/src/stm32f10x_adc.c **** /**
  39:STM32F10x_StdPeriph_Driver/src/stm32f10x_adc.c ****   * @}
  40:STM32F10x_StdPeriph_Driver/src/stm32f10x_adc.c ****   */
  41:STM32F10x_StdPeriph_Driver/src/stm32f10x_adc.c **** 
  42:STM32F10x_StdPeriph_Driver/src/stm32f10x_adc.c **** /** @defgroup ADC_Private_Defines
  43:STM32F10x_StdPeriph_Driver/src/stm32f10x_adc.c ****   * @{
  44:STM32F10x_StdPeriph_Driver/src/stm32f10x_adc.c ****   */
  45:STM32F10x_StdPeriph_Driver/src/stm32f10x_adc.c **** 
  46:STM32F10x_StdPeriph_Driver/src/stm32f10x_adc.c **** /* ADC DISCNUM mask */
  47:STM32F10x_StdPeriph_Driver/src/stm32f10x_adc.c **** #define CR1_DISCNUM_Reset           ((uint32_t)0xFFFF1FFF)
  48:STM32F10x_StdPeriph_Driver/src/stm32f10x_adc.c **** 
  49:STM32F10x_StdPeriph_Driver/src/stm32f10x_adc.c **** /* ADC DISCEN mask */
  50:STM32F10x_StdPeriph_Driver/src/stm32f10x_adc.c **** #define CR1_DISCEN_Set              ((uint32_t)0x00000800)
  51:STM32F10x_StdPeriph_Driver/src/stm32f10x_adc.c **** #define CR1_DISCEN_Reset            ((uint32_t)0xFFFFF7FF)
  52:STM32F10x_StdPeriph_Driver/src/stm32f10x_adc.c **** 
  53:STM32F10x_StdPeriph_Driver/src/stm32f10x_adc.c **** /* ADC JAUTO mask */
  54:STM32F10x_StdPeriph_Driver/src/stm32f10x_adc.c **** #define CR1_JAUTO_Set               ((uint32_t)0x00000400)
  55:STM32F10x_StdPeriph_Driver/src/stm32f10x_adc.c **** #define CR1_JAUTO_Reset             ((uint32_t)0xFFFFFBFF)
  56:STM32F10x_StdPeriph_Driver/src/stm32f10x_adc.c **** 
  57:STM32F10x_StdPeriph_Driver/src/stm32f10x_adc.c **** /* ADC JDISCEN mask */
  58:STM32F10x_StdPeriph_Driver/src/stm32f10x_adc.c **** #define CR1_JDISCEN_Set             ((uint32_t)0x00001000)
  59:STM32F10x_StdPeriph_Driver/src/stm32f10x_adc.c **** #define CR1_JDISCEN_Reset           ((uint32_t)0xFFFFEFFF)
  60:STM32F10x_StdPeriph_Driver/src/stm32f10x_adc.c **** 
  61:STM32F10x_StdPeriph_Driver/src/stm32f10x_adc.c **** /* ADC AWDCH mask */
  62:STM32F10x_StdPeriph_Driver/src/stm32f10x_adc.c **** #define CR1_AWDCH_Reset             ((uint32_t)0xFFFFFFE0)
  63:STM32F10x_StdPeriph_Driver/src/stm32f10x_adc.c **** 
  64:STM32F10x_StdPeriph_Driver/src/stm32f10x_adc.c **** /* ADC Analog watchdog enable mode mask */
  65:STM32F10x_StdPeriph_Driver/src/stm32f10x_adc.c **** #define CR1_AWDMode_Reset           ((uint32_t)0xFF3FFDFF)
  66:STM32F10x_StdPeriph_Driver/src/stm32f10x_adc.c **** 
  67:STM32F10x_StdPeriph_Driver/src/stm32f10x_adc.c **** /* CR1 register Mask */
  68:STM32F10x_StdPeriph_Driver/src/stm32f10x_adc.c **** #define CR1_CLEAR_Mask              ((uint32_t)0xFFF0FEFF)
  69:STM32F10x_StdPeriph_Driver/src/stm32f10x_adc.c **** 
  70:STM32F10x_StdPeriph_Driver/src/stm32f10x_adc.c **** /* ADC ADON mask */
  71:STM32F10x_StdPeriph_Driver/src/stm32f10x_adc.c **** #define CR2_ADON_Set                ((uint32_t)0x00000001)
  72:STM32F10x_StdPeriph_Driver/src/stm32f10x_adc.c **** #define CR2_ADON_Reset              ((uint32_t)0xFFFFFFFE)
  73:STM32F10x_StdPeriph_Driver/src/stm32f10x_adc.c **** 
  74:STM32F10x_StdPeriph_Driver/src/stm32f10x_adc.c **** /* ADC DMA mask */
  75:STM32F10x_StdPeriph_Driver/src/stm32f10x_adc.c **** #define CR2_DMA_Set                 ((uint32_t)0x00000100)
  76:STM32F10x_StdPeriph_Driver/src/stm32f10x_adc.c **** #define CR2_DMA_Reset               ((uint32_t)0xFFFFFEFF)
  77:STM32F10x_StdPeriph_Driver/src/stm32f10x_adc.c **** 
  78:STM32F10x_StdPeriph_Driver/src/stm32f10x_adc.c **** /* ADC RSTCAL mask */
  79:STM32F10x_StdPeriph_Driver/src/stm32f10x_adc.c **** #define CR2_RSTCAL_Set              ((uint32_t)0x00000008)
  80:STM32F10x_StdPeriph_Driver/src/stm32f10x_adc.c **** 
  81:STM32F10x_StdPeriph_Driver/src/stm32f10x_adc.c **** /* ADC CAL mask */
  82:STM32F10x_StdPeriph_Driver/src/stm32f10x_adc.c **** #define CR2_CAL_Set                 ((uint32_t)0x00000004)
  83:STM32F10x_StdPeriph_Driver/src/stm32f10x_adc.c **** 
  84:STM32F10x_StdPeriph_Driver/src/stm32f10x_adc.c **** /* ADC SWSTART mask */
  85:STM32F10x_StdPeriph_Driver/src/stm32f10x_adc.c **** #define CR2_SWSTART_Set             ((uint32_t)0x00400000)
  86:STM32F10x_StdPeriph_Driver/src/stm32f10x_adc.c **** 
  87:STM32F10x_StdPeriph_Driver/src/stm32f10x_adc.c **** /* ADC EXTTRIG mask */
  88:STM32F10x_StdPeriph_Driver/src/stm32f10x_adc.c **** #define CR2_EXTTRIG_Set             ((uint32_t)0x00100000)
ARM GAS  /var/folders/g9/bbpj86ld7fx45vd1b3pqxmp00000gn/T//cc7tuhUR.s 			page 3


  89:STM32F10x_StdPeriph_Driver/src/stm32f10x_adc.c **** #define CR2_EXTTRIG_Reset           ((uint32_t)0xFFEFFFFF)
  90:STM32F10x_StdPeriph_Driver/src/stm32f10x_adc.c **** 
  91:STM32F10x_StdPeriph_Driver/src/stm32f10x_adc.c **** /* ADC Software start mask */
  92:STM32F10x_StdPeriph_Driver/src/stm32f10x_adc.c **** #define CR2_EXTTRIG_SWSTART_Set     ((uint32_t)0x00500000)
  93:STM32F10x_StdPeriph_Driver/src/stm32f10x_adc.c **** #define CR2_EXTTRIG_SWSTART_Reset   ((uint32_t)0xFFAFFFFF)
  94:STM32F10x_StdPeriph_Driver/src/stm32f10x_adc.c **** 
  95:STM32F10x_StdPeriph_Driver/src/stm32f10x_adc.c **** /* ADC JEXTSEL mask */
  96:STM32F10x_StdPeriph_Driver/src/stm32f10x_adc.c **** #define CR2_JEXTSEL_Reset           ((uint32_t)0xFFFF8FFF)
  97:STM32F10x_StdPeriph_Driver/src/stm32f10x_adc.c **** 
  98:STM32F10x_StdPeriph_Driver/src/stm32f10x_adc.c **** /* ADC JEXTTRIG mask */
  99:STM32F10x_StdPeriph_Driver/src/stm32f10x_adc.c **** #define CR2_JEXTTRIG_Set            ((uint32_t)0x00008000)
 100:STM32F10x_StdPeriph_Driver/src/stm32f10x_adc.c **** #define CR2_JEXTTRIG_Reset          ((uint32_t)0xFFFF7FFF)
 101:STM32F10x_StdPeriph_Driver/src/stm32f10x_adc.c **** 
 102:STM32F10x_StdPeriph_Driver/src/stm32f10x_adc.c **** /* ADC JSWSTART mask */
 103:STM32F10x_StdPeriph_Driver/src/stm32f10x_adc.c **** #define CR2_JSWSTART_Set            ((uint32_t)0x00200000)
 104:STM32F10x_StdPeriph_Driver/src/stm32f10x_adc.c **** 
 105:STM32F10x_StdPeriph_Driver/src/stm32f10x_adc.c **** /* ADC injected software start mask */
 106:STM32F10x_StdPeriph_Driver/src/stm32f10x_adc.c **** #define CR2_JEXTTRIG_JSWSTART_Set   ((uint32_t)0x00208000)
 107:STM32F10x_StdPeriph_Driver/src/stm32f10x_adc.c **** #define CR2_JEXTTRIG_JSWSTART_Reset ((uint32_t)0xFFDF7FFF)
 108:STM32F10x_StdPeriph_Driver/src/stm32f10x_adc.c **** 
 109:STM32F10x_StdPeriph_Driver/src/stm32f10x_adc.c **** /* ADC TSPD mask */
 110:STM32F10x_StdPeriph_Driver/src/stm32f10x_adc.c **** #define CR2_TSVREFE_Set             ((uint32_t)0x00800000)
 111:STM32F10x_StdPeriph_Driver/src/stm32f10x_adc.c **** #define CR2_TSVREFE_Reset           ((uint32_t)0xFF7FFFFF)
 112:STM32F10x_StdPeriph_Driver/src/stm32f10x_adc.c **** 
 113:STM32F10x_StdPeriph_Driver/src/stm32f10x_adc.c **** /* CR2 register Mask */
 114:STM32F10x_StdPeriph_Driver/src/stm32f10x_adc.c **** #define CR2_CLEAR_Mask              ((uint32_t)0xFFF1F7FD)
 115:STM32F10x_StdPeriph_Driver/src/stm32f10x_adc.c **** 
 116:STM32F10x_StdPeriph_Driver/src/stm32f10x_adc.c **** /* ADC SQx mask */
 117:STM32F10x_StdPeriph_Driver/src/stm32f10x_adc.c **** #define SQR3_SQ_Set                 ((uint32_t)0x0000001F)
 118:STM32F10x_StdPeriph_Driver/src/stm32f10x_adc.c **** #define SQR2_SQ_Set                 ((uint32_t)0x0000001F)
 119:STM32F10x_StdPeriph_Driver/src/stm32f10x_adc.c **** #define SQR1_SQ_Set                 ((uint32_t)0x0000001F)
 120:STM32F10x_StdPeriph_Driver/src/stm32f10x_adc.c **** 
 121:STM32F10x_StdPeriph_Driver/src/stm32f10x_adc.c **** /* SQR1 register Mask */
 122:STM32F10x_StdPeriph_Driver/src/stm32f10x_adc.c **** #define SQR1_CLEAR_Mask             ((uint32_t)0xFF0FFFFF)
 123:STM32F10x_StdPeriph_Driver/src/stm32f10x_adc.c **** 
 124:STM32F10x_StdPeriph_Driver/src/stm32f10x_adc.c **** /* ADC JSQx mask */
 125:STM32F10x_StdPeriph_Driver/src/stm32f10x_adc.c **** #define JSQR_JSQ_Set                ((uint32_t)0x0000001F)
 126:STM32F10x_StdPeriph_Driver/src/stm32f10x_adc.c **** 
 127:STM32F10x_StdPeriph_Driver/src/stm32f10x_adc.c **** /* ADC JL mask */
 128:STM32F10x_StdPeriph_Driver/src/stm32f10x_adc.c **** #define JSQR_JL_Set                 ((uint32_t)0x00300000)
 129:STM32F10x_StdPeriph_Driver/src/stm32f10x_adc.c **** #define JSQR_JL_Reset               ((uint32_t)0xFFCFFFFF)
 130:STM32F10x_StdPeriph_Driver/src/stm32f10x_adc.c **** 
 131:STM32F10x_StdPeriph_Driver/src/stm32f10x_adc.c **** /* ADC SMPx mask */
 132:STM32F10x_StdPeriph_Driver/src/stm32f10x_adc.c **** #define SMPR1_SMP_Set               ((uint32_t)0x00000007)
 133:STM32F10x_StdPeriph_Driver/src/stm32f10x_adc.c **** #define SMPR2_SMP_Set               ((uint32_t)0x00000007)
 134:STM32F10x_StdPeriph_Driver/src/stm32f10x_adc.c **** 
 135:STM32F10x_StdPeriph_Driver/src/stm32f10x_adc.c **** /* ADC JDRx registers offset */
 136:STM32F10x_StdPeriph_Driver/src/stm32f10x_adc.c **** #define JDR_Offset                  ((uint8_t)0x28)
 137:STM32F10x_StdPeriph_Driver/src/stm32f10x_adc.c **** 
 138:STM32F10x_StdPeriph_Driver/src/stm32f10x_adc.c **** /* ADC1 DR register base address */
 139:STM32F10x_StdPeriph_Driver/src/stm32f10x_adc.c **** #define DR_ADDRESS                  ((uint32_t)0x4001244C)
 140:STM32F10x_StdPeriph_Driver/src/stm32f10x_adc.c **** 
 141:STM32F10x_StdPeriph_Driver/src/stm32f10x_adc.c **** /**
 142:STM32F10x_StdPeriph_Driver/src/stm32f10x_adc.c ****   * @}
 143:STM32F10x_StdPeriph_Driver/src/stm32f10x_adc.c ****   */
 144:STM32F10x_StdPeriph_Driver/src/stm32f10x_adc.c **** 
 145:STM32F10x_StdPeriph_Driver/src/stm32f10x_adc.c **** /** @defgroup ADC_Private_Macros
ARM GAS  /var/folders/g9/bbpj86ld7fx45vd1b3pqxmp00000gn/T//cc7tuhUR.s 			page 4


 146:STM32F10x_StdPeriph_Driver/src/stm32f10x_adc.c ****   * @{
 147:STM32F10x_StdPeriph_Driver/src/stm32f10x_adc.c ****   */
 148:STM32F10x_StdPeriph_Driver/src/stm32f10x_adc.c **** 
 149:STM32F10x_StdPeriph_Driver/src/stm32f10x_adc.c **** /**
 150:STM32F10x_StdPeriph_Driver/src/stm32f10x_adc.c ****   * @}
 151:STM32F10x_StdPeriph_Driver/src/stm32f10x_adc.c ****   */
 152:STM32F10x_StdPeriph_Driver/src/stm32f10x_adc.c **** 
 153:STM32F10x_StdPeriph_Driver/src/stm32f10x_adc.c **** /** @defgroup ADC_Private_Variables
 154:STM32F10x_StdPeriph_Driver/src/stm32f10x_adc.c ****   * @{
 155:STM32F10x_StdPeriph_Driver/src/stm32f10x_adc.c ****   */
 156:STM32F10x_StdPeriph_Driver/src/stm32f10x_adc.c **** 
 157:STM32F10x_StdPeriph_Driver/src/stm32f10x_adc.c **** /**
 158:STM32F10x_StdPeriph_Driver/src/stm32f10x_adc.c ****   * @}
 159:STM32F10x_StdPeriph_Driver/src/stm32f10x_adc.c ****   */
 160:STM32F10x_StdPeriph_Driver/src/stm32f10x_adc.c **** 
 161:STM32F10x_StdPeriph_Driver/src/stm32f10x_adc.c **** /** @defgroup ADC_Private_FunctionPrototypes
 162:STM32F10x_StdPeriph_Driver/src/stm32f10x_adc.c ****   * @{
 163:STM32F10x_StdPeriph_Driver/src/stm32f10x_adc.c ****   */
 164:STM32F10x_StdPeriph_Driver/src/stm32f10x_adc.c **** 
 165:STM32F10x_StdPeriph_Driver/src/stm32f10x_adc.c **** /**
 166:STM32F10x_StdPeriph_Driver/src/stm32f10x_adc.c ****   * @}
 167:STM32F10x_StdPeriph_Driver/src/stm32f10x_adc.c ****   */
 168:STM32F10x_StdPeriph_Driver/src/stm32f10x_adc.c **** 
 169:STM32F10x_StdPeriph_Driver/src/stm32f10x_adc.c **** /** @defgroup ADC_Private_Functions
 170:STM32F10x_StdPeriph_Driver/src/stm32f10x_adc.c ****   * @{
 171:STM32F10x_StdPeriph_Driver/src/stm32f10x_adc.c ****   */
 172:STM32F10x_StdPeriph_Driver/src/stm32f10x_adc.c **** 
 173:STM32F10x_StdPeriph_Driver/src/stm32f10x_adc.c **** /**
 174:STM32F10x_StdPeriph_Driver/src/stm32f10x_adc.c ****   * @brief  Deinitializes the ADCx peripheral registers to their default reset values.
 175:STM32F10x_StdPeriph_Driver/src/stm32f10x_adc.c ****   * @param  ADCx: where x can be 1, 2 or 3 to select the ADC peripheral.
 176:STM32F10x_StdPeriph_Driver/src/stm32f10x_adc.c ****   * @retval None
 177:STM32F10x_StdPeriph_Driver/src/stm32f10x_adc.c ****   */
 178:STM32F10x_StdPeriph_Driver/src/stm32f10x_adc.c **** void ADC_DeInit(ADC_TypeDef* ADCx)
 179:STM32F10x_StdPeriph_Driver/src/stm32f10x_adc.c **** {
  28              		.loc 1 179 0
  29              		.cfi_startproc
  30              		@ args = 0, pretend = 0, frame = 0
  31              		@ frame_needed = 0, uses_anonymous_args = 0
  32              	.LVL0:
  33 0000 10B5     		push	{r4, lr}
  34              	.LCFI0:
  35              		.cfi_def_cfa_offset 8
  36              		.cfi_offset 4, -8
  37              		.cfi_offset 14, -4
  38 0002 0446     		mov	r4, r0
 180:STM32F10x_StdPeriph_Driver/src/stm32f10x_adc.c ****   /* Check the parameters */
 181:STM32F10x_StdPeriph_Driver/src/stm32f10x_adc.c ****   assert_param(IS_ADC_ALL_PERIPH(ADCx));
  39              		.loc 1 181 0
  40 0004 1C4B     		ldr	r3, .L7
  41 0006 9842     		cmp	r0, r3
  42 0008 0BD0     		beq	.L2
  43              		.loc 1 181 0 is_stmt 0 discriminator 1
  44 000a 03F58063 		add	r3, r3, #1024
  45 000e 9842     		cmp	r0, r3
  46 0010 07D0     		beq	.L2
  47              		.loc 1 181 0 discriminator 2
  48 0012 03F5A053 		add	r3, r3, #5120
ARM GAS  /var/folders/g9/bbpj86ld7fx45vd1b3pqxmp00000gn/T//cc7tuhUR.s 			page 5


  49 0016 9842     		cmp	r0, r3
  50 0018 03D0     		beq	.L2
  51              		.loc 1 181 0 discriminator 3
  52 001a B521     		movs	r1, #181
  53 001c 1748     		ldr	r0, .L7+4
  54              	.LVL1:
  55 001e FFF7FEFF 		bl	assert_failed
  56              	.LVL2:
  57              	.L2:
 182:STM32F10x_StdPeriph_Driver/src/stm32f10x_adc.c ****   
 183:STM32F10x_StdPeriph_Driver/src/stm32f10x_adc.c ****   if (ADCx == ADC1)
  58              		.loc 1 183 0 is_stmt 1
  59 0022 154B     		ldr	r3, .L7
  60 0024 9C42     		cmp	r4, r3
  61 0026 0AD1     		bne	.L3
 184:STM32F10x_StdPeriph_Driver/src/stm32f10x_adc.c ****   {
 185:STM32F10x_StdPeriph_Driver/src/stm32f10x_adc.c ****     /* Enable ADC1 reset state */
 186:STM32F10x_StdPeriph_Driver/src/stm32f10x_adc.c ****     RCC_APB2PeriphResetCmd(RCC_APB2Periph_ADC1, ENABLE);
  62              		.loc 1 186 0
  63 0028 0121     		movs	r1, #1
  64 002a 4FF40070 		mov	r0, #512
  65 002e FFF7FEFF 		bl	RCC_APB2PeriphResetCmd
  66              	.LVL3:
 187:STM32F10x_StdPeriph_Driver/src/stm32f10x_adc.c ****     /* Release ADC1 from reset state */
 188:STM32F10x_StdPeriph_Driver/src/stm32f10x_adc.c ****     RCC_APB2PeriphResetCmd(RCC_APB2Periph_ADC1, DISABLE);
  67              		.loc 1 188 0
  68 0032 0021     		movs	r1, #0
  69 0034 4FF40070 		mov	r0, #512
  70 0038 FFF7FEFF 		bl	RCC_APB2PeriphResetCmd
  71              	.LVL4:
  72 003c 10BD     		pop	{r4, pc}
  73              	.LVL5:
  74              	.L3:
 189:STM32F10x_StdPeriph_Driver/src/stm32f10x_adc.c ****   }
 190:STM32F10x_StdPeriph_Driver/src/stm32f10x_adc.c ****   else if (ADCx == ADC2)
  75              		.loc 1 190 0
  76 003e 104B     		ldr	r3, .L7+8
  77 0040 9C42     		cmp	r4, r3
  78 0042 0AD1     		bne	.L5
 191:STM32F10x_StdPeriph_Driver/src/stm32f10x_adc.c ****   {
 192:STM32F10x_StdPeriph_Driver/src/stm32f10x_adc.c ****     /* Enable ADC2 reset state */
 193:STM32F10x_StdPeriph_Driver/src/stm32f10x_adc.c ****     RCC_APB2PeriphResetCmd(RCC_APB2Periph_ADC2, ENABLE);
  79              		.loc 1 193 0
  80 0044 0121     		movs	r1, #1
  81 0046 4FF48060 		mov	r0, #1024
  82 004a FFF7FEFF 		bl	RCC_APB2PeriphResetCmd
  83              	.LVL6:
 194:STM32F10x_StdPeriph_Driver/src/stm32f10x_adc.c ****     /* Release ADC2 from reset state */
 195:STM32F10x_StdPeriph_Driver/src/stm32f10x_adc.c ****     RCC_APB2PeriphResetCmd(RCC_APB2Periph_ADC2, DISABLE);
  84              		.loc 1 195 0
  85 004e 0021     		movs	r1, #0
  86 0050 4FF48060 		mov	r0, #1024
  87 0054 FFF7FEFF 		bl	RCC_APB2PeriphResetCmd
  88              	.LVL7:
  89 0058 10BD     		pop	{r4, pc}
  90              	.LVL8:
  91              	.L5:
ARM GAS  /var/folders/g9/bbpj86ld7fx45vd1b3pqxmp00000gn/T//cc7tuhUR.s 			page 6


 196:STM32F10x_StdPeriph_Driver/src/stm32f10x_adc.c ****   }
 197:STM32F10x_StdPeriph_Driver/src/stm32f10x_adc.c ****   else
 198:STM32F10x_StdPeriph_Driver/src/stm32f10x_adc.c ****   {
 199:STM32F10x_StdPeriph_Driver/src/stm32f10x_adc.c ****     if (ADCx == ADC3)
  92              		.loc 1 199 0
  93 005a 0A4B     		ldr	r3, .L7+12
  94 005c 9C42     		cmp	r4, r3
  95 005e 09D1     		bne	.L1
 200:STM32F10x_StdPeriph_Driver/src/stm32f10x_adc.c ****     {
 201:STM32F10x_StdPeriph_Driver/src/stm32f10x_adc.c ****       /* Enable ADC3 reset state */
 202:STM32F10x_StdPeriph_Driver/src/stm32f10x_adc.c ****       RCC_APB2PeriphResetCmd(RCC_APB2Periph_ADC3, ENABLE);
  96              		.loc 1 202 0
  97 0060 0121     		movs	r1, #1
  98 0062 4FF40040 		mov	r0, #32768
  99 0066 FFF7FEFF 		bl	RCC_APB2PeriphResetCmd
 100              	.LVL9:
 203:STM32F10x_StdPeriph_Driver/src/stm32f10x_adc.c ****       /* Release ADC3 from reset state */
 204:STM32F10x_StdPeriph_Driver/src/stm32f10x_adc.c ****       RCC_APB2PeriphResetCmd(RCC_APB2Periph_ADC3, DISABLE);
 101              		.loc 1 204 0
 102 006a 0021     		movs	r1, #0
 103 006c 4FF40040 		mov	r0, #32768
 104 0070 FFF7FEFF 		bl	RCC_APB2PeriphResetCmd
 105              	.LVL10:
 106              	.L1:
 107 0074 10BD     		pop	{r4, pc}
 108              	.LVL11:
 109              	.L8:
 110 0076 00BF     		.align	2
 111              	.L7:
 112 0078 00240140 		.word	1073816576
 113 007c 00000000 		.word	.LC0
 114 0080 00280140 		.word	1073817600
 115 0084 003C0140 		.word	1073822720
 116              		.cfi_endproc
 117              	.LFE27:
 119              		.section	.text.ADC_Init,"ax",%progbits
 120              		.align	2
 121              		.global	ADC_Init
 122              		.thumb
 123              		.thumb_func
 125              	ADC_Init:
 126              	.LFB28:
 205:STM32F10x_StdPeriph_Driver/src/stm32f10x_adc.c ****     }
 206:STM32F10x_StdPeriph_Driver/src/stm32f10x_adc.c ****   }
 207:STM32F10x_StdPeriph_Driver/src/stm32f10x_adc.c **** }
 208:STM32F10x_StdPeriph_Driver/src/stm32f10x_adc.c **** 
 209:STM32F10x_StdPeriph_Driver/src/stm32f10x_adc.c **** /**
 210:STM32F10x_StdPeriph_Driver/src/stm32f10x_adc.c ****   * @brief  Initializes the ADCx peripheral according to the specified parameters
 211:STM32F10x_StdPeriph_Driver/src/stm32f10x_adc.c ****   *   in the ADC_InitStruct.
 212:STM32F10x_StdPeriph_Driver/src/stm32f10x_adc.c ****   * @param  ADCx: where x can be 1, 2 or 3 to select the ADC peripheral.
 213:STM32F10x_StdPeriph_Driver/src/stm32f10x_adc.c ****   * @param  ADC_InitStruct: pointer to an ADC_InitTypeDef structure that contains
 214:STM32F10x_StdPeriph_Driver/src/stm32f10x_adc.c ****   *   the configuration information for the specified ADC peripheral.
 215:STM32F10x_StdPeriph_Driver/src/stm32f10x_adc.c ****   * @retval None
 216:STM32F10x_StdPeriph_Driver/src/stm32f10x_adc.c ****   */
 217:STM32F10x_StdPeriph_Driver/src/stm32f10x_adc.c **** void ADC_Init(ADC_TypeDef* ADCx, ADC_InitTypeDef* ADC_InitStruct)
 218:STM32F10x_StdPeriph_Driver/src/stm32f10x_adc.c **** {
 127              		.loc 1 218 0
ARM GAS  /var/folders/g9/bbpj86ld7fx45vd1b3pqxmp00000gn/T//cc7tuhUR.s 			page 7


 128              		.cfi_startproc
 129              		@ args = 0, pretend = 0, frame = 0
 130              		@ frame_needed = 0, uses_anonymous_args = 0
 131              	.LVL12:
 132 0000 38B5     		push	{r3, r4, r5, lr}
 133              	.LCFI1:
 134              		.cfi_def_cfa_offset 16
 135              		.cfi_offset 3, -16
 136              		.cfi_offset 4, -12
 137              		.cfi_offset 5, -8
 138              		.cfi_offset 14, -4
 139 0002 0546     		mov	r5, r0
 140 0004 0C46     		mov	r4, r1
 141              	.LVL13:
 219:STM32F10x_StdPeriph_Driver/src/stm32f10x_adc.c ****   uint32_t tmpreg1 = 0;
 220:STM32F10x_StdPeriph_Driver/src/stm32f10x_adc.c ****   uint8_t tmpreg2 = 0;
 221:STM32F10x_StdPeriph_Driver/src/stm32f10x_adc.c ****   /* Check the parameters */
 222:STM32F10x_StdPeriph_Driver/src/stm32f10x_adc.c ****   assert_param(IS_ADC_ALL_PERIPH(ADCx));
 142              		.loc 1 222 0
 143 0006 4D4B     		ldr	r3, .L18
 144 0008 9842     		cmp	r0, r3
 145 000a 0BD0     		beq	.L10
 146              		.loc 1 222 0 is_stmt 0 discriminator 1
 147 000c 03F58063 		add	r3, r3, #1024
 148 0010 9842     		cmp	r0, r3
 149 0012 07D0     		beq	.L10
 150              		.loc 1 222 0 discriminator 2
 151 0014 03F5A053 		add	r3, r3, #5120
 152 0018 9842     		cmp	r0, r3
 153 001a 03D0     		beq	.L10
 154              		.loc 1 222 0 discriminator 3
 155 001c DE21     		movs	r1, #222
 156              	.LVL14:
 157 001e 4848     		ldr	r0, .L18+4
 158              	.LVL15:
 159 0020 FFF7FEFF 		bl	assert_failed
 160              	.LVL16:
 161              	.L10:
 223:STM32F10x_StdPeriph_Driver/src/stm32f10x_adc.c ****   assert_param(IS_ADC_MODE(ADC_InitStruct->ADC_Mode));
 162              		.loc 1 223 0 is_stmt 1
 163 0024 2368     		ldr	r3, [r4]
 164 0026 F3B1     		cbz	r3, .L11
 165              		.loc 1 223 0 is_stmt 0 discriminator 1
 166 0028 B3F5803F 		cmp	r3, #65536
 167 002c 1BD0     		beq	.L11
 168              		.loc 1 223 0 discriminator 2
 169 002e B3F5003F 		cmp	r3, #131072
 170 0032 18D0     		beq	.L11
 171              		.loc 1 223 0 discriminator 3
 172 0034 B3F5403F 		cmp	r3, #196608
 173 0038 15D0     		beq	.L11
 174              		.loc 1 223 0 discriminator 4
 175 003a B3F5802F 		cmp	r3, #262144
 176 003e 12D0     		beq	.L11
 177              		.loc 1 223 0 discriminator 5
 178 0040 B3F5A02F 		cmp	r3, #327680
 179 0044 0FD0     		beq	.L11
ARM GAS  /var/folders/g9/bbpj86ld7fx45vd1b3pqxmp00000gn/T//cc7tuhUR.s 			page 8


 180              		.loc 1 223 0 discriminator 6
 181 0046 B3F5C02F 		cmp	r3, #393216
 182 004a 0CD0     		beq	.L11
 183              		.loc 1 223 0 discriminator 7
 184 004c B3F5E02F 		cmp	r3, #458752
 185 0050 09D0     		beq	.L11
 186              		.loc 1 223 0 discriminator 8
 187 0052 B3F5002F 		cmp	r3, #524288
 188 0056 06D0     		beq	.L11
 189              		.loc 1 223 0 discriminator 9
 190 0058 B3F5102F 		cmp	r3, #589824
 191 005c 03D0     		beq	.L11
 192              		.loc 1 223 0 discriminator 10
 193 005e DF21     		movs	r1, #223
 194 0060 3748     		ldr	r0, .L18+4
 195 0062 FFF7FEFF 		bl	assert_failed
 196              	.LVL17:
 197              	.L11:
 224:STM32F10x_StdPeriph_Driver/src/stm32f10x_adc.c ****   assert_param(IS_FUNCTIONAL_STATE(ADC_InitStruct->ADC_ScanConvMode));
 198              		.loc 1 224 0 is_stmt 1
 199 0066 2379     		ldrb	r3, [r4, #4]	@ zero_extendqisi2
 200 0068 012B     		cmp	r3, #1
 201 006a 03D9     		bls	.L12
 202              		.loc 1 224 0 is_stmt 0 discriminator 1
 203 006c E021     		movs	r1, #224
 204 006e 3448     		ldr	r0, .L18+4
 205 0070 FFF7FEFF 		bl	assert_failed
 206              	.LVL18:
 207              	.L12:
 225:STM32F10x_StdPeriph_Driver/src/stm32f10x_adc.c ****   assert_param(IS_FUNCTIONAL_STATE(ADC_InitStruct->ADC_ContinuousConvMode));
 208              		.loc 1 225 0 is_stmt 1
 209 0074 6379     		ldrb	r3, [r4, #5]	@ zero_extendqisi2
 210 0076 012B     		cmp	r3, #1
 211 0078 03D9     		bls	.L13
 212              		.loc 1 225 0 is_stmt 0 discriminator 1
 213 007a E121     		movs	r1, #225
 214 007c 3048     		ldr	r0, .L18+4
 215 007e FFF7FEFF 		bl	assert_failed
 216              	.LVL19:
 217              	.L13:
 226:STM32F10x_StdPeriph_Driver/src/stm32f10x_adc.c ****   assert_param(IS_ADC_EXT_TRIG(ADC_InitStruct->ADC_ExternalTrigConv));   
 218              		.loc 1 226 0 is_stmt 1
 219 0082 A368     		ldr	r3, [r4, #8]
 220 0084 43B3     		cbz	r3, .L14
 221              		.loc 1 226 0 is_stmt 0 discriminator 1
 222 0086 B3F5003F 		cmp	r3, #131072
 223 008a 25D0     		beq	.L14
 224              		.loc 1 226 0 discriminator 2
 225 008c B3F5802F 		cmp	r3, #262144
 226 0090 22D0     		beq	.L14
 227              		.loc 1 226 0 discriminator 3
 228 0092 B3F5C02F 		cmp	r3, #393216
 229 0096 1FD0     		beq	.L14
 230              		.loc 1 226 0 discriminator 4
 231 0098 B3F5002F 		cmp	r3, #524288
 232 009c 1CD0     		beq	.L14
 233              		.loc 1 226 0 discriminator 5
ARM GAS  /var/folders/g9/bbpj86ld7fx45vd1b3pqxmp00000gn/T//cc7tuhUR.s 			page 9


 234 009e B3F5202F 		cmp	r3, #655360
 235 00a2 19D0     		beq	.L14
 236              		.loc 1 226 0 discriminator 6
 237 00a4 B3F5402F 		cmp	r3, #786432
 238 00a8 16D0     		beq	.L14
 239              		.loc 1 226 0 discriminator 7
 240 00aa B3F5602F 		cmp	r3, #917504
 241 00ae 13D0     		beq	.L14
 242              		.loc 1 226 0 discriminator 8
 243 00b0 93B1     		cbz	r3, .L14
 244              		.loc 1 226 0 discriminator 9
 245 00b2 B3F5003F 		cmp	r3, #131072
 246 00b6 0FD0     		beq	.L14
 247              		.loc 1 226 0 discriminator 10
 248 00b8 B3F5C02F 		cmp	r3, #393216
 249 00bc 0CD0     		beq	.L14
 250              		.loc 1 226 0 discriminator 11
 251 00be B3F5002F 		cmp	r3, #524288
 252 00c2 09D0     		beq	.L14
 253              		.loc 1 226 0 discriminator 12
 254 00c4 B3F5202F 		cmp	r3, #655360
 255 00c8 06D0     		beq	.L14
 256              		.loc 1 226 0 discriminator 13
 257 00ca B3F5402F 		cmp	r3, #786432
 258 00ce 03D0     		beq	.L14
 259              		.loc 1 226 0 discriminator 14
 260 00d0 E221     		movs	r1, #226
 261 00d2 1B48     		ldr	r0, .L18+4
 262 00d4 FFF7FEFF 		bl	assert_failed
 263              	.LVL20:
 264              	.L14:
 227:STM32F10x_StdPeriph_Driver/src/stm32f10x_adc.c ****   assert_param(IS_ADC_DATA_ALIGN(ADC_InitStruct->ADC_DataAlign)); 
 265              		.loc 1 227 0 is_stmt 1
 266 00d8 E368     		ldr	r3, [r4, #12]
 267 00da 33B1     		cbz	r3, .L15
 268              		.loc 1 227 0 is_stmt 0 discriminator 1
 269 00dc B3F5006F 		cmp	r3, #2048
 270 00e0 03D0     		beq	.L15
 271              		.loc 1 227 0 discriminator 2
 272 00e2 E321     		movs	r1, #227
 273 00e4 1648     		ldr	r0, .L18+4
 274 00e6 FFF7FEFF 		bl	assert_failed
 275              	.LVL21:
 276              	.L15:
 228:STM32F10x_StdPeriph_Driver/src/stm32f10x_adc.c ****   assert_param(IS_ADC_REGULAR_LENGTH(ADC_InitStruct->ADC_NbrOfChannel));
 277              		.loc 1 228 0 is_stmt 1
 278 00ea 237C     		ldrb	r3, [r4, #16]	@ zero_extendqisi2
 279 00ec 013B     		subs	r3, r3, #1
 280 00ee DBB2     		uxtb	r3, r3
 281 00f0 0F2B     		cmp	r3, #15
 282 00f2 03D9     		bls	.L16
 283              		.loc 1 228 0 is_stmt 0 discriminator 1
 284 00f4 E421     		movs	r1, #228
 285 00f6 1248     		ldr	r0, .L18+4
 286 00f8 FFF7FEFF 		bl	assert_failed
 287              	.LVL22:
 288              	.L16:
ARM GAS  /var/folders/g9/bbpj86ld7fx45vd1b3pqxmp00000gn/T//cc7tuhUR.s 			page 10


 229:STM32F10x_StdPeriph_Driver/src/stm32f10x_adc.c **** 
 230:STM32F10x_StdPeriph_Driver/src/stm32f10x_adc.c ****   /*---------------------------- ADCx CR1 Configuration -----------------*/
 231:STM32F10x_StdPeriph_Driver/src/stm32f10x_adc.c ****   /* Get the ADCx CR1 value */
 232:STM32F10x_StdPeriph_Driver/src/stm32f10x_adc.c ****   tmpreg1 = ADCx->CR1;
 289              		.loc 1 232 0 is_stmt 1
 290 00fc 6B68     		ldr	r3, [r5, #4]
 291              	.LVL23:
 233:STM32F10x_StdPeriph_Driver/src/stm32f10x_adc.c ****   /* Clear DUALMOD and SCAN bits */
 234:STM32F10x_StdPeriph_Driver/src/stm32f10x_adc.c ****   tmpreg1 &= CR1_CLEAR_Mask;
 292              		.loc 1 234 0
 293 00fe 23F47022 		bic	r2, r3, #983040
 294 0102 22F48072 		bic	r2, r2, #256
 295              	.LVL24:
 235:STM32F10x_StdPeriph_Driver/src/stm32f10x_adc.c ****   /* Configure ADCx: Dual mode and scan conversion mode */
 236:STM32F10x_StdPeriph_Driver/src/stm32f10x_adc.c ****   /* Set DUALMOD bits according to ADC_Mode value */
 237:STM32F10x_StdPeriph_Driver/src/stm32f10x_adc.c ****   /* Set SCAN bit according to ADC_ScanConvMode value */
 238:STM32F10x_StdPeriph_Driver/src/stm32f10x_adc.c ****   tmpreg1 |= (uint32_t)(ADC_InitStruct->ADC_Mode | ((uint32_t)ADC_InitStruct->ADC_ScanConvMode << 8
 296              		.loc 1 238 0
 297 0106 2368     		ldr	r3, [r4]
 298 0108 2179     		ldrb	r1, [r4, #4]	@ zero_extendqisi2
 299 010a 43EA0123 		orr	r3, r3, r1, lsl #8
 300 010e 1343     		orrs	r3, r3, r2
 301              	.LVL25:
 239:STM32F10x_StdPeriph_Driver/src/stm32f10x_adc.c ****   /* Write to ADCx CR1 */
 240:STM32F10x_StdPeriph_Driver/src/stm32f10x_adc.c ****   ADCx->CR1 = tmpreg1;
 302              		.loc 1 240 0
 303 0110 6B60     		str	r3, [r5, #4]
 241:STM32F10x_StdPeriph_Driver/src/stm32f10x_adc.c **** 
 242:STM32F10x_StdPeriph_Driver/src/stm32f10x_adc.c ****   /*---------------------------- ADCx CR2 Configuration -----------------*/
 243:STM32F10x_StdPeriph_Driver/src/stm32f10x_adc.c ****   /* Get the ADCx CR2 value */
 244:STM32F10x_StdPeriph_Driver/src/stm32f10x_adc.c ****   tmpreg1 = ADCx->CR2;
 304              		.loc 1 244 0
 305 0112 AB68     		ldr	r3, [r5, #8]
 306              	.LVL26:
 245:STM32F10x_StdPeriph_Driver/src/stm32f10x_adc.c ****   /* Clear CONT, ALIGN and EXTSEL bits */
 246:STM32F10x_StdPeriph_Driver/src/stm32f10x_adc.c ****   tmpreg1 &= CR2_CLEAR_Mask;
 307              		.loc 1 246 0
 308 0114 0B49     		ldr	r1, .L18+8
 309 0116 1940     		ands	r1, r1, r3
 310              	.LVL27:
 247:STM32F10x_StdPeriph_Driver/src/stm32f10x_adc.c ****   /* Configure ADCx: external trigger event and continuous conversion mode */
 248:STM32F10x_StdPeriph_Driver/src/stm32f10x_adc.c ****   /* Set ALIGN bit according to ADC_DataAlign value */
 249:STM32F10x_StdPeriph_Driver/src/stm32f10x_adc.c ****   /* Set EXTSEL bits according to ADC_ExternalTrigConv value */
 250:STM32F10x_StdPeriph_Driver/src/stm32f10x_adc.c ****   /* Set CONT bit according to ADC_ContinuousConvMode value */
 251:STM32F10x_StdPeriph_Driver/src/stm32f10x_adc.c ****   tmpreg1 |= (uint32_t)(ADC_InitStruct->ADC_DataAlign | ADC_InitStruct->ADC_ExternalTrigConv |
 311              		.loc 1 251 0
 312 0118 E268     		ldr	r2, [r4, #12]
 313 011a A368     		ldr	r3, [r4, #8]
 314 011c 1A43     		orrs	r2, r2, r3
 252:STM32F10x_StdPeriph_Driver/src/stm32f10x_adc.c ****             ((uint32_t)ADC_InitStruct->ADC_ContinuousConvMode << 1));
 315              		.loc 1 252 0
 316 011e 6379     		ldrb	r3, [r4, #5]	@ zero_extendqisi2
 251:STM32F10x_StdPeriph_Driver/src/stm32f10x_adc.c ****             ((uint32_t)ADC_InitStruct->ADC_ContinuousConvMode << 1));
 317              		.loc 1 251 0
 318 0120 42EA4303 		orr	r3, r2, r3, lsl #1
 319 0124 0B43     		orrs	r3, r3, r1
 320              	.LVL28:
ARM GAS  /var/folders/g9/bbpj86ld7fx45vd1b3pqxmp00000gn/T//cc7tuhUR.s 			page 11


 253:STM32F10x_StdPeriph_Driver/src/stm32f10x_adc.c ****   /* Write to ADCx CR2 */
 254:STM32F10x_StdPeriph_Driver/src/stm32f10x_adc.c ****   ADCx->CR2 = tmpreg1;
 321              		.loc 1 254 0
 322 0126 AB60     		str	r3, [r5, #8]
 255:STM32F10x_StdPeriph_Driver/src/stm32f10x_adc.c **** 
 256:STM32F10x_StdPeriph_Driver/src/stm32f10x_adc.c ****   /*---------------------------- ADCx SQR1 Configuration -----------------*/
 257:STM32F10x_StdPeriph_Driver/src/stm32f10x_adc.c ****   /* Get the ADCx SQR1 value */
 258:STM32F10x_StdPeriph_Driver/src/stm32f10x_adc.c ****   tmpreg1 = ADCx->SQR1;
 323              		.loc 1 258 0
 324 0128 EB6A     		ldr	r3, [r5, #44]
 325              	.LVL29:
 259:STM32F10x_StdPeriph_Driver/src/stm32f10x_adc.c ****   /* Clear L bits */
 260:STM32F10x_StdPeriph_Driver/src/stm32f10x_adc.c ****   tmpreg1 &= SQR1_CLEAR_Mask;
 326              		.loc 1 260 0
 327 012a 23F47002 		bic	r2, r3, #15728640
 328              	.LVL30:
 261:STM32F10x_StdPeriph_Driver/src/stm32f10x_adc.c ****   /* Configure ADCx: regular channel sequence length */
 262:STM32F10x_StdPeriph_Driver/src/stm32f10x_adc.c ****   /* Set L bits according to ADC_NbrOfChannel value */
 263:STM32F10x_StdPeriph_Driver/src/stm32f10x_adc.c ****   tmpreg2 |= (uint8_t) (ADC_InitStruct->ADC_NbrOfChannel - (uint8_t)1);
 329              		.loc 1 263 0
 330 012e 237C     		ldrb	r3, [r4, #16]	@ zero_extendqisi2
 331 0130 013B     		subs	r3, r3, #1
 332 0132 DBB2     		uxtb	r3, r3
 333              	.LVL31:
 264:STM32F10x_StdPeriph_Driver/src/stm32f10x_adc.c ****   tmpreg1 |= (uint32_t)tmpreg2 << 20;
 334              		.loc 1 264 0
 335 0134 42EA0353 		orr	r3, r2, r3, lsl #20
 336              	.LVL32:
 265:STM32F10x_StdPeriph_Driver/src/stm32f10x_adc.c ****   /* Write to ADCx SQR1 */
 266:STM32F10x_StdPeriph_Driver/src/stm32f10x_adc.c ****   ADCx->SQR1 = tmpreg1;
 337              		.loc 1 266 0
 338 0138 EB62     		str	r3, [r5, #44]
 339              	.LVL33:
 340 013a 38BD     		pop	{r3, r4, r5, pc}
 341              	.LVL34:
 342              	.L19:
 343              		.align	2
 344              	.L18:
 345 013c 00240140 		.word	1073816576
 346 0140 00000000 		.word	.LC0
 347 0144 FDF7F1FF 		.word	-919555
 348              		.cfi_endproc
 349              	.LFE28:
 351              		.section	.text.ADC_StructInit,"ax",%progbits
 352              		.align	2
 353              		.global	ADC_StructInit
 354              		.thumb
 355              		.thumb_func
 357              	ADC_StructInit:
 358              	.LFB29:
 267:STM32F10x_StdPeriph_Driver/src/stm32f10x_adc.c **** }
 268:STM32F10x_StdPeriph_Driver/src/stm32f10x_adc.c **** 
 269:STM32F10x_StdPeriph_Driver/src/stm32f10x_adc.c **** /**
 270:STM32F10x_StdPeriph_Driver/src/stm32f10x_adc.c ****   * @brief  Fills each ADC_InitStruct member with its default value.
 271:STM32F10x_StdPeriph_Driver/src/stm32f10x_adc.c ****   * @param  ADC_InitStruct : pointer to an ADC_InitTypeDef structure which will be initialized.
 272:STM32F10x_StdPeriph_Driver/src/stm32f10x_adc.c ****   * @retval None
 273:STM32F10x_StdPeriph_Driver/src/stm32f10x_adc.c ****   */
ARM GAS  /var/folders/g9/bbpj86ld7fx45vd1b3pqxmp00000gn/T//cc7tuhUR.s 			page 12


 274:STM32F10x_StdPeriph_Driver/src/stm32f10x_adc.c **** void ADC_StructInit(ADC_InitTypeDef* ADC_InitStruct)
 275:STM32F10x_StdPeriph_Driver/src/stm32f10x_adc.c **** {
 359              		.loc 1 275 0
 360              		.cfi_startproc
 361              		@ args = 0, pretend = 0, frame = 0
 362              		@ frame_needed = 0, uses_anonymous_args = 0
 363              		@ link register save eliminated.
 364              	.LVL35:
 276:STM32F10x_StdPeriph_Driver/src/stm32f10x_adc.c ****   /* Reset ADC init structure parameters values */
 277:STM32F10x_StdPeriph_Driver/src/stm32f10x_adc.c ****   /* Initialize the ADC_Mode member */
 278:STM32F10x_StdPeriph_Driver/src/stm32f10x_adc.c ****   ADC_InitStruct->ADC_Mode = ADC_Mode_Independent;
 365              		.loc 1 278 0
 366 0000 0023     		movs	r3, #0
 367 0002 0360     		str	r3, [r0]
 279:STM32F10x_StdPeriph_Driver/src/stm32f10x_adc.c ****   /* initialize the ADC_ScanConvMode member */
 280:STM32F10x_StdPeriph_Driver/src/stm32f10x_adc.c ****   ADC_InitStruct->ADC_ScanConvMode = DISABLE;
 368              		.loc 1 280 0
 369 0004 0371     		strb	r3, [r0, #4]
 281:STM32F10x_StdPeriph_Driver/src/stm32f10x_adc.c ****   /* Initialize the ADC_ContinuousConvMode member */
 282:STM32F10x_StdPeriph_Driver/src/stm32f10x_adc.c ****   ADC_InitStruct->ADC_ContinuousConvMode = DISABLE;
 370              		.loc 1 282 0
 371 0006 4371     		strb	r3, [r0, #5]
 283:STM32F10x_StdPeriph_Driver/src/stm32f10x_adc.c ****   /* Initialize the ADC_ExternalTrigConv member */
 284:STM32F10x_StdPeriph_Driver/src/stm32f10x_adc.c ****   ADC_InitStruct->ADC_ExternalTrigConv = ADC_ExternalTrigConv_T1_CC1;
 372              		.loc 1 284 0
 373 0008 8360     		str	r3, [r0, #8]
 285:STM32F10x_StdPeriph_Driver/src/stm32f10x_adc.c ****   /* Initialize the ADC_DataAlign member */
 286:STM32F10x_StdPeriph_Driver/src/stm32f10x_adc.c ****   ADC_InitStruct->ADC_DataAlign = ADC_DataAlign_Right;
 374              		.loc 1 286 0
 375 000a C360     		str	r3, [r0, #12]
 287:STM32F10x_StdPeriph_Driver/src/stm32f10x_adc.c ****   /* Initialize the ADC_NbrOfChannel member */
 288:STM32F10x_StdPeriph_Driver/src/stm32f10x_adc.c ****   ADC_InitStruct->ADC_NbrOfChannel = 1;
 376              		.loc 1 288 0
 377 000c 0123     		movs	r3, #1
 378 000e 0374     		strb	r3, [r0, #16]
 379 0010 7047     		bx	lr
 380              		.cfi_endproc
 381              	.LFE29:
 383 0012 00BF     		.section	.text.ADC_Cmd,"ax",%progbits
 384              		.align	2
 385              		.global	ADC_Cmd
 386              		.thumb
 387              		.thumb_func
 389              	ADC_Cmd:
 390              	.LFB30:
 289:STM32F10x_StdPeriph_Driver/src/stm32f10x_adc.c **** }
 290:STM32F10x_StdPeriph_Driver/src/stm32f10x_adc.c **** 
 291:STM32F10x_StdPeriph_Driver/src/stm32f10x_adc.c **** /**
 292:STM32F10x_StdPeriph_Driver/src/stm32f10x_adc.c ****   * @brief  Enables or disables the specified ADC peripheral.
 293:STM32F10x_StdPeriph_Driver/src/stm32f10x_adc.c ****   * @param  ADCx: where x can be 1, 2 or 3 to select the ADC peripheral.
 294:STM32F10x_StdPeriph_Driver/src/stm32f10x_adc.c ****   * @param  NewState: new state of the ADCx peripheral.
 295:STM32F10x_StdPeriph_Driver/src/stm32f10x_adc.c ****   *   This parameter can be: ENABLE or DISABLE.
 296:STM32F10x_StdPeriph_Driver/src/stm32f10x_adc.c ****   * @retval None
 297:STM32F10x_StdPeriph_Driver/src/stm32f10x_adc.c ****   */
 298:STM32F10x_StdPeriph_Driver/src/stm32f10x_adc.c **** void ADC_Cmd(ADC_TypeDef* ADCx, FunctionalState NewState)
 299:STM32F10x_StdPeriph_Driver/src/stm32f10x_adc.c **** {
 391              		.loc 1 299 0
ARM GAS  /var/folders/g9/bbpj86ld7fx45vd1b3pqxmp00000gn/T//cc7tuhUR.s 			page 13


 392              		.cfi_startproc
 393              		@ args = 0, pretend = 0, frame = 0
 394              		@ frame_needed = 0, uses_anonymous_args = 0
 395              	.LVL36:
 396 0000 38B5     		push	{r3, r4, r5, lr}
 397              	.LCFI2:
 398              		.cfi_def_cfa_offset 16
 399              		.cfi_offset 3, -16
 400              		.cfi_offset 4, -12
 401              		.cfi_offset 5, -8
 402              		.cfi_offset 14, -4
 403 0002 0446     		mov	r4, r0
 404 0004 0D46     		mov	r5, r1
 300:STM32F10x_StdPeriph_Driver/src/stm32f10x_adc.c ****   /* Check the parameters */
 301:STM32F10x_StdPeriph_Driver/src/stm32f10x_adc.c ****   assert_param(IS_ADC_ALL_PERIPH(ADCx));
 405              		.loc 1 301 0
 406 0006 114B     		ldr	r3, .L27
 407 0008 9842     		cmp	r0, r3
 408 000a 0CD0     		beq	.L22
 409              		.loc 1 301 0 is_stmt 0 discriminator 1
 410 000c 03F58063 		add	r3, r3, #1024
 411 0010 9842     		cmp	r0, r3
 412 0012 08D0     		beq	.L22
 413              		.loc 1 301 0 discriminator 2
 414 0014 03F5A053 		add	r3, r3, #5120
 415 0018 9842     		cmp	r0, r3
 416 001a 04D0     		beq	.L22
 417              		.loc 1 301 0 discriminator 3
 418 001c 40F22D11 		movw	r1, #301
 419              	.LVL37:
 420 0020 0B48     		ldr	r0, .L27+4
 421              	.LVL38:
 422 0022 FFF7FEFF 		bl	assert_failed
 423              	.LVL39:
 424              	.L22:
 302:STM32F10x_StdPeriph_Driver/src/stm32f10x_adc.c ****   assert_param(IS_FUNCTIONAL_STATE(NewState));
 425              		.loc 1 302 0 is_stmt 1
 426 0026 012D     		cmp	r5, #1
 427 0028 04D9     		bls	.L23
 428              		.loc 1 302 0 is_stmt 0 discriminator 1
 429 002a 4FF49771 		mov	r1, #302
 430 002e 0848     		ldr	r0, .L27+4
 431 0030 FFF7FEFF 		bl	assert_failed
 432              	.LVL40:
 433              	.L23:
 303:STM32F10x_StdPeriph_Driver/src/stm32f10x_adc.c ****   if (NewState != DISABLE)
 434              		.loc 1 303 0 is_stmt 1
 435 0034 25B1     		cbz	r5, .L24
 304:STM32F10x_StdPeriph_Driver/src/stm32f10x_adc.c ****   {
 305:STM32F10x_StdPeriph_Driver/src/stm32f10x_adc.c ****     /* Set the ADON bit to wake up the ADC from power down mode */
 306:STM32F10x_StdPeriph_Driver/src/stm32f10x_adc.c ****     ADCx->CR2 |= CR2_ADON_Set;
 436              		.loc 1 306 0
 437 0036 A368     		ldr	r3, [r4, #8]
 438 0038 43F00103 		orr	r3, r3, #1
 439 003c A360     		str	r3, [r4, #8]
 440 003e 38BD     		pop	{r3, r4, r5, pc}
 441              	.LVL41:
ARM GAS  /var/folders/g9/bbpj86ld7fx45vd1b3pqxmp00000gn/T//cc7tuhUR.s 			page 14


 442              	.L24:
 307:STM32F10x_StdPeriph_Driver/src/stm32f10x_adc.c ****   }
 308:STM32F10x_StdPeriph_Driver/src/stm32f10x_adc.c ****   else
 309:STM32F10x_StdPeriph_Driver/src/stm32f10x_adc.c ****   {
 310:STM32F10x_StdPeriph_Driver/src/stm32f10x_adc.c ****     /* Disable the selected ADC peripheral */
 311:STM32F10x_StdPeriph_Driver/src/stm32f10x_adc.c ****     ADCx->CR2 &= CR2_ADON_Reset;
 443              		.loc 1 311 0
 444 0040 A368     		ldr	r3, [r4, #8]
 445 0042 23F00103 		bic	r3, r3, #1
 446 0046 A360     		str	r3, [r4, #8]
 447 0048 38BD     		pop	{r3, r4, r5, pc}
 448              	.LVL42:
 449              	.L28:
 450 004a 00BF     		.align	2
 451              	.L27:
 452 004c 00240140 		.word	1073816576
 453 0050 00000000 		.word	.LC0
 454              		.cfi_endproc
 455              	.LFE30:
 457              		.section	.text.ADC_DMACmd,"ax",%progbits
 458              		.align	2
 459              		.global	ADC_DMACmd
 460              		.thumb
 461              		.thumb_func
 463              	ADC_DMACmd:
 464              	.LFB31:
 312:STM32F10x_StdPeriph_Driver/src/stm32f10x_adc.c ****   }
 313:STM32F10x_StdPeriph_Driver/src/stm32f10x_adc.c **** }
 314:STM32F10x_StdPeriph_Driver/src/stm32f10x_adc.c **** 
 315:STM32F10x_StdPeriph_Driver/src/stm32f10x_adc.c **** /**
 316:STM32F10x_StdPeriph_Driver/src/stm32f10x_adc.c ****   * @brief  Enables or disables the specified ADC DMA request.
 317:STM32F10x_StdPeriph_Driver/src/stm32f10x_adc.c ****   * @param  ADCx: where x can be 1 or 3 to select the ADC peripheral.
 318:STM32F10x_StdPeriph_Driver/src/stm32f10x_adc.c ****   *   Note: ADC2 hasn't a DMA capability.
 319:STM32F10x_StdPeriph_Driver/src/stm32f10x_adc.c ****   * @param  NewState: new state of the selected ADC DMA transfer.
 320:STM32F10x_StdPeriph_Driver/src/stm32f10x_adc.c ****   *   This parameter can be: ENABLE or DISABLE.
 321:STM32F10x_StdPeriph_Driver/src/stm32f10x_adc.c ****   * @retval None
 322:STM32F10x_StdPeriph_Driver/src/stm32f10x_adc.c ****   */
 323:STM32F10x_StdPeriph_Driver/src/stm32f10x_adc.c **** void ADC_DMACmd(ADC_TypeDef* ADCx, FunctionalState NewState)
 324:STM32F10x_StdPeriph_Driver/src/stm32f10x_adc.c **** {
 465              		.loc 1 324 0
 466              		.cfi_startproc
 467              		@ args = 0, pretend = 0, frame = 0
 468              		@ frame_needed = 0, uses_anonymous_args = 0
 469              	.LVL43:
 470 0000 38B5     		push	{r3, r4, r5, lr}
 471              	.LCFI3:
 472              		.cfi_def_cfa_offset 16
 473              		.cfi_offset 3, -16
 474              		.cfi_offset 4, -12
 475              		.cfi_offset 5, -8
 476              		.cfi_offset 14, -4
 477 0002 0446     		mov	r4, r0
 478 0004 0D46     		mov	r5, r1
 325:STM32F10x_StdPeriph_Driver/src/stm32f10x_adc.c ****   /* Check the parameters */
 326:STM32F10x_StdPeriph_Driver/src/stm32f10x_adc.c ****   assert_param(IS_ADC_DMA_PERIPH(ADCx));
 479              		.loc 1 326 0
 480 0006 0F4B     		ldr	r3, .L35
ARM GAS  /var/folders/g9/bbpj86ld7fx45vd1b3pqxmp00000gn/T//cc7tuhUR.s 			page 15


 481 0008 9842     		cmp	r0, r3
 482 000a 08D0     		beq	.L30
 483              		.loc 1 326 0 is_stmt 0 discriminator 1
 484 000c 03F5C053 		add	r3, r3, #6144
 485 0010 9842     		cmp	r0, r3
 486 0012 04D0     		beq	.L30
 487              		.loc 1 326 0 discriminator 2
 488 0014 4FF4A371 		mov	r1, #326
 489              	.LVL44:
 490 0018 0B48     		ldr	r0, .L35+4
 491              	.LVL45:
 492 001a FFF7FEFF 		bl	assert_failed
 493              	.LVL46:
 494              	.L30:
 327:STM32F10x_StdPeriph_Driver/src/stm32f10x_adc.c ****   assert_param(IS_FUNCTIONAL_STATE(NewState));
 495              		.loc 1 327 0 is_stmt 1
 496 001e 012D     		cmp	r5, #1
 497 0020 04D9     		bls	.L31
 498              		.loc 1 327 0 is_stmt 0 discriminator 1
 499 0022 40F24711 		movw	r1, #327
 500 0026 0848     		ldr	r0, .L35+4
 501 0028 FFF7FEFF 		bl	assert_failed
 502              	.LVL47:
 503              	.L31:
 328:STM32F10x_StdPeriph_Driver/src/stm32f10x_adc.c ****   if (NewState != DISABLE)
 504              		.loc 1 328 0 is_stmt 1
 505 002c 25B1     		cbz	r5, .L32
 329:STM32F10x_StdPeriph_Driver/src/stm32f10x_adc.c ****   {
 330:STM32F10x_StdPeriph_Driver/src/stm32f10x_adc.c ****     /* Enable the selected ADC DMA request */
 331:STM32F10x_StdPeriph_Driver/src/stm32f10x_adc.c ****     ADCx->CR2 |= CR2_DMA_Set;
 506              		.loc 1 331 0
 507 002e A368     		ldr	r3, [r4, #8]
 508 0030 43F48073 		orr	r3, r3, #256
 509 0034 A360     		str	r3, [r4, #8]
 510 0036 38BD     		pop	{r3, r4, r5, pc}
 511              	.LVL48:
 512              	.L32:
 332:STM32F10x_StdPeriph_Driver/src/stm32f10x_adc.c ****   }
 333:STM32F10x_StdPeriph_Driver/src/stm32f10x_adc.c ****   else
 334:STM32F10x_StdPeriph_Driver/src/stm32f10x_adc.c ****   {
 335:STM32F10x_StdPeriph_Driver/src/stm32f10x_adc.c ****     /* Disable the selected ADC DMA request */
 336:STM32F10x_StdPeriph_Driver/src/stm32f10x_adc.c ****     ADCx->CR2 &= CR2_DMA_Reset;
 513              		.loc 1 336 0
 514 0038 A368     		ldr	r3, [r4, #8]
 515 003a 23F48073 		bic	r3, r3, #256
 516 003e A360     		str	r3, [r4, #8]
 517 0040 38BD     		pop	{r3, r4, r5, pc}
 518              	.LVL49:
 519              	.L36:
 520 0042 00BF     		.align	2
 521              	.L35:
 522 0044 00240140 		.word	1073816576
 523 0048 00000000 		.word	.LC0
 524              		.cfi_endproc
 525              	.LFE31:
 527              		.section	.text.ADC_ITConfig,"ax",%progbits
 528              		.align	2
ARM GAS  /var/folders/g9/bbpj86ld7fx45vd1b3pqxmp00000gn/T//cc7tuhUR.s 			page 16


 529              		.global	ADC_ITConfig
 530              		.thumb
 531              		.thumb_func
 533              	ADC_ITConfig:
 534              	.LFB32:
 337:STM32F10x_StdPeriph_Driver/src/stm32f10x_adc.c ****   }
 338:STM32F10x_StdPeriph_Driver/src/stm32f10x_adc.c **** }
 339:STM32F10x_StdPeriph_Driver/src/stm32f10x_adc.c **** 
 340:STM32F10x_StdPeriph_Driver/src/stm32f10x_adc.c **** /**
 341:STM32F10x_StdPeriph_Driver/src/stm32f10x_adc.c ****   * @brief  Enables or disables the specified ADC interrupts.
 342:STM32F10x_StdPeriph_Driver/src/stm32f10x_adc.c ****   * @param  ADCx: where x can be 1, 2 or 3 to select the ADC peripheral.
 343:STM32F10x_StdPeriph_Driver/src/stm32f10x_adc.c ****   * @param  ADC_IT: specifies the ADC interrupt sources to be enabled or disabled. 
 344:STM32F10x_StdPeriph_Driver/src/stm32f10x_adc.c ****   *   This parameter can be any combination of the following values:
 345:STM32F10x_StdPeriph_Driver/src/stm32f10x_adc.c ****   *     @arg ADC_IT_EOC: End of conversion interrupt mask
 346:STM32F10x_StdPeriph_Driver/src/stm32f10x_adc.c ****   *     @arg ADC_IT_AWD: Analog watchdog interrupt mask
 347:STM32F10x_StdPeriph_Driver/src/stm32f10x_adc.c ****   *     @arg ADC_IT_JEOC: End of injected conversion interrupt mask
 348:STM32F10x_StdPeriph_Driver/src/stm32f10x_adc.c ****   * @param  NewState: new state of the specified ADC interrupts.
 349:STM32F10x_StdPeriph_Driver/src/stm32f10x_adc.c ****   *   This parameter can be: ENABLE or DISABLE.
 350:STM32F10x_StdPeriph_Driver/src/stm32f10x_adc.c ****   * @retval None
 351:STM32F10x_StdPeriph_Driver/src/stm32f10x_adc.c ****   */
 352:STM32F10x_StdPeriph_Driver/src/stm32f10x_adc.c **** void ADC_ITConfig(ADC_TypeDef* ADCx, uint16_t ADC_IT, FunctionalState NewState)
 353:STM32F10x_StdPeriph_Driver/src/stm32f10x_adc.c **** {
 535              		.loc 1 353 0
 536              		.cfi_startproc
 537              		@ args = 0, pretend = 0, frame = 0
 538              		@ frame_needed = 0, uses_anonymous_args = 0
 539              	.LVL50:
 540 0000 70B5     		push	{r4, r5, r6, lr}
 541              	.LCFI4:
 542              		.cfi_def_cfa_offset 16
 543              		.cfi_offset 4, -16
 544              		.cfi_offset 5, -12
 545              		.cfi_offset 6, -8
 546              		.cfi_offset 14, -4
 547 0002 0546     		mov	r5, r0
 548 0004 0C46     		mov	r4, r1
 549 0006 1646     		mov	r6, r2
 550              	.LVL51:
 354:STM32F10x_StdPeriph_Driver/src/stm32f10x_adc.c ****   uint8_t itmask = 0;
 355:STM32F10x_StdPeriph_Driver/src/stm32f10x_adc.c ****   /* Check the parameters */
 356:STM32F10x_StdPeriph_Driver/src/stm32f10x_adc.c ****   assert_param(IS_ADC_ALL_PERIPH(ADCx));
 551              		.loc 1 356 0
 552 0008 154B     		ldr	r3, .L45
 553 000a 9842     		cmp	r0, r3
 554 000c 0CD0     		beq	.L38
 555              		.loc 1 356 0 is_stmt 0 discriminator 1
 556 000e 03F58063 		add	r3, r3, #1024
 557 0012 9842     		cmp	r0, r3
 558 0014 08D0     		beq	.L38
 559              		.loc 1 356 0 discriminator 2
 560 0016 03F5A053 		add	r3, r3, #5120
 561 001a 9842     		cmp	r0, r3
 562 001c 04D0     		beq	.L38
 563              		.loc 1 356 0 discriminator 3
 564 001e 4FF4B271 		mov	r1, #356
 565              	.LVL52:
 566 0022 1048     		ldr	r0, .L45+4
ARM GAS  /var/folders/g9/bbpj86ld7fx45vd1b3pqxmp00000gn/T//cc7tuhUR.s 			page 17


 567              	.LVL53:
 568 0024 FFF7FEFF 		bl	assert_failed
 569              	.LVL54:
 570              	.L38:
 357:STM32F10x_StdPeriph_Driver/src/stm32f10x_adc.c ****   assert_param(IS_FUNCTIONAL_STATE(NewState));
 571              		.loc 1 357 0 is_stmt 1
 572 0028 012E     		cmp	r6, #1
 573 002a 04D9     		bls	.L39
 574              		.loc 1 357 0 is_stmt 0 discriminator 1
 575 002c 40F26511 		movw	r1, #357
 576 0030 0C48     		ldr	r0, .L45+4
 577 0032 FFF7FEFF 		bl	assert_failed
 578              	.LVL55:
 579              	.L39:
 358:STM32F10x_StdPeriph_Driver/src/stm32f10x_adc.c ****   assert_param(IS_ADC_IT(ADC_IT));
 580              		.loc 1 358 0 is_stmt 1
 581 0036 24F4FC63 		bic	r3, r4, #2016
 582 003a 9BB2     		uxth	r3, r3
 583 003c 03B9     		cbnz	r3, .L40
 584              		.loc 1 358 0 is_stmt 0 discriminator 2
 585 003e 24B9     		cbnz	r4, .L41
 586              	.L40:
 587              		.loc 1 358 0 discriminator 3
 588 0040 4FF4B371 		mov	r1, #358
 589 0044 0748     		ldr	r0, .L45+4
 590 0046 FFF7FEFF 		bl	assert_failed
 591              	.LVL56:
 592              	.L41:
 359:STM32F10x_StdPeriph_Driver/src/stm32f10x_adc.c ****   /* Get the ADC IT index */
 360:STM32F10x_StdPeriph_Driver/src/stm32f10x_adc.c ****   itmask = (uint8_t)ADC_IT;
 593              		.loc 1 360 0 is_stmt 1
 594 004a E4B2     		uxtb	r4, r4
 595              	.LVL57:
 361:STM32F10x_StdPeriph_Driver/src/stm32f10x_adc.c ****   if (NewState != DISABLE)
 596              		.loc 1 361 0
 597 004c 1EB1     		cbz	r6, .L42
 362:STM32F10x_StdPeriph_Driver/src/stm32f10x_adc.c ****   {
 363:STM32F10x_StdPeriph_Driver/src/stm32f10x_adc.c ****     /* Enable the selected ADC interrupts */
 364:STM32F10x_StdPeriph_Driver/src/stm32f10x_adc.c ****     ADCx->CR1 |= itmask;
 598              		.loc 1 364 0
 599 004e 6B68     		ldr	r3, [r5, #4]
 600 0050 1C43     		orrs	r4, r4, r3
 601              	.LVL58:
 602 0052 6C60     		str	r4, [r5, #4]
 603 0054 70BD     		pop	{r4, r5, r6, pc}
 604              	.LVL59:
 605              	.L42:
 365:STM32F10x_StdPeriph_Driver/src/stm32f10x_adc.c ****   }
 366:STM32F10x_StdPeriph_Driver/src/stm32f10x_adc.c ****   else
 367:STM32F10x_StdPeriph_Driver/src/stm32f10x_adc.c ****   {
 368:STM32F10x_StdPeriph_Driver/src/stm32f10x_adc.c ****     /* Disable the selected ADC interrupts */
 369:STM32F10x_StdPeriph_Driver/src/stm32f10x_adc.c ****     ADCx->CR1 &= (~(uint32_t)itmask);
 606              		.loc 1 369 0
 607 0056 6B68     		ldr	r3, [r5, #4]
 608 0058 23EA0404 		bic	r4, r3, r4
 609              	.LVL60:
 610 005c 6C60     		str	r4, [r5, #4]
ARM GAS  /var/folders/g9/bbpj86ld7fx45vd1b3pqxmp00000gn/T//cc7tuhUR.s 			page 18


 611 005e 70BD     		pop	{r4, r5, r6, pc}
 612              	.LVL61:
 613              	.L46:
 614              		.align	2
 615              	.L45:
 616 0060 00240140 		.word	1073816576
 617 0064 00000000 		.word	.LC0
 618              		.cfi_endproc
 619              	.LFE32:
 621              		.section	.text.ADC_ResetCalibration,"ax",%progbits
 622              		.align	2
 623              		.global	ADC_ResetCalibration
 624              		.thumb
 625              		.thumb_func
 627              	ADC_ResetCalibration:
 628              	.LFB33:
 370:STM32F10x_StdPeriph_Driver/src/stm32f10x_adc.c ****   }
 371:STM32F10x_StdPeriph_Driver/src/stm32f10x_adc.c **** }
 372:STM32F10x_StdPeriph_Driver/src/stm32f10x_adc.c **** 
 373:STM32F10x_StdPeriph_Driver/src/stm32f10x_adc.c **** /**
 374:STM32F10x_StdPeriph_Driver/src/stm32f10x_adc.c ****   * @brief  Resets the selected ADC calibration registers.
 375:STM32F10x_StdPeriph_Driver/src/stm32f10x_adc.c ****   * @param  ADCx: where x can be 1, 2 or 3 to select the ADC peripheral.
 376:STM32F10x_StdPeriph_Driver/src/stm32f10x_adc.c ****   * @retval None
 377:STM32F10x_StdPeriph_Driver/src/stm32f10x_adc.c ****   */
 378:STM32F10x_StdPeriph_Driver/src/stm32f10x_adc.c **** void ADC_ResetCalibration(ADC_TypeDef* ADCx)
 379:STM32F10x_StdPeriph_Driver/src/stm32f10x_adc.c **** {
 629              		.loc 1 379 0
 630              		.cfi_startproc
 631              		@ args = 0, pretend = 0, frame = 0
 632              		@ frame_needed = 0, uses_anonymous_args = 0
 633              	.LVL62:
 634 0000 10B5     		push	{r4, lr}
 635              	.LCFI5:
 636              		.cfi_def_cfa_offset 8
 637              		.cfi_offset 4, -8
 638              		.cfi_offset 14, -4
 639 0002 0446     		mov	r4, r0
 380:STM32F10x_StdPeriph_Driver/src/stm32f10x_adc.c ****   /* Check the parameters */
 381:STM32F10x_StdPeriph_Driver/src/stm32f10x_adc.c ****   assert_param(IS_ADC_ALL_PERIPH(ADCx));
 640              		.loc 1 381 0
 641 0004 0A4B     		ldr	r3, .L50
 642 0006 9842     		cmp	r0, r3
 643 0008 0CD0     		beq	.L48
 644              		.loc 1 381 0 is_stmt 0 discriminator 1
 645 000a 03F58063 		add	r3, r3, #1024
 646 000e 9842     		cmp	r0, r3
 647 0010 08D0     		beq	.L48
 648              		.loc 1 381 0 discriminator 2
 649 0012 03F5A053 		add	r3, r3, #5120
 650 0016 9842     		cmp	r0, r3
 651 0018 04D0     		beq	.L48
 652              		.loc 1 381 0 discriminator 3
 653 001a 40F27D11 		movw	r1, #381
 654 001e 0548     		ldr	r0, .L50+4
 655              	.LVL63:
 656 0020 FFF7FEFF 		bl	assert_failed
 657              	.LVL64:
ARM GAS  /var/folders/g9/bbpj86ld7fx45vd1b3pqxmp00000gn/T//cc7tuhUR.s 			page 19


 658              	.L48:
 382:STM32F10x_StdPeriph_Driver/src/stm32f10x_adc.c ****   /* Resets the selected ADC calibartion registers */  
 383:STM32F10x_StdPeriph_Driver/src/stm32f10x_adc.c ****   ADCx->CR2 |= CR2_RSTCAL_Set;
 659              		.loc 1 383 0 is_stmt 1
 660 0024 A368     		ldr	r3, [r4, #8]
 661 0026 43F00803 		orr	r3, r3, #8
 662 002a A360     		str	r3, [r4, #8]
 663 002c 10BD     		pop	{r4, pc}
 664              	.LVL65:
 665              	.L51:
 666 002e 00BF     		.align	2
 667              	.L50:
 668 0030 00240140 		.word	1073816576
 669 0034 00000000 		.word	.LC0
 670              		.cfi_endproc
 671              	.LFE33:
 673              		.section	.text.ADC_GetResetCalibrationStatus,"ax",%progbits
 674              		.align	2
 675              		.global	ADC_GetResetCalibrationStatus
 676              		.thumb
 677              		.thumb_func
 679              	ADC_GetResetCalibrationStatus:
 680              	.LFB34:
 384:STM32F10x_StdPeriph_Driver/src/stm32f10x_adc.c **** }
 385:STM32F10x_StdPeriph_Driver/src/stm32f10x_adc.c **** 
 386:STM32F10x_StdPeriph_Driver/src/stm32f10x_adc.c **** /**
 387:STM32F10x_StdPeriph_Driver/src/stm32f10x_adc.c ****   * @brief  Gets the selected ADC reset calibration registers status.
 388:STM32F10x_StdPeriph_Driver/src/stm32f10x_adc.c ****   * @param  ADCx: where x can be 1, 2 or 3 to select the ADC peripheral.
 389:STM32F10x_StdPeriph_Driver/src/stm32f10x_adc.c ****   * @retval The new state of ADC reset calibration registers (SET or RESET).
 390:STM32F10x_StdPeriph_Driver/src/stm32f10x_adc.c ****   */
 391:STM32F10x_StdPeriph_Driver/src/stm32f10x_adc.c **** FlagStatus ADC_GetResetCalibrationStatus(ADC_TypeDef* ADCx)
 392:STM32F10x_StdPeriph_Driver/src/stm32f10x_adc.c **** {
 681              		.loc 1 392 0
 682              		.cfi_startproc
 683              		@ args = 0, pretend = 0, frame = 0
 684              		@ frame_needed = 0, uses_anonymous_args = 0
 685              	.LVL66:
 686 0000 10B5     		push	{r4, lr}
 687              	.LCFI6:
 688              		.cfi_def_cfa_offset 8
 689              		.cfi_offset 4, -8
 690              		.cfi_offset 14, -4
 691 0002 0446     		mov	r4, r0
 692              	.LVL67:
 393:STM32F10x_StdPeriph_Driver/src/stm32f10x_adc.c ****   FlagStatus bitstatus = RESET;
 394:STM32F10x_StdPeriph_Driver/src/stm32f10x_adc.c ****   /* Check the parameters */
 395:STM32F10x_StdPeriph_Driver/src/stm32f10x_adc.c ****   assert_param(IS_ADC_ALL_PERIPH(ADCx));
 693              		.loc 1 395 0
 694 0004 0B4B     		ldr	r3, .L57
 695 0006 9842     		cmp	r0, r3
 696 0008 0CD0     		beq	.L53
 697              		.loc 1 395 0 is_stmt 0 discriminator 1
 698 000a 03F58063 		add	r3, r3, #1024
 699 000e 9842     		cmp	r0, r3
 700 0010 08D0     		beq	.L53
 701              		.loc 1 395 0 discriminator 2
 702 0012 03F5A053 		add	r3, r3, #5120
ARM GAS  /var/folders/g9/bbpj86ld7fx45vd1b3pqxmp00000gn/T//cc7tuhUR.s 			page 20


 703 0016 9842     		cmp	r0, r3
 704 0018 04D0     		beq	.L53
 705              		.loc 1 395 0 discriminator 3
 706 001a 40F28B11 		movw	r1, #395
 707 001e 0648     		ldr	r0, .L57+4
 708              	.LVL68:
 709 0020 FFF7FEFF 		bl	assert_failed
 710              	.LVL69:
 711              	.L53:
 396:STM32F10x_StdPeriph_Driver/src/stm32f10x_adc.c ****   /* Check the status of RSTCAL bit */
 397:STM32F10x_StdPeriph_Driver/src/stm32f10x_adc.c ****   if ((ADCx->CR2 & CR2_RSTCAL_Set) != (uint32_t)RESET)
 712              		.loc 1 397 0 is_stmt 1
 713 0024 A368     		ldr	r3, [r4, #8]
 714 0026 13F0080F 		tst	r3, #8
 715 002a 01D0     		beq	.L55
 398:STM32F10x_StdPeriph_Driver/src/stm32f10x_adc.c ****   {
 399:STM32F10x_StdPeriph_Driver/src/stm32f10x_adc.c ****     /* RSTCAL bit is set */
 400:STM32F10x_StdPeriph_Driver/src/stm32f10x_adc.c ****     bitstatus = SET;
 716              		.loc 1 400 0
 717 002c 0120     		movs	r0, #1
 718 002e 10BD     		pop	{r4, pc}
 719              	.LVL70:
 720              	.L55:
 401:STM32F10x_StdPeriph_Driver/src/stm32f10x_adc.c ****   }
 402:STM32F10x_StdPeriph_Driver/src/stm32f10x_adc.c ****   else
 403:STM32F10x_StdPeriph_Driver/src/stm32f10x_adc.c ****   {
 404:STM32F10x_StdPeriph_Driver/src/stm32f10x_adc.c ****     /* RSTCAL bit is reset */
 405:STM32F10x_StdPeriph_Driver/src/stm32f10x_adc.c ****     bitstatus = RESET;
 721              		.loc 1 405 0
 722 0030 0020     		movs	r0, #0
 723              	.LVL71:
 406:STM32F10x_StdPeriph_Driver/src/stm32f10x_adc.c ****   }
 407:STM32F10x_StdPeriph_Driver/src/stm32f10x_adc.c ****   /* Return the RSTCAL bit status */
 408:STM32F10x_StdPeriph_Driver/src/stm32f10x_adc.c ****   return  bitstatus;
 409:STM32F10x_StdPeriph_Driver/src/stm32f10x_adc.c **** }
 724              		.loc 1 409 0
 725 0032 10BD     		pop	{r4, pc}
 726              	.LVL72:
 727              	.L58:
 728              		.align	2
 729              	.L57:
 730 0034 00240140 		.word	1073816576
 731 0038 00000000 		.word	.LC0
 732              		.cfi_endproc
 733              	.LFE34:
 735              		.section	.text.ADC_StartCalibration,"ax",%progbits
 736              		.align	2
 737              		.global	ADC_StartCalibration
 738              		.thumb
 739              		.thumb_func
 741              	ADC_StartCalibration:
 742              	.LFB35:
 410:STM32F10x_StdPeriph_Driver/src/stm32f10x_adc.c **** 
 411:STM32F10x_StdPeriph_Driver/src/stm32f10x_adc.c **** /**
 412:STM32F10x_StdPeriph_Driver/src/stm32f10x_adc.c ****   * @brief  Starts the selected ADC calibration process.
 413:STM32F10x_StdPeriph_Driver/src/stm32f10x_adc.c ****   * @param  ADCx: where x can be 1, 2 or 3 to select the ADC peripheral.
 414:STM32F10x_StdPeriph_Driver/src/stm32f10x_adc.c ****   * @retval None
ARM GAS  /var/folders/g9/bbpj86ld7fx45vd1b3pqxmp00000gn/T//cc7tuhUR.s 			page 21


 415:STM32F10x_StdPeriph_Driver/src/stm32f10x_adc.c ****   */
 416:STM32F10x_StdPeriph_Driver/src/stm32f10x_adc.c **** void ADC_StartCalibration(ADC_TypeDef* ADCx)
 417:STM32F10x_StdPeriph_Driver/src/stm32f10x_adc.c **** {
 743              		.loc 1 417 0
 744              		.cfi_startproc
 745              		@ args = 0, pretend = 0, frame = 0
 746              		@ frame_needed = 0, uses_anonymous_args = 0
 747              	.LVL73:
 748 0000 10B5     		push	{r4, lr}
 749              	.LCFI7:
 750              		.cfi_def_cfa_offset 8
 751              		.cfi_offset 4, -8
 752              		.cfi_offset 14, -4
 753 0002 0446     		mov	r4, r0
 418:STM32F10x_StdPeriph_Driver/src/stm32f10x_adc.c ****   /* Check the parameters */
 419:STM32F10x_StdPeriph_Driver/src/stm32f10x_adc.c ****   assert_param(IS_ADC_ALL_PERIPH(ADCx));
 754              		.loc 1 419 0
 755 0004 0A4B     		ldr	r3, .L62
 756 0006 9842     		cmp	r0, r3
 757 0008 0CD0     		beq	.L60
 758              		.loc 1 419 0 is_stmt 0 discriminator 1
 759 000a 03F58063 		add	r3, r3, #1024
 760 000e 9842     		cmp	r0, r3
 761 0010 08D0     		beq	.L60
 762              		.loc 1 419 0 discriminator 2
 763 0012 03F5A053 		add	r3, r3, #5120
 764 0016 9842     		cmp	r0, r3
 765 0018 04D0     		beq	.L60
 766              		.loc 1 419 0 discriminator 3
 767 001a 40F2A311 		movw	r1, #419
 768 001e 0548     		ldr	r0, .L62+4
 769              	.LVL74:
 770 0020 FFF7FEFF 		bl	assert_failed
 771              	.LVL75:
 772              	.L60:
 420:STM32F10x_StdPeriph_Driver/src/stm32f10x_adc.c ****   /* Enable the selected ADC calibration process */  
 421:STM32F10x_StdPeriph_Driver/src/stm32f10x_adc.c ****   ADCx->CR2 |= CR2_CAL_Set;
 773              		.loc 1 421 0 is_stmt 1
 774 0024 A368     		ldr	r3, [r4, #8]
 775 0026 43F00403 		orr	r3, r3, #4
 776 002a A360     		str	r3, [r4, #8]
 777 002c 10BD     		pop	{r4, pc}
 778              	.LVL76:
 779              	.L63:
 780 002e 00BF     		.align	2
 781              	.L62:
 782 0030 00240140 		.word	1073816576
 783 0034 00000000 		.word	.LC0
 784              		.cfi_endproc
 785              	.LFE35:
 787              		.section	.text.ADC_GetCalibrationStatus,"ax",%progbits
 788              		.align	2
 789              		.global	ADC_GetCalibrationStatus
 790              		.thumb
 791              		.thumb_func
 793              	ADC_GetCalibrationStatus:
 794              	.LFB36:
ARM GAS  /var/folders/g9/bbpj86ld7fx45vd1b3pqxmp00000gn/T//cc7tuhUR.s 			page 22


 422:STM32F10x_StdPeriph_Driver/src/stm32f10x_adc.c **** }
 423:STM32F10x_StdPeriph_Driver/src/stm32f10x_adc.c **** 
 424:STM32F10x_StdPeriph_Driver/src/stm32f10x_adc.c **** /**
 425:STM32F10x_StdPeriph_Driver/src/stm32f10x_adc.c ****   * @brief  Gets the selected ADC calibration status.
 426:STM32F10x_StdPeriph_Driver/src/stm32f10x_adc.c ****   * @param  ADCx: where x can be 1, 2 or 3 to select the ADC peripheral.
 427:STM32F10x_StdPeriph_Driver/src/stm32f10x_adc.c ****   * @retval The new state of ADC calibration (SET or RESET).
 428:STM32F10x_StdPeriph_Driver/src/stm32f10x_adc.c ****   */
 429:STM32F10x_StdPeriph_Driver/src/stm32f10x_adc.c **** FlagStatus ADC_GetCalibrationStatus(ADC_TypeDef* ADCx)
 430:STM32F10x_StdPeriph_Driver/src/stm32f10x_adc.c **** {
 795              		.loc 1 430 0
 796              		.cfi_startproc
 797              		@ args = 0, pretend = 0, frame = 0
 798              		@ frame_needed = 0, uses_anonymous_args = 0
 799              	.LVL77:
 800 0000 10B5     		push	{r4, lr}
 801              	.LCFI8:
 802              		.cfi_def_cfa_offset 8
 803              		.cfi_offset 4, -8
 804              		.cfi_offset 14, -4
 805 0002 0446     		mov	r4, r0
 806              	.LVL78:
 431:STM32F10x_StdPeriph_Driver/src/stm32f10x_adc.c ****   FlagStatus bitstatus = RESET;
 432:STM32F10x_StdPeriph_Driver/src/stm32f10x_adc.c ****   /* Check the parameters */
 433:STM32F10x_StdPeriph_Driver/src/stm32f10x_adc.c ****   assert_param(IS_ADC_ALL_PERIPH(ADCx));
 807              		.loc 1 433 0
 808 0004 0B4B     		ldr	r3, .L69
 809 0006 9842     		cmp	r0, r3
 810 0008 0CD0     		beq	.L65
 811              		.loc 1 433 0 is_stmt 0 discriminator 1
 812 000a 03F58063 		add	r3, r3, #1024
 813 000e 9842     		cmp	r0, r3
 814 0010 08D0     		beq	.L65
 815              		.loc 1 433 0 discriminator 2
 816 0012 03F5A053 		add	r3, r3, #5120
 817 0016 9842     		cmp	r0, r3
 818 0018 04D0     		beq	.L65
 819              		.loc 1 433 0 discriminator 3
 820 001a 40F2B111 		movw	r1, #433
 821 001e 0648     		ldr	r0, .L69+4
 822              	.LVL79:
 823 0020 FFF7FEFF 		bl	assert_failed
 824              	.LVL80:
 825              	.L65:
 434:STM32F10x_StdPeriph_Driver/src/stm32f10x_adc.c ****   /* Check the status of CAL bit */
 435:STM32F10x_StdPeriph_Driver/src/stm32f10x_adc.c ****   if ((ADCx->CR2 & CR2_CAL_Set) != (uint32_t)RESET)
 826              		.loc 1 435 0 is_stmt 1
 827 0024 A368     		ldr	r3, [r4, #8]
 828 0026 13F0040F 		tst	r3, #4
 829 002a 01D0     		beq	.L67
 436:STM32F10x_StdPeriph_Driver/src/stm32f10x_adc.c ****   {
 437:STM32F10x_StdPeriph_Driver/src/stm32f10x_adc.c ****     /* CAL bit is set: calibration on going */
 438:STM32F10x_StdPeriph_Driver/src/stm32f10x_adc.c ****     bitstatus = SET;
 830              		.loc 1 438 0
 831 002c 0120     		movs	r0, #1
 832 002e 10BD     		pop	{r4, pc}
 833              	.LVL81:
 834              	.L67:
ARM GAS  /var/folders/g9/bbpj86ld7fx45vd1b3pqxmp00000gn/T//cc7tuhUR.s 			page 23


 439:STM32F10x_StdPeriph_Driver/src/stm32f10x_adc.c ****   }
 440:STM32F10x_StdPeriph_Driver/src/stm32f10x_adc.c ****   else
 441:STM32F10x_StdPeriph_Driver/src/stm32f10x_adc.c ****   {
 442:STM32F10x_StdPeriph_Driver/src/stm32f10x_adc.c ****     /* CAL bit is reset: end of calibration */
 443:STM32F10x_StdPeriph_Driver/src/stm32f10x_adc.c ****     bitstatus = RESET;
 835              		.loc 1 443 0
 836 0030 0020     		movs	r0, #0
 837              	.LVL82:
 444:STM32F10x_StdPeriph_Driver/src/stm32f10x_adc.c ****   }
 445:STM32F10x_StdPeriph_Driver/src/stm32f10x_adc.c ****   /* Return the CAL bit status */
 446:STM32F10x_StdPeriph_Driver/src/stm32f10x_adc.c ****   return  bitstatus;
 447:STM32F10x_StdPeriph_Driver/src/stm32f10x_adc.c **** }
 838              		.loc 1 447 0
 839 0032 10BD     		pop	{r4, pc}
 840              	.LVL83:
 841              	.L70:
 842              		.align	2
 843              	.L69:
 844 0034 00240140 		.word	1073816576
 845 0038 00000000 		.word	.LC0
 846              		.cfi_endproc
 847              	.LFE36:
 849              		.section	.text.ADC_SoftwareStartConvCmd,"ax",%progbits
 850              		.align	2
 851              		.global	ADC_SoftwareStartConvCmd
 852              		.thumb
 853              		.thumb_func
 855              	ADC_SoftwareStartConvCmd:
 856              	.LFB37:
 448:STM32F10x_StdPeriph_Driver/src/stm32f10x_adc.c **** 
 449:STM32F10x_StdPeriph_Driver/src/stm32f10x_adc.c **** /**
 450:STM32F10x_StdPeriph_Driver/src/stm32f10x_adc.c ****   * @brief  Enables or disables the selected ADC software start conversion .
 451:STM32F10x_StdPeriph_Driver/src/stm32f10x_adc.c ****   * @param  ADCx: where x can be 1, 2 or 3 to select the ADC peripheral.
 452:STM32F10x_StdPeriph_Driver/src/stm32f10x_adc.c ****   * @param  NewState: new state of the selected ADC software start conversion.
 453:STM32F10x_StdPeriph_Driver/src/stm32f10x_adc.c ****   *   This parameter can be: ENABLE or DISABLE.
 454:STM32F10x_StdPeriph_Driver/src/stm32f10x_adc.c ****   * @retval None
 455:STM32F10x_StdPeriph_Driver/src/stm32f10x_adc.c ****   */
 456:STM32F10x_StdPeriph_Driver/src/stm32f10x_adc.c **** void ADC_SoftwareStartConvCmd(ADC_TypeDef* ADCx, FunctionalState NewState)
 457:STM32F10x_StdPeriph_Driver/src/stm32f10x_adc.c **** {
 857              		.loc 1 457 0
 858              		.cfi_startproc
 859              		@ args = 0, pretend = 0, frame = 0
 860              		@ frame_needed = 0, uses_anonymous_args = 0
 861              	.LVL84:
 862 0000 38B5     		push	{r3, r4, r5, lr}
 863              	.LCFI9:
 864              		.cfi_def_cfa_offset 16
 865              		.cfi_offset 3, -16
 866              		.cfi_offset 4, -12
 867              		.cfi_offset 5, -8
 868              		.cfi_offset 14, -4
 869 0002 0446     		mov	r4, r0
 870 0004 0D46     		mov	r5, r1
 458:STM32F10x_StdPeriph_Driver/src/stm32f10x_adc.c ****   /* Check the parameters */
 459:STM32F10x_StdPeriph_Driver/src/stm32f10x_adc.c ****   assert_param(IS_ADC_ALL_PERIPH(ADCx));
 871              		.loc 1 459 0
 872 0006 114B     		ldr	r3, .L77
ARM GAS  /var/folders/g9/bbpj86ld7fx45vd1b3pqxmp00000gn/T//cc7tuhUR.s 			page 24


 873 0008 9842     		cmp	r0, r3
 874 000a 0CD0     		beq	.L72
 875              		.loc 1 459 0 is_stmt 0 discriminator 1
 876 000c 03F58063 		add	r3, r3, #1024
 877 0010 9842     		cmp	r0, r3
 878 0012 08D0     		beq	.L72
 879              		.loc 1 459 0 discriminator 2
 880 0014 03F5A053 		add	r3, r3, #5120
 881 0018 9842     		cmp	r0, r3
 882 001a 04D0     		beq	.L72
 883              		.loc 1 459 0 discriminator 3
 884 001c 40F2CB11 		movw	r1, #459
 885              	.LVL85:
 886 0020 0B48     		ldr	r0, .L77+4
 887              	.LVL86:
 888 0022 FFF7FEFF 		bl	assert_failed
 889              	.LVL87:
 890              	.L72:
 460:STM32F10x_StdPeriph_Driver/src/stm32f10x_adc.c ****   assert_param(IS_FUNCTIONAL_STATE(NewState));
 891              		.loc 1 460 0 is_stmt 1
 892 0026 012D     		cmp	r5, #1
 893 0028 04D9     		bls	.L73
 894              		.loc 1 460 0 is_stmt 0 discriminator 1
 895 002a 4FF4E671 		mov	r1, #460
 896 002e 0848     		ldr	r0, .L77+4
 897 0030 FFF7FEFF 		bl	assert_failed
 898              	.LVL88:
 899              	.L73:
 461:STM32F10x_StdPeriph_Driver/src/stm32f10x_adc.c ****   if (NewState != DISABLE)
 900              		.loc 1 461 0 is_stmt 1
 901 0034 25B1     		cbz	r5, .L74
 462:STM32F10x_StdPeriph_Driver/src/stm32f10x_adc.c ****   {
 463:STM32F10x_StdPeriph_Driver/src/stm32f10x_adc.c ****     /* Enable the selected ADC conversion on external event and start the selected
 464:STM32F10x_StdPeriph_Driver/src/stm32f10x_adc.c ****        ADC conversion */
 465:STM32F10x_StdPeriph_Driver/src/stm32f10x_adc.c ****     ADCx->CR2 |= CR2_EXTTRIG_SWSTART_Set;
 902              		.loc 1 465 0
 903 0036 A368     		ldr	r3, [r4, #8]
 904 0038 43F4A003 		orr	r3, r3, #5242880
 905 003c A360     		str	r3, [r4, #8]
 906 003e 38BD     		pop	{r3, r4, r5, pc}
 907              	.LVL89:
 908              	.L74:
 466:STM32F10x_StdPeriph_Driver/src/stm32f10x_adc.c ****   }
 467:STM32F10x_StdPeriph_Driver/src/stm32f10x_adc.c ****   else
 468:STM32F10x_StdPeriph_Driver/src/stm32f10x_adc.c ****   {
 469:STM32F10x_StdPeriph_Driver/src/stm32f10x_adc.c ****     /* Disable the selected ADC conversion on external event and stop the selected
 470:STM32F10x_StdPeriph_Driver/src/stm32f10x_adc.c ****        ADC conversion */
 471:STM32F10x_StdPeriph_Driver/src/stm32f10x_adc.c ****     ADCx->CR2 &= CR2_EXTTRIG_SWSTART_Reset;
 909              		.loc 1 471 0
 910 0040 A368     		ldr	r3, [r4, #8]
 911 0042 23F4A003 		bic	r3, r3, #5242880
 912 0046 A360     		str	r3, [r4, #8]
 913 0048 38BD     		pop	{r3, r4, r5, pc}
 914              	.LVL90:
 915              	.L78:
 916 004a 00BF     		.align	2
 917              	.L77:
ARM GAS  /var/folders/g9/bbpj86ld7fx45vd1b3pqxmp00000gn/T//cc7tuhUR.s 			page 25


 918 004c 00240140 		.word	1073816576
 919 0050 00000000 		.word	.LC0
 920              		.cfi_endproc
 921              	.LFE37:
 923              		.section	.text.ADC_GetSoftwareStartConvStatus,"ax",%progbits
 924              		.align	2
 925              		.global	ADC_GetSoftwareStartConvStatus
 926              		.thumb
 927              		.thumb_func
 929              	ADC_GetSoftwareStartConvStatus:
 930              	.LFB38:
 472:STM32F10x_StdPeriph_Driver/src/stm32f10x_adc.c ****   }
 473:STM32F10x_StdPeriph_Driver/src/stm32f10x_adc.c **** }
 474:STM32F10x_StdPeriph_Driver/src/stm32f10x_adc.c **** 
 475:STM32F10x_StdPeriph_Driver/src/stm32f10x_adc.c **** /**
 476:STM32F10x_StdPeriph_Driver/src/stm32f10x_adc.c ****   * @brief  Gets the selected ADC Software start conversion Status.
 477:STM32F10x_StdPeriph_Driver/src/stm32f10x_adc.c ****   * @param  ADCx: where x can be 1, 2 or 3 to select the ADC peripheral.
 478:STM32F10x_StdPeriph_Driver/src/stm32f10x_adc.c ****   * @retval The new state of ADC software start conversion (SET or RESET).
 479:STM32F10x_StdPeriph_Driver/src/stm32f10x_adc.c ****   */
 480:STM32F10x_StdPeriph_Driver/src/stm32f10x_adc.c **** FlagStatus ADC_GetSoftwareStartConvStatus(ADC_TypeDef* ADCx)
 481:STM32F10x_StdPeriph_Driver/src/stm32f10x_adc.c **** {
 931              		.loc 1 481 0
 932              		.cfi_startproc
 933              		@ args = 0, pretend = 0, frame = 0
 934              		@ frame_needed = 0, uses_anonymous_args = 0
 935              	.LVL91:
 936 0000 10B5     		push	{r4, lr}
 937              	.LCFI10:
 938              		.cfi_def_cfa_offset 8
 939              		.cfi_offset 4, -8
 940              		.cfi_offset 14, -4
 941 0002 0446     		mov	r4, r0
 942              	.LVL92:
 482:STM32F10x_StdPeriph_Driver/src/stm32f10x_adc.c ****   FlagStatus bitstatus = RESET;
 483:STM32F10x_StdPeriph_Driver/src/stm32f10x_adc.c ****   /* Check the parameters */
 484:STM32F10x_StdPeriph_Driver/src/stm32f10x_adc.c ****   assert_param(IS_ADC_ALL_PERIPH(ADCx));
 943              		.loc 1 484 0
 944 0004 0B4B     		ldr	r3, .L84
 945 0006 9842     		cmp	r0, r3
 946 0008 0CD0     		beq	.L80
 947              		.loc 1 484 0 is_stmt 0 discriminator 1
 948 000a 03F58063 		add	r3, r3, #1024
 949 000e 9842     		cmp	r0, r3
 950 0010 08D0     		beq	.L80
 951              		.loc 1 484 0 discriminator 2
 952 0012 03F5A053 		add	r3, r3, #5120
 953 0016 9842     		cmp	r0, r3
 954 0018 04D0     		beq	.L80
 955              		.loc 1 484 0 discriminator 3
 956 001a 4FF4F271 		mov	r1, #484
 957 001e 0648     		ldr	r0, .L84+4
 958              	.LVL93:
 959 0020 FFF7FEFF 		bl	assert_failed
 960              	.LVL94:
 961              	.L80:
 485:STM32F10x_StdPeriph_Driver/src/stm32f10x_adc.c ****   /* Check the status of SWSTART bit */
 486:STM32F10x_StdPeriph_Driver/src/stm32f10x_adc.c ****   if ((ADCx->CR2 & CR2_SWSTART_Set) != (uint32_t)RESET)
ARM GAS  /var/folders/g9/bbpj86ld7fx45vd1b3pqxmp00000gn/T//cc7tuhUR.s 			page 26


 962              		.loc 1 486 0 is_stmt 1
 963 0024 A368     		ldr	r3, [r4, #8]
 964 0026 13F4800F 		tst	r3, #4194304
 965 002a 01D0     		beq	.L82
 487:STM32F10x_StdPeriph_Driver/src/stm32f10x_adc.c ****   {
 488:STM32F10x_StdPeriph_Driver/src/stm32f10x_adc.c ****     /* SWSTART bit is set */
 489:STM32F10x_StdPeriph_Driver/src/stm32f10x_adc.c ****     bitstatus = SET;
 966              		.loc 1 489 0
 967 002c 0120     		movs	r0, #1
 968 002e 10BD     		pop	{r4, pc}
 969              	.LVL95:
 970              	.L82:
 490:STM32F10x_StdPeriph_Driver/src/stm32f10x_adc.c ****   }
 491:STM32F10x_StdPeriph_Driver/src/stm32f10x_adc.c ****   else
 492:STM32F10x_StdPeriph_Driver/src/stm32f10x_adc.c ****   {
 493:STM32F10x_StdPeriph_Driver/src/stm32f10x_adc.c ****     /* SWSTART bit is reset */
 494:STM32F10x_StdPeriph_Driver/src/stm32f10x_adc.c ****     bitstatus = RESET;
 971              		.loc 1 494 0
 972 0030 0020     		movs	r0, #0
 973              	.LVL96:
 495:STM32F10x_StdPeriph_Driver/src/stm32f10x_adc.c ****   }
 496:STM32F10x_StdPeriph_Driver/src/stm32f10x_adc.c ****   /* Return the SWSTART bit status */
 497:STM32F10x_StdPeriph_Driver/src/stm32f10x_adc.c ****   return  bitstatus;
 498:STM32F10x_StdPeriph_Driver/src/stm32f10x_adc.c **** }
 974              		.loc 1 498 0
 975 0032 10BD     		pop	{r4, pc}
 976              	.LVL97:
 977              	.L85:
 978              		.align	2
 979              	.L84:
 980 0034 00240140 		.word	1073816576
 981 0038 00000000 		.word	.LC0
 982              		.cfi_endproc
 983              	.LFE38:
 985              		.section	.text.ADC_DiscModeChannelCountConfig,"ax",%progbits
 986              		.align	2
 987              		.global	ADC_DiscModeChannelCountConfig
 988              		.thumb
 989              		.thumb_func
 991              	ADC_DiscModeChannelCountConfig:
 992              	.LFB39:
 499:STM32F10x_StdPeriph_Driver/src/stm32f10x_adc.c **** 
 500:STM32F10x_StdPeriph_Driver/src/stm32f10x_adc.c **** /**
 501:STM32F10x_StdPeriph_Driver/src/stm32f10x_adc.c ****   * @brief  Configures the discontinuous mode for the selected ADC regular
 502:STM32F10x_StdPeriph_Driver/src/stm32f10x_adc.c ****   *   group channel.
 503:STM32F10x_StdPeriph_Driver/src/stm32f10x_adc.c ****   * @param  ADCx: where x can be 1, 2 or 3 to select the ADC peripheral.
 504:STM32F10x_StdPeriph_Driver/src/stm32f10x_adc.c ****   * @param  Number: specifies the discontinuous mode regular channel
 505:STM32F10x_StdPeriph_Driver/src/stm32f10x_adc.c ****   *   count value. This number must be between 1 and 8.
 506:STM32F10x_StdPeriph_Driver/src/stm32f10x_adc.c ****   * @retval None
 507:STM32F10x_StdPeriph_Driver/src/stm32f10x_adc.c ****   */
 508:STM32F10x_StdPeriph_Driver/src/stm32f10x_adc.c **** void ADC_DiscModeChannelCountConfig(ADC_TypeDef* ADCx, uint8_t Number)
 509:STM32F10x_StdPeriph_Driver/src/stm32f10x_adc.c **** {
 993              		.loc 1 509 0
 994              		.cfi_startproc
 995              		@ args = 0, pretend = 0, frame = 0
 996              		@ frame_needed = 0, uses_anonymous_args = 0
 997              	.LVL98:
ARM GAS  /var/folders/g9/bbpj86ld7fx45vd1b3pqxmp00000gn/T//cc7tuhUR.s 			page 27


 998 0000 38B5     		push	{r3, r4, r5, lr}
 999              	.LCFI11:
 1000              		.cfi_def_cfa_offset 16
 1001              		.cfi_offset 3, -16
 1002              		.cfi_offset 4, -12
 1003              		.cfi_offset 5, -8
 1004              		.cfi_offset 14, -4
 1005 0002 0446     		mov	r4, r0
 1006 0004 0D46     		mov	r5, r1
 1007              	.LVL99:
 510:STM32F10x_StdPeriph_Driver/src/stm32f10x_adc.c ****   uint32_t tmpreg1 = 0;
 511:STM32F10x_StdPeriph_Driver/src/stm32f10x_adc.c ****   uint32_t tmpreg2 = 0;
 512:STM32F10x_StdPeriph_Driver/src/stm32f10x_adc.c ****   /* Check the parameters */
 513:STM32F10x_StdPeriph_Driver/src/stm32f10x_adc.c ****   assert_param(IS_ADC_ALL_PERIPH(ADCx));
 1008              		.loc 1 513 0
 1009 0006 104B     		ldr	r3, .L90
 1010 0008 9842     		cmp	r0, r3
 1011 000a 0CD0     		beq	.L87
 1012              		.loc 1 513 0 is_stmt 0 discriminator 1
 1013 000c 03F58063 		add	r3, r3, #1024
 1014 0010 9842     		cmp	r0, r3
 1015 0012 08D0     		beq	.L87
 1016              		.loc 1 513 0 discriminator 2
 1017 0014 03F5A053 		add	r3, r3, #5120
 1018 0018 9842     		cmp	r0, r3
 1019 001a 04D0     		beq	.L87
 1020              		.loc 1 513 0 discriminator 3
 1021 001c 40F20121 		movw	r1, #513
 1022              	.LVL100:
 1023 0020 0A48     		ldr	r0, .L90+4
 1024              	.LVL101:
 1025 0022 FFF7FEFF 		bl	assert_failed
 1026              	.LVL102:
 1027              	.L87:
 514:STM32F10x_StdPeriph_Driver/src/stm32f10x_adc.c ****   assert_param(IS_ADC_REGULAR_DISC_NUMBER(Number));
 1028              		.loc 1 514 0 is_stmt 1
 1029 0026 6B1E     		subs	r3, r5, #1
 1030 0028 DBB2     		uxtb	r3, r3
 1031 002a 072B     		cmp	r3, #7
 1032 002c 04D9     		bls	.L88
 1033              		.loc 1 514 0 is_stmt 0 discriminator 1
 1034 002e 40F20221 		movw	r1, #514
 1035 0032 0648     		ldr	r0, .L90+4
 1036 0034 FFF7FEFF 		bl	assert_failed
 1037              	.LVL103:
 1038              	.L88:
 515:STM32F10x_StdPeriph_Driver/src/stm32f10x_adc.c ****   /* Get the old register value */
 516:STM32F10x_StdPeriph_Driver/src/stm32f10x_adc.c ****   tmpreg1 = ADCx->CR1;
 1039              		.loc 1 516 0 is_stmt 1
 1040 0038 6168     		ldr	r1, [r4, #4]
 1041              	.LVL104:
 517:STM32F10x_StdPeriph_Driver/src/stm32f10x_adc.c ****   /* Clear the old discontinuous mode channel count */
 518:STM32F10x_StdPeriph_Driver/src/stm32f10x_adc.c ****   tmpreg1 &= CR1_DISCNUM_Reset;
 1042              		.loc 1 518 0
 1043 003a 21F46043 		bic	r3, r1, #57344
 1044              	.LVL105:
 519:STM32F10x_StdPeriph_Driver/src/stm32f10x_adc.c ****   /* Set the discontinuous mode channel count */
ARM GAS  /var/folders/g9/bbpj86ld7fx45vd1b3pqxmp00000gn/T//cc7tuhUR.s 			page 28


 520:STM32F10x_StdPeriph_Driver/src/stm32f10x_adc.c ****   tmpreg2 = Number - 1;
 1045              		.loc 1 520 0
 1046 003e 691E     		subs	r1, r5, #1
 1047              	.LVL106:
 521:STM32F10x_StdPeriph_Driver/src/stm32f10x_adc.c ****   tmpreg1 |= tmpreg2 << 13;
 1048              		.loc 1 521 0
 1049 0040 43EA4131 		orr	r1, r3, r1, lsl #13
 1050              	.LVL107:
 522:STM32F10x_StdPeriph_Driver/src/stm32f10x_adc.c ****   /* Store the new register value */
 523:STM32F10x_StdPeriph_Driver/src/stm32f10x_adc.c ****   ADCx->CR1 = tmpreg1;
 1051              		.loc 1 523 0
 1052 0044 6160     		str	r1, [r4, #4]
 1053 0046 38BD     		pop	{r3, r4, r5, pc}
 1054              	.LVL108:
 1055              	.L91:
 1056              		.align	2
 1057              	.L90:
 1058 0048 00240140 		.word	1073816576
 1059 004c 00000000 		.word	.LC0
 1060              		.cfi_endproc
 1061              	.LFE39:
 1063              		.section	.text.ADC_DiscModeCmd,"ax",%progbits
 1064              		.align	2
 1065              		.global	ADC_DiscModeCmd
 1066              		.thumb
 1067              		.thumb_func
 1069              	ADC_DiscModeCmd:
 1070              	.LFB40:
 524:STM32F10x_StdPeriph_Driver/src/stm32f10x_adc.c **** }
 525:STM32F10x_StdPeriph_Driver/src/stm32f10x_adc.c **** 
 526:STM32F10x_StdPeriph_Driver/src/stm32f10x_adc.c **** /**
 527:STM32F10x_StdPeriph_Driver/src/stm32f10x_adc.c ****   * @brief  Enables or disables the discontinuous mode on regular group
 528:STM32F10x_StdPeriph_Driver/src/stm32f10x_adc.c ****   *   channel for the specified ADC
 529:STM32F10x_StdPeriph_Driver/src/stm32f10x_adc.c ****   * @param  ADCx: where x can be 1, 2 or 3 to select the ADC peripheral.
 530:STM32F10x_StdPeriph_Driver/src/stm32f10x_adc.c ****   * @param  NewState: new state of the selected ADC discontinuous mode
 531:STM32F10x_StdPeriph_Driver/src/stm32f10x_adc.c ****   *   on regular group channel.
 532:STM32F10x_StdPeriph_Driver/src/stm32f10x_adc.c ****   *   This parameter can be: ENABLE or DISABLE.
 533:STM32F10x_StdPeriph_Driver/src/stm32f10x_adc.c ****   * @retval None
 534:STM32F10x_StdPeriph_Driver/src/stm32f10x_adc.c ****   */
 535:STM32F10x_StdPeriph_Driver/src/stm32f10x_adc.c **** void ADC_DiscModeCmd(ADC_TypeDef* ADCx, FunctionalState NewState)
 536:STM32F10x_StdPeriph_Driver/src/stm32f10x_adc.c **** {
 1071              		.loc 1 536 0
 1072              		.cfi_startproc
 1073              		@ args = 0, pretend = 0, frame = 0
 1074              		@ frame_needed = 0, uses_anonymous_args = 0
 1075              	.LVL109:
 1076 0000 38B5     		push	{r3, r4, r5, lr}
 1077              	.LCFI12:
 1078              		.cfi_def_cfa_offset 16
 1079              		.cfi_offset 3, -16
 1080              		.cfi_offset 4, -12
 1081              		.cfi_offset 5, -8
 1082              		.cfi_offset 14, -4
 1083 0002 0446     		mov	r4, r0
 1084 0004 0D46     		mov	r5, r1
 537:STM32F10x_StdPeriph_Driver/src/stm32f10x_adc.c ****   /* Check the parameters */
 538:STM32F10x_StdPeriph_Driver/src/stm32f10x_adc.c ****   assert_param(IS_ADC_ALL_PERIPH(ADCx));
ARM GAS  /var/folders/g9/bbpj86ld7fx45vd1b3pqxmp00000gn/T//cc7tuhUR.s 			page 29


 1085              		.loc 1 538 0
 1086 0006 114B     		ldr	r3, .L98
 1087 0008 9842     		cmp	r0, r3
 1088 000a 0CD0     		beq	.L93
 1089              		.loc 1 538 0 is_stmt 0 discriminator 1
 1090 000c 03F58063 		add	r3, r3, #1024
 1091 0010 9842     		cmp	r0, r3
 1092 0012 08D0     		beq	.L93
 1093              		.loc 1 538 0 discriminator 2
 1094 0014 03F5A053 		add	r3, r3, #5120
 1095 0018 9842     		cmp	r0, r3
 1096 001a 04D0     		beq	.L93
 1097              		.loc 1 538 0 discriminator 3
 1098 001c 40F21A21 		movw	r1, #538
 1099              	.LVL110:
 1100 0020 0B48     		ldr	r0, .L98+4
 1101              	.LVL111:
 1102 0022 FFF7FEFF 		bl	assert_failed
 1103              	.LVL112:
 1104              	.L93:
 539:STM32F10x_StdPeriph_Driver/src/stm32f10x_adc.c ****   assert_param(IS_FUNCTIONAL_STATE(NewState));
 1105              		.loc 1 539 0 is_stmt 1
 1106 0026 012D     		cmp	r5, #1
 1107 0028 04D9     		bls	.L94
 1108              		.loc 1 539 0 is_stmt 0 discriminator 1
 1109 002a 40F21B21 		movw	r1, #539
 1110 002e 0848     		ldr	r0, .L98+4
 1111 0030 FFF7FEFF 		bl	assert_failed
 1112              	.LVL113:
 1113              	.L94:
 540:STM32F10x_StdPeriph_Driver/src/stm32f10x_adc.c ****   if (NewState != DISABLE)
 1114              		.loc 1 540 0 is_stmt 1
 1115 0034 25B1     		cbz	r5, .L95
 541:STM32F10x_StdPeriph_Driver/src/stm32f10x_adc.c ****   {
 542:STM32F10x_StdPeriph_Driver/src/stm32f10x_adc.c ****     /* Enable the selected ADC regular discontinuous mode */
 543:STM32F10x_StdPeriph_Driver/src/stm32f10x_adc.c ****     ADCx->CR1 |= CR1_DISCEN_Set;
 1116              		.loc 1 543 0
 1117 0036 6368     		ldr	r3, [r4, #4]
 1118 0038 43F40063 		orr	r3, r3, #2048
 1119 003c 6360     		str	r3, [r4, #4]
 1120 003e 38BD     		pop	{r3, r4, r5, pc}
 1121              	.LVL114:
 1122              	.L95:
 544:STM32F10x_StdPeriph_Driver/src/stm32f10x_adc.c ****   }
 545:STM32F10x_StdPeriph_Driver/src/stm32f10x_adc.c ****   else
 546:STM32F10x_StdPeriph_Driver/src/stm32f10x_adc.c ****   {
 547:STM32F10x_StdPeriph_Driver/src/stm32f10x_adc.c ****     /* Disable the selected ADC regular discontinuous mode */
 548:STM32F10x_StdPeriph_Driver/src/stm32f10x_adc.c ****     ADCx->CR1 &= CR1_DISCEN_Reset;
 1123              		.loc 1 548 0
 1124 0040 6368     		ldr	r3, [r4, #4]
 1125 0042 23F40063 		bic	r3, r3, #2048
 1126 0046 6360     		str	r3, [r4, #4]
 1127 0048 38BD     		pop	{r3, r4, r5, pc}
 1128              	.LVL115:
 1129              	.L99:
 1130 004a 00BF     		.align	2
 1131              	.L98:
ARM GAS  /var/folders/g9/bbpj86ld7fx45vd1b3pqxmp00000gn/T//cc7tuhUR.s 			page 30


 1132 004c 00240140 		.word	1073816576
 1133 0050 00000000 		.word	.LC0
 1134              		.cfi_endproc
 1135              	.LFE40:
 1137              		.section	.text.ADC_RegularChannelConfig,"ax",%progbits
 1138              		.align	2
 1139              		.global	ADC_RegularChannelConfig
 1140              		.thumb
 1141              		.thumb_func
 1143              	ADC_RegularChannelConfig:
 1144              	.LFB41:
 549:STM32F10x_StdPeriph_Driver/src/stm32f10x_adc.c ****   }
 550:STM32F10x_StdPeriph_Driver/src/stm32f10x_adc.c **** }
 551:STM32F10x_StdPeriph_Driver/src/stm32f10x_adc.c **** 
 552:STM32F10x_StdPeriph_Driver/src/stm32f10x_adc.c **** /**
 553:STM32F10x_StdPeriph_Driver/src/stm32f10x_adc.c ****   * @brief  Configures for the selected ADC regular channel its corresponding
 554:STM32F10x_StdPeriph_Driver/src/stm32f10x_adc.c ****   *   rank in the sequencer and its sample time.
 555:STM32F10x_StdPeriph_Driver/src/stm32f10x_adc.c ****   * @param  ADCx: where x can be 1, 2 or 3 to select the ADC peripheral.
 556:STM32F10x_StdPeriph_Driver/src/stm32f10x_adc.c ****   * @param  ADC_Channel: the ADC channel to configure. 
 557:STM32F10x_StdPeriph_Driver/src/stm32f10x_adc.c ****   *   This parameter can be one of the following values:
 558:STM32F10x_StdPeriph_Driver/src/stm32f10x_adc.c ****   *     @arg ADC_Channel_0: ADC Channel0 selected
 559:STM32F10x_StdPeriph_Driver/src/stm32f10x_adc.c ****   *     @arg ADC_Channel_1: ADC Channel1 selected
 560:STM32F10x_StdPeriph_Driver/src/stm32f10x_adc.c ****   *     @arg ADC_Channel_2: ADC Channel2 selected
 561:STM32F10x_StdPeriph_Driver/src/stm32f10x_adc.c ****   *     @arg ADC_Channel_3: ADC Channel3 selected
 562:STM32F10x_StdPeriph_Driver/src/stm32f10x_adc.c ****   *     @arg ADC_Channel_4: ADC Channel4 selected
 563:STM32F10x_StdPeriph_Driver/src/stm32f10x_adc.c ****   *     @arg ADC_Channel_5: ADC Channel5 selected
 564:STM32F10x_StdPeriph_Driver/src/stm32f10x_adc.c ****   *     @arg ADC_Channel_6: ADC Channel6 selected
 565:STM32F10x_StdPeriph_Driver/src/stm32f10x_adc.c ****   *     @arg ADC_Channel_7: ADC Channel7 selected
 566:STM32F10x_StdPeriph_Driver/src/stm32f10x_adc.c ****   *     @arg ADC_Channel_8: ADC Channel8 selected
 567:STM32F10x_StdPeriph_Driver/src/stm32f10x_adc.c ****   *     @arg ADC_Channel_9: ADC Channel9 selected
 568:STM32F10x_StdPeriph_Driver/src/stm32f10x_adc.c ****   *     @arg ADC_Channel_10: ADC Channel10 selected
 569:STM32F10x_StdPeriph_Driver/src/stm32f10x_adc.c ****   *     @arg ADC_Channel_11: ADC Channel11 selected
 570:STM32F10x_StdPeriph_Driver/src/stm32f10x_adc.c ****   *     @arg ADC_Channel_12: ADC Channel12 selected
 571:STM32F10x_StdPeriph_Driver/src/stm32f10x_adc.c ****   *     @arg ADC_Channel_13: ADC Channel13 selected
 572:STM32F10x_StdPeriph_Driver/src/stm32f10x_adc.c ****   *     @arg ADC_Channel_14: ADC Channel14 selected
 573:STM32F10x_StdPeriph_Driver/src/stm32f10x_adc.c ****   *     @arg ADC_Channel_15: ADC Channel15 selected
 574:STM32F10x_StdPeriph_Driver/src/stm32f10x_adc.c ****   *     @arg ADC_Channel_16: ADC Channel16 selected
 575:STM32F10x_StdPeriph_Driver/src/stm32f10x_adc.c ****   *     @arg ADC_Channel_17: ADC Channel17 selected
 576:STM32F10x_StdPeriph_Driver/src/stm32f10x_adc.c ****   * @param  Rank: The rank in the regular group sequencer. This parameter must be between 1 to 16.
 577:STM32F10x_StdPeriph_Driver/src/stm32f10x_adc.c ****   * @param  ADC_SampleTime: The sample time value to be set for the selected channel. 
 578:STM32F10x_StdPeriph_Driver/src/stm32f10x_adc.c ****   *   This parameter can be one of the following values:
 579:STM32F10x_StdPeriph_Driver/src/stm32f10x_adc.c ****   *     @arg ADC_SampleTime_1Cycles5: Sample time equal to 1.5 cycles
 580:STM32F10x_StdPeriph_Driver/src/stm32f10x_adc.c ****   *     @arg ADC_SampleTime_7Cycles5: Sample time equal to 7.5 cycles
 581:STM32F10x_StdPeriph_Driver/src/stm32f10x_adc.c ****   *     @arg ADC_SampleTime_13Cycles5: Sample time equal to 13.5 cycles
 582:STM32F10x_StdPeriph_Driver/src/stm32f10x_adc.c ****   *     @arg ADC_SampleTime_28Cycles5: Sample time equal to 28.5 cycles	
 583:STM32F10x_StdPeriph_Driver/src/stm32f10x_adc.c ****   *     @arg ADC_SampleTime_41Cycles5: Sample time equal to 41.5 cycles	
 584:STM32F10x_StdPeriph_Driver/src/stm32f10x_adc.c ****   *     @arg ADC_SampleTime_55Cycles5: Sample time equal to 55.5 cycles	
 585:STM32F10x_StdPeriph_Driver/src/stm32f10x_adc.c ****   *     @arg ADC_SampleTime_71Cycles5: Sample time equal to 71.5 cycles	
 586:STM32F10x_StdPeriph_Driver/src/stm32f10x_adc.c ****   *     @arg ADC_SampleTime_239Cycles5: Sample time equal to 239.5 cycles	
 587:STM32F10x_StdPeriph_Driver/src/stm32f10x_adc.c ****   * @retval None
 588:STM32F10x_StdPeriph_Driver/src/stm32f10x_adc.c ****   */
 589:STM32F10x_StdPeriph_Driver/src/stm32f10x_adc.c **** void ADC_RegularChannelConfig(ADC_TypeDef* ADCx, uint8_t ADC_Channel, uint8_t Rank, uint8_t ADC_Sam
 590:STM32F10x_StdPeriph_Driver/src/stm32f10x_adc.c **** {
 1145              		.loc 1 590 0
 1146              		.cfi_startproc
 1147              		@ args = 0, pretend = 0, frame = 0
 1148              		@ frame_needed = 0, uses_anonymous_args = 0
ARM GAS  /var/folders/g9/bbpj86ld7fx45vd1b3pqxmp00000gn/T//cc7tuhUR.s 			page 31


 1149              	.LVL116:
 1150 0000 F8B5     		push	{r3, r4, r5, r6, r7, lr}
 1151              	.LCFI13:
 1152              		.cfi_def_cfa_offset 24
 1153              		.cfi_offset 3, -24
 1154              		.cfi_offset 4, -20
 1155              		.cfi_offset 5, -16
 1156              		.cfi_offset 6, -12
 1157              		.cfi_offset 7, -8
 1158              		.cfi_offset 14, -4
 1159 0002 0546     		mov	r5, r0
 1160 0004 0E46     		mov	r6, r1
 1161 0006 1446     		mov	r4, r2
 1162 0008 1F46     		mov	r7, r3
 1163              	.LVL117:
 591:STM32F10x_StdPeriph_Driver/src/stm32f10x_adc.c ****   uint32_t tmpreg1 = 0, tmpreg2 = 0;
 592:STM32F10x_StdPeriph_Driver/src/stm32f10x_adc.c ****   /* Check the parameters */
 593:STM32F10x_StdPeriph_Driver/src/stm32f10x_adc.c ****   assert_param(IS_ADC_ALL_PERIPH(ADCx));
 1164              		.loc 1 593 0
 1165 000a 364B     		ldr	r3, .L111
 1166              	.LVL118:
 1167 000c 9842     		cmp	r0, r3
 1168 000e 0CD0     		beq	.L101
 1169              		.loc 1 593 0 is_stmt 0 discriminator 1
 1170 0010 03F58063 		add	r3, r3, #1024
 1171 0014 9842     		cmp	r0, r3
 1172 0016 08D0     		beq	.L101
 1173              		.loc 1 593 0 discriminator 2
 1174 0018 03F5A053 		add	r3, r3, #5120
 1175 001c 9842     		cmp	r0, r3
 1176 001e 04D0     		beq	.L101
 1177              		.loc 1 593 0 discriminator 3
 1178 0020 40F25121 		movw	r1, #593
 1179              	.LVL119:
 1180 0024 3048     		ldr	r0, .L111+4
 1181              	.LVL120:
 1182 0026 FFF7FEFF 		bl	assert_failed
 1183              	.LVL121:
 1184              	.L101:
 594:STM32F10x_StdPeriph_Driver/src/stm32f10x_adc.c ****   assert_param(IS_ADC_CHANNEL(ADC_Channel));
 1185              		.loc 1 594 0 is_stmt 1
 1186 002a 112E     		cmp	r6, #17
 1187 002c 04D9     		bls	.L102
 1188              		.loc 1 594 0 is_stmt 0 discriminator 1
 1189 002e 40F25221 		movw	r1, #594
 1190 0032 2D48     		ldr	r0, .L111+4
 1191 0034 FFF7FEFF 		bl	assert_failed
 1192              	.LVL122:
 1193              	.L102:
 595:STM32F10x_StdPeriph_Driver/src/stm32f10x_adc.c ****   assert_param(IS_ADC_REGULAR_RANK(Rank));
 1194              		.loc 1 595 0 is_stmt 1
 1195 0038 631E     		subs	r3, r4, #1
 1196 003a DBB2     		uxtb	r3, r3
 1197 003c 0F2B     		cmp	r3, #15
 1198 003e 04D9     		bls	.L103
 1199              		.loc 1 595 0 is_stmt 0 discriminator 1
 1200 0040 40F25321 		movw	r1, #595
ARM GAS  /var/folders/g9/bbpj86ld7fx45vd1b3pqxmp00000gn/T//cc7tuhUR.s 			page 32


 1201 0044 2848     		ldr	r0, .L111+4
 1202 0046 FFF7FEFF 		bl	assert_failed
 1203              	.LVL123:
 1204              	.L103:
 596:STM32F10x_StdPeriph_Driver/src/stm32f10x_adc.c ****   assert_param(IS_ADC_SAMPLE_TIME(ADC_SampleTime));
 1205              		.loc 1 596 0 is_stmt 1
 1206 004a 072F     		cmp	r7, #7
 1207 004c 04D9     		bls	.L104
 1208              		.loc 1 596 0 is_stmt 0 discriminator 1
 1209 004e 4FF41571 		mov	r1, #596
 1210 0052 2548     		ldr	r0, .L111+4
 1211 0054 FFF7FEFF 		bl	assert_failed
 1212              	.LVL124:
 1213              	.L104:
 597:STM32F10x_StdPeriph_Driver/src/stm32f10x_adc.c ****   /* if ADC_Channel_10 ... ADC_Channel_17 is selected */
 598:STM32F10x_StdPeriph_Driver/src/stm32f10x_adc.c ****   if (ADC_Channel > ADC_Channel_9)
 1214              		.loc 1 598 0 is_stmt 1
 1215 0058 092E     		cmp	r6, #9
 1216 005a 0CD9     		bls	.L105
 599:STM32F10x_StdPeriph_Driver/src/stm32f10x_adc.c ****   {
 600:STM32F10x_StdPeriph_Driver/src/stm32f10x_adc.c ****     /* Get the old register value */
 601:STM32F10x_StdPeriph_Driver/src/stm32f10x_adc.c ****     tmpreg1 = ADCx->SMPR1;
 1217              		.loc 1 601 0
 1218 005c E968     		ldr	r1, [r5, #12]
 1219              	.LVL125:
 602:STM32F10x_StdPeriph_Driver/src/stm32f10x_adc.c ****     /* Calculate the mask to clear */
 603:STM32F10x_StdPeriph_Driver/src/stm32f10x_adc.c ****     tmpreg2 = SMPR1_SMP_Set << (3 * (ADC_Channel - 10));
 1220              		.loc 1 603 0
 1221 005e A6F10A03 		sub	r3, r6, #10
 1222 0062 03EB4303 		add	r3, r3, r3, lsl #1
 1223 0066 0722     		movs	r2, #7
 1224 0068 9A40     		lsls	r2, r2, r3
 1225              	.LVL126:
 604:STM32F10x_StdPeriph_Driver/src/stm32f10x_adc.c ****     /* Clear the old channel sample time */
 605:STM32F10x_StdPeriph_Driver/src/stm32f10x_adc.c ****     tmpreg1 &= ~tmpreg2;
 1226              		.loc 1 605 0
 1227 006a 21EA0202 		bic	r2, r1, r2
 1228              	.LVL127:
 606:STM32F10x_StdPeriph_Driver/src/stm32f10x_adc.c ****     /* Calculate the mask to set */
 607:STM32F10x_StdPeriph_Driver/src/stm32f10x_adc.c ****     tmpreg2 = (uint32_t)ADC_SampleTime << (3 * (ADC_Channel - 10));
 1229              		.loc 1 607 0
 1230 006e 9F40     		lsls	r7, r7, r3
 1231              	.LVL128:
 608:STM32F10x_StdPeriph_Driver/src/stm32f10x_adc.c ****     /* Set the new channel sample time */
 609:STM32F10x_StdPeriph_Driver/src/stm32f10x_adc.c ****     tmpreg1 |= tmpreg2;
 1232              		.loc 1 609 0
 1233 0070 1743     		orrs	r7, r7, r2
 1234              	.LVL129:
 610:STM32F10x_StdPeriph_Driver/src/stm32f10x_adc.c ****     /* Store the new register value */
 611:STM32F10x_StdPeriph_Driver/src/stm32f10x_adc.c ****     ADCx->SMPR1 = tmpreg1;
 1235              		.loc 1 611 0
 1236 0072 EF60     		str	r7, [r5, #12]
 1237 0074 09E0     		b	.L106
 1238              	.LVL130:
 1239              	.L105:
 612:STM32F10x_StdPeriph_Driver/src/stm32f10x_adc.c ****   }
 613:STM32F10x_StdPeriph_Driver/src/stm32f10x_adc.c ****   else /* ADC_Channel include in ADC_Channel_[0..9] */
ARM GAS  /var/folders/g9/bbpj86ld7fx45vd1b3pqxmp00000gn/T//cc7tuhUR.s 			page 33


 614:STM32F10x_StdPeriph_Driver/src/stm32f10x_adc.c ****   {
 615:STM32F10x_StdPeriph_Driver/src/stm32f10x_adc.c ****     /* Get the old register value */
 616:STM32F10x_StdPeriph_Driver/src/stm32f10x_adc.c ****     tmpreg1 = ADCx->SMPR2;
 1240              		.loc 1 616 0
 1241 0076 2A69     		ldr	r2, [r5, #16]
 1242              	.LVL131:
 617:STM32F10x_StdPeriph_Driver/src/stm32f10x_adc.c ****     /* Calculate the mask to clear */
 618:STM32F10x_StdPeriph_Driver/src/stm32f10x_adc.c ****     tmpreg2 = SMPR2_SMP_Set << (3 * ADC_Channel);
 1243              		.loc 1 618 0
 1244 0078 06EB4601 		add	r1, r6, r6, lsl #1
 1245 007c 0723     		movs	r3, #7
 1246 007e 8B40     		lsls	r3, r3, r1
 1247              	.LVL132:
 619:STM32F10x_StdPeriph_Driver/src/stm32f10x_adc.c ****     /* Clear the old channel sample time */
 620:STM32F10x_StdPeriph_Driver/src/stm32f10x_adc.c ****     tmpreg1 &= ~tmpreg2;
 1248              		.loc 1 620 0
 1249 0080 22EA0303 		bic	r3, r2, r3
 1250              	.LVL133:
 621:STM32F10x_StdPeriph_Driver/src/stm32f10x_adc.c ****     /* Calculate the mask to set */
 622:STM32F10x_StdPeriph_Driver/src/stm32f10x_adc.c ****     tmpreg2 = (uint32_t)ADC_SampleTime << (3 * ADC_Channel);
 1251              		.loc 1 622 0
 1252 0084 8F40     		lsls	r7, r7, r1
 1253              	.LVL134:
 623:STM32F10x_StdPeriph_Driver/src/stm32f10x_adc.c ****     /* Set the new channel sample time */
 624:STM32F10x_StdPeriph_Driver/src/stm32f10x_adc.c ****     tmpreg1 |= tmpreg2;
 1254              		.loc 1 624 0
 1255 0086 1F43     		orrs	r7, r7, r3
 1256              	.LVL135:
 625:STM32F10x_StdPeriph_Driver/src/stm32f10x_adc.c ****     /* Store the new register value */
 626:STM32F10x_StdPeriph_Driver/src/stm32f10x_adc.c ****     ADCx->SMPR2 = tmpreg1;
 1257              		.loc 1 626 0
 1258 0088 2F61     		str	r7, [r5, #16]
 1259              	.L106:
 627:STM32F10x_StdPeriph_Driver/src/stm32f10x_adc.c ****   }
 628:STM32F10x_StdPeriph_Driver/src/stm32f10x_adc.c ****   /* For Rank 1 to 6 */
 629:STM32F10x_StdPeriph_Driver/src/stm32f10x_adc.c ****   if (Rank < 7)
 1260              		.loc 1 629 0
 1261 008a 062C     		cmp	r4, #6
 1262 008c 0CD8     		bhi	.L107
 630:STM32F10x_StdPeriph_Driver/src/stm32f10x_adc.c ****   {
 631:STM32F10x_StdPeriph_Driver/src/stm32f10x_adc.c ****     /* Get the old register value */
 632:STM32F10x_StdPeriph_Driver/src/stm32f10x_adc.c ****     tmpreg1 = ADCx->SQR3;
 1263              		.loc 1 632 0
 1264 008e 6B6B     		ldr	r3, [r5, #52]
 1265              	.LVL136:
 633:STM32F10x_StdPeriph_Driver/src/stm32f10x_adc.c ****     /* Calculate the mask to clear */
 634:STM32F10x_StdPeriph_Driver/src/stm32f10x_adc.c ****     tmpreg2 = SQR3_SQ_Set << (5 * (Rank - 1));
 1266              		.loc 1 634 0
 1267 0090 013C     		subs	r4, r4, #1
 1268 0092 04EB8404 		add	r4, r4, r4, lsl #2
 1269 0096 1F21     		movs	r1, #31
 1270 0098 A140     		lsls	r1, r1, r4
 1271              	.LVL137:
 635:STM32F10x_StdPeriph_Driver/src/stm32f10x_adc.c ****     /* Clear the old SQx bits for the selected rank */
 636:STM32F10x_StdPeriph_Driver/src/stm32f10x_adc.c ****     tmpreg1 &= ~tmpreg2;
 1272              		.loc 1 636 0
 1273 009a 23EA0101 		bic	r1, r3, r1
ARM GAS  /var/folders/g9/bbpj86ld7fx45vd1b3pqxmp00000gn/T//cc7tuhUR.s 			page 34


 1274              	.LVL138:
 637:STM32F10x_StdPeriph_Driver/src/stm32f10x_adc.c ****     /* Calculate the mask to set */
 638:STM32F10x_StdPeriph_Driver/src/stm32f10x_adc.c ****     tmpreg2 = (uint32_t)ADC_Channel << (5 * (Rank - 1));
 1275              		.loc 1 638 0
 1276 009e 06FA04F4 		lsl	r4, r6, r4
 1277              	.LVL139:
 639:STM32F10x_StdPeriph_Driver/src/stm32f10x_adc.c ****     /* Set the SQx bits for the selected rank */
 640:STM32F10x_StdPeriph_Driver/src/stm32f10x_adc.c ****     tmpreg1 |= tmpreg2;
 1278              		.loc 1 640 0
 1279 00a2 0C43     		orrs	r4, r4, r1
 1280              	.LVL140:
 641:STM32F10x_StdPeriph_Driver/src/stm32f10x_adc.c ****     /* Store the new register value */
 642:STM32F10x_StdPeriph_Driver/src/stm32f10x_adc.c ****     ADCx->SQR3 = tmpreg1;
 1281              		.loc 1 642 0
 1282 00a4 6C63     		str	r4, [r5, #52]
 1283 00a6 F8BD     		pop	{r3, r4, r5, r6, r7, pc}
 1284              	.LVL141:
 1285              	.L107:
 643:STM32F10x_StdPeriph_Driver/src/stm32f10x_adc.c ****   }
 644:STM32F10x_StdPeriph_Driver/src/stm32f10x_adc.c ****   /* For Rank 7 to 12 */
 645:STM32F10x_StdPeriph_Driver/src/stm32f10x_adc.c ****   else if (Rank < 13)
 1286              		.loc 1 645 0
 1287 00a8 0C2C     		cmp	r4, #12
 1288 00aa 0CD8     		bhi	.L109
 646:STM32F10x_StdPeriph_Driver/src/stm32f10x_adc.c ****   {
 647:STM32F10x_StdPeriph_Driver/src/stm32f10x_adc.c ****     /* Get the old register value */
 648:STM32F10x_StdPeriph_Driver/src/stm32f10x_adc.c ****     tmpreg1 = ADCx->SQR2;
 1289              		.loc 1 648 0
 1290 00ac 2B6B     		ldr	r3, [r5, #48]
 1291              	.LVL142:
 649:STM32F10x_StdPeriph_Driver/src/stm32f10x_adc.c ****     /* Calculate the mask to clear */
 650:STM32F10x_StdPeriph_Driver/src/stm32f10x_adc.c ****     tmpreg2 = SQR2_SQ_Set << (5 * (Rank - 7));
 1292              		.loc 1 650 0
 1293 00ae 073C     		subs	r4, r4, #7
 1294 00b0 04EB8404 		add	r4, r4, r4, lsl #2
 1295 00b4 1F21     		movs	r1, #31
 1296 00b6 A140     		lsls	r1, r1, r4
 1297              	.LVL143:
 651:STM32F10x_StdPeriph_Driver/src/stm32f10x_adc.c ****     /* Clear the old SQx bits for the selected rank */
 652:STM32F10x_StdPeriph_Driver/src/stm32f10x_adc.c ****     tmpreg1 &= ~tmpreg2;
 1298              		.loc 1 652 0
 1299 00b8 23EA0101 		bic	r1, r3, r1
 1300              	.LVL144:
 653:STM32F10x_StdPeriph_Driver/src/stm32f10x_adc.c ****     /* Calculate the mask to set */
 654:STM32F10x_StdPeriph_Driver/src/stm32f10x_adc.c ****     tmpreg2 = (uint32_t)ADC_Channel << (5 * (Rank - 7));
 1301              		.loc 1 654 0
 1302 00bc 06FA04F4 		lsl	r4, r6, r4
 1303              	.LVL145:
 655:STM32F10x_StdPeriph_Driver/src/stm32f10x_adc.c ****     /* Set the SQx bits for the selected rank */
 656:STM32F10x_StdPeriph_Driver/src/stm32f10x_adc.c ****     tmpreg1 |= tmpreg2;
 1304              		.loc 1 656 0
 1305 00c0 2143     		orrs	r1, r1, r4
 1306              	.LVL146:
 657:STM32F10x_StdPeriph_Driver/src/stm32f10x_adc.c ****     /* Store the new register value */
 658:STM32F10x_StdPeriph_Driver/src/stm32f10x_adc.c ****     ADCx->SQR2 = tmpreg1;
 1307              		.loc 1 658 0
 1308 00c2 2963     		str	r1, [r5, #48]
ARM GAS  /var/folders/g9/bbpj86ld7fx45vd1b3pqxmp00000gn/T//cc7tuhUR.s 			page 35


 1309 00c4 F8BD     		pop	{r3, r4, r5, r6, r7, pc}
 1310              	.LVL147:
 1311              	.L109:
 659:STM32F10x_StdPeriph_Driver/src/stm32f10x_adc.c ****   }
 660:STM32F10x_StdPeriph_Driver/src/stm32f10x_adc.c ****   /* For Rank 13 to 16 */
 661:STM32F10x_StdPeriph_Driver/src/stm32f10x_adc.c ****   else
 662:STM32F10x_StdPeriph_Driver/src/stm32f10x_adc.c ****   {
 663:STM32F10x_StdPeriph_Driver/src/stm32f10x_adc.c ****     /* Get the old register value */
 664:STM32F10x_StdPeriph_Driver/src/stm32f10x_adc.c ****     tmpreg1 = ADCx->SQR1;
 1312              		.loc 1 664 0
 1313 00c6 EB6A     		ldr	r3, [r5, #44]
 1314              	.LVL148:
 665:STM32F10x_StdPeriph_Driver/src/stm32f10x_adc.c ****     /* Calculate the mask to clear */
 666:STM32F10x_StdPeriph_Driver/src/stm32f10x_adc.c ****     tmpreg2 = SQR1_SQ_Set << (5 * (Rank - 13));
 1315              		.loc 1 666 0
 1316 00c8 A4F10D01 		sub	r1, r4, #13
 1317 00cc 01EB8101 		add	r1, r1, r1, lsl #2
 1318 00d0 1F24     		movs	r4, #31
 1319 00d2 8C40     		lsls	r4, r4, r1
 1320              	.LVL149:
 667:STM32F10x_StdPeriph_Driver/src/stm32f10x_adc.c ****     /* Clear the old SQx bits for the selected rank */
 668:STM32F10x_StdPeriph_Driver/src/stm32f10x_adc.c ****     tmpreg1 &= ~tmpreg2;
 1321              		.loc 1 668 0
 1322 00d4 23EA0404 		bic	r4, r3, r4
 1323              	.LVL150:
 669:STM32F10x_StdPeriph_Driver/src/stm32f10x_adc.c ****     /* Calculate the mask to set */
 670:STM32F10x_StdPeriph_Driver/src/stm32f10x_adc.c ****     tmpreg2 = (uint32_t)ADC_Channel << (5 * (Rank - 13));
 1324              		.loc 1 670 0
 1325 00d8 06FA01F1 		lsl	r1, r6, r1
 1326              	.LVL151:
 671:STM32F10x_StdPeriph_Driver/src/stm32f10x_adc.c ****     /* Set the SQx bits for the selected rank */
 672:STM32F10x_StdPeriph_Driver/src/stm32f10x_adc.c ****     tmpreg1 |= tmpreg2;
 1327              		.loc 1 672 0
 1328 00dc 0C43     		orrs	r4, r4, r1
 1329              	.LVL152:
 673:STM32F10x_StdPeriph_Driver/src/stm32f10x_adc.c ****     /* Store the new register value */
 674:STM32F10x_StdPeriph_Driver/src/stm32f10x_adc.c ****     ADCx->SQR1 = tmpreg1;
 1330              		.loc 1 674 0
 1331 00de EC62     		str	r4, [r5, #44]
 1332 00e0 F8BD     		pop	{r3, r4, r5, r6, r7, pc}
 1333              	.LVL153:
 1334              	.L112:
 1335 00e2 00BF     		.align	2
 1336              	.L111:
 1337 00e4 00240140 		.word	1073816576
 1338 00e8 00000000 		.word	.LC0
 1339              		.cfi_endproc
 1340              	.LFE41:
 1342              		.section	.text.ADC_ExternalTrigConvCmd,"ax",%progbits
 1343              		.align	2
 1344              		.global	ADC_ExternalTrigConvCmd
 1345              		.thumb
 1346              		.thumb_func
 1348              	ADC_ExternalTrigConvCmd:
 1349              	.LFB42:
 675:STM32F10x_StdPeriph_Driver/src/stm32f10x_adc.c ****   }
 676:STM32F10x_StdPeriph_Driver/src/stm32f10x_adc.c **** }
ARM GAS  /var/folders/g9/bbpj86ld7fx45vd1b3pqxmp00000gn/T//cc7tuhUR.s 			page 36


 677:STM32F10x_StdPeriph_Driver/src/stm32f10x_adc.c **** 
 678:STM32F10x_StdPeriph_Driver/src/stm32f10x_adc.c **** /**
 679:STM32F10x_StdPeriph_Driver/src/stm32f10x_adc.c ****   * @brief  Enables or disables the ADCx conversion through external trigger.
 680:STM32F10x_StdPeriph_Driver/src/stm32f10x_adc.c ****   * @param  ADCx: where x can be 1, 2 or 3 to select the ADC peripheral.
 681:STM32F10x_StdPeriph_Driver/src/stm32f10x_adc.c ****   * @param  NewState: new state of the selected ADC external trigger start of conversion.
 682:STM32F10x_StdPeriph_Driver/src/stm32f10x_adc.c ****   *   This parameter can be: ENABLE or DISABLE.
 683:STM32F10x_StdPeriph_Driver/src/stm32f10x_adc.c ****   * @retval None
 684:STM32F10x_StdPeriph_Driver/src/stm32f10x_adc.c ****   */
 685:STM32F10x_StdPeriph_Driver/src/stm32f10x_adc.c **** void ADC_ExternalTrigConvCmd(ADC_TypeDef* ADCx, FunctionalState NewState)
 686:STM32F10x_StdPeriph_Driver/src/stm32f10x_adc.c **** {
 1350              		.loc 1 686 0
 1351              		.cfi_startproc
 1352              		@ args = 0, pretend = 0, frame = 0
 1353              		@ frame_needed = 0, uses_anonymous_args = 0
 1354              	.LVL154:
 1355 0000 38B5     		push	{r3, r4, r5, lr}
 1356              	.LCFI14:
 1357              		.cfi_def_cfa_offset 16
 1358              		.cfi_offset 3, -16
 1359              		.cfi_offset 4, -12
 1360              		.cfi_offset 5, -8
 1361              		.cfi_offset 14, -4
 1362 0002 0446     		mov	r4, r0
 1363 0004 0D46     		mov	r5, r1
 687:STM32F10x_StdPeriph_Driver/src/stm32f10x_adc.c ****   /* Check the parameters */
 688:STM32F10x_StdPeriph_Driver/src/stm32f10x_adc.c ****   assert_param(IS_ADC_ALL_PERIPH(ADCx));
 1364              		.loc 1 688 0
 1365 0006 114B     		ldr	r3, .L119
 1366 0008 9842     		cmp	r0, r3
 1367 000a 0CD0     		beq	.L114
 1368              		.loc 1 688 0 is_stmt 0 discriminator 1
 1369 000c 03F58063 		add	r3, r3, #1024
 1370 0010 9842     		cmp	r0, r3
 1371 0012 08D0     		beq	.L114
 1372              		.loc 1 688 0 discriminator 2
 1373 0014 03F5A053 		add	r3, r3, #5120
 1374 0018 9842     		cmp	r0, r3
 1375 001a 04D0     		beq	.L114
 1376              		.loc 1 688 0 discriminator 3
 1377 001c 4FF42C71 		mov	r1, #688
 1378              	.LVL155:
 1379 0020 0B48     		ldr	r0, .L119+4
 1380              	.LVL156:
 1381 0022 FFF7FEFF 		bl	assert_failed
 1382              	.LVL157:
 1383              	.L114:
 689:STM32F10x_StdPeriph_Driver/src/stm32f10x_adc.c ****   assert_param(IS_FUNCTIONAL_STATE(NewState));
 1384              		.loc 1 689 0 is_stmt 1
 1385 0026 012D     		cmp	r5, #1
 1386 0028 04D9     		bls	.L115
 1387              		.loc 1 689 0 is_stmt 0 discriminator 1
 1388 002a 40F2B121 		movw	r1, #689
 1389 002e 0848     		ldr	r0, .L119+4
 1390 0030 FFF7FEFF 		bl	assert_failed
 1391              	.LVL158:
 1392              	.L115:
 690:STM32F10x_StdPeriph_Driver/src/stm32f10x_adc.c ****   if (NewState != DISABLE)
ARM GAS  /var/folders/g9/bbpj86ld7fx45vd1b3pqxmp00000gn/T//cc7tuhUR.s 			page 37


 1393              		.loc 1 690 0 is_stmt 1
 1394 0034 25B1     		cbz	r5, .L116
 691:STM32F10x_StdPeriph_Driver/src/stm32f10x_adc.c ****   {
 692:STM32F10x_StdPeriph_Driver/src/stm32f10x_adc.c ****     /* Enable the selected ADC conversion on external event */
 693:STM32F10x_StdPeriph_Driver/src/stm32f10x_adc.c ****     ADCx->CR2 |= CR2_EXTTRIG_Set;
 1395              		.loc 1 693 0
 1396 0036 A368     		ldr	r3, [r4, #8]
 1397 0038 43F48013 		orr	r3, r3, #1048576
 1398 003c A360     		str	r3, [r4, #8]
 1399 003e 38BD     		pop	{r3, r4, r5, pc}
 1400              	.LVL159:
 1401              	.L116:
 694:STM32F10x_StdPeriph_Driver/src/stm32f10x_adc.c ****   }
 695:STM32F10x_StdPeriph_Driver/src/stm32f10x_adc.c ****   else
 696:STM32F10x_StdPeriph_Driver/src/stm32f10x_adc.c ****   {
 697:STM32F10x_StdPeriph_Driver/src/stm32f10x_adc.c ****     /* Disable the selected ADC conversion on external event */
 698:STM32F10x_StdPeriph_Driver/src/stm32f10x_adc.c ****     ADCx->CR2 &= CR2_EXTTRIG_Reset;
 1402              		.loc 1 698 0
 1403 0040 A368     		ldr	r3, [r4, #8]
 1404 0042 23F48013 		bic	r3, r3, #1048576
 1405 0046 A360     		str	r3, [r4, #8]
 1406 0048 38BD     		pop	{r3, r4, r5, pc}
 1407              	.LVL160:
 1408              	.L120:
 1409 004a 00BF     		.align	2
 1410              	.L119:
 1411 004c 00240140 		.word	1073816576
 1412 0050 00000000 		.word	.LC0
 1413              		.cfi_endproc
 1414              	.LFE42:
 1416              		.section	.text.ADC_GetConversionValue,"ax",%progbits
 1417              		.align	2
 1418              		.global	ADC_GetConversionValue
 1419              		.thumb
 1420              		.thumb_func
 1422              	ADC_GetConversionValue:
 1423              	.LFB43:
 699:STM32F10x_StdPeriph_Driver/src/stm32f10x_adc.c ****   }
 700:STM32F10x_StdPeriph_Driver/src/stm32f10x_adc.c **** }
 701:STM32F10x_StdPeriph_Driver/src/stm32f10x_adc.c **** 
 702:STM32F10x_StdPeriph_Driver/src/stm32f10x_adc.c **** /**
 703:STM32F10x_StdPeriph_Driver/src/stm32f10x_adc.c ****   * @brief  Returns the last ADCx conversion result data for regular channel.
 704:STM32F10x_StdPeriph_Driver/src/stm32f10x_adc.c ****   * @param  ADCx: where x can be 1, 2 or 3 to select the ADC peripheral.
 705:STM32F10x_StdPeriph_Driver/src/stm32f10x_adc.c ****   * @retval The Data conversion value.
 706:STM32F10x_StdPeriph_Driver/src/stm32f10x_adc.c ****   */
 707:STM32F10x_StdPeriph_Driver/src/stm32f10x_adc.c **** uint16_t ADC_GetConversionValue(ADC_TypeDef* ADCx)
 708:STM32F10x_StdPeriph_Driver/src/stm32f10x_adc.c **** {
 1424              		.loc 1 708 0
 1425              		.cfi_startproc
 1426              		@ args = 0, pretend = 0, frame = 0
 1427              		@ frame_needed = 0, uses_anonymous_args = 0
 1428              	.LVL161:
 1429 0000 10B5     		push	{r4, lr}
 1430              	.LCFI15:
 1431              		.cfi_def_cfa_offset 8
 1432              		.cfi_offset 4, -8
 1433              		.cfi_offset 14, -4
ARM GAS  /var/folders/g9/bbpj86ld7fx45vd1b3pqxmp00000gn/T//cc7tuhUR.s 			page 38


 1434 0002 0446     		mov	r4, r0
 709:STM32F10x_StdPeriph_Driver/src/stm32f10x_adc.c ****   /* Check the parameters */
 710:STM32F10x_StdPeriph_Driver/src/stm32f10x_adc.c ****   assert_param(IS_ADC_ALL_PERIPH(ADCx));
 1435              		.loc 1 710 0
 1436 0004 094B     		ldr	r3, .L124
 1437 0006 9842     		cmp	r0, r3
 1438 0008 0CD0     		beq	.L122
 1439              		.loc 1 710 0 is_stmt 0 discriminator 1
 1440 000a 03F58063 		add	r3, r3, #1024
 1441 000e 9842     		cmp	r0, r3
 1442 0010 08D0     		beq	.L122
 1443              		.loc 1 710 0 discriminator 2
 1444 0012 03F5A053 		add	r3, r3, #5120
 1445 0016 9842     		cmp	r0, r3
 1446 0018 04D0     		beq	.L122
 1447              		.loc 1 710 0 discriminator 3
 1448 001a 40F2C621 		movw	r1, #710
 1449 001e 0448     		ldr	r0, .L124+4
 1450              	.LVL162:
 1451 0020 FFF7FEFF 		bl	assert_failed
 1452              	.LVL163:
 1453              	.L122:
 711:STM32F10x_StdPeriph_Driver/src/stm32f10x_adc.c ****   /* Return the selected ADC conversion value */
 712:STM32F10x_StdPeriph_Driver/src/stm32f10x_adc.c ****   return (uint16_t) ADCx->DR;
 1454              		.loc 1 712 0 is_stmt 1
 1455 0024 E06C     		ldr	r0, [r4, #76]
 713:STM32F10x_StdPeriph_Driver/src/stm32f10x_adc.c **** }
 1456              		.loc 1 713 0
 1457 0026 80B2     		uxth	r0, r0
 1458 0028 10BD     		pop	{r4, pc}
 1459              	.LVL164:
 1460              	.L125:
 1461 002a 00BF     		.align	2
 1462              	.L124:
 1463 002c 00240140 		.word	1073816576
 1464 0030 00000000 		.word	.LC0
 1465              		.cfi_endproc
 1466              	.LFE43:
 1468              		.section	.text.ADC_GetDualModeConversionValue,"ax",%progbits
 1469              		.align	2
 1470              		.global	ADC_GetDualModeConversionValue
 1471              		.thumb
 1472              		.thumb_func
 1474              	ADC_GetDualModeConversionValue:
 1475              	.LFB44:
 714:STM32F10x_StdPeriph_Driver/src/stm32f10x_adc.c **** 
 715:STM32F10x_StdPeriph_Driver/src/stm32f10x_adc.c **** /**
 716:STM32F10x_StdPeriph_Driver/src/stm32f10x_adc.c ****   * @brief  Returns the last ADC1 and ADC2 conversion result data in dual mode.
 717:STM32F10x_StdPeriph_Driver/src/stm32f10x_adc.c ****   * @retval The Data conversion value.
 718:STM32F10x_StdPeriph_Driver/src/stm32f10x_adc.c ****   */
 719:STM32F10x_StdPeriph_Driver/src/stm32f10x_adc.c **** uint32_t ADC_GetDualModeConversionValue(void)
 720:STM32F10x_StdPeriph_Driver/src/stm32f10x_adc.c **** {
 1476              		.loc 1 720 0
 1477              		.cfi_startproc
 1478              		@ args = 0, pretend = 0, frame = 0
 1479              		@ frame_needed = 0, uses_anonymous_args = 0
 1480              		@ link register save eliminated.
ARM GAS  /var/folders/g9/bbpj86ld7fx45vd1b3pqxmp00000gn/T//cc7tuhUR.s 			page 39


 721:STM32F10x_StdPeriph_Driver/src/stm32f10x_adc.c ****   /* Return the dual mode conversion value */
 722:STM32F10x_StdPeriph_Driver/src/stm32f10x_adc.c ****   return (*(__IO uint32_t *) DR_ADDRESS);
 1481              		.loc 1 722 0
 1482 0000 014B     		ldr	r3, .L127
 1483 0002 1868     		ldr	r0, [r3]
 723:STM32F10x_StdPeriph_Driver/src/stm32f10x_adc.c **** }
 1484              		.loc 1 723 0
 1485 0004 7047     		bx	lr
 1486              	.L128:
 1487 0006 00BF     		.align	2
 1488              	.L127:
 1489 0008 4C240140 		.word	1073816652
 1490              		.cfi_endproc
 1491              	.LFE44:
 1493              		.section	.text.ADC_AutoInjectedConvCmd,"ax",%progbits
 1494              		.align	2
 1495              		.global	ADC_AutoInjectedConvCmd
 1496              		.thumb
 1497              		.thumb_func
 1499              	ADC_AutoInjectedConvCmd:
 1500              	.LFB45:
 724:STM32F10x_StdPeriph_Driver/src/stm32f10x_adc.c **** 
 725:STM32F10x_StdPeriph_Driver/src/stm32f10x_adc.c **** /**
 726:STM32F10x_StdPeriph_Driver/src/stm32f10x_adc.c ****   * @brief  Enables or disables the selected ADC automatic injected group
 727:STM32F10x_StdPeriph_Driver/src/stm32f10x_adc.c ****   *   conversion after regular one.
 728:STM32F10x_StdPeriph_Driver/src/stm32f10x_adc.c ****   * @param  ADCx: where x can be 1, 2 or 3 to select the ADC peripheral.
 729:STM32F10x_StdPeriph_Driver/src/stm32f10x_adc.c ****   * @param  NewState: new state of the selected ADC auto injected conversion
 730:STM32F10x_StdPeriph_Driver/src/stm32f10x_adc.c ****   *   This parameter can be: ENABLE or DISABLE.
 731:STM32F10x_StdPeriph_Driver/src/stm32f10x_adc.c ****   * @retval None
 732:STM32F10x_StdPeriph_Driver/src/stm32f10x_adc.c ****   */
 733:STM32F10x_StdPeriph_Driver/src/stm32f10x_adc.c **** void ADC_AutoInjectedConvCmd(ADC_TypeDef* ADCx, FunctionalState NewState)
 734:STM32F10x_StdPeriph_Driver/src/stm32f10x_adc.c **** {
 1501              		.loc 1 734 0
 1502              		.cfi_startproc
 1503              		@ args = 0, pretend = 0, frame = 0
 1504              		@ frame_needed = 0, uses_anonymous_args = 0
 1505              	.LVL165:
 1506 0000 38B5     		push	{r3, r4, r5, lr}
 1507              	.LCFI16:
 1508              		.cfi_def_cfa_offset 16
 1509              		.cfi_offset 3, -16
 1510              		.cfi_offset 4, -12
 1511              		.cfi_offset 5, -8
 1512              		.cfi_offset 14, -4
 1513 0002 0446     		mov	r4, r0
 1514 0004 0D46     		mov	r5, r1
 735:STM32F10x_StdPeriph_Driver/src/stm32f10x_adc.c ****   /* Check the parameters */
 736:STM32F10x_StdPeriph_Driver/src/stm32f10x_adc.c ****   assert_param(IS_ADC_ALL_PERIPH(ADCx));
 1515              		.loc 1 736 0
 1516 0006 114B     		ldr	r3, .L135
 1517 0008 9842     		cmp	r0, r3
 1518 000a 0CD0     		beq	.L130
 1519              		.loc 1 736 0 is_stmt 0 discriminator 1
 1520 000c 03F58063 		add	r3, r3, #1024
 1521 0010 9842     		cmp	r0, r3
 1522 0012 08D0     		beq	.L130
 1523              		.loc 1 736 0 discriminator 2
ARM GAS  /var/folders/g9/bbpj86ld7fx45vd1b3pqxmp00000gn/T//cc7tuhUR.s 			page 40


 1524 0014 03F5A053 		add	r3, r3, #5120
 1525 0018 9842     		cmp	r0, r3
 1526 001a 04D0     		beq	.L130
 1527              		.loc 1 736 0 discriminator 3
 1528 001c 4FF43871 		mov	r1, #736
 1529              	.LVL166:
 1530 0020 0B48     		ldr	r0, .L135+4
 1531              	.LVL167:
 1532 0022 FFF7FEFF 		bl	assert_failed
 1533              	.LVL168:
 1534              	.L130:
 737:STM32F10x_StdPeriph_Driver/src/stm32f10x_adc.c ****   assert_param(IS_FUNCTIONAL_STATE(NewState));
 1535              		.loc 1 737 0 is_stmt 1
 1536 0026 012D     		cmp	r5, #1
 1537 0028 04D9     		bls	.L131
 1538              		.loc 1 737 0 is_stmt 0 discriminator 1
 1539 002a 40F2E121 		movw	r1, #737
 1540 002e 0848     		ldr	r0, .L135+4
 1541 0030 FFF7FEFF 		bl	assert_failed
 1542              	.LVL169:
 1543              	.L131:
 738:STM32F10x_StdPeriph_Driver/src/stm32f10x_adc.c ****   if (NewState != DISABLE)
 1544              		.loc 1 738 0 is_stmt 1
 1545 0034 25B1     		cbz	r5, .L132
 739:STM32F10x_StdPeriph_Driver/src/stm32f10x_adc.c ****   {
 740:STM32F10x_StdPeriph_Driver/src/stm32f10x_adc.c ****     /* Enable the selected ADC automatic injected group conversion */
 741:STM32F10x_StdPeriph_Driver/src/stm32f10x_adc.c ****     ADCx->CR1 |= CR1_JAUTO_Set;
 1546              		.loc 1 741 0
 1547 0036 6368     		ldr	r3, [r4, #4]
 1548 0038 43F48063 		orr	r3, r3, #1024
 1549 003c 6360     		str	r3, [r4, #4]
 1550 003e 38BD     		pop	{r3, r4, r5, pc}
 1551              	.LVL170:
 1552              	.L132:
 742:STM32F10x_StdPeriph_Driver/src/stm32f10x_adc.c ****   }
 743:STM32F10x_StdPeriph_Driver/src/stm32f10x_adc.c ****   else
 744:STM32F10x_StdPeriph_Driver/src/stm32f10x_adc.c ****   {
 745:STM32F10x_StdPeriph_Driver/src/stm32f10x_adc.c ****     /* Disable the selected ADC automatic injected group conversion */
 746:STM32F10x_StdPeriph_Driver/src/stm32f10x_adc.c ****     ADCx->CR1 &= CR1_JAUTO_Reset;
 1553              		.loc 1 746 0
 1554 0040 6368     		ldr	r3, [r4, #4]
 1555 0042 23F48063 		bic	r3, r3, #1024
 1556 0046 6360     		str	r3, [r4, #4]
 1557 0048 38BD     		pop	{r3, r4, r5, pc}
 1558              	.LVL171:
 1559              	.L136:
 1560 004a 00BF     		.align	2
 1561              	.L135:
 1562 004c 00240140 		.word	1073816576
 1563 0050 00000000 		.word	.LC0
 1564              		.cfi_endproc
 1565              	.LFE45:
 1567              		.section	.text.ADC_InjectedDiscModeCmd,"ax",%progbits
 1568              		.align	2
 1569              		.global	ADC_InjectedDiscModeCmd
 1570              		.thumb
 1571              		.thumb_func
ARM GAS  /var/folders/g9/bbpj86ld7fx45vd1b3pqxmp00000gn/T//cc7tuhUR.s 			page 41


 1573              	ADC_InjectedDiscModeCmd:
 1574              	.LFB46:
 747:STM32F10x_StdPeriph_Driver/src/stm32f10x_adc.c ****   }
 748:STM32F10x_StdPeriph_Driver/src/stm32f10x_adc.c **** }
 749:STM32F10x_StdPeriph_Driver/src/stm32f10x_adc.c **** 
 750:STM32F10x_StdPeriph_Driver/src/stm32f10x_adc.c **** /**
 751:STM32F10x_StdPeriph_Driver/src/stm32f10x_adc.c ****   * @brief  Enables or disables the discontinuous mode for injected group
 752:STM32F10x_StdPeriph_Driver/src/stm32f10x_adc.c ****   *   channel for the specified ADC
 753:STM32F10x_StdPeriph_Driver/src/stm32f10x_adc.c ****   * @param  ADCx: where x can be 1, 2 or 3 to select the ADC peripheral.
 754:STM32F10x_StdPeriph_Driver/src/stm32f10x_adc.c ****   * @param  NewState: new state of the selected ADC discontinuous mode
 755:STM32F10x_StdPeriph_Driver/src/stm32f10x_adc.c ****   *   on injected group channel.
 756:STM32F10x_StdPeriph_Driver/src/stm32f10x_adc.c ****   *   This parameter can be: ENABLE or DISABLE.
 757:STM32F10x_StdPeriph_Driver/src/stm32f10x_adc.c ****   * @retval None
 758:STM32F10x_StdPeriph_Driver/src/stm32f10x_adc.c ****   */
 759:STM32F10x_StdPeriph_Driver/src/stm32f10x_adc.c **** void ADC_InjectedDiscModeCmd(ADC_TypeDef* ADCx, FunctionalState NewState)
 760:STM32F10x_StdPeriph_Driver/src/stm32f10x_adc.c **** {
 1575              		.loc 1 760 0
 1576              		.cfi_startproc
 1577              		@ args = 0, pretend = 0, frame = 0
 1578              		@ frame_needed = 0, uses_anonymous_args = 0
 1579              	.LVL172:
 1580 0000 38B5     		push	{r3, r4, r5, lr}
 1581              	.LCFI17:
 1582              		.cfi_def_cfa_offset 16
 1583              		.cfi_offset 3, -16
 1584              		.cfi_offset 4, -12
 1585              		.cfi_offset 5, -8
 1586              		.cfi_offset 14, -4
 1587 0002 0446     		mov	r4, r0
 1588 0004 0D46     		mov	r5, r1
 761:STM32F10x_StdPeriph_Driver/src/stm32f10x_adc.c ****   /* Check the parameters */
 762:STM32F10x_StdPeriph_Driver/src/stm32f10x_adc.c ****   assert_param(IS_ADC_ALL_PERIPH(ADCx));
 1589              		.loc 1 762 0
 1590 0006 114B     		ldr	r3, .L143
 1591 0008 9842     		cmp	r0, r3
 1592 000a 0CD0     		beq	.L138
 1593              		.loc 1 762 0 is_stmt 0 discriminator 1
 1594 000c 03F58063 		add	r3, r3, #1024
 1595 0010 9842     		cmp	r0, r3
 1596 0012 08D0     		beq	.L138
 1597              		.loc 1 762 0 discriminator 2
 1598 0014 03F5A053 		add	r3, r3, #5120
 1599 0018 9842     		cmp	r0, r3
 1600 001a 04D0     		beq	.L138
 1601              		.loc 1 762 0 discriminator 3
 1602 001c 40F2FA21 		movw	r1, #762
 1603              	.LVL173:
 1604 0020 0B48     		ldr	r0, .L143+4
 1605              	.LVL174:
 1606 0022 FFF7FEFF 		bl	assert_failed
 1607              	.LVL175:
 1608              	.L138:
 763:STM32F10x_StdPeriph_Driver/src/stm32f10x_adc.c ****   assert_param(IS_FUNCTIONAL_STATE(NewState));
 1609              		.loc 1 763 0 is_stmt 1
 1610 0026 012D     		cmp	r5, #1
 1611 0028 04D9     		bls	.L139
 1612              		.loc 1 763 0 is_stmt 0 discriminator 1
ARM GAS  /var/folders/g9/bbpj86ld7fx45vd1b3pqxmp00000gn/T//cc7tuhUR.s 			page 42


 1613 002a 40F2FB21 		movw	r1, #763
 1614 002e 0848     		ldr	r0, .L143+4
 1615 0030 FFF7FEFF 		bl	assert_failed
 1616              	.LVL176:
 1617              	.L139:
 764:STM32F10x_StdPeriph_Driver/src/stm32f10x_adc.c ****   if (NewState != DISABLE)
 1618              		.loc 1 764 0 is_stmt 1
 1619 0034 25B1     		cbz	r5, .L140
 765:STM32F10x_StdPeriph_Driver/src/stm32f10x_adc.c ****   {
 766:STM32F10x_StdPeriph_Driver/src/stm32f10x_adc.c ****     /* Enable the selected ADC injected discontinuous mode */
 767:STM32F10x_StdPeriph_Driver/src/stm32f10x_adc.c ****     ADCx->CR1 |= CR1_JDISCEN_Set;
 1620              		.loc 1 767 0
 1621 0036 6368     		ldr	r3, [r4, #4]
 1622 0038 43F48053 		orr	r3, r3, #4096
 1623 003c 6360     		str	r3, [r4, #4]
 1624 003e 38BD     		pop	{r3, r4, r5, pc}
 1625              	.LVL177:
 1626              	.L140:
 768:STM32F10x_StdPeriph_Driver/src/stm32f10x_adc.c ****   }
 769:STM32F10x_StdPeriph_Driver/src/stm32f10x_adc.c ****   else
 770:STM32F10x_StdPeriph_Driver/src/stm32f10x_adc.c ****   {
 771:STM32F10x_StdPeriph_Driver/src/stm32f10x_adc.c ****     /* Disable the selected ADC injected discontinuous mode */
 772:STM32F10x_StdPeriph_Driver/src/stm32f10x_adc.c ****     ADCx->CR1 &= CR1_JDISCEN_Reset;
 1627              		.loc 1 772 0
 1628 0040 6368     		ldr	r3, [r4, #4]
 1629 0042 23F48053 		bic	r3, r3, #4096
 1630 0046 6360     		str	r3, [r4, #4]
 1631 0048 38BD     		pop	{r3, r4, r5, pc}
 1632              	.LVL178:
 1633              	.L144:
 1634 004a 00BF     		.align	2
 1635              	.L143:
 1636 004c 00240140 		.word	1073816576
 1637 0050 00000000 		.word	.LC0
 1638              		.cfi_endproc
 1639              	.LFE46:
 1641              		.section	.text.ADC_ExternalTrigInjectedConvConfig,"ax",%progbits
 1642              		.align	2
 1643              		.global	ADC_ExternalTrigInjectedConvConfig
 1644              		.thumb
 1645              		.thumb_func
 1647              	ADC_ExternalTrigInjectedConvConfig:
 1648              	.LFB47:
 773:STM32F10x_StdPeriph_Driver/src/stm32f10x_adc.c ****   }
 774:STM32F10x_StdPeriph_Driver/src/stm32f10x_adc.c **** }
 775:STM32F10x_StdPeriph_Driver/src/stm32f10x_adc.c **** 
 776:STM32F10x_StdPeriph_Driver/src/stm32f10x_adc.c **** /**
 777:STM32F10x_StdPeriph_Driver/src/stm32f10x_adc.c ****   * @brief  Configures the ADCx external trigger for injected channels conversion.
 778:STM32F10x_StdPeriph_Driver/src/stm32f10x_adc.c ****   * @param  ADCx: where x can be 1, 2 or 3 to select the ADC peripheral.
 779:STM32F10x_StdPeriph_Driver/src/stm32f10x_adc.c ****   * @param  ADC_ExternalTrigInjecConv: specifies the ADC trigger to start injected conversion. 
 780:STM32F10x_StdPeriph_Driver/src/stm32f10x_adc.c ****   *   This parameter can be one of the following values:
 781:STM32F10x_StdPeriph_Driver/src/stm32f10x_adc.c ****   *     @arg ADC_ExternalTrigInjecConv_T1_TRGO: Timer1 TRGO event selected (for ADC1, ADC2 and ADC3
 782:STM32F10x_StdPeriph_Driver/src/stm32f10x_adc.c ****   *     @arg ADC_ExternalTrigInjecConv_T1_CC4: Timer1 capture compare4 selected (for ADC1, ADC2 and
 783:STM32F10x_StdPeriph_Driver/src/stm32f10x_adc.c ****   *     @arg ADC_ExternalTrigInjecConv_T2_TRGO: Timer2 TRGO event selected (for ADC1 and ADC2)
 784:STM32F10x_StdPeriph_Driver/src/stm32f10x_adc.c ****   *     @arg ADC_ExternalTrigInjecConv_T2_CC1: Timer2 capture compare1 selected (for ADC1 and ADC2)
 785:STM32F10x_StdPeriph_Driver/src/stm32f10x_adc.c ****   *     @arg ADC_ExternalTrigInjecConv_T3_CC4: Timer3 capture compare4 selected (for ADC1 and ADC2)
 786:STM32F10x_StdPeriph_Driver/src/stm32f10x_adc.c ****   *     @arg ADC_ExternalTrigInjecConv_T4_TRGO: Timer4 TRGO event selected (for ADC1 and ADC2)
ARM GAS  /var/folders/g9/bbpj86ld7fx45vd1b3pqxmp00000gn/T//cc7tuhUR.s 			page 43


 787:STM32F10x_StdPeriph_Driver/src/stm32f10x_adc.c ****   *     @arg ADC_ExternalTrigInjecConv_Ext_IT15_TIM8_CC4: External interrupt line 15 or Timer8
 788:STM32F10x_StdPeriph_Driver/src/stm32f10x_adc.c ****   *                                                       capture compare4 event selected (for ADC1
 789:STM32F10x_StdPeriph_Driver/src/stm32f10x_adc.c ****   *     @arg ADC_ExternalTrigInjecConv_T4_CC3: Timer4 capture compare3 selected (for ADC3 only)
 790:STM32F10x_StdPeriph_Driver/src/stm32f10x_adc.c ****   *     @arg ADC_ExternalTrigInjecConv_T8_CC2: Timer8 capture compare2 selected (for ADC3 only)    
 791:STM32F10x_StdPeriph_Driver/src/stm32f10x_adc.c ****   *     @arg ADC_ExternalTrigInjecConv_T8_CC4: Timer8 capture compare4 selected (for ADC3 only)
 792:STM32F10x_StdPeriph_Driver/src/stm32f10x_adc.c ****   *     @arg ADC_ExternalTrigInjecConv_T5_TRGO: Timer5 TRGO event selected (for ADC3 only)         
 793:STM32F10x_StdPeriph_Driver/src/stm32f10x_adc.c ****   *     @arg ADC_ExternalTrigInjecConv_T5_CC4: Timer5 capture compare4 selected (for ADC3 only)    
 794:STM32F10x_StdPeriph_Driver/src/stm32f10x_adc.c ****   *     @arg ADC_ExternalTrigInjecConv_None: Injected conversion started by software and not
 795:STM32F10x_StdPeriph_Driver/src/stm32f10x_adc.c ****   *                                          by external trigger (for ADC1, ADC2 and ADC3)
 796:STM32F10x_StdPeriph_Driver/src/stm32f10x_adc.c ****   * @retval None
 797:STM32F10x_StdPeriph_Driver/src/stm32f10x_adc.c ****   */
 798:STM32F10x_StdPeriph_Driver/src/stm32f10x_adc.c **** void ADC_ExternalTrigInjectedConvConfig(ADC_TypeDef* ADCx, uint32_t ADC_ExternalTrigInjecConv)
 799:STM32F10x_StdPeriph_Driver/src/stm32f10x_adc.c **** {
 1649              		.loc 1 799 0
 1650              		.cfi_startproc
 1651              		@ args = 0, pretend = 0, frame = 0
 1652              		@ frame_needed = 0, uses_anonymous_args = 0
 1653              	.LVL179:
 1654 0000 38B5     		push	{r3, r4, r5, lr}
 1655              	.LCFI18:
 1656              		.cfi_def_cfa_offset 16
 1657              		.cfi_offset 3, -16
 1658              		.cfi_offset 4, -12
 1659              		.cfi_offset 5, -8
 1660              		.cfi_offset 14, -4
 1661 0002 0546     		mov	r5, r0
 1662 0004 0C46     		mov	r4, r1
 1663              	.LVL180:
 800:STM32F10x_StdPeriph_Driver/src/stm32f10x_adc.c ****   uint32_t tmpreg = 0;
 801:STM32F10x_StdPeriph_Driver/src/stm32f10x_adc.c ****   /* Check the parameters */
 802:STM32F10x_StdPeriph_Driver/src/stm32f10x_adc.c ****   assert_param(IS_ADC_ALL_PERIPH(ADCx));
 1664              		.loc 1 802 0
 1665 0006 204B     		ldr	r3, .L149
 1666 0008 9842     		cmp	r0, r3
 1667 000a 0CD0     		beq	.L146
 1668              		.loc 1 802 0 is_stmt 0 discriminator 1
 1669 000c 03F58063 		add	r3, r3, #1024
 1670 0010 9842     		cmp	r0, r3
 1671 0012 08D0     		beq	.L146
 1672              		.loc 1 802 0 discriminator 2
 1673 0014 03F5A053 		add	r3, r3, #5120
 1674 0018 9842     		cmp	r0, r3
 1675 001a 04D0     		beq	.L146
 1676              		.loc 1 802 0 discriminator 3
 1677 001c 40F22231 		movw	r1, #802
 1678              	.LVL181:
 1679 0020 1A48     		ldr	r0, .L149+4
 1680              	.LVL182:
 1681 0022 FFF7FEFF 		bl	assert_failed
 1682              	.LVL183:
 1683              	.L146:
 803:STM32F10x_StdPeriph_Driver/src/stm32f10x_adc.c ****   assert_param(IS_ADC_EXT_INJEC_TRIG(ADC_ExternalTrigInjecConv));
 1684              		.loc 1 803 0 is_stmt 1
 1685 0026 44B3     		cbz	r4, .L147
 1686              		.loc 1 803 0 is_stmt 0 discriminator 1
 1687 0028 B4F5805F 		cmp	r4, #4096
 1688 002c 25D0     		beq	.L147
ARM GAS  /var/folders/g9/bbpj86ld7fx45vd1b3pqxmp00000gn/T//cc7tuhUR.s 			page 44


 1689              		.loc 1 803 0 discriminator 2
 1690 002e B4F5005F 		cmp	r4, #8192
 1691 0032 22D0     		beq	.L147
 1692              		.loc 1 803 0 discriminator 3
 1693 0034 B4F5405F 		cmp	r4, #12288
 1694 0038 1FD0     		beq	.L147
 1695              		.loc 1 803 0 discriminator 4
 1696 003a B4F5804F 		cmp	r4, #16384
 1697 003e 1CD0     		beq	.L147
 1698              		.loc 1 803 0 discriminator 5
 1699 0040 B4F5A04F 		cmp	r4, #20480
 1700 0044 19D0     		beq	.L147
 1701              		.loc 1 803 0 discriminator 6
 1702 0046 B4F5C04F 		cmp	r4, #24576
 1703 004a 16D0     		beq	.L147
 1704              		.loc 1 803 0 discriminator 7
 1705 004c B4F5E04F 		cmp	r4, #28672
 1706 0050 13D0     		beq	.L147
 1707              		.loc 1 803 0 discriminator 8
 1708 0052 B4F5005F 		cmp	r4, #8192
 1709 0056 10D0     		beq	.L147
 1710              		.loc 1 803 0 discriminator 9
 1711 0058 B4F5405F 		cmp	r4, #12288
 1712 005c 0DD0     		beq	.L147
 1713              		.loc 1 803 0 discriminator 10
 1714 005e B4F5804F 		cmp	r4, #16384
 1715 0062 0AD0     		beq	.L147
 1716              		.loc 1 803 0 discriminator 11
 1717 0064 B4F5A04F 		cmp	r4, #20480
 1718 0068 07D0     		beq	.L147
 1719              		.loc 1 803 0 discriminator 12
 1720 006a B4F5C04F 		cmp	r4, #24576
 1721 006e 04D0     		beq	.L147
 1722              		.loc 1 803 0 discriminator 13
 1723 0070 40F22331 		movw	r1, #803
 1724 0074 0548     		ldr	r0, .L149+4
 1725 0076 FFF7FEFF 		bl	assert_failed
 1726              	.LVL184:
 1727              	.L147:
 804:STM32F10x_StdPeriph_Driver/src/stm32f10x_adc.c ****   /* Get the old register value */
 805:STM32F10x_StdPeriph_Driver/src/stm32f10x_adc.c ****   tmpreg = ADCx->CR2;
 1728              		.loc 1 805 0 is_stmt 1
 1729 007a A968     		ldr	r1, [r5, #8]
 1730              	.LVL185:
 806:STM32F10x_StdPeriph_Driver/src/stm32f10x_adc.c ****   /* Clear the old external event selection for injected group */
 807:STM32F10x_StdPeriph_Driver/src/stm32f10x_adc.c ****   tmpreg &= CR2_JEXTSEL_Reset;
 1731              		.loc 1 807 0
 1732 007c 21F4E041 		bic	r1, r1, #28672
 1733              	.LVL186:
 808:STM32F10x_StdPeriph_Driver/src/stm32f10x_adc.c ****   /* Set the external event selection for injected group */
 809:STM32F10x_StdPeriph_Driver/src/stm32f10x_adc.c ****   tmpreg |= ADC_ExternalTrigInjecConv;
 1734              		.loc 1 809 0
 1735 0080 2143     		orrs	r1, r1, r4
 1736              	.LVL187:
 810:STM32F10x_StdPeriph_Driver/src/stm32f10x_adc.c ****   /* Store the new register value */
 811:STM32F10x_StdPeriph_Driver/src/stm32f10x_adc.c ****   ADCx->CR2 = tmpreg;
 1737              		.loc 1 811 0
ARM GAS  /var/folders/g9/bbpj86ld7fx45vd1b3pqxmp00000gn/T//cc7tuhUR.s 			page 45


 1738 0082 A960     		str	r1, [r5, #8]
 1739 0084 38BD     		pop	{r3, r4, r5, pc}
 1740              	.LVL188:
 1741              	.L150:
 1742 0086 00BF     		.align	2
 1743              	.L149:
 1744 0088 00240140 		.word	1073816576
 1745 008c 00000000 		.word	.LC0
 1746              		.cfi_endproc
 1747              	.LFE47:
 1749              		.section	.text.ADC_ExternalTrigInjectedConvCmd,"ax",%progbits
 1750              		.align	2
 1751              		.global	ADC_ExternalTrigInjectedConvCmd
 1752              		.thumb
 1753              		.thumb_func
 1755              	ADC_ExternalTrigInjectedConvCmd:
 1756              	.LFB48:
 812:STM32F10x_StdPeriph_Driver/src/stm32f10x_adc.c **** }
 813:STM32F10x_StdPeriph_Driver/src/stm32f10x_adc.c **** 
 814:STM32F10x_StdPeriph_Driver/src/stm32f10x_adc.c **** /**
 815:STM32F10x_StdPeriph_Driver/src/stm32f10x_adc.c ****   * @brief  Enables or disables the ADCx injected channels conversion through
 816:STM32F10x_StdPeriph_Driver/src/stm32f10x_adc.c ****   *   external trigger
 817:STM32F10x_StdPeriph_Driver/src/stm32f10x_adc.c ****   * @param  ADCx: where x can be 1, 2 or 3 to select the ADC peripheral.
 818:STM32F10x_StdPeriph_Driver/src/stm32f10x_adc.c ****   * @param  NewState: new state of the selected ADC external trigger start of
 819:STM32F10x_StdPeriph_Driver/src/stm32f10x_adc.c ****   *   injected conversion.
 820:STM32F10x_StdPeriph_Driver/src/stm32f10x_adc.c ****   *   This parameter can be: ENABLE or DISABLE.
 821:STM32F10x_StdPeriph_Driver/src/stm32f10x_adc.c ****   * @retval None
 822:STM32F10x_StdPeriph_Driver/src/stm32f10x_adc.c ****   */
 823:STM32F10x_StdPeriph_Driver/src/stm32f10x_adc.c **** void ADC_ExternalTrigInjectedConvCmd(ADC_TypeDef* ADCx, FunctionalState NewState)
 824:STM32F10x_StdPeriph_Driver/src/stm32f10x_adc.c **** {
 1757              		.loc 1 824 0
 1758              		.cfi_startproc
 1759              		@ args = 0, pretend = 0, frame = 0
 1760              		@ frame_needed = 0, uses_anonymous_args = 0
 1761              	.LVL189:
 1762 0000 38B5     		push	{r3, r4, r5, lr}
 1763              	.LCFI19:
 1764              		.cfi_def_cfa_offset 16
 1765              		.cfi_offset 3, -16
 1766              		.cfi_offset 4, -12
 1767              		.cfi_offset 5, -8
 1768              		.cfi_offset 14, -4
 1769 0002 0446     		mov	r4, r0
 1770 0004 0D46     		mov	r5, r1
 825:STM32F10x_StdPeriph_Driver/src/stm32f10x_adc.c ****   /* Check the parameters */
 826:STM32F10x_StdPeriph_Driver/src/stm32f10x_adc.c ****   assert_param(IS_ADC_ALL_PERIPH(ADCx));
 1771              		.loc 1 826 0
 1772 0006 114B     		ldr	r3, .L157
 1773 0008 9842     		cmp	r0, r3
 1774 000a 0CD0     		beq	.L152
 1775              		.loc 1 826 0 is_stmt 0 discriminator 1
 1776 000c 03F58063 		add	r3, r3, #1024
 1777 0010 9842     		cmp	r0, r3
 1778 0012 08D0     		beq	.L152
 1779              		.loc 1 826 0 discriminator 2
 1780 0014 03F5A053 		add	r3, r3, #5120
 1781 0018 9842     		cmp	r0, r3
ARM GAS  /var/folders/g9/bbpj86ld7fx45vd1b3pqxmp00000gn/T//cc7tuhUR.s 			page 46


 1782 001a 04D0     		beq	.L152
 1783              		.loc 1 826 0 discriminator 3
 1784 001c 40F23A31 		movw	r1, #826
 1785              	.LVL190:
 1786 0020 0B48     		ldr	r0, .L157+4
 1787              	.LVL191:
 1788 0022 FFF7FEFF 		bl	assert_failed
 1789              	.LVL192:
 1790              	.L152:
 827:STM32F10x_StdPeriph_Driver/src/stm32f10x_adc.c ****   assert_param(IS_FUNCTIONAL_STATE(NewState));
 1791              		.loc 1 827 0 is_stmt 1
 1792 0026 012D     		cmp	r5, #1
 1793 0028 04D9     		bls	.L153
 1794              		.loc 1 827 0 is_stmt 0 discriminator 1
 1795 002a 40F23B31 		movw	r1, #827
 1796 002e 0848     		ldr	r0, .L157+4
 1797 0030 FFF7FEFF 		bl	assert_failed
 1798              	.LVL193:
 1799              	.L153:
 828:STM32F10x_StdPeriph_Driver/src/stm32f10x_adc.c ****   if (NewState != DISABLE)
 1800              		.loc 1 828 0 is_stmt 1
 1801 0034 25B1     		cbz	r5, .L154
 829:STM32F10x_StdPeriph_Driver/src/stm32f10x_adc.c ****   {
 830:STM32F10x_StdPeriph_Driver/src/stm32f10x_adc.c ****     /* Enable the selected ADC external event selection for injected group */
 831:STM32F10x_StdPeriph_Driver/src/stm32f10x_adc.c ****     ADCx->CR2 |= CR2_JEXTTRIG_Set;
 1802              		.loc 1 831 0
 1803 0036 A368     		ldr	r3, [r4, #8]
 1804 0038 43F40043 		orr	r3, r3, #32768
 1805 003c A360     		str	r3, [r4, #8]
 1806 003e 38BD     		pop	{r3, r4, r5, pc}
 1807              	.LVL194:
 1808              	.L154:
 832:STM32F10x_StdPeriph_Driver/src/stm32f10x_adc.c ****   }
 833:STM32F10x_StdPeriph_Driver/src/stm32f10x_adc.c ****   else
 834:STM32F10x_StdPeriph_Driver/src/stm32f10x_adc.c ****   {
 835:STM32F10x_StdPeriph_Driver/src/stm32f10x_adc.c ****     /* Disable the selected ADC external event selection for injected group */
 836:STM32F10x_StdPeriph_Driver/src/stm32f10x_adc.c ****     ADCx->CR2 &= CR2_JEXTTRIG_Reset;
 1809              		.loc 1 836 0
 1810 0040 A368     		ldr	r3, [r4, #8]
 1811 0042 23F40043 		bic	r3, r3, #32768
 1812 0046 A360     		str	r3, [r4, #8]
 1813 0048 38BD     		pop	{r3, r4, r5, pc}
 1814              	.LVL195:
 1815              	.L158:
 1816 004a 00BF     		.align	2
 1817              	.L157:
 1818 004c 00240140 		.word	1073816576
 1819 0050 00000000 		.word	.LC0
 1820              		.cfi_endproc
 1821              	.LFE48:
 1823              		.section	.text.ADC_SoftwareStartInjectedConvCmd,"ax",%progbits
 1824              		.align	2
 1825              		.global	ADC_SoftwareStartInjectedConvCmd
 1826              		.thumb
 1827              		.thumb_func
 1829              	ADC_SoftwareStartInjectedConvCmd:
 1830              	.LFB49:
ARM GAS  /var/folders/g9/bbpj86ld7fx45vd1b3pqxmp00000gn/T//cc7tuhUR.s 			page 47


 837:STM32F10x_StdPeriph_Driver/src/stm32f10x_adc.c ****   }
 838:STM32F10x_StdPeriph_Driver/src/stm32f10x_adc.c **** }
 839:STM32F10x_StdPeriph_Driver/src/stm32f10x_adc.c **** 
 840:STM32F10x_StdPeriph_Driver/src/stm32f10x_adc.c **** /**
 841:STM32F10x_StdPeriph_Driver/src/stm32f10x_adc.c ****   * @brief  Enables or disables the selected ADC start of the injected 
 842:STM32F10x_StdPeriph_Driver/src/stm32f10x_adc.c ****   *   channels conversion.
 843:STM32F10x_StdPeriph_Driver/src/stm32f10x_adc.c ****   * @param  ADCx: where x can be 1, 2 or 3 to select the ADC peripheral.
 844:STM32F10x_StdPeriph_Driver/src/stm32f10x_adc.c ****   * @param  NewState: new state of the selected ADC software start injected conversion.
 845:STM32F10x_StdPeriph_Driver/src/stm32f10x_adc.c ****   *   This parameter can be: ENABLE or DISABLE.
 846:STM32F10x_StdPeriph_Driver/src/stm32f10x_adc.c ****   * @retval None
 847:STM32F10x_StdPeriph_Driver/src/stm32f10x_adc.c ****   */
 848:STM32F10x_StdPeriph_Driver/src/stm32f10x_adc.c **** void ADC_SoftwareStartInjectedConvCmd(ADC_TypeDef* ADCx, FunctionalState NewState)
 849:STM32F10x_StdPeriph_Driver/src/stm32f10x_adc.c **** {
 1831              		.loc 1 849 0
 1832              		.cfi_startproc
 1833              		@ args = 0, pretend = 0, frame = 0
 1834              		@ frame_needed = 0, uses_anonymous_args = 0
 1835              	.LVL196:
 1836 0000 38B5     		push	{r3, r4, r5, lr}
 1837              	.LCFI20:
 1838              		.cfi_def_cfa_offset 16
 1839              		.cfi_offset 3, -16
 1840              		.cfi_offset 4, -12
 1841              		.cfi_offset 5, -8
 1842              		.cfi_offset 14, -4
 1843 0002 0446     		mov	r4, r0
 1844 0004 0D46     		mov	r5, r1
 850:STM32F10x_StdPeriph_Driver/src/stm32f10x_adc.c ****   /* Check the parameters */
 851:STM32F10x_StdPeriph_Driver/src/stm32f10x_adc.c ****   assert_param(IS_ADC_ALL_PERIPH(ADCx));
 1845              		.loc 1 851 0
 1846 0006 114B     		ldr	r3, .L165
 1847 0008 9842     		cmp	r0, r3
 1848 000a 0CD0     		beq	.L160
 1849              		.loc 1 851 0 is_stmt 0 discriminator 1
 1850 000c 03F58063 		add	r3, r3, #1024
 1851 0010 9842     		cmp	r0, r3
 1852 0012 08D0     		beq	.L160
 1853              		.loc 1 851 0 discriminator 2
 1854 0014 03F5A053 		add	r3, r3, #5120
 1855 0018 9842     		cmp	r0, r3
 1856 001a 04D0     		beq	.L160
 1857              		.loc 1 851 0 discriminator 3
 1858 001c 40F25331 		movw	r1, #851
 1859              	.LVL197:
 1860 0020 0B48     		ldr	r0, .L165+4
 1861              	.LVL198:
 1862 0022 FFF7FEFF 		bl	assert_failed
 1863              	.LVL199:
 1864              	.L160:
 852:STM32F10x_StdPeriph_Driver/src/stm32f10x_adc.c ****   assert_param(IS_FUNCTIONAL_STATE(NewState));
 1865              		.loc 1 852 0 is_stmt 1
 1866 0026 012D     		cmp	r5, #1
 1867 0028 04D9     		bls	.L161
 1868              		.loc 1 852 0 is_stmt 0 discriminator 1
 1869 002a 4FF45571 		mov	r1, #852
 1870 002e 0848     		ldr	r0, .L165+4
 1871 0030 FFF7FEFF 		bl	assert_failed
ARM GAS  /var/folders/g9/bbpj86ld7fx45vd1b3pqxmp00000gn/T//cc7tuhUR.s 			page 48


 1872              	.LVL200:
 1873              	.L161:
 853:STM32F10x_StdPeriph_Driver/src/stm32f10x_adc.c ****   if (NewState != DISABLE)
 1874              		.loc 1 853 0 is_stmt 1
 1875 0034 25B1     		cbz	r5, .L162
 854:STM32F10x_StdPeriph_Driver/src/stm32f10x_adc.c ****   {
 855:STM32F10x_StdPeriph_Driver/src/stm32f10x_adc.c ****     /* Enable the selected ADC conversion for injected group on external event and start the select
 856:STM32F10x_StdPeriph_Driver/src/stm32f10x_adc.c ****        ADC injected conversion */
 857:STM32F10x_StdPeriph_Driver/src/stm32f10x_adc.c ****     ADCx->CR2 |= CR2_JEXTTRIG_JSWSTART_Set;
 1876              		.loc 1 857 0
 1877 0036 A368     		ldr	r3, [r4, #8]
 1878 0038 43F40213 		orr	r3, r3, #2129920
 1879 003c A360     		str	r3, [r4, #8]
 1880 003e 38BD     		pop	{r3, r4, r5, pc}
 1881              	.LVL201:
 1882              	.L162:
 858:STM32F10x_StdPeriph_Driver/src/stm32f10x_adc.c ****   }
 859:STM32F10x_StdPeriph_Driver/src/stm32f10x_adc.c ****   else
 860:STM32F10x_StdPeriph_Driver/src/stm32f10x_adc.c ****   {
 861:STM32F10x_StdPeriph_Driver/src/stm32f10x_adc.c ****     /* Disable the selected ADC conversion on external event for injected group and stop the select
 862:STM32F10x_StdPeriph_Driver/src/stm32f10x_adc.c ****        ADC injected conversion */
 863:STM32F10x_StdPeriph_Driver/src/stm32f10x_adc.c ****     ADCx->CR2 &= CR2_JEXTTRIG_JSWSTART_Reset;
 1883              		.loc 1 863 0
 1884 0040 A368     		ldr	r3, [r4, #8]
 1885 0042 23F40213 		bic	r3, r3, #2129920
 1886 0046 A360     		str	r3, [r4, #8]
 1887 0048 38BD     		pop	{r3, r4, r5, pc}
 1888              	.LVL202:
 1889              	.L166:
 1890 004a 00BF     		.align	2
 1891              	.L165:
 1892 004c 00240140 		.word	1073816576
 1893 0050 00000000 		.word	.LC0
 1894              		.cfi_endproc
 1895              	.LFE49:
 1897              		.section	.text.ADC_GetSoftwareStartInjectedConvCmdStatus,"ax",%progbits
 1898              		.align	2
 1899              		.global	ADC_GetSoftwareStartInjectedConvCmdStatus
 1900              		.thumb
 1901              		.thumb_func
 1903              	ADC_GetSoftwareStartInjectedConvCmdStatus:
 1904              	.LFB50:
 864:STM32F10x_StdPeriph_Driver/src/stm32f10x_adc.c ****   }
 865:STM32F10x_StdPeriph_Driver/src/stm32f10x_adc.c **** }
 866:STM32F10x_StdPeriph_Driver/src/stm32f10x_adc.c **** 
 867:STM32F10x_StdPeriph_Driver/src/stm32f10x_adc.c **** /**
 868:STM32F10x_StdPeriph_Driver/src/stm32f10x_adc.c ****   * @brief  Gets the selected ADC Software start injected conversion Status.
 869:STM32F10x_StdPeriph_Driver/src/stm32f10x_adc.c ****   * @param  ADCx: where x can be 1, 2 or 3 to select the ADC peripheral.
 870:STM32F10x_StdPeriph_Driver/src/stm32f10x_adc.c ****   * @retval The new state of ADC software start injected conversion (SET or RESET).
 871:STM32F10x_StdPeriph_Driver/src/stm32f10x_adc.c ****   */
 872:STM32F10x_StdPeriph_Driver/src/stm32f10x_adc.c **** FlagStatus ADC_GetSoftwareStartInjectedConvCmdStatus(ADC_TypeDef* ADCx)
 873:STM32F10x_StdPeriph_Driver/src/stm32f10x_adc.c **** {
 1905              		.loc 1 873 0
 1906              		.cfi_startproc
 1907              		@ args = 0, pretend = 0, frame = 0
 1908              		@ frame_needed = 0, uses_anonymous_args = 0
 1909              	.LVL203:
ARM GAS  /var/folders/g9/bbpj86ld7fx45vd1b3pqxmp00000gn/T//cc7tuhUR.s 			page 49


 1910 0000 10B5     		push	{r4, lr}
 1911              	.LCFI21:
 1912              		.cfi_def_cfa_offset 8
 1913              		.cfi_offset 4, -8
 1914              		.cfi_offset 14, -4
 1915 0002 0446     		mov	r4, r0
 1916              	.LVL204:
 874:STM32F10x_StdPeriph_Driver/src/stm32f10x_adc.c ****   FlagStatus bitstatus = RESET;
 875:STM32F10x_StdPeriph_Driver/src/stm32f10x_adc.c ****   /* Check the parameters */
 876:STM32F10x_StdPeriph_Driver/src/stm32f10x_adc.c ****   assert_param(IS_ADC_ALL_PERIPH(ADCx));
 1917              		.loc 1 876 0
 1918 0004 0B4B     		ldr	r3, .L172
 1919 0006 9842     		cmp	r0, r3
 1920 0008 0CD0     		beq	.L168
 1921              		.loc 1 876 0 is_stmt 0 discriminator 1
 1922 000a 03F58063 		add	r3, r3, #1024
 1923 000e 9842     		cmp	r0, r3
 1924 0010 08D0     		beq	.L168
 1925              		.loc 1 876 0 discriminator 2
 1926 0012 03F5A053 		add	r3, r3, #5120
 1927 0016 9842     		cmp	r0, r3
 1928 0018 04D0     		beq	.L168
 1929              		.loc 1 876 0 discriminator 3
 1930 001a 4FF45B71 		mov	r1, #876
 1931 001e 0648     		ldr	r0, .L172+4
 1932              	.LVL205:
 1933 0020 FFF7FEFF 		bl	assert_failed
 1934              	.LVL206:
 1935              	.L168:
 877:STM32F10x_StdPeriph_Driver/src/stm32f10x_adc.c ****   /* Check the status of JSWSTART bit */
 878:STM32F10x_StdPeriph_Driver/src/stm32f10x_adc.c ****   if ((ADCx->CR2 & CR2_JSWSTART_Set) != (uint32_t)RESET)
 1936              		.loc 1 878 0 is_stmt 1
 1937 0024 A368     		ldr	r3, [r4, #8]
 1938 0026 13F4001F 		tst	r3, #2097152
 1939 002a 01D0     		beq	.L170
 879:STM32F10x_StdPeriph_Driver/src/stm32f10x_adc.c ****   {
 880:STM32F10x_StdPeriph_Driver/src/stm32f10x_adc.c ****     /* JSWSTART bit is set */
 881:STM32F10x_StdPeriph_Driver/src/stm32f10x_adc.c ****     bitstatus = SET;
 1940              		.loc 1 881 0
 1941 002c 0120     		movs	r0, #1
 1942 002e 10BD     		pop	{r4, pc}
 1943              	.LVL207:
 1944              	.L170:
 882:STM32F10x_StdPeriph_Driver/src/stm32f10x_adc.c ****   }
 883:STM32F10x_StdPeriph_Driver/src/stm32f10x_adc.c ****   else
 884:STM32F10x_StdPeriph_Driver/src/stm32f10x_adc.c ****   {
 885:STM32F10x_StdPeriph_Driver/src/stm32f10x_adc.c ****     /* JSWSTART bit is reset */
 886:STM32F10x_StdPeriph_Driver/src/stm32f10x_adc.c ****     bitstatus = RESET;
 1945              		.loc 1 886 0
 1946 0030 0020     		movs	r0, #0
 1947              	.LVL208:
 887:STM32F10x_StdPeriph_Driver/src/stm32f10x_adc.c ****   }
 888:STM32F10x_StdPeriph_Driver/src/stm32f10x_adc.c ****   /* Return the JSWSTART bit status */
 889:STM32F10x_StdPeriph_Driver/src/stm32f10x_adc.c ****   return  bitstatus;
 890:STM32F10x_StdPeriph_Driver/src/stm32f10x_adc.c **** }
 1948              		.loc 1 890 0
 1949 0032 10BD     		pop	{r4, pc}
ARM GAS  /var/folders/g9/bbpj86ld7fx45vd1b3pqxmp00000gn/T//cc7tuhUR.s 			page 50


 1950              	.LVL209:
 1951              	.L173:
 1952              		.align	2
 1953              	.L172:
 1954 0034 00240140 		.word	1073816576
 1955 0038 00000000 		.word	.LC0
 1956              		.cfi_endproc
 1957              	.LFE50:
 1959              		.section	.text.ADC_InjectedChannelConfig,"ax",%progbits
 1960              		.align	2
 1961              		.global	ADC_InjectedChannelConfig
 1962              		.thumb
 1963              		.thumb_func
 1965              	ADC_InjectedChannelConfig:
 1966              	.LFB51:
 891:STM32F10x_StdPeriph_Driver/src/stm32f10x_adc.c **** 
 892:STM32F10x_StdPeriph_Driver/src/stm32f10x_adc.c **** /**
 893:STM32F10x_StdPeriph_Driver/src/stm32f10x_adc.c ****   * @brief  Configures for the selected ADC injected channel its corresponding
 894:STM32F10x_StdPeriph_Driver/src/stm32f10x_adc.c ****   *   rank in the sequencer and its sample time.
 895:STM32F10x_StdPeriph_Driver/src/stm32f10x_adc.c ****   * @param  ADCx: where x can be 1, 2 or 3 to select the ADC peripheral.
 896:STM32F10x_StdPeriph_Driver/src/stm32f10x_adc.c ****   * @param  ADC_Channel: the ADC channel to configure. 
 897:STM32F10x_StdPeriph_Driver/src/stm32f10x_adc.c ****   *   This parameter can be one of the following values:
 898:STM32F10x_StdPeriph_Driver/src/stm32f10x_adc.c ****   *     @arg ADC_Channel_0: ADC Channel0 selected
 899:STM32F10x_StdPeriph_Driver/src/stm32f10x_adc.c ****   *     @arg ADC_Channel_1: ADC Channel1 selected
 900:STM32F10x_StdPeriph_Driver/src/stm32f10x_adc.c ****   *     @arg ADC_Channel_2: ADC Channel2 selected
 901:STM32F10x_StdPeriph_Driver/src/stm32f10x_adc.c ****   *     @arg ADC_Channel_3: ADC Channel3 selected
 902:STM32F10x_StdPeriph_Driver/src/stm32f10x_adc.c ****   *     @arg ADC_Channel_4: ADC Channel4 selected
 903:STM32F10x_StdPeriph_Driver/src/stm32f10x_adc.c ****   *     @arg ADC_Channel_5: ADC Channel5 selected
 904:STM32F10x_StdPeriph_Driver/src/stm32f10x_adc.c ****   *     @arg ADC_Channel_6: ADC Channel6 selected
 905:STM32F10x_StdPeriph_Driver/src/stm32f10x_adc.c ****   *     @arg ADC_Channel_7: ADC Channel7 selected
 906:STM32F10x_StdPeriph_Driver/src/stm32f10x_adc.c ****   *     @arg ADC_Channel_8: ADC Channel8 selected
 907:STM32F10x_StdPeriph_Driver/src/stm32f10x_adc.c ****   *     @arg ADC_Channel_9: ADC Channel9 selected
 908:STM32F10x_StdPeriph_Driver/src/stm32f10x_adc.c ****   *     @arg ADC_Channel_10: ADC Channel10 selected
 909:STM32F10x_StdPeriph_Driver/src/stm32f10x_adc.c ****   *     @arg ADC_Channel_11: ADC Channel11 selected
 910:STM32F10x_StdPeriph_Driver/src/stm32f10x_adc.c ****   *     @arg ADC_Channel_12: ADC Channel12 selected
 911:STM32F10x_StdPeriph_Driver/src/stm32f10x_adc.c ****   *     @arg ADC_Channel_13: ADC Channel13 selected
 912:STM32F10x_StdPeriph_Driver/src/stm32f10x_adc.c ****   *     @arg ADC_Channel_14: ADC Channel14 selected
 913:STM32F10x_StdPeriph_Driver/src/stm32f10x_adc.c ****   *     @arg ADC_Channel_15: ADC Channel15 selected
 914:STM32F10x_StdPeriph_Driver/src/stm32f10x_adc.c ****   *     @arg ADC_Channel_16: ADC Channel16 selected
 915:STM32F10x_StdPeriph_Driver/src/stm32f10x_adc.c ****   *     @arg ADC_Channel_17: ADC Channel17 selected
 916:STM32F10x_StdPeriph_Driver/src/stm32f10x_adc.c ****   * @param  Rank: The rank in the injected group sequencer. This parameter must be between 1 and 4.
 917:STM32F10x_StdPeriph_Driver/src/stm32f10x_adc.c ****   * @param  ADC_SampleTime: The sample time value to be set for the selected channel. 
 918:STM32F10x_StdPeriph_Driver/src/stm32f10x_adc.c ****   *   This parameter can be one of the following values:
 919:STM32F10x_StdPeriph_Driver/src/stm32f10x_adc.c ****   *     @arg ADC_SampleTime_1Cycles5: Sample time equal to 1.5 cycles
 920:STM32F10x_StdPeriph_Driver/src/stm32f10x_adc.c ****   *     @arg ADC_SampleTime_7Cycles5: Sample time equal to 7.5 cycles
 921:STM32F10x_StdPeriph_Driver/src/stm32f10x_adc.c ****   *     @arg ADC_SampleTime_13Cycles5: Sample time equal to 13.5 cycles
 922:STM32F10x_StdPeriph_Driver/src/stm32f10x_adc.c ****   *     @arg ADC_SampleTime_28Cycles5: Sample time equal to 28.5 cycles	
 923:STM32F10x_StdPeriph_Driver/src/stm32f10x_adc.c ****   *     @arg ADC_SampleTime_41Cycles5: Sample time equal to 41.5 cycles	
 924:STM32F10x_StdPeriph_Driver/src/stm32f10x_adc.c ****   *     @arg ADC_SampleTime_55Cycles5: Sample time equal to 55.5 cycles	
 925:STM32F10x_StdPeriph_Driver/src/stm32f10x_adc.c ****   *     @arg ADC_SampleTime_71Cycles5: Sample time equal to 71.5 cycles	
 926:STM32F10x_StdPeriph_Driver/src/stm32f10x_adc.c ****   *     @arg ADC_SampleTime_239Cycles5: Sample time equal to 239.5 cycles	
 927:STM32F10x_StdPeriph_Driver/src/stm32f10x_adc.c ****   * @retval None
 928:STM32F10x_StdPeriph_Driver/src/stm32f10x_adc.c ****   */
 929:STM32F10x_StdPeriph_Driver/src/stm32f10x_adc.c **** void ADC_InjectedChannelConfig(ADC_TypeDef* ADCx, uint8_t ADC_Channel, uint8_t Rank, uint8_t ADC_Sa
 930:STM32F10x_StdPeriph_Driver/src/stm32f10x_adc.c **** {
 1967              		.loc 1 930 0
 1968              		.cfi_startproc
ARM GAS  /var/folders/g9/bbpj86ld7fx45vd1b3pqxmp00000gn/T//cc7tuhUR.s 			page 51


 1969              		@ args = 0, pretend = 0, frame = 0
 1970              		@ frame_needed = 0, uses_anonymous_args = 0
 1971              	.LVL210:
 1972 0000 F8B5     		push	{r3, r4, r5, r6, r7, lr}
 1973              	.LCFI22:
 1974              		.cfi_def_cfa_offset 24
 1975              		.cfi_offset 3, -24
 1976              		.cfi_offset 4, -20
 1977              		.cfi_offset 5, -16
 1978              		.cfi_offset 6, -12
 1979              		.cfi_offset 7, -8
 1980              		.cfi_offset 14, -4
 1981 0002 0646     		mov	r6, r0
 1982 0004 0D46     		mov	r5, r1
 1983 0006 1446     		mov	r4, r2
 1984 0008 1F46     		mov	r7, r3
 1985              	.LVL211:
 931:STM32F10x_StdPeriph_Driver/src/stm32f10x_adc.c ****   uint32_t tmpreg1 = 0, tmpreg2 = 0, tmpreg3 = 0;
 932:STM32F10x_StdPeriph_Driver/src/stm32f10x_adc.c ****   /* Check the parameters */
 933:STM32F10x_StdPeriph_Driver/src/stm32f10x_adc.c ****   assert_param(IS_ADC_ALL_PERIPH(ADCx));
 1986              		.loc 1 933 0
 1987 000a 284B     		ldr	r3, .L182
 1988              	.LVL212:
 1989 000c 9842     		cmp	r0, r3
 1990 000e 0CD0     		beq	.L175
 1991              		.loc 1 933 0 is_stmt 0 discriminator 1
 1992 0010 03F58063 		add	r3, r3, #1024
 1993 0014 9842     		cmp	r0, r3
 1994 0016 08D0     		beq	.L175
 1995              		.loc 1 933 0 discriminator 2
 1996 0018 03F5A053 		add	r3, r3, #5120
 1997 001c 9842     		cmp	r0, r3
 1998 001e 04D0     		beq	.L175
 1999              		.loc 1 933 0 discriminator 3
 2000 0020 40F2A531 		movw	r1, #933
 2001              	.LVL213:
 2002 0024 2248     		ldr	r0, .L182+4
 2003              	.LVL214:
 2004 0026 FFF7FEFF 		bl	assert_failed
 2005              	.LVL215:
 2006              	.L175:
 934:STM32F10x_StdPeriph_Driver/src/stm32f10x_adc.c ****   assert_param(IS_ADC_CHANNEL(ADC_Channel));
 2007              		.loc 1 934 0 is_stmt 1
 2008 002a 112D     		cmp	r5, #17
 2009 002c 04D9     		bls	.L176
 2010              		.loc 1 934 0 is_stmt 0 discriminator 1
 2011 002e 40F2A631 		movw	r1, #934
 2012 0032 1F48     		ldr	r0, .L182+4
 2013 0034 FFF7FEFF 		bl	assert_failed
 2014              	.LVL216:
 2015              	.L176:
 935:STM32F10x_StdPeriph_Driver/src/stm32f10x_adc.c ****   assert_param(IS_ADC_INJECTED_RANK(Rank));
 2016              		.loc 1 935 0 is_stmt 1
 2017 0038 631E     		subs	r3, r4, #1
 2018 003a DBB2     		uxtb	r3, r3
 2019 003c 032B     		cmp	r3, #3
 2020 003e 04D9     		bls	.L177
ARM GAS  /var/folders/g9/bbpj86ld7fx45vd1b3pqxmp00000gn/T//cc7tuhUR.s 			page 52


 2021              		.loc 1 935 0 is_stmt 0 discriminator 1
 2022 0040 40F2A731 		movw	r1, #935
 2023 0044 1A48     		ldr	r0, .L182+4
 2024 0046 FFF7FEFF 		bl	assert_failed
 2025              	.LVL217:
 2026              	.L177:
 936:STM32F10x_StdPeriph_Driver/src/stm32f10x_adc.c ****   assert_param(IS_ADC_SAMPLE_TIME(ADC_SampleTime));
 2027              		.loc 1 936 0 is_stmt 1
 2028 004a 072F     		cmp	r7, #7
 2029 004c 04D9     		bls	.L178
 2030              		.loc 1 936 0 is_stmt 0 discriminator 1
 2031 004e 4FF46A71 		mov	r1, #936
 2032 0052 1748     		ldr	r0, .L182+4
 2033 0054 FFF7FEFF 		bl	assert_failed
 2034              	.LVL218:
 2035              	.L178:
 937:STM32F10x_StdPeriph_Driver/src/stm32f10x_adc.c ****   /* if ADC_Channel_10 ... ADC_Channel_17 is selected */
 938:STM32F10x_StdPeriph_Driver/src/stm32f10x_adc.c ****   if (ADC_Channel > ADC_Channel_9)
 2036              		.loc 1 938 0 is_stmt 1
 2037 0058 092D     		cmp	r5, #9
 2038 005a 0CD9     		bls	.L179
 939:STM32F10x_StdPeriph_Driver/src/stm32f10x_adc.c ****   {
 940:STM32F10x_StdPeriph_Driver/src/stm32f10x_adc.c ****     /* Get the old register value */
 941:STM32F10x_StdPeriph_Driver/src/stm32f10x_adc.c ****     tmpreg1 = ADCx->SMPR1;
 2039              		.loc 1 941 0
 2040 005c F168     		ldr	r1, [r6, #12]
 2041              	.LVL219:
 942:STM32F10x_StdPeriph_Driver/src/stm32f10x_adc.c ****     /* Calculate the mask to clear */
 943:STM32F10x_StdPeriph_Driver/src/stm32f10x_adc.c ****     tmpreg2 = SMPR1_SMP_Set << (3*(ADC_Channel - 10));
 2042              		.loc 1 943 0
 2043 005e A5F10A03 		sub	r3, r5, #10
 2044 0062 03EB4303 		add	r3, r3, r3, lsl #1
 2045 0066 0722     		movs	r2, #7
 2046 0068 9A40     		lsls	r2, r2, r3
 2047              	.LVL220:
 944:STM32F10x_StdPeriph_Driver/src/stm32f10x_adc.c ****     /* Clear the old channel sample time */
 945:STM32F10x_StdPeriph_Driver/src/stm32f10x_adc.c ****     tmpreg1 &= ~tmpreg2;
 2048              		.loc 1 945 0
 2049 006a 21EA0202 		bic	r2, r1, r2
 2050              	.LVL221:
 946:STM32F10x_StdPeriph_Driver/src/stm32f10x_adc.c ****     /* Calculate the mask to set */
 947:STM32F10x_StdPeriph_Driver/src/stm32f10x_adc.c ****     tmpreg2 = (uint32_t)ADC_SampleTime << (3*(ADC_Channel - 10));
 2051              		.loc 1 947 0
 2052 006e 9F40     		lsls	r7, r7, r3
 2053              	.LVL222:
 948:STM32F10x_StdPeriph_Driver/src/stm32f10x_adc.c ****     /* Set the new channel sample time */
 949:STM32F10x_StdPeriph_Driver/src/stm32f10x_adc.c ****     tmpreg1 |= tmpreg2;
 2054              		.loc 1 949 0
 2055 0070 1743     		orrs	r7, r7, r2
 2056              	.LVL223:
 950:STM32F10x_StdPeriph_Driver/src/stm32f10x_adc.c ****     /* Store the new register value */
 951:STM32F10x_StdPeriph_Driver/src/stm32f10x_adc.c ****     ADCx->SMPR1 = tmpreg1;
 2057              		.loc 1 951 0
 2058 0072 F760     		str	r7, [r6, #12]
 2059 0074 09E0     		b	.L180
 2060              	.LVL224:
 2061              	.L179:
ARM GAS  /var/folders/g9/bbpj86ld7fx45vd1b3pqxmp00000gn/T//cc7tuhUR.s 			page 53


 952:STM32F10x_StdPeriph_Driver/src/stm32f10x_adc.c ****   }
 953:STM32F10x_StdPeriph_Driver/src/stm32f10x_adc.c ****   else /* ADC_Channel include in ADC_Channel_[0..9] */
 954:STM32F10x_StdPeriph_Driver/src/stm32f10x_adc.c ****   {
 955:STM32F10x_StdPeriph_Driver/src/stm32f10x_adc.c ****     /* Get the old register value */
 956:STM32F10x_StdPeriph_Driver/src/stm32f10x_adc.c ****     tmpreg1 = ADCx->SMPR2;
 2062              		.loc 1 956 0
 2063 0076 3269     		ldr	r2, [r6, #16]
 2064              	.LVL225:
 957:STM32F10x_StdPeriph_Driver/src/stm32f10x_adc.c ****     /* Calculate the mask to clear */
 958:STM32F10x_StdPeriph_Driver/src/stm32f10x_adc.c ****     tmpreg2 = SMPR2_SMP_Set << (3 * ADC_Channel);
 2065              		.loc 1 958 0
 2066 0078 05EB4501 		add	r1, r5, r5, lsl #1
 2067 007c 0723     		movs	r3, #7
 2068 007e 8B40     		lsls	r3, r3, r1
 2069              	.LVL226:
 959:STM32F10x_StdPeriph_Driver/src/stm32f10x_adc.c ****     /* Clear the old channel sample time */
 960:STM32F10x_StdPeriph_Driver/src/stm32f10x_adc.c ****     tmpreg1 &= ~tmpreg2;
 2070              		.loc 1 960 0
 2071 0080 22EA0303 		bic	r3, r2, r3
 2072              	.LVL227:
 961:STM32F10x_StdPeriph_Driver/src/stm32f10x_adc.c ****     /* Calculate the mask to set */
 962:STM32F10x_StdPeriph_Driver/src/stm32f10x_adc.c ****     tmpreg2 = (uint32_t)ADC_SampleTime << (3 * ADC_Channel);
 2073              		.loc 1 962 0
 2074 0084 8F40     		lsls	r7, r7, r1
 2075              	.LVL228:
 963:STM32F10x_StdPeriph_Driver/src/stm32f10x_adc.c ****     /* Set the new channel sample time */
 964:STM32F10x_StdPeriph_Driver/src/stm32f10x_adc.c ****     tmpreg1 |= tmpreg2;
 2076              		.loc 1 964 0
 2077 0086 1F43     		orrs	r7, r7, r3
 2078              	.LVL229:
 965:STM32F10x_StdPeriph_Driver/src/stm32f10x_adc.c ****     /* Store the new register value */
 966:STM32F10x_StdPeriph_Driver/src/stm32f10x_adc.c ****     ADCx->SMPR2 = tmpreg1;
 2079              		.loc 1 966 0
 2080 0088 3761     		str	r7, [r6, #16]
 2081              	.L180:
 967:STM32F10x_StdPeriph_Driver/src/stm32f10x_adc.c ****   }
 968:STM32F10x_StdPeriph_Driver/src/stm32f10x_adc.c ****   /* Rank configuration */
 969:STM32F10x_StdPeriph_Driver/src/stm32f10x_adc.c ****   /* Get the old register value */
 970:STM32F10x_StdPeriph_Driver/src/stm32f10x_adc.c ****   tmpreg1 = ADCx->JSQR;
 2082              		.loc 1 970 0
 2083 008a B36B     		ldr	r3, [r6, #56]
 2084              	.LVL230:
 971:STM32F10x_StdPeriph_Driver/src/stm32f10x_adc.c ****   /* Get JL value: Number = JL+1 */
 972:STM32F10x_StdPeriph_Driver/src/stm32f10x_adc.c ****   tmpreg3 =  (tmpreg1 & JSQR_JL_Set)>> 20;
 2085              		.loc 1 972 0
 2086 008c C3F30152 		ubfx	r2, r3, #20, #2
 2087              	.LVL231:
 973:STM32F10x_StdPeriph_Driver/src/stm32f10x_adc.c ****   /* Calculate the mask to clear: ((Rank-1)+(4-JL-1)) */
 974:STM32F10x_StdPeriph_Driver/src/stm32f10x_adc.c ****   tmpreg2 = JSQR_JSQ_Set << (5 * (uint8_t)((Rank + 3) - (tmpreg3 + 1)));
 2088              		.loc 1 974 0
 2089 0090 A41A     		subs	r4, r4, r2
 2090 0092 0234     		adds	r4, r4, #2
 2091 0094 E4B2     		uxtb	r4, r4
 2092 0096 04EB8404 		add	r4, r4, r4, lsl #2
 2093 009a 1F22     		movs	r2, #31
 2094              	.LVL232:
 2095 009c A240     		lsls	r2, r2, r4
ARM GAS  /var/folders/g9/bbpj86ld7fx45vd1b3pqxmp00000gn/T//cc7tuhUR.s 			page 54


 2096              	.LVL233:
 975:STM32F10x_StdPeriph_Driver/src/stm32f10x_adc.c ****   /* Clear the old JSQx bits for the selected rank */
 976:STM32F10x_StdPeriph_Driver/src/stm32f10x_adc.c ****   tmpreg1 &= ~tmpreg2;
 2097              		.loc 1 976 0
 2098 009e 23EA0203 		bic	r3, r3, r2
 2099              	.LVL234:
 977:STM32F10x_StdPeriph_Driver/src/stm32f10x_adc.c ****   /* Calculate the mask to set: ((Rank-1)+(4-JL-1)) */
 978:STM32F10x_StdPeriph_Driver/src/stm32f10x_adc.c ****   tmpreg2 = (uint32_t)ADC_Channel << (5 * (uint8_t)((Rank + 3) - (tmpreg3 + 1)));
 2100              		.loc 1 978 0
 2101 00a2 05FA04F4 		lsl	r4, r5, r4
 2102              	.LVL235:
 979:STM32F10x_StdPeriph_Driver/src/stm32f10x_adc.c ****   /* Set the JSQx bits for the selected rank */
 980:STM32F10x_StdPeriph_Driver/src/stm32f10x_adc.c ****   tmpreg1 |= tmpreg2;
 2103              		.loc 1 980 0
 2104 00a6 1C43     		orrs	r4, r4, r3
 2105              	.LVL236:
 981:STM32F10x_StdPeriph_Driver/src/stm32f10x_adc.c ****   /* Store the new register value */
 982:STM32F10x_StdPeriph_Driver/src/stm32f10x_adc.c ****   ADCx->JSQR = tmpreg1;
 2106              		.loc 1 982 0
 2107 00a8 B463     		str	r4, [r6, #56]
 2108 00aa F8BD     		pop	{r3, r4, r5, r6, r7, pc}
 2109              	.LVL237:
 2110              	.L183:
 2111              		.align	2
 2112              	.L182:
 2113 00ac 00240140 		.word	1073816576
 2114 00b0 00000000 		.word	.LC0
 2115              		.cfi_endproc
 2116              	.LFE51:
 2118              		.section	.text.ADC_InjectedSequencerLengthConfig,"ax",%progbits
 2119              		.align	2
 2120              		.global	ADC_InjectedSequencerLengthConfig
 2121              		.thumb
 2122              		.thumb_func
 2124              	ADC_InjectedSequencerLengthConfig:
 2125              	.LFB52:
 983:STM32F10x_StdPeriph_Driver/src/stm32f10x_adc.c **** }
 984:STM32F10x_StdPeriph_Driver/src/stm32f10x_adc.c **** 
 985:STM32F10x_StdPeriph_Driver/src/stm32f10x_adc.c **** /**
 986:STM32F10x_StdPeriph_Driver/src/stm32f10x_adc.c ****   * @brief  Configures the sequencer length for injected channels
 987:STM32F10x_StdPeriph_Driver/src/stm32f10x_adc.c ****   * @param  ADCx: where x can be 1, 2 or 3 to select the ADC peripheral.
 988:STM32F10x_StdPeriph_Driver/src/stm32f10x_adc.c ****   * @param  Length: The sequencer length. 
 989:STM32F10x_StdPeriph_Driver/src/stm32f10x_adc.c ****   *   This parameter must be a number between 1 to 4.
 990:STM32F10x_StdPeriph_Driver/src/stm32f10x_adc.c ****   * @retval None
 991:STM32F10x_StdPeriph_Driver/src/stm32f10x_adc.c ****   */
 992:STM32F10x_StdPeriph_Driver/src/stm32f10x_adc.c **** void ADC_InjectedSequencerLengthConfig(ADC_TypeDef* ADCx, uint8_t Length)
 993:STM32F10x_StdPeriph_Driver/src/stm32f10x_adc.c **** {
 2126              		.loc 1 993 0
 2127              		.cfi_startproc
 2128              		@ args = 0, pretend = 0, frame = 0
 2129              		@ frame_needed = 0, uses_anonymous_args = 0
 2130              	.LVL238:
 2131 0000 38B5     		push	{r3, r4, r5, lr}
 2132              	.LCFI23:
 2133              		.cfi_def_cfa_offset 16
 2134              		.cfi_offset 3, -16
 2135              		.cfi_offset 4, -12
ARM GAS  /var/folders/g9/bbpj86ld7fx45vd1b3pqxmp00000gn/T//cc7tuhUR.s 			page 55


 2136              		.cfi_offset 5, -8
 2137              		.cfi_offset 14, -4
 2138 0002 0446     		mov	r4, r0
 2139 0004 0D46     		mov	r5, r1
 2140              	.LVL239:
 994:STM32F10x_StdPeriph_Driver/src/stm32f10x_adc.c ****   uint32_t tmpreg1 = 0;
 995:STM32F10x_StdPeriph_Driver/src/stm32f10x_adc.c ****   uint32_t tmpreg2 = 0;
 996:STM32F10x_StdPeriph_Driver/src/stm32f10x_adc.c ****   /* Check the parameters */
 997:STM32F10x_StdPeriph_Driver/src/stm32f10x_adc.c ****   assert_param(IS_ADC_ALL_PERIPH(ADCx));
 2141              		.loc 1 997 0
 2142 0006 104B     		ldr	r3, .L188
 2143 0008 9842     		cmp	r0, r3
 2144 000a 0CD0     		beq	.L185
 2145              		.loc 1 997 0 is_stmt 0 discriminator 1
 2146 000c 03F58063 		add	r3, r3, #1024
 2147 0010 9842     		cmp	r0, r3
 2148 0012 08D0     		beq	.L185
 2149              		.loc 1 997 0 discriminator 2
 2150 0014 03F5A053 		add	r3, r3, #5120
 2151 0018 9842     		cmp	r0, r3
 2152 001a 04D0     		beq	.L185
 2153              		.loc 1 997 0 discriminator 3
 2154 001c 40F2E531 		movw	r1, #997
 2155              	.LVL240:
 2156 0020 0A48     		ldr	r0, .L188+4
 2157              	.LVL241:
 2158 0022 FFF7FEFF 		bl	assert_failed
 2159              	.LVL242:
 2160              	.L185:
 998:STM32F10x_StdPeriph_Driver/src/stm32f10x_adc.c ****   assert_param(IS_ADC_INJECTED_LENGTH(Length));
 2161              		.loc 1 998 0 is_stmt 1
 2162 0026 6B1E     		subs	r3, r5, #1
 2163 0028 DBB2     		uxtb	r3, r3
 2164 002a 032B     		cmp	r3, #3
 2165 002c 04D9     		bls	.L186
 2166              		.loc 1 998 0 is_stmt 0 discriminator 1
 2167 002e 40F2E631 		movw	r1, #998
 2168 0032 0648     		ldr	r0, .L188+4
 2169 0034 FFF7FEFF 		bl	assert_failed
 2170              	.LVL243:
 2171              	.L186:
 999:STM32F10x_StdPeriph_Driver/src/stm32f10x_adc.c ****   
1000:STM32F10x_StdPeriph_Driver/src/stm32f10x_adc.c ****   /* Get the old register value */
1001:STM32F10x_StdPeriph_Driver/src/stm32f10x_adc.c ****   tmpreg1 = ADCx->JSQR;
 2172              		.loc 1 1001 0 is_stmt 1
 2173 0038 A16B     		ldr	r1, [r4, #56]
 2174              	.LVL244:
1002:STM32F10x_StdPeriph_Driver/src/stm32f10x_adc.c ****   /* Clear the old injected sequnence lenght JL bits */
1003:STM32F10x_StdPeriph_Driver/src/stm32f10x_adc.c ****   tmpreg1 &= JSQR_JL_Reset;
 2175              		.loc 1 1003 0
 2176 003a 21F44013 		bic	r3, r1, #3145728
 2177              	.LVL245:
1004:STM32F10x_StdPeriph_Driver/src/stm32f10x_adc.c ****   /* Set the injected sequnence lenght JL bits */
1005:STM32F10x_StdPeriph_Driver/src/stm32f10x_adc.c ****   tmpreg2 = Length - 1; 
 2178              		.loc 1 1005 0
 2179 003e 691E     		subs	r1, r5, #1
 2180              	.LVL246:
ARM GAS  /var/folders/g9/bbpj86ld7fx45vd1b3pqxmp00000gn/T//cc7tuhUR.s 			page 56


1006:STM32F10x_StdPeriph_Driver/src/stm32f10x_adc.c ****   tmpreg1 |= tmpreg2 << 20;
 2181              		.loc 1 1006 0
 2182 0040 43EA0151 		orr	r1, r3, r1, lsl #20
 2183              	.LVL247:
1007:STM32F10x_StdPeriph_Driver/src/stm32f10x_adc.c ****   /* Store the new register value */
1008:STM32F10x_StdPeriph_Driver/src/stm32f10x_adc.c ****   ADCx->JSQR = tmpreg1;
 2184              		.loc 1 1008 0
 2185 0044 A163     		str	r1, [r4, #56]
 2186 0046 38BD     		pop	{r3, r4, r5, pc}
 2187              	.LVL248:
 2188              	.L189:
 2189              		.align	2
 2190              	.L188:
 2191 0048 00240140 		.word	1073816576
 2192 004c 00000000 		.word	.LC0
 2193              		.cfi_endproc
 2194              	.LFE52:
 2196              		.section	.text.ADC_SetInjectedOffset,"ax",%progbits
 2197              		.align	2
 2198              		.global	ADC_SetInjectedOffset
 2199              		.thumb
 2200              		.thumb_func
 2202              	ADC_SetInjectedOffset:
 2203              	.LFB53:
1009:STM32F10x_StdPeriph_Driver/src/stm32f10x_adc.c **** }
1010:STM32F10x_StdPeriph_Driver/src/stm32f10x_adc.c **** 
1011:STM32F10x_StdPeriph_Driver/src/stm32f10x_adc.c **** /**
1012:STM32F10x_StdPeriph_Driver/src/stm32f10x_adc.c ****   * @brief  Set the injected channels conversion value offset
1013:STM32F10x_StdPeriph_Driver/src/stm32f10x_adc.c ****   * @param  ADCx: where x can be 1, 2 or 3 to select the ADC peripheral.
1014:STM32F10x_StdPeriph_Driver/src/stm32f10x_adc.c ****   * @param  ADC_InjectedChannel: the ADC injected channel to set its offset. 
1015:STM32F10x_StdPeriph_Driver/src/stm32f10x_adc.c ****   *   This parameter can be one of the following values:
1016:STM32F10x_StdPeriph_Driver/src/stm32f10x_adc.c ****   *     @arg ADC_InjectedChannel_1: Injected Channel1 selected
1017:STM32F10x_StdPeriph_Driver/src/stm32f10x_adc.c ****   *     @arg ADC_InjectedChannel_2: Injected Channel2 selected
1018:STM32F10x_StdPeriph_Driver/src/stm32f10x_adc.c ****   *     @arg ADC_InjectedChannel_3: Injected Channel3 selected
1019:STM32F10x_StdPeriph_Driver/src/stm32f10x_adc.c ****   *     @arg ADC_InjectedChannel_4: Injected Channel4 selected
1020:STM32F10x_StdPeriph_Driver/src/stm32f10x_adc.c ****   * @param  Offset: the offset value for the selected ADC injected channel
1021:STM32F10x_StdPeriph_Driver/src/stm32f10x_adc.c ****   *   This parameter must be a 12bit value.
1022:STM32F10x_StdPeriph_Driver/src/stm32f10x_adc.c ****   * @retval None
1023:STM32F10x_StdPeriph_Driver/src/stm32f10x_adc.c ****   */
1024:STM32F10x_StdPeriph_Driver/src/stm32f10x_adc.c **** void ADC_SetInjectedOffset(ADC_TypeDef* ADCx, uint8_t ADC_InjectedChannel, uint16_t Offset)
1025:STM32F10x_StdPeriph_Driver/src/stm32f10x_adc.c **** {
 2204              		.loc 1 1025 0
 2205              		.cfi_startproc
 2206              		@ args = 0, pretend = 0, frame = 8
 2207              		@ frame_needed = 0, uses_anonymous_args = 0
 2208              	.LVL249:
 2209 0000 70B5     		push	{r4, r5, r6, lr}
 2210              	.LCFI24:
 2211              		.cfi_def_cfa_offset 16
 2212              		.cfi_offset 4, -16
 2213              		.cfi_offset 5, -12
 2214              		.cfi_offset 6, -8
 2215              		.cfi_offset 14, -4
 2216 0002 82B0     		sub	sp, sp, #8
 2217              	.LCFI25:
 2218              		.cfi_def_cfa_offset 24
 2219 0004 0546     		mov	r5, r0
ARM GAS  /var/folders/g9/bbpj86ld7fx45vd1b3pqxmp00000gn/T//cc7tuhUR.s 			page 57


 2220 0006 0C46     		mov	r4, r1
 2221 0008 1646     		mov	r6, r2
1026:STM32F10x_StdPeriph_Driver/src/stm32f10x_adc.c ****   __IO uint32_t tmp = 0;
 2222              		.loc 1 1026 0
 2223 000a 0023     		movs	r3, #0
 2224 000c 0193     		str	r3, [sp, #4]
1027:STM32F10x_StdPeriph_Driver/src/stm32f10x_adc.c ****   
1028:STM32F10x_StdPeriph_Driver/src/stm32f10x_adc.c ****   /* Check the parameters */
1029:STM32F10x_StdPeriph_Driver/src/stm32f10x_adc.c ****   assert_param(IS_ADC_ALL_PERIPH(ADCx));
 2225              		.loc 1 1029 0
 2226 000e 164B     		ldr	r3, .L195
 2227 0010 9842     		cmp	r0, r3
 2228 0012 0CD0     		beq	.L191
 2229              		.loc 1 1029 0 is_stmt 0 discriminator 1
 2230 0014 03F58063 		add	r3, r3, #1024
 2231 0018 9842     		cmp	r0, r3
 2232 001a 08D0     		beq	.L191
 2233              		.loc 1 1029 0 discriminator 2
 2234 001c 03F5A053 		add	r3, r3, #5120
 2235 0020 9842     		cmp	r0, r3
 2236 0022 04D0     		beq	.L191
 2237              		.loc 1 1029 0 discriminator 3
 2238 0024 40F20541 		movw	r1, #1029
 2239              	.LVL250:
 2240 0028 1048     		ldr	r0, .L195+4
 2241              	.LVL251:
 2242 002a FFF7FEFF 		bl	assert_failed
 2243              	.LVL252:
 2244              	.L191:
1030:STM32F10x_StdPeriph_Driver/src/stm32f10x_adc.c ****   assert_param(IS_ADC_INJECTED_CHANNEL(ADC_InjectedChannel));
 2245              		.loc 1 1030 0 is_stmt 1
 2246 002e 142C     		cmp	r4, #20
 2247 0030 0AD0     		beq	.L192
 2248              		.loc 1 1030 0 is_stmt 0 discriminator 1
 2249 0032 182C     		cmp	r4, #24
 2250 0034 08D0     		beq	.L192
 2251              		.loc 1 1030 0 discriminator 2
 2252 0036 1C2C     		cmp	r4, #28
 2253 0038 06D0     		beq	.L192
 2254              		.loc 1 1030 0 discriminator 3
 2255 003a 202C     		cmp	r4, #32
 2256 003c 04D0     		beq	.L192
 2257              		.loc 1 1030 0 discriminator 4
 2258 003e 40F20641 		movw	r1, #1030
 2259 0042 0A48     		ldr	r0, .L195+4
 2260 0044 FFF7FEFF 		bl	assert_failed
 2261              	.LVL253:
 2262              	.L192:
1031:STM32F10x_StdPeriph_Driver/src/stm32f10x_adc.c ****   assert_param(IS_ADC_OFFSET(Offset));  
 2263              		.loc 1 1031 0 is_stmt 1
 2264 0048 B6F5805F 		cmp	r6, #4096
 2265 004c 04D3     		bcc	.L193
 2266              		.loc 1 1031 0 is_stmt 0 discriminator 1
 2267 004e 40F20741 		movw	r1, #1031
 2268 0052 0648     		ldr	r0, .L195+4
 2269 0054 FFF7FEFF 		bl	assert_failed
 2270              	.LVL254:
ARM GAS  /var/folders/g9/bbpj86ld7fx45vd1b3pqxmp00000gn/T//cc7tuhUR.s 			page 58


 2271              	.L193:
1032:STM32F10x_StdPeriph_Driver/src/stm32f10x_adc.c ****   
1033:STM32F10x_StdPeriph_Driver/src/stm32f10x_adc.c ****   tmp = (uint32_t)ADCx;
 2272              		.loc 1 1033 0 is_stmt 1
 2273 0058 0195     		str	r5, [sp, #4]
1034:STM32F10x_StdPeriph_Driver/src/stm32f10x_adc.c ****   tmp += ADC_InjectedChannel;
 2274              		.loc 1 1034 0
 2275 005a 019B     		ldr	r3, [sp, #4]
 2276 005c 1C44     		add	r4, r4, r3
 2277 005e 0194     		str	r4, [sp, #4]
1035:STM32F10x_StdPeriph_Driver/src/stm32f10x_adc.c ****   
1036:STM32F10x_StdPeriph_Driver/src/stm32f10x_adc.c ****   /* Set the selected injected channel data offset */
1037:STM32F10x_StdPeriph_Driver/src/stm32f10x_adc.c ****   *(__IO uint32_t *) tmp = (uint32_t)Offset;
 2278              		.loc 1 1037 0
 2279 0060 019B     		ldr	r3, [sp, #4]
 2280 0062 1E60     		str	r6, [r3]
1038:STM32F10x_StdPeriph_Driver/src/stm32f10x_adc.c **** }
 2281              		.loc 1 1038 0
 2282 0064 02B0     		add	sp, sp, #8
 2283              	.LCFI26:
 2284              		.cfi_def_cfa_offset 16
 2285              		@ sp needed
 2286 0066 70BD     		pop	{r4, r5, r6, pc}
 2287              	.LVL255:
 2288              	.L196:
 2289              		.align	2
 2290              	.L195:
 2291 0068 00240140 		.word	1073816576
 2292 006c 00000000 		.word	.LC0
 2293              		.cfi_endproc
 2294              	.LFE53:
 2296              		.section	.text.ADC_GetInjectedConversionValue,"ax",%progbits
 2297              		.align	2
 2298              		.global	ADC_GetInjectedConversionValue
 2299              		.thumb
 2300              		.thumb_func
 2302              	ADC_GetInjectedConversionValue:
 2303              	.LFB54:
1039:STM32F10x_StdPeriph_Driver/src/stm32f10x_adc.c **** 
1040:STM32F10x_StdPeriph_Driver/src/stm32f10x_adc.c **** /**
1041:STM32F10x_StdPeriph_Driver/src/stm32f10x_adc.c ****   * @brief  Returns the ADC injected channel conversion result
1042:STM32F10x_StdPeriph_Driver/src/stm32f10x_adc.c ****   * @param  ADCx: where x can be 1, 2 or 3 to select the ADC peripheral.
1043:STM32F10x_StdPeriph_Driver/src/stm32f10x_adc.c ****   * @param  ADC_InjectedChannel: the converted ADC injected channel.
1044:STM32F10x_StdPeriph_Driver/src/stm32f10x_adc.c ****   *   This parameter can be one of the following values:
1045:STM32F10x_StdPeriph_Driver/src/stm32f10x_adc.c ****   *     @arg ADC_InjectedChannel_1: Injected Channel1 selected
1046:STM32F10x_StdPeriph_Driver/src/stm32f10x_adc.c ****   *     @arg ADC_InjectedChannel_2: Injected Channel2 selected
1047:STM32F10x_StdPeriph_Driver/src/stm32f10x_adc.c ****   *     @arg ADC_InjectedChannel_3: Injected Channel3 selected
1048:STM32F10x_StdPeriph_Driver/src/stm32f10x_adc.c ****   *     @arg ADC_InjectedChannel_4: Injected Channel4 selected
1049:STM32F10x_StdPeriph_Driver/src/stm32f10x_adc.c ****   * @retval The Data conversion value.
1050:STM32F10x_StdPeriph_Driver/src/stm32f10x_adc.c ****   */
1051:STM32F10x_StdPeriph_Driver/src/stm32f10x_adc.c **** uint16_t ADC_GetInjectedConversionValue(ADC_TypeDef* ADCx, uint8_t ADC_InjectedChannel)
1052:STM32F10x_StdPeriph_Driver/src/stm32f10x_adc.c **** {
 2304              		.loc 1 1052 0
 2305              		.cfi_startproc
 2306              		@ args = 0, pretend = 0, frame = 8
 2307              		@ frame_needed = 0, uses_anonymous_args = 0
 2308              	.LVL256:
ARM GAS  /var/folders/g9/bbpj86ld7fx45vd1b3pqxmp00000gn/T//cc7tuhUR.s 			page 59


 2309 0000 30B5     		push	{r4, r5, lr}
 2310              	.LCFI27:
 2311              		.cfi_def_cfa_offset 12
 2312              		.cfi_offset 4, -12
 2313              		.cfi_offset 5, -8
 2314              		.cfi_offset 14, -4
 2315 0002 83B0     		sub	sp, sp, #12
 2316              	.LCFI28:
 2317              		.cfi_def_cfa_offset 24
 2318 0004 0546     		mov	r5, r0
 2319 0006 0C46     		mov	r4, r1
1053:STM32F10x_StdPeriph_Driver/src/stm32f10x_adc.c ****   __IO uint32_t tmp = 0;
 2320              		.loc 1 1053 0
 2321 0008 0023     		movs	r3, #0
 2322 000a 0193     		str	r3, [sp, #4]
1054:STM32F10x_StdPeriph_Driver/src/stm32f10x_adc.c ****   
1055:STM32F10x_StdPeriph_Driver/src/stm32f10x_adc.c ****   /* Check the parameters */
1056:STM32F10x_StdPeriph_Driver/src/stm32f10x_adc.c ****   assert_param(IS_ADC_ALL_PERIPH(ADCx));
 2323              		.loc 1 1056 0
 2324 000c 134B     		ldr	r3, .L201
 2325 000e 9842     		cmp	r0, r3
 2326 0010 0CD0     		beq	.L198
 2327              		.loc 1 1056 0 is_stmt 0 discriminator 1
 2328 0012 03F58063 		add	r3, r3, #1024
 2329 0016 9842     		cmp	r0, r3
 2330 0018 08D0     		beq	.L198
 2331              		.loc 1 1056 0 discriminator 2
 2332 001a 03F5A053 		add	r3, r3, #5120
 2333 001e 9842     		cmp	r0, r3
 2334 0020 04D0     		beq	.L198
 2335              		.loc 1 1056 0 discriminator 3
 2336 0022 4FF48461 		mov	r1, #1056
 2337              	.LVL257:
 2338 0026 0E48     		ldr	r0, .L201+4
 2339              	.LVL258:
 2340 0028 FFF7FEFF 		bl	assert_failed
 2341              	.LVL259:
 2342              	.L198:
1057:STM32F10x_StdPeriph_Driver/src/stm32f10x_adc.c ****   assert_param(IS_ADC_INJECTED_CHANNEL(ADC_InjectedChannel));
 2343              		.loc 1 1057 0 is_stmt 1
 2344 002c 142C     		cmp	r4, #20
 2345 002e 0AD0     		beq	.L199
 2346              		.loc 1 1057 0 is_stmt 0 discriminator 1
 2347 0030 182C     		cmp	r4, #24
 2348 0032 08D0     		beq	.L199
 2349              		.loc 1 1057 0 discriminator 2
 2350 0034 1C2C     		cmp	r4, #28
 2351 0036 06D0     		beq	.L199
 2352              		.loc 1 1057 0 discriminator 3
 2353 0038 202C     		cmp	r4, #32
 2354 003a 04D0     		beq	.L199
 2355              		.loc 1 1057 0 discriminator 4
 2356 003c 40F22141 		movw	r1, #1057
 2357 0040 0748     		ldr	r0, .L201+4
 2358 0042 FFF7FEFF 		bl	assert_failed
 2359              	.LVL260:
 2360              	.L199:
ARM GAS  /var/folders/g9/bbpj86ld7fx45vd1b3pqxmp00000gn/T//cc7tuhUR.s 			page 60


1058:STM32F10x_StdPeriph_Driver/src/stm32f10x_adc.c **** 
1059:STM32F10x_StdPeriph_Driver/src/stm32f10x_adc.c ****   tmp = (uint32_t)ADCx;
 2361              		.loc 1 1059 0 is_stmt 1
 2362 0046 0195     		str	r5, [sp, #4]
1060:STM32F10x_StdPeriph_Driver/src/stm32f10x_adc.c ****   tmp += ADC_InjectedChannel + JDR_Offset;
 2363              		.loc 1 1060 0
 2364 0048 0199     		ldr	r1, [sp, #4]
 2365 004a 2144     		add	r1, r1, r4
 2366 004c 2831     		adds	r1, r1, #40
 2367 004e 0191     		str	r1, [sp, #4]
1061:STM32F10x_StdPeriph_Driver/src/stm32f10x_adc.c ****   
1062:STM32F10x_StdPeriph_Driver/src/stm32f10x_adc.c ****   /* Returns the selected injected channel conversion data value */
1063:STM32F10x_StdPeriph_Driver/src/stm32f10x_adc.c ****   return (uint16_t) (*(__IO uint32_t*)  tmp);   
 2368              		.loc 1 1063 0
 2369 0050 019B     		ldr	r3, [sp, #4]
 2370 0052 1868     		ldr	r0, [r3]
1064:STM32F10x_StdPeriph_Driver/src/stm32f10x_adc.c **** }
 2371              		.loc 1 1064 0
 2372 0054 80B2     		uxth	r0, r0
 2373 0056 03B0     		add	sp, sp, #12
 2374              	.LCFI29:
 2375              		.cfi_def_cfa_offset 12
 2376              		@ sp needed
 2377 0058 30BD     		pop	{r4, r5, pc}
 2378              	.LVL261:
 2379              	.L202:
 2380 005a 00BF     		.align	2
 2381              	.L201:
 2382 005c 00240140 		.word	1073816576
 2383 0060 00000000 		.word	.LC0
 2384              		.cfi_endproc
 2385              	.LFE54:
 2387              		.section	.text.ADC_AnalogWatchdogCmd,"ax",%progbits
 2388              		.align	2
 2389              		.global	ADC_AnalogWatchdogCmd
 2390              		.thumb
 2391              		.thumb_func
 2393              	ADC_AnalogWatchdogCmd:
 2394              	.LFB55:
1065:STM32F10x_StdPeriph_Driver/src/stm32f10x_adc.c **** 
1066:STM32F10x_StdPeriph_Driver/src/stm32f10x_adc.c **** /**
1067:STM32F10x_StdPeriph_Driver/src/stm32f10x_adc.c ****   * @brief  Enables or disables the analog watchdog on single/all regular
1068:STM32F10x_StdPeriph_Driver/src/stm32f10x_adc.c ****   *   or injected channels
1069:STM32F10x_StdPeriph_Driver/src/stm32f10x_adc.c ****   * @param  ADCx: where x can be 1, 2 or 3 to select the ADC peripheral.
1070:STM32F10x_StdPeriph_Driver/src/stm32f10x_adc.c ****   * @param  ADC_AnalogWatchdog: the ADC analog watchdog configuration.
1071:STM32F10x_StdPeriph_Driver/src/stm32f10x_adc.c ****   *   This parameter can be one of the following values:
1072:STM32F10x_StdPeriph_Driver/src/stm32f10x_adc.c ****   *     @arg ADC_AnalogWatchdog_SingleRegEnable: Analog watchdog on a single regular channel
1073:STM32F10x_StdPeriph_Driver/src/stm32f10x_adc.c ****   *     @arg ADC_AnalogWatchdog_SingleInjecEnable: Analog watchdog on a single injected channel
1074:STM32F10x_StdPeriph_Driver/src/stm32f10x_adc.c ****   *     @arg ADC_AnalogWatchdog_SingleRegOrInjecEnable: Analog watchdog on a single regular or inje
1075:STM32F10x_StdPeriph_Driver/src/stm32f10x_adc.c ****   *     @arg ADC_AnalogWatchdog_AllRegEnable: Analog watchdog on  all regular channel
1076:STM32F10x_StdPeriph_Driver/src/stm32f10x_adc.c ****   *     @arg ADC_AnalogWatchdog_AllInjecEnable: Analog watchdog on  all injected channel
1077:STM32F10x_StdPeriph_Driver/src/stm32f10x_adc.c ****   *     @arg ADC_AnalogWatchdog_AllRegAllInjecEnable: Analog watchdog on all regular and injected c
1078:STM32F10x_StdPeriph_Driver/src/stm32f10x_adc.c ****   *     @arg ADC_AnalogWatchdog_None: No channel guarded by the analog watchdog
1079:STM32F10x_StdPeriph_Driver/src/stm32f10x_adc.c ****   * @retval None	  
1080:STM32F10x_StdPeriph_Driver/src/stm32f10x_adc.c ****   */
1081:STM32F10x_StdPeriph_Driver/src/stm32f10x_adc.c **** void ADC_AnalogWatchdogCmd(ADC_TypeDef* ADCx, uint32_t ADC_AnalogWatchdog)
1082:STM32F10x_StdPeriph_Driver/src/stm32f10x_adc.c **** {
ARM GAS  /var/folders/g9/bbpj86ld7fx45vd1b3pqxmp00000gn/T//cc7tuhUR.s 			page 61


 2395              		.loc 1 1082 0
 2396              		.cfi_startproc
 2397              		@ args = 0, pretend = 0, frame = 0
 2398              		@ frame_needed = 0, uses_anonymous_args = 0
 2399              	.LVL262:
 2400 0000 38B5     		push	{r3, r4, r5, lr}
 2401              	.LCFI30:
 2402              		.cfi_def_cfa_offset 16
 2403              		.cfi_offset 3, -16
 2404              		.cfi_offset 4, -12
 2405              		.cfi_offset 5, -8
 2406              		.cfi_offset 14, -4
 2407 0002 0546     		mov	r5, r0
 2408 0004 0C46     		mov	r4, r1
 2409              	.LVL263:
1083:STM32F10x_StdPeriph_Driver/src/stm32f10x_adc.c ****   uint32_t tmpreg = 0;
1084:STM32F10x_StdPeriph_Driver/src/stm32f10x_adc.c ****   /* Check the parameters */
1085:STM32F10x_StdPeriph_Driver/src/stm32f10x_adc.c ****   assert_param(IS_ADC_ALL_PERIPH(ADCx));
 2410              		.loc 1 1085 0
 2411 0006 194B     		ldr	r3, .L207
 2412 0008 9842     		cmp	r0, r3
 2413 000a 0CD0     		beq	.L204
 2414              		.loc 1 1085 0 is_stmt 0 discriminator 1
 2415 000c 03F58063 		add	r3, r3, #1024
 2416 0010 9842     		cmp	r0, r3
 2417 0012 08D0     		beq	.L204
 2418              		.loc 1 1085 0 discriminator 2
 2419 0014 03F5A053 		add	r3, r3, #5120
 2420 0018 9842     		cmp	r0, r3
 2421 001a 04D0     		beq	.L204
 2422              		.loc 1 1085 0 discriminator 3
 2423 001c 40F23D41 		movw	r1, #1085
 2424              	.LVL264:
 2425 0020 1348     		ldr	r0, .L207+4
 2426              	.LVL265:
 2427 0022 FFF7FEFF 		bl	assert_failed
 2428              	.LVL266:
 2429              	.L204:
1086:STM32F10x_StdPeriph_Driver/src/stm32f10x_adc.c ****   assert_param(IS_ADC_ANALOG_WATCHDOG(ADC_AnalogWatchdog));
 2430              		.loc 1 1086 0 is_stmt 1
 2431 0026 134B     		ldr	r3, .L207+8
 2432 0028 9C42     		cmp	r4, r3
 2433 002a 16D0     		beq	.L205
 2434              		.loc 1 1086 0 is_stmt 0 discriminator 1
 2435 002c A3F58003 		sub	r3, r3, #4194304
 2436 0030 9C42     		cmp	r4, r3
 2437 0032 12D0     		beq	.L205
 2438              		.loc 1 1086 0 discriminator 2
 2439 0034 03F50003 		add	r3, r3, #8388608
 2440 0038 9C42     		cmp	r4, r3
 2441 003a 0ED0     		beq	.L205
 2442              		.loc 1 1086 0 discriminator 3
 2443 003c B4F5000F 		cmp	r4, #8388608
 2444 0040 0BD0     		beq	.L205
 2445              		.loc 1 1086 0 discriminator 4
 2446 0042 B4F5800F 		cmp	r4, #4194304
 2447 0046 08D0     		beq	.L205
ARM GAS  /var/folders/g9/bbpj86ld7fx45vd1b3pqxmp00000gn/T//cc7tuhUR.s 			page 62


 2448              		.loc 1 1086 0 discriminator 5
 2449 0048 B4F5400F 		cmp	r4, #12582912
 2450 004c 05D0     		beq	.L205
 2451              		.loc 1 1086 0 discriminator 6
 2452 004e 24B1     		cbz	r4, .L205
 2453              		.loc 1 1086 0 discriminator 7
 2454 0050 40F23E41 		movw	r1, #1086
 2455 0054 0648     		ldr	r0, .L207+4
 2456 0056 FFF7FEFF 		bl	assert_failed
 2457              	.LVL267:
 2458              	.L205:
1087:STM32F10x_StdPeriph_Driver/src/stm32f10x_adc.c ****   /* Get the old register value */
1088:STM32F10x_StdPeriph_Driver/src/stm32f10x_adc.c ****   tmpreg = ADCx->CR1;
 2459              		.loc 1 1088 0 is_stmt 1
 2460 005a 6968     		ldr	r1, [r5, #4]
 2461              	.LVL268:
1089:STM32F10x_StdPeriph_Driver/src/stm32f10x_adc.c ****   /* Clear AWDEN, AWDENJ and AWDSGL bits */
1090:STM32F10x_StdPeriph_Driver/src/stm32f10x_adc.c ****   tmpreg &= CR1_AWDMode_Reset;
 2462              		.loc 1 1090 0
 2463 005c 21F44001 		bic	r1, r1, #12582912
 2464              	.LVL269:
 2465 0060 21F40071 		bic	r1, r1, #512
 2466              	.LVL270:
1091:STM32F10x_StdPeriph_Driver/src/stm32f10x_adc.c ****   /* Set the analog watchdog enable mode */
1092:STM32F10x_StdPeriph_Driver/src/stm32f10x_adc.c ****   tmpreg |= ADC_AnalogWatchdog;
 2467              		.loc 1 1092 0
 2468 0064 2143     		orrs	r1, r1, r4
 2469              	.LVL271:
1093:STM32F10x_StdPeriph_Driver/src/stm32f10x_adc.c ****   /* Store the new register value */
1094:STM32F10x_StdPeriph_Driver/src/stm32f10x_adc.c ****   ADCx->CR1 = tmpreg;
 2470              		.loc 1 1094 0
 2471 0066 6960     		str	r1, [r5, #4]
 2472 0068 38BD     		pop	{r3, r4, r5, pc}
 2473              	.LVL272:
 2474              	.L208:
 2475 006a 00BF     		.align	2
 2476              	.L207:
 2477 006c 00240140 		.word	1073816576
 2478 0070 00000000 		.word	.LC0
 2479 0074 00028000 		.word	8389120
 2480              		.cfi_endproc
 2481              	.LFE55:
 2483              		.section	.text.ADC_AnalogWatchdogThresholdsConfig,"ax",%progbits
 2484              		.align	2
 2485              		.global	ADC_AnalogWatchdogThresholdsConfig
 2486              		.thumb
 2487              		.thumb_func
 2489              	ADC_AnalogWatchdogThresholdsConfig:
 2490              	.LFB56:
1095:STM32F10x_StdPeriph_Driver/src/stm32f10x_adc.c **** }
1096:STM32F10x_StdPeriph_Driver/src/stm32f10x_adc.c **** 
1097:STM32F10x_StdPeriph_Driver/src/stm32f10x_adc.c **** /**
1098:STM32F10x_StdPeriph_Driver/src/stm32f10x_adc.c ****   * @brief  Configures the high and low thresholds of the analog watchdog.
1099:STM32F10x_StdPeriph_Driver/src/stm32f10x_adc.c ****   * @param  ADCx: where x can be 1, 2 or 3 to select the ADC peripheral.
1100:STM32F10x_StdPeriph_Driver/src/stm32f10x_adc.c ****   * @param  HighThreshold: the ADC analog watchdog High threshold value.
1101:STM32F10x_StdPeriph_Driver/src/stm32f10x_adc.c ****   *   This parameter must be a 12bit value.
1102:STM32F10x_StdPeriph_Driver/src/stm32f10x_adc.c ****   * @param  LowThreshold: the ADC analog watchdog Low threshold value.
ARM GAS  /var/folders/g9/bbpj86ld7fx45vd1b3pqxmp00000gn/T//cc7tuhUR.s 			page 63


1103:STM32F10x_StdPeriph_Driver/src/stm32f10x_adc.c ****   *   This parameter must be a 12bit value.
1104:STM32F10x_StdPeriph_Driver/src/stm32f10x_adc.c ****   * @retval None
1105:STM32F10x_StdPeriph_Driver/src/stm32f10x_adc.c ****   */
1106:STM32F10x_StdPeriph_Driver/src/stm32f10x_adc.c **** void ADC_AnalogWatchdogThresholdsConfig(ADC_TypeDef* ADCx, uint16_t HighThreshold,
1107:STM32F10x_StdPeriph_Driver/src/stm32f10x_adc.c ****                                         uint16_t LowThreshold)
1108:STM32F10x_StdPeriph_Driver/src/stm32f10x_adc.c **** {
 2491              		.loc 1 1108 0
 2492              		.cfi_startproc
 2493              		@ args = 0, pretend = 0, frame = 0
 2494              		@ frame_needed = 0, uses_anonymous_args = 0
 2495              	.LVL273:
 2496 0000 70B5     		push	{r4, r5, r6, lr}
 2497              	.LCFI31:
 2498              		.cfi_def_cfa_offset 16
 2499              		.cfi_offset 4, -16
 2500              		.cfi_offset 5, -12
 2501              		.cfi_offset 6, -8
 2502              		.cfi_offset 14, -4
 2503 0002 0446     		mov	r4, r0
 2504 0004 0E46     		mov	r6, r1
 2505 0006 1546     		mov	r5, r2
1109:STM32F10x_StdPeriph_Driver/src/stm32f10x_adc.c ****   /* Check the parameters */
1110:STM32F10x_StdPeriph_Driver/src/stm32f10x_adc.c ****   assert_param(IS_ADC_ALL_PERIPH(ADCx));
 2506              		.loc 1 1110 0
 2507 0008 114B     		ldr	r3, .L214
 2508 000a 9842     		cmp	r0, r3
 2509 000c 0CD0     		beq	.L210
 2510              		.loc 1 1110 0 is_stmt 0 discriminator 1
 2511 000e 03F58063 		add	r3, r3, #1024
 2512 0012 9842     		cmp	r0, r3
 2513 0014 08D0     		beq	.L210
 2514              		.loc 1 1110 0 discriminator 2
 2515 0016 03F5A053 		add	r3, r3, #5120
 2516 001a 9842     		cmp	r0, r3
 2517 001c 04D0     		beq	.L210
 2518              		.loc 1 1110 0 discriminator 3
 2519 001e 40F25641 		movw	r1, #1110
 2520              	.LVL274:
 2521 0022 0C48     		ldr	r0, .L214+4
 2522              	.LVL275:
 2523 0024 FFF7FEFF 		bl	assert_failed
 2524              	.LVL276:
 2525              	.L210:
1111:STM32F10x_StdPeriph_Driver/src/stm32f10x_adc.c ****   assert_param(IS_ADC_THRESHOLD(HighThreshold));
 2526              		.loc 1 1111 0 is_stmt 1
 2527 0028 B6F5805F 		cmp	r6, #4096
 2528 002c 04D3     		bcc	.L211
 2529              		.loc 1 1111 0 is_stmt 0 discriminator 1
 2530 002e 40F25741 		movw	r1, #1111
 2531 0032 0848     		ldr	r0, .L214+4
 2532 0034 FFF7FEFF 		bl	assert_failed
 2533              	.LVL277:
 2534              	.L211:
1112:STM32F10x_StdPeriph_Driver/src/stm32f10x_adc.c ****   assert_param(IS_ADC_THRESHOLD(LowThreshold));
 2535              		.loc 1 1112 0 is_stmt 1
 2536 0038 B5F5805F 		cmp	r5, #4096
 2537 003c 04D3     		bcc	.L212
ARM GAS  /var/folders/g9/bbpj86ld7fx45vd1b3pqxmp00000gn/T//cc7tuhUR.s 			page 64


 2538              		.loc 1 1112 0 is_stmt 0 discriminator 1
 2539 003e 4FF48B61 		mov	r1, #1112
 2540 0042 0448     		ldr	r0, .L214+4
 2541 0044 FFF7FEFF 		bl	assert_failed
 2542              	.LVL278:
 2543              	.L212:
1113:STM32F10x_StdPeriph_Driver/src/stm32f10x_adc.c ****   /* Set the ADCx high threshold */
1114:STM32F10x_StdPeriph_Driver/src/stm32f10x_adc.c ****   ADCx->HTR = HighThreshold;
 2544              		.loc 1 1114 0 is_stmt 1
 2545 0048 6662     		str	r6, [r4, #36]
1115:STM32F10x_StdPeriph_Driver/src/stm32f10x_adc.c ****   /* Set the ADCx low threshold */
1116:STM32F10x_StdPeriph_Driver/src/stm32f10x_adc.c ****   ADCx->LTR = LowThreshold;
 2546              		.loc 1 1116 0
 2547 004a A562     		str	r5, [r4, #40]
 2548 004c 70BD     		pop	{r4, r5, r6, pc}
 2549              	.LVL279:
 2550              	.L215:
 2551 004e 00BF     		.align	2
 2552              	.L214:
 2553 0050 00240140 		.word	1073816576
 2554 0054 00000000 		.word	.LC0
 2555              		.cfi_endproc
 2556              	.LFE56:
 2558              		.section	.text.ADC_AnalogWatchdogSingleChannelConfig,"ax",%progbits
 2559              		.align	2
 2560              		.global	ADC_AnalogWatchdogSingleChannelConfig
 2561              		.thumb
 2562              		.thumb_func
 2564              	ADC_AnalogWatchdogSingleChannelConfig:
 2565              	.LFB57:
1117:STM32F10x_StdPeriph_Driver/src/stm32f10x_adc.c **** }
1118:STM32F10x_StdPeriph_Driver/src/stm32f10x_adc.c **** 
1119:STM32F10x_StdPeriph_Driver/src/stm32f10x_adc.c **** /**
1120:STM32F10x_StdPeriph_Driver/src/stm32f10x_adc.c ****   * @brief  Configures the analog watchdog guarded single channel
1121:STM32F10x_StdPeriph_Driver/src/stm32f10x_adc.c ****   * @param  ADCx: where x can be 1, 2 or 3 to select the ADC peripheral.
1122:STM32F10x_StdPeriph_Driver/src/stm32f10x_adc.c ****   * @param  ADC_Channel: the ADC channel to configure for the analog watchdog. 
1123:STM32F10x_StdPeriph_Driver/src/stm32f10x_adc.c ****   *   This parameter can be one of the following values:
1124:STM32F10x_StdPeriph_Driver/src/stm32f10x_adc.c ****   *     @arg ADC_Channel_0: ADC Channel0 selected
1125:STM32F10x_StdPeriph_Driver/src/stm32f10x_adc.c ****   *     @arg ADC_Channel_1: ADC Channel1 selected
1126:STM32F10x_StdPeriph_Driver/src/stm32f10x_adc.c ****   *     @arg ADC_Channel_2: ADC Channel2 selected
1127:STM32F10x_StdPeriph_Driver/src/stm32f10x_adc.c ****   *     @arg ADC_Channel_3: ADC Channel3 selected
1128:STM32F10x_StdPeriph_Driver/src/stm32f10x_adc.c ****   *     @arg ADC_Channel_4: ADC Channel4 selected
1129:STM32F10x_StdPeriph_Driver/src/stm32f10x_adc.c ****   *     @arg ADC_Channel_5: ADC Channel5 selected
1130:STM32F10x_StdPeriph_Driver/src/stm32f10x_adc.c ****   *     @arg ADC_Channel_6: ADC Channel6 selected
1131:STM32F10x_StdPeriph_Driver/src/stm32f10x_adc.c ****   *     @arg ADC_Channel_7: ADC Channel7 selected
1132:STM32F10x_StdPeriph_Driver/src/stm32f10x_adc.c ****   *     @arg ADC_Channel_8: ADC Channel8 selected
1133:STM32F10x_StdPeriph_Driver/src/stm32f10x_adc.c ****   *     @arg ADC_Channel_9: ADC Channel9 selected
1134:STM32F10x_StdPeriph_Driver/src/stm32f10x_adc.c ****   *     @arg ADC_Channel_10: ADC Channel10 selected
1135:STM32F10x_StdPeriph_Driver/src/stm32f10x_adc.c ****   *     @arg ADC_Channel_11: ADC Channel11 selected
1136:STM32F10x_StdPeriph_Driver/src/stm32f10x_adc.c ****   *     @arg ADC_Channel_12: ADC Channel12 selected
1137:STM32F10x_StdPeriph_Driver/src/stm32f10x_adc.c ****   *     @arg ADC_Channel_13: ADC Channel13 selected
1138:STM32F10x_StdPeriph_Driver/src/stm32f10x_adc.c ****   *     @arg ADC_Channel_14: ADC Channel14 selected
1139:STM32F10x_StdPeriph_Driver/src/stm32f10x_adc.c ****   *     @arg ADC_Channel_15: ADC Channel15 selected
1140:STM32F10x_StdPeriph_Driver/src/stm32f10x_adc.c ****   *     @arg ADC_Channel_16: ADC Channel16 selected
1141:STM32F10x_StdPeriph_Driver/src/stm32f10x_adc.c ****   *     @arg ADC_Channel_17: ADC Channel17 selected
1142:STM32F10x_StdPeriph_Driver/src/stm32f10x_adc.c ****   * @retval None
1143:STM32F10x_StdPeriph_Driver/src/stm32f10x_adc.c ****   */
ARM GAS  /var/folders/g9/bbpj86ld7fx45vd1b3pqxmp00000gn/T//cc7tuhUR.s 			page 65


1144:STM32F10x_StdPeriph_Driver/src/stm32f10x_adc.c **** void ADC_AnalogWatchdogSingleChannelConfig(ADC_TypeDef* ADCx, uint8_t ADC_Channel)
1145:STM32F10x_StdPeriph_Driver/src/stm32f10x_adc.c **** {
 2566              		.loc 1 1145 0
 2567              		.cfi_startproc
 2568              		@ args = 0, pretend = 0, frame = 0
 2569              		@ frame_needed = 0, uses_anonymous_args = 0
 2570              	.LVL280:
 2571 0000 38B5     		push	{r3, r4, r5, lr}
 2572              	.LCFI32:
 2573              		.cfi_def_cfa_offset 16
 2574              		.cfi_offset 3, -16
 2575              		.cfi_offset 4, -12
 2576              		.cfi_offset 5, -8
 2577              		.cfi_offset 14, -4
 2578 0002 0446     		mov	r4, r0
 2579 0004 0D46     		mov	r5, r1
 2580              	.LVL281:
1146:STM32F10x_StdPeriph_Driver/src/stm32f10x_adc.c ****   uint32_t tmpreg = 0;
1147:STM32F10x_StdPeriph_Driver/src/stm32f10x_adc.c ****   /* Check the parameters */
1148:STM32F10x_StdPeriph_Driver/src/stm32f10x_adc.c ****   assert_param(IS_ADC_ALL_PERIPH(ADCx));
 2581              		.loc 1 1148 0
 2582 0006 0E4B     		ldr	r3, .L220
 2583 0008 9842     		cmp	r0, r3
 2584 000a 0CD0     		beq	.L217
 2585              		.loc 1 1148 0 is_stmt 0 discriminator 1
 2586 000c 03F58063 		add	r3, r3, #1024
 2587 0010 9842     		cmp	r0, r3
 2588 0012 08D0     		beq	.L217
 2589              		.loc 1 1148 0 discriminator 2
 2590 0014 03F5A053 		add	r3, r3, #5120
 2591 0018 9842     		cmp	r0, r3
 2592 001a 04D0     		beq	.L217
 2593              		.loc 1 1148 0 discriminator 3
 2594 001c 40F27C41 		movw	r1, #1148
 2595              	.LVL282:
 2596 0020 0848     		ldr	r0, .L220+4
 2597              	.LVL283:
 2598 0022 FFF7FEFF 		bl	assert_failed
 2599              	.LVL284:
 2600              	.L217:
1149:STM32F10x_StdPeriph_Driver/src/stm32f10x_adc.c ****   assert_param(IS_ADC_CHANNEL(ADC_Channel));
 2601              		.loc 1 1149 0 is_stmt 1
 2602 0026 112D     		cmp	r5, #17
 2603 0028 04D9     		bls	.L218
 2604              		.loc 1 1149 0 is_stmt 0 discriminator 1
 2605 002a 40F27D41 		movw	r1, #1149
 2606 002e 0548     		ldr	r0, .L220+4
 2607 0030 FFF7FEFF 		bl	assert_failed
 2608              	.LVL285:
 2609              	.L218:
1150:STM32F10x_StdPeriph_Driver/src/stm32f10x_adc.c ****   /* Get the old register value */
1151:STM32F10x_StdPeriph_Driver/src/stm32f10x_adc.c ****   tmpreg = ADCx->CR1;
 2610              		.loc 1 1151 0 is_stmt 1
 2611 0034 6168     		ldr	r1, [r4, #4]
 2612              	.LVL286:
1152:STM32F10x_StdPeriph_Driver/src/stm32f10x_adc.c ****   /* Clear the Analog watchdog channel select bits */
1153:STM32F10x_StdPeriph_Driver/src/stm32f10x_adc.c ****   tmpreg &= CR1_AWDCH_Reset;
ARM GAS  /var/folders/g9/bbpj86ld7fx45vd1b3pqxmp00000gn/T//cc7tuhUR.s 			page 66


 2613              		.loc 1 1153 0
 2614 0036 21F01F01 		bic	r1, r1, #31
 2615              	.LVL287:
1154:STM32F10x_StdPeriph_Driver/src/stm32f10x_adc.c ****   /* Set the Analog watchdog channel */
1155:STM32F10x_StdPeriph_Driver/src/stm32f10x_adc.c ****   tmpreg |= ADC_Channel;
 2616              		.loc 1 1155 0
 2617 003a 2943     		orrs	r1, r1, r5
 2618              	.LVL288:
1156:STM32F10x_StdPeriph_Driver/src/stm32f10x_adc.c ****   /* Store the new register value */
1157:STM32F10x_StdPeriph_Driver/src/stm32f10x_adc.c ****   ADCx->CR1 = tmpreg;
 2619              		.loc 1 1157 0
 2620 003c 6160     		str	r1, [r4, #4]
 2621 003e 38BD     		pop	{r3, r4, r5, pc}
 2622              	.LVL289:
 2623              	.L221:
 2624              		.align	2
 2625              	.L220:
 2626 0040 00240140 		.word	1073816576
 2627 0044 00000000 		.word	.LC0
 2628              		.cfi_endproc
 2629              	.LFE57:
 2631              		.section	.text.ADC_TempSensorVrefintCmd,"ax",%progbits
 2632              		.align	2
 2633              		.global	ADC_TempSensorVrefintCmd
 2634              		.thumb
 2635              		.thumb_func
 2637              	ADC_TempSensorVrefintCmd:
 2638              	.LFB58:
1158:STM32F10x_StdPeriph_Driver/src/stm32f10x_adc.c **** }
1159:STM32F10x_StdPeriph_Driver/src/stm32f10x_adc.c **** 
1160:STM32F10x_StdPeriph_Driver/src/stm32f10x_adc.c **** /**
1161:STM32F10x_StdPeriph_Driver/src/stm32f10x_adc.c ****   * @brief  Enables or disables the temperature sensor and Vrefint channel.
1162:STM32F10x_StdPeriph_Driver/src/stm32f10x_adc.c ****   * @param  NewState: new state of the temperature sensor.
1163:STM32F10x_StdPeriph_Driver/src/stm32f10x_adc.c ****   *   This parameter can be: ENABLE or DISABLE.
1164:STM32F10x_StdPeriph_Driver/src/stm32f10x_adc.c ****   * @retval None
1165:STM32F10x_StdPeriph_Driver/src/stm32f10x_adc.c ****   */
1166:STM32F10x_StdPeriph_Driver/src/stm32f10x_adc.c **** void ADC_TempSensorVrefintCmd(FunctionalState NewState)
1167:STM32F10x_StdPeriph_Driver/src/stm32f10x_adc.c **** {
 2639              		.loc 1 1167 0
 2640              		.cfi_startproc
 2641              		@ args = 0, pretend = 0, frame = 0
 2642              		@ frame_needed = 0, uses_anonymous_args = 0
 2643              	.LVL290:
 2644 0000 10B5     		push	{r4, lr}
 2645              	.LCFI33:
 2646              		.cfi_def_cfa_offset 8
 2647              		.cfi_offset 4, -8
 2648              		.cfi_offset 14, -4
 2649 0002 0446     		mov	r4, r0
1168:STM32F10x_StdPeriph_Driver/src/stm32f10x_adc.c ****   /* Check the parameters */
1169:STM32F10x_StdPeriph_Driver/src/stm32f10x_adc.c ****   assert_param(IS_FUNCTIONAL_STATE(NewState));
 2650              		.loc 1 1169 0
 2651 0004 0128     		cmp	r0, #1
 2652 0006 04D9     		bls	.L223
 2653              		.loc 1 1169 0 is_stmt 0 discriminator 1
 2654 0008 40F29141 		movw	r1, #1169
 2655 000c 0748     		ldr	r0, .L227
ARM GAS  /var/folders/g9/bbpj86ld7fx45vd1b3pqxmp00000gn/T//cc7tuhUR.s 			page 67


 2656              	.LVL291:
 2657 000e FFF7FEFF 		bl	assert_failed
 2658              	.LVL292:
 2659              	.L223:
1170:STM32F10x_StdPeriph_Driver/src/stm32f10x_adc.c ****   if (NewState != DISABLE)
 2660              		.loc 1 1170 0 is_stmt 1
 2661 0012 2CB1     		cbz	r4, .L224
1171:STM32F10x_StdPeriph_Driver/src/stm32f10x_adc.c ****   {
1172:STM32F10x_StdPeriph_Driver/src/stm32f10x_adc.c ****     /* Enable the temperature sensor and Vrefint channel*/
1173:STM32F10x_StdPeriph_Driver/src/stm32f10x_adc.c ****     ADC1->CR2 |= CR2_TSVREFE_Set;
 2662              		.loc 1 1173 0
 2663 0014 064A     		ldr	r2, .L227+4
 2664 0016 9368     		ldr	r3, [r2, #8]
 2665 0018 43F40003 		orr	r3, r3, #8388608
 2666 001c 9360     		str	r3, [r2, #8]
 2667 001e 10BD     		pop	{r4, pc}
 2668              	.L224:
1174:STM32F10x_StdPeriph_Driver/src/stm32f10x_adc.c ****   }
1175:STM32F10x_StdPeriph_Driver/src/stm32f10x_adc.c ****   else
1176:STM32F10x_StdPeriph_Driver/src/stm32f10x_adc.c ****   {
1177:STM32F10x_StdPeriph_Driver/src/stm32f10x_adc.c ****     /* Disable the temperature sensor and Vrefint channel*/
1178:STM32F10x_StdPeriph_Driver/src/stm32f10x_adc.c ****     ADC1->CR2 &= CR2_TSVREFE_Reset;
 2669              		.loc 1 1178 0
 2670 0020 034A     		ldr	r2, .L227+4
 2671 0022 9368     		ldr	r3, [r2, #8]
 2672 0024 23F40003 		bic	r3, r3, #8388608
 2673 0028 9360     		str	r3, [r2, #8]
 2674 002a 10BD     		pop	{r4, pc}
 2675              	.L228:
 2676              		.align	2
 2677              	.L227:
 2678 002c 00000000 		.word	.LC0
 2679 0030 00240140 		.word	1073816576
 2680              		.cfi_endproc
 2681              	.LFE58:
 2683              		.section	.text.ADC_GetFlagStatus,"ax",%progbits
 2684              		.align	2
 2685              		.global	ADC_GetFlagStatus
 2686              		.thumb
 2687              		.thumb_func
 2689              	ADC_GetFlagStatus:
 2690              	.LFB59:
1179:STM32F10x_StdPeriph_Driver/src/stm32f10x_adc.c ****   }
1180:STM32F10x_StdPeriph_Driver/src/stm32f10x_adc.c **** }
1181:STM32F10x_StdPeriph_Driver/src/stm32f10x_adc.c **** 
1182:STM32F10x_StdPeriph_Driver/src/stm32f10x_adc.c **** /**
1183:STM32F10x_StdPeriph_Driver/src/stm32f10x_adc.c ****   * @brief  Checks whether the specified ADC flag is set or not.
1184:STM32F10x_StdPeriph_Driver/src/stm32f10x_adc.c ****   * @param  ADCx: where x can be 1, 2 or 3 to select the ADC peripheral.
1185:STM32F10x_StdPeriph_Driver/src/stm32f10x_adc.c ****   * @param  ADC_FLAG: specifies the flag to check. 
1186:STM32F10x_StdPeriph_Driver/src/stm32f10x_adc.c ****   *   This parameter can be one of the following values:
1187:STM32F10x_StdPeriph_Driver/src/stm32f10x_adc.c ****   *     @arg ADC_FLAG_AWD: Analog watchdog flag
1188:STM32F10x_StdPeriph_Driver/src/stm32f10x_adc.c ****   *     @arg ADC_FLAG_EOC: End of conversion flag
1189:STM32F10x_StdPeriph_Driver/src/stm32f10x_adc.c ****   *     @arg ADC_FLAG_JEOC: End of injected group conversion flag
1190:STM32F10x_StdPeriph_Driver/src/stm32f10x_adc.c ****   *     @arg ADC_FLAG_JSTRT: Start of injected group conversion flag
1191:STM32F10x_StdPeriph_Driver/src/stm32f10x_adc.c ****   *     @arg ADC_FLAG_STRT: Start of regular group conversion flag
1192:STM32F10x_StdPeriph_Driver/src/stm32f10x_adc.c ****   * @retval The new state of ADC_FLAG (SET or RESET).
1193:STM32F10x_StdPeriph_Driver/src/stm32f10x_adc.c ****   */
ARM GAS  /var/folders/g9/bbpj86ld7fx45vd1b3pqxmp00000gn/T//cc7tuhUR.s 			page 68


1194:STM32F10x_StdPeriph_Driver/src/stm32f10x_adc.c **** FlagStatus ADC_GetFlagStatus(ADC_TypeDef* ADCx, uint8_t ADC_FLAG)
1195:STM32F10x_StdPeriph_Driver/src/stm32f10x_adc.c **** {
 2691              		.loc 1 1195 0
 2692              		.cfi_startproc
 2693              		@ args = 0, pretend = 0, frame = 0
 2694              		@ frame_needed = 0, uses_anonymous_args = 0
 2695              	.LVL293:
 2696 0000 38B5     		push	{r3, r4, r5, lr}
 2697              	.LCFI34:
 2698              		.cfi_def_cfa_offset 16
 2699              		.cfi_offset 3, -16
 2700              		.cfi_offset 4, -12
 2701              		.cfi_offset 5, -8
 2702              		.cfi_offset 14, -4
 2703 0002 0546     		mov	r5, r0
 2704 0004 0C46     		mov	r4, r1
 2705              	.LVL294:
1196:STM32F10x_StdPeriph_Driver/src/stm32f10x_adc.c ****   FlagStatus bitstatus = RESET;
1197:STM32F10x_StdPeriph_Driver/src/stm32f10x_adc.c ****   /* Check the parameters */
1198:STM32F10x_StdPeriph_Driver/src/stm32f10x_adc.c ****   assert_param(IS_ADC_ALL_PERIPH(ADCx));
 2706              		.loc 1 1198 0
 2707 0006 134B     		ldr	r3, .L235
 2708 0008 9842     		cmp	r0, r3
 2709 000a 0CD0     		beq	.L230
 2710              		.loc 1 1198 0 is_stmt 0 discriminator 1
 2711 000c 03F58063 		add	r3, r3, #1024
 2712 0010 9842     		cmp	r0, r3
 2713 0012 08D0     		beq	.L230
 2714              		.loc 1 1198 0 discriminator 2
 2715 0014 03F5A053 		add	r3, r3, #5120
 2716 0018 9842     		cmp	r0, r3
 2717 001a 04D0     		beq	.L230
 2718              		.loc 1 1198 0 discriminator 3
 2719 001c 40F2AE41 		movw	r1, #1198
 2720              	.LVL295:
 2721 0020 0D48     		ldr	r0, .L235+4
 2722              	.LVL296:
 2723 0022 FFF7FEFF 		bl	assert_failed
 2724              	.LVL297:
 2725              	.L230:
1199:STM32F10x_StdPeriph_Driver/src/stm32f10x_adc.c ****   assert_param(IS_ADC_GET_FLAG(ADC_FLAG));
 2726              		.loc 1 1199 0 is_stmt 1
 2727 0026 631E     		subs	r3, r4, #1
 2728 0028 DBB2     		uxtb	r3, r3
 2729 002a 012B     		cmp	r3, #1
 2730 002c 0AD9     		bls	.L231
 2731              		.loc 1 1199 0 is_stmt 0 discriminator 1
 2732 002e 042C     		cmp	r4, #4
 2733 0030 08D0     		beq	.L231
 2734              		.loc 1 1199 0 discriminator 2
 2735 0032 082C     		cmp	r4, #8
 2736 0034 06D0     		beq	.L231
 2737              		.loc 1 1199 0 discriminator 3
 2738 0036 102C     		cmp	r4, #16
 2739 0038 04D0     		beq	.L231
 2740              		.loc 1 1199 0 discriminator 4
 2741 003a 40F2AF41 		movw	r1, #1199
ARM GAS  /var/folders/g9/bbpj86ld7fx45vd1b3pqxmp00000gn/T//cc7tuhUR.s 			page 69


 2742 003e 0648     		ldr	r0, .L235+4
 2743 0040 FFF7FEFF 		bl	assert_failed
 2744              	.LVL298:
 2745              	.L231:
1200:STM32F10x_StdPeriph_Driver/src/stm32f10x_adc.c ****   /* Check the status of the specified ADC flag */
1201:STM32F10x_StdPeriph_Driver/src/stm32f10x_adc.c ****   if ((ADCx->SR & ADC_FLAG) != (uint8_t)RESET)
 2746              		.loc 1 1201 0 is_stmt 1
 2747 0044 2B68     		ldr	r3, [r5]
 2748 0046 1C42     		tst	r4, r3
 2749 0048 01D0     		beq	.L233
1202:STM32F10x_StdPeriph_Driver/src/stm32f10x_adc.c ****   {
1203:STM32F10x_StdPeriph_Driver/src/stm32f10x_adc.c ****     /* ADC_FLAG is set */
1204:STM32F10x_StdPeriph_Driver/src/stm32f10x_adc.c ****     bitstatus = SET;
 2750              		.loc 1 1204 0
 2751 004a 0120     		movs	r0, #1
 2752 004c 38BD     		pop	{r3, r4, r5, pc}
 2753              	.LVL299:
 2754              	.L233:
1205:STM32F10x_StdPeriph_Driver/src/stm32f10x_adc.c ****   }
1206:STM32F10x_StdPeriph_Driver/src/stm32f10x_adc.c ****   else
1207:STM32F10x_StdPeriph_Driver/src/stm32f10x_adc.c ****   {
1208:STM32F10x_StdPeriph_Driver/src/stm32f10x_adc.c ****     /* ADC_FLAG is reset */
1209:STM32F10x_StdPeriph_Driver/src/stm32f10x_adc.c ****     bitstatus = RESET;
 2755              		.loc 1 1209 0
 2756 004e 0020     		movs	r0, #0
 2757              	.LVL300:
1210:STM32F10x_StdPeriph_Driver/src/stm32f10x_adc.c ****   }
1211:STM32F10x_StdPeriph_Driver/src/stm32f10x_adc.c ****   /* Return the ADC_FLAG status */
1212:STM32F10x_StdPeriph_Driver/src/stm32f10x_adc.c ****   return  bitstatus;
1213:STM32F10x_StdPeriph_Driver/src/stm32f10x_adc.c **** }
 2758              		.loc 1 1213 0
 2759 0050 38BD     		pop	{r3, r4, r5, pc}
 2760              	.LVL301:
 2761              	.L236:
 2762 0052 00BF     		.align	2
 2763              	.L235:
 2764 0054 00240140 		.word	1073816576
 2765 0058 00000000 		.word	.LC0
 2766              		.cfi_endproc
 2767              	.LFE59:
 2769              		.section	.text.ADC_ClearFlag,"ax",%progbits
 2770              		.align	2
 2771              		.global	ADC_ClearFlag
 2772              		.thumb
 2773              		.thumb_func
 2775              	ADC_ClearFlag:
 2776              	.LFB60:
1214:STM32F10x_StdPeriph_Driver/src/stm32f10x_adc.c **** 
1215:STM32F10x_StdPeriph_Driver/src/stm32f10x_adc.c **** /**
1216:STM32F10x_StdPeriph_Driver/src/stm32f10x_adc.c ****   * @brief  Clears the ADCx's pending flags.
1217:STM32F10x_StdPeriph_Driver/src/stm32f10x_adc.c ****   * @param  ADCx: where x can be 1, 2 or 3 to select the ADC peripheral.
1218:STM32F10x_StdPeriph_Driver/src/stm32f10x_adc.c ****   * @param  ADC_FLAG: specifies the flag to clear. 
1219:STM32F10x_StdPeriph_Driver/src/stm32f10x_adc.c ****   *   This parameter can be any combination of the following values:
1220:STM32F10x_StdPeriph_Driver/src/stm32f10x_adc.c ****   *     @arg ADC_FLAG_AWD: Analog watchdog flag
1221:STM32F10x_StdPeriph_Driver/src/stm32f10x_adc.c ****   *     @arg ADC_FLAG_EOC: End of conversion flag
1222:STM32F10x_StdPeriph_Driver/src/stm32f10x_adc.c ****   *     @arg ADC_FLAG_JEOC: End of injected group conversion flag
1223:STM32F10x_StdPeriph_Driver/src/stm32f10x_adc.c ****   *     @arg ADC_FLAG_JSTRT: Start of injected group conversion flag
ARM GAS  /var/folders/g9/bbpj86ld7fx45vd1b3pqxmp00000gn/T//cc7tuhUR.s 			page 70


1224:STM32F10x_StdPeriph_Driver/src/stm32f10x_adc.c ****   *     @arg ADC_FLAG_STRT: Start of regular group conversion flag
1225:STM32F10x_StdPeriph_Driver/src/stm32f10x_adc.c ****   * @retval None
1226:STM32F10x_StdPeriph_Driver/src/stm32f10x_adc.c ****   */
1227:STM32F10x_StdPeriph_Driver/src/stm32f10x_adc.c **** void ADC_ClearFlag(ADC_TypeDef* ADCx, uint8_t ADC_FLAG)
1228:STM32F10x_StdPeriph_Driver/src/stm32f10x_adc.c **** {
 2777              		.loc 1 1228 0
 2778              		.cfi_startproc
 2779              		@ args = 0, pretend = 0, frame = 0
 2780              		@ frame_needed = 0, uses_anonymous_args = 0
 2781              	.LVL302:
 2782 0000 38B5     		push	{r3, r4, r5, lr}
 2783              	.LCFI35:
 2784              		.cfi_def_cfa_offset 16
 2785              		.cfi_offset 3, -16
 2786              		.cfi_offset 4, -12
 2787              		.cfi_offset 5, -8
 2788              		.cfi_offset 14, -4
 2789 0002 0546     		mov	r5, r0
 2790 0004 0C46     		mov	r4, r1
1229:STM32F10x_StdPeriph_Driver/src/stm32f10x_adc.c ****   /* Check the parameters */
1230:STM32F10x_StdPeriph_Driver/src/stm32f10x_adc.c ****   assert_param(IS_ADC_ALL_PERIPH(ADCx));
 2791              		.loc 1 1230 0
 2792 0006 0E4B     		ldr	r3, .L242
 2793 0008 9842     		cmp	r0, r3
 2794 000a 0CD0     		beq	.L238
 2795              		.loc 1 1230 0 is_stmt 0 discriminator 1
 2796 000c 03F58063 		add	r3, r3, #1024
 2797 0010 9842     		cmp	r0, r3
 2798 0012 08D0     		beq	.L238
 2799              		.loc 1 1230 0 discriminator 2
 2800 0014 03F5A053 		add	r3, r3, #5120
 2801 0018 9842     		cmp	r0, r3
 2802 001a 04D0     		beq	.L238
 2803              		.loc 1 1230 0 discriminator 3
 2804 001c 40F2CE41 		movw	r1, #1230
 2805              	.LVL303:
 2806 0020 0848     		ldr	r0, .L242+4
 2807              	.LVL304:
 2808 0022 FFF7FEFF 		bl	assert_failed
 2809              	.LVL305:
 2810              	.L238:
1231:STM32F10x_StdPeriph_Driver/src/stm32f10x_adc.c ****   assert_param(IS_ADC_CLEAR_FLAG(ADC_FLAG));
 2811              		.loc 1 1231 0 is_stmt 1
 2812 0026 14F0E00F 		tst	r4, #224
 2813 002a 00D1     		bne	.L239
 2814              		.loc 1 1231 0 is_stmt 0 discriminator 2
 2815 002c 24B9     		cbnz	r4, .L240
 2816              	.L239:
 2817              		.loc 1 1231 0 discriminator 3
 2818 002e 40F2CF41 		movw	r1, #1231
 2819 0032 0448     		ldr	r0, .L242+4
 2820 0034 FFF7FEFF 		bl	assert_failed
 2821              	.LVL306:
 2822              	.L240:
1232:STM32F10x_StdPeriph_Driver/src/stm32f10x_adc.c ****   /* Clear the selected ADC flags */
1233:STM32F10x_StdPeriph_Driver/src/stm32f10x_adc.c ****   ADCx->SR = ~(uint32_t)ADC_FLAG;
 2823              		.loc 1 1233 0 is_stmt 1
ARM GAS  /var/folders/g9/bbpj86ld7fx45vd1b3pqxmp00000gn/T//cc7tuhUR.s 			page 71


 2824 0038 E443     		mvns	r4, r4
 2825 003a 2C60     		str	r4, [r5]
 2826 003c 38BD     		pop	{r3, r4, r5, pc}
 2827              	.LVL307:
 2828              	.L243:
 2829 003e 00BF     		.align	2
 2830              	.L242:
 2831 0040 00240140 		.word	1073816576
 2832 0044 00000000 		.word	.LC0
 2833              		.cfi_endproc
 2834              	.LFE60:
 2836              		.section	.text.ADC_GetITStatus,"ax",%progbits
 2837              		.align	2
 2838              		.global	ADC_GetITStatus
 2839              		.thumb
 2840              		.thumb_func
 2842              	ADC_GetITStatus:
 2843              	.LFB61:
1234:STM32F10x_StdPeriph_Driver/src/stm32f10x_adc.c **** }
1235:STM32F10x_StdPeriph_Driver/src/stm32f10x_adc.c **** 
1236:STM32F10x_StdPeriph_Driver/src/stm32f10x_adc.c **** /**
1237:STM32F10x_StdPeriph_Driver/src/stm32f10x_adc.c ****   * @brief  Checks whether the specified ADC interrupt has occurred or not.
1238:STM32F10x_StdPeriph_Driver/src/stm32f10x_adc.c ****   * @param  ADCx: where x can be 1, 2 or 3 to select the ADC peripheral.
1239:STM32F10x_StdPeriph_Driver/src/stm32f10x_adc.c ****   * @param  ADC_IT: specifies the ADC interrupt source to check. 
1240:STM32F10x_StdPeriph_Driver/src/stm32f10x_adc.c ****   *   This parameter can be one of the following values:
1241:STM32F10x_StdPeriph_Driver/src/stm32f10x_adc.c ****   *     @arg ADC_IT_EOC: End of conversion interrupt mask
1242:STM32F10x_StdPeriph_Driver/src/stm32f10x_adc.c ****   *     @arg ADC_IT_AWD: Analog watchdog interrupt mask
1243:STM32F10x_StdPeriph_Driver/src/stm32f10x_adc.c ****   *     @arg ADC_IT_JEOC: End of injected conversion interrupt mask
1244:STM32F10x_StdPeriph_Driver/src/stm32f10x_adc.c ****   * @retval The new state of ADC_IT (SET or RESET).
1245:STM32F10x_StdPeriph_Driver/src/stm32f10x_adc.c ****   */
1246:STM32F10x_StdPeriph_Driver/src/stm32f10x_adc.c **** ITStatus ADC_GetITStatus(ADC_TypeDef* ADCx, uint16_t ADC_IT)
1247:STM32F10x_StdPeriph_Driver/src/stm32f10x_adc.c **** {
 2844              		.loc 1 1247 0
 2845              		.cfi_startproc
 2846              		@ args = 0, pretend = 0, frame = 0
 2847              		@ frame_needed = 0, uses_anonymous_args = 0
 2848              	.LVL308:
 2849 0000 38B5     		push	{r3, r4, r5, lr}
 2850              	.LCFI36:
 2851              		.cfi_def_cfa_offset 16
 2852              		.cfi_offset 3, -16
 2853              		.cfi_offset 4, -12
 2854              		.cfi_offset 5, -8
 2855              		.cfi_offset 14, -4
 2856 0002 0446     		mov	r4, r0
 2857 0004 0D46     		mov	r5, r1
 2858              	.LVL309:
1248:STM32F10x_StdPeriph_Driver/src/stm32f10x_adc.c ****   ITStatus bitstatus = RESET;
1249:STM32F10x_StdPeriph_Driver/src/stm32f10x_adc.c ****   uint32_t itmask = 0, enablestatus = 0;
1250:STM32F10x_StdPeriph_Driver/src/stm32f10x_adc.c ****   /* Check the parameters */
1251:STM32F10x_StdPeriph_Driver/src/stm32f10x_adc.c ****   assert_param(IS_ADC_ALL_PERIPH(ADCx));
 2859              		.loc 1 1251 0
 2860 0006 164B     		ldr	r3, .L251
 2861 0008 9842     		cmp	r0, r3
 2862 000a 0CD0     		beq	.L245
 2863              		.loc 1 1251 0 is_stmt 0 discriminator 1
 2864 000c 03F58063 		add	r3, r3, #1024
ARM GAS  /var/folders/g9/bbpj86ld7fx45vd1b3pqxmp00000gn/T//cc7tuhUR.s 			page 72


 2865 0010 9842     		cmp	r0, r3
 2866 0012 08D0     		beq	.L245
 2867              		.loc 1 1251 0 discriminator 2
 2868 0014 03F5A053 		add	r3, r3, #5120
 2869 0018 9842     		cmp	r0, r3
 2870 001a 04D0     		beq	.L245
 2871              		.loc 1 1251 0 discriminator 3
 2872 001c 40F2E341 		movw	r1, #1251
 2873              	.LVL310:
 2874 0020 1048     		ldr	r0, .L251+4
 2875              	.LVL311:
 2876 0022 FFF7FEFF 		bl	assert_failed
 2877              	.LVL312:
 2878              	.L245:
1252:STM32F10x_StdPeriph_Driver/src/stm32f10x_adc.c ****   assert_param(IS_ADC_GET_IT(ADC_IT));
 2879              		.loc 1 1252 0 is_stmt 1
 2880 0026 B5F5087F 		cmp	r5, #544
 2881 002a 0AD0     		beq	.L246
 2882              		.loc 1 1252 0 is_stmt 0 discriminator 1
 2883 002c B5F5A07F 		cmp	r5, #320
 2884 0030 07D0     		beq	.L246
 2885              		.loc 1 1252 0 discriminator 2
 2886 0032 B5F5906F 		cmp	r5, #1152
 2887 0036 04D0     		beq	.L246
 2888              		.loc 1 1252 0 discriminator 3
 2889 0038 40F2E441 		movw	r1, #1252
 2890 003c 0948     		ldr	r0, .L251+4
 2891 003e FFF7FEFF 		bl	assert_failed
 2892              	.LVL313:
 2893              	.L246:
1253:STM32F10x_StdPeriph_Driver/src/stm32f10x_adc.c ****   /* Get the ADC IT index */
1254:STM32F10x_StdPeriph_Driver/src/stm32f10x_adc.c ****   itmask = ADC_IT >> 8;
1255:STM32F10x_StdPeriph_Driver/src/stm32f10x_adc.c ****   /* Get the ADC_IT enable bit status */
1256:STM32F10x_StdPeriph_Driver/src/stm32f10x_adc.c ****   enablestatus = (ADCx->CR1 & (uint8_t)ADC_IT) ;
 2894              		.loc 1 1256 0 is_stmt 1
 2895 0042 6268     		ldr	r2, [r4, #4]
 2896 0044 EBB2     		uxtb	r3, r5
 2897 0046 1340     		ands	r3, r3, r2
 2898              	.LVL314:
1257:STM32F10x_StdPeriph_Driver/src/stm32f10x_adc.c ****   /* Check the status of the specified ADC interrupt */
1258:STM32F10x_StdPeriph_Driver/src/stm32f10x_adc.c ****   if (((ADCx->SR & itmask) != (uint32_t)RESET) && enablestatus)
 2899              		.loc 1 1258 0
 2900 0048 2268     		ldr	r2, [r4]
 2901 004a 12EA1522 		ands	r2, r2, r5, lsr #8
 2902 004e 02D0     		beq	.L248
 2903              		.loc 1 1258 0 is_stmt 0 discriminator 1
 2904 0050 1BB9     		cbnz	r3, .L249
1259:STM32F10x_StdPeriph_Driver/src/stm32f10x_adc.c ****   {
1260:STM32F10x_StdPeriph_Driver/src/stm32f10x_adc.c ****     /* ADC_IT is set */
1261:STM32F10x_StdPeriph_Driver/src/stm32f10x_adc.c ****     bitstatus = SET;
1262:STM32F10x_StdPeriph_Driver/src/stm32f10x_adc.c ****   }
1263:STM32F10x_StdPeriph_Driver/src/stm32f10x_adc.c ****   else
1264:STM32F10x_StdPeriph_Driver/src/stm32f10x_adc.c ****   {
1265:STM32F10x_StdPeriph_Driver/src/stm32f10x_adc.c ****     /* ADC_IT is reset */
1266:STM32F10x_StdPeriph_Driver/src/stm32f10x_adc.c ****     bitstatus = RESET;
 2905              		.loc 1 1266 0 is_stmt 1
 2906 0052 0020     		movs	r0, #0
ARM GAS  /var/folders/g9/bbpj86ld7fx45vd1b3pqxmp00000gn/T//cc7tuhUR.s 			page 73


 2907 0054 38BD     		pop	{r3, r4, r5, pc}
 2908              	.LVL315:
 2909              	.L248:
 2910 0056 0020     		movs	r0, #0
 2911 0058 38BD     		pop	{r3, r4, r5, pc}
 2912              	.LVL316:
 2913              	.L249:
1261:STM32F10x_StdPeriph_Driver/src/stm32f10x_adc.c ****   }
 2914              		.loc 1 1261 0
 2915 005a 0120     		movs	r0, #1
 2916              	.LVL317:
1267:STM32F10x_StdPeriph_Driver/src/stm32f10x_adc.c ****   }
1268:STM32F10x_StdPeriph_Driver/src/stm32f10x_adc.c ****   /* Return the ADC_IT status */
1269:STM32F10x_StdPeriph_Driver/src/stm32f10x_adc.c ****   return  bitstatus;
1270:STM32F10x_StdPeriph_Driver/src/stm32f10x_adc.c **** }
 2917              		.loc 1 1270 0
 2918 005c 38BD     		pop	{r3, r4, r5, pc}
 2919              	.LVL318:
 2920              	.L252:
 2921 005e 00BF     		.align	2
 2922              	.L251:
 2923 0060 00240140 		.word	1073816576
 2924 0064 00000000 		.word	.LC0
 2925              		.cfi_endproc
 2926              	.LFE61:
 2928              		.section	.text.ADC_ClearITPendingBit,"ax",%progbits
 2929              		.align	2
 2930              		.global	ADC_ClearITPendingBit
 2931              		.thumb
 2932              		.thumb_func
 2934              	ADC_ClearITPendingBit:
 2935              	.LFB62:
1271:STM32F10x_StdPeriph_Driver/src/stm32f10x_adc.c **** 
1272:STM32F10x_StdPeriph_Driver/src/stm32f10x_adc.c **** /**
1273:STM32F10x_StdPeriph_Driver/src/stm32f10x_adc.c ****   * @brief  Clears the ADCxs interrupt pending bits.
1274:STM32F10x_StdPeriph_Driver/src/stm32f10x_adc.c ****   * @param  ADCx: where x can be 1, 2 or 3 to select the ADC peripheral.
1275:STM32F10x_StdPeriph_Driver/src/stm32f10x_adc.c ****   * @param  ADC_IT: specifies the ADC interrupt pending bit to clear.
1276:STM32F10x_StdPeriph_Driver/src/stm32f10x_adc.c ****   *   This parameter can be any combination of the following values:
1277:STM32F10x_StdPeriph_Driver/src/stm32f10x_adc.c ****   *     @arg ADC_IT_EOC: End of conversion interrupt mask
1278:STM32F10x_StdPeriph_Driver/src/stm32f10x_adc.c ****   *     @arg ADC_IT_AWD: Analog watchdog interrupt mask
1279:STM32F10x_StdPeriph_Driver/src/stm32f10x_adc.c ****   *     @arg ADC_IT_JEOC: End of injected conversion interrupt mask
1280:STM32F10x_StdPeriph_Driver/src/stm32f10x_adc.c ****   * @retval None
1281:STM32F10x_StdPeriph_Driver/src/stm32f10x_adc.c ****   */
1282:STM32F10x_StdPeriph_Driver/src/stm32f10x_adc.c **** void ADC_ClearITPendingBit(ADC_TypeDef* ADCx, uint16_t ADC_IT)
1283:STM32F10x_StdPeriph_Driver/src/stm32f10x_adc.c **** {
 2936              		.loc 1 1283 0
 2937              		.cfi_startproc
 2938              		@ args = 0, pretend = 0, frame = 0
 2939              		@ frame_needed = 0, uses_anonymous_args = 0
 2940              	.LVL319:
 2941 0000 38B5     		push	{r3, r4, r5, lr}
 2942              	.LCFI37:
 2943              		.cfi_def_cfa_offset 16
 2944              		.cfi_offset 3, -16
 2945              		.cfi_offset 4, -12
 2946              		.cfi_offset 5, -8
 2947              		.cfi_offset 14, -4
ARM GAS  /var/folders/g9/bbpj86ld7fx45vd1b3pqxmp00000gn/T//cc7tuhUR.s 			page 74


 2948 0002 0546     		mov	r5, r0
 2949 0004 0C46     		mov	r4, r1
 2950              	.LVL320:
1284:STM32F10x_StdPeriph_Driver/src/stm32f10x_adc.c ****   uint8_t itmask = 0;
1285:STM32F10x_StdPeriph_Driver/src/stm32f10x_adc.c ****   /* Check the parameters */
1286:STM32F10x_StdPeriph_Driver/src/stm32f10x_adc.c ****   assert_param(IS_ADC_ALL_PERIPH(ADCx));
 2951              		.loc 1 1286 0
 2952 0006 0F4B     		ldr	r3, .L258
 2953 0008 9842     		cmp	r0, r3
 2954 000a 0CD0     		beq	.L254
 2955              		.loc 1 1286 0 is_stmt 0 discriminator 1
 2956 000c 03F58063 		add	r3, r3, #1024
 2957 0010 9842     		cmp	r0, r3
 2958 0012 08D0     		beq	.L254
 2959              		.loc 1 1286 0 discriminator 2
 2960 0014 03F5A053 		add	r3, r3, #5120
 2961 0018 9842     		cmp	r0, r3
 2962 001a 04D0     		beq	.L254
 2963              		.loc 1 1286 0 discriminator 3
 2964 001c 40F20651 		movw	r1, #1286
 2965              	.LVL321:
 2966 0020 0948     		ldr	r0, .L258+4
 2967              	.LVL322:
 2968 0022 FFF7FEFF 		bl	assert_failed
 2969              	.LVL323:
 2970              	.L254:
1287:STM32F10x_StdPeriph_Driver/src/stm32f10x_adc.c ****   assert_param(IS_ADC_IT(ADC_IT));
 2971              		.loc 1 1287 0 is_stmt 1
 2972 0026 24F4FC63 		bic	r3, r4, #2016
 2973 002a 9BB2     		uxth	r3, r3
 2974 002c 03B9     		cbnz	r3, .L255
 2975              		.loc 1 1287 0 is_stmt 0 discriminator 2
 2976 002e 24B9     		cbnz	r4, .L256
 2977              	.L255:
 2978              		.loc 1 1287 0 discriminator 3
 2979 0030 40F20751 		movw	r1, #1287
 2980 0034 0448     		ldr	r0, .L258+4
 2981 0036 FFF7FEFF 		bl	assert_failed
 2982              	.LVL324:
 2983              	.L256:
1288:STM32F10x_StdPeriph_Driver/src/stm32f10x_adc.c ****   /* Get the ADC IT index */
1289:STM32F10x_StdPeriph_Driver/src/stm32f10x_adc.c ****   itmask = (uint8_t)(ADC_IT >> 8);
1290:STM32F10x_StdPeriph_Driver/src/stm32f10x_adc.c ****   /* Clear the selected ADC interrupt pending bits */
1291:STM32F10x_StdPeriph_Driver/src/stm32f10x_adc.c ****   ADCx->SR = ~(uint32_t)itmask;
 2984              		.loc 1 1291 0 is_stmt 1
 2985 003a 6FEA1424 		mvn	r4, r4, lsr #8
 2986              	.LVL325:
 2987 003e 2C60     		str	r4, [r5]
 2988 0040 38BD     		pop	{r3, r4, r5, pc}
 2989              	.LVL326:
 2990              	.L259:
 2991 0042 00BF     		.align	2
 2992              	.L258:
 2993 0044 00240140 		.word	1073816576
 2994 0048 00000000 		.word	.LC0
 2995              		.cfi_endproc
 2996              	.LFE62:
ARM GAS  /var/folders/g9/bbpj86ld7fx45vd1b3pqxmp00000gn/T//cc7tuhUR.s 			page 75


 2998              		.section	.rodata.str1.4,"aMS",%progbits,1
 2999              		.align	2
 3000              	.LC0:
 3001 0000 53544D33 		.ascii	"STM32F10x_StdPeriph_Driver/src/stm32f10x_adc.c\000"
 3001      32463130 
 3001      785F5374 
 3001      64506572 
 3001      6970685F 
 3002              		.text
 3003              	.Letext0:
 3004              		.file 2 "/usr/local/Cellar/gcc-arm-none-eabi/20160926/arm-none-eabi/include/machine/_default_types
 3005              		.file 3 "/usr/local/Cellar/gcc-arm-none-eabi/20160926/arm-none-eabi/include/sys/_stdint.h"
 3006              		.file 4 "CMSIS/Core/CM3/stm32f10x.h"
 3007              		.file 5 "STM32F10x_StdPeriph_Driver/inc/stm32f10x_adc.h"
 3008              		.file 6 "Inc/stm32f10x_conf.h"
 3009              		.file 7 "STM32F10x_StdPeriph_Driver/inc/stm32f10x_rcc.h"
ARM GAS  /var/folders/g9/bbpj86ld7fx45vd1b3pqxmp00000gn/T//cc7tuhUR.s 			page 76

