ARM GAS  /var/folders/g9/bbpj86ld7fx45vd1b3pqxmp00000gn/T//cc0cmuBV.s 			page 1


   1              		.syntax unified
   2              		.cpu cortex-m3
   3              		.fpu softvfp
   4              		.eabi_attribute 20, 1
   5              		.eabi_attribute 21, 1
   6              		.eabi_attribute 23, 3
   7              		.eabi_attribute 24, 1
   8              		.eabi_attribute 25, 1
   9              		.eabi_attribute 26, 1
  10              		.eabi_attribute 30, 1
  11              		.eabi_attribute 34, 1
  12              		.eabi_attribute 18, 4
  13              		.thumb
  14              		.syntax unified
  15              		.file	"stm32f10x_crc.c"
  16              		.text
  17              	.Ltext0:
  18              		.cfi_sections	.debug_frame
  19              		.section	.text.CRC_ResetDR,"ax",%progbits
  20              		.align	2
  21              		.global	CRC_ResetDR
  22              		.thumb
  23              		.thumb_func
  25              	CRC_ResetDR:
  26              	.LFB27:
  27              		.file 1 "STM32F10x_StdPeriph_Driver/src/stm32f10x_crc.c"
   1:STM32F10x_StdPeriph_Driver/src/stm32f10x_crc.c **** /**
   2:STM32F10x_StdPeriph_Driver/src/stm32f10x_crc.c ****   ******************************************************************************
   3:STM32F10x_StdPeriph_Driver/src/stm32f10x_crc.c ****   * @file    stm32f10x_crc.c
   4:STM32F10x_StdPeriph_Driver/src/stm32f10x_crc.c ****   * @author  MCD Application Team
   5:STM32F10x_StdPeriph_Driver/src/stm32f10x_crc.c ****   * @version V3.1.2
   6:STM32F10x_StdPeriph_Driver/src/stm32f10x_crc.c ****   * @date    09/28/2009
   7:STM32F10x_StdPeriph_Driver/src/stm32f10x_crc.c ****   * @brief   This file provides all the CRC firmware functions.
   8:STM32F10x_StdPeriph_Driver/src/stm32f10x_crc.c ****   ******************************************************************************
   9:STM32F10x_StdPeriph_Driver/src/stm32f10x_crc.c ****   * @copy
  10:STM32F10x_StdPeriph_Driver/src/stm32f10x_crc.c ****   *
  11:STM32F10x_StdPeriph_Driver/src/stm32f10x_crc.c ****   * THE PRESENT FIRMWARE WHICH IS FOR GUIDANCE ONLY AIMS AT PROVIDING CUSTOMERS
  12:STM32F10x_StdPeriph_Driver/src/stm32f10x_crc.c ****   * WITH CODING INFORMATION REGARDING THEIR PRODUCTS IN ORDER FOR THEM TO SAVE
  13:STM32F10x_StdPeriph_Driver/src/stm32f10x_crc.c ****   * TIME. AS A RESULT, STMICROELECTRONICS SHALL NOT BE HELD LIABLE FOR ANY
  14:STM32F10x_StdPeriph_Driver/src/stm32f10x_crc.c ****   * DIRECT, INDIRECT OR CONSEQUENTIAL DAMAGES WITH RESPECT TO ANY CLAIMS ARISING
  15:STM32F10x_StdPeriph_Driver/src/stm32f10x_crc.c ****   * FROM THE CONTENT OF SUCH FIRMWARE AND/OR THE USE MADE BY CUSTOMERS OF THE
  16:STM32F10x_StdPeriph_Driver/src/stm32f10x_crc.c ****   * CODING INFORMATION CONTAINED HEREIN IN CONNECTION WITH THEIR PRODUCTS.
  17:STM32F10x_StdPeriph_Driver/src/stm32f10x_crc.c ****   *
  18:STM32F10x_StdPeriph_Driver/src/stm32f10x_crc.c ****   * <h2><center>&copy; COPYRIGHT 2009 STMicroelectronics</center></h2>
  19:STM32F10x_StdPeriph_Driver/src/stm32f10x_crc.c ****   */ 
  20:STM32F10x_StdPeriph_Driver/src/stm32f10x_crc.c **** 
  21:STM32F10x_StdPeriph_Driver/src/stm32f10x_crc.c **** /* Includes ------------------------------------------------------------------*/
  22:STM32F10x_StdPeriph_Driver/src/stm32f10x_crc.c **** #include "stm32f10x_crc.h"
  23:STM32F10x_StdPeriph_Driver/src/stm32f10x_crc.c **** 
  24:STM32F10x_StdPeriph_Driver/src/stm32f10x_crc.c **** /** @addtogroup STM32F10x_StdPeriph_Driver
  25:STM32F10x_StdPeriph_Driver/src/stm32f10x_crc.c ****   * @{
  26:STM32F10x_StdPeriph_Driver/src/stm32f10x_crc.c ****   */
  27:STM32F10x_StdPeriph_Driver/src/stm32f10x_crc.c **** 
  28:STM32F10x_StdPeriph_Driver/src/stm32f10x_crc.c **** /** @defgroup CRC 
  29:STM32F10x_StdPeriph_Driver/src/stm32f10x_crc.c ****   * @brief CRC driver modules
  30:STM32F10x_StdPeriph_Driver/src/stm32f10x_crc.c ****   * @{
  31:STM32F10x_StdPeriph_Driver/src/stm32f10x_crc.c ****   */
ARM GAS  /var/folders/g9/bbpj86ld7fx45vd1b3pqxmp00000gn/T//cc0cmuBV.s 			page 2


  32:STM32F10x_StdPeriph_Driver/src/stm32f10x_crc.c **** 
  33:STM32F10x_StdPeriph_Driver/src/stm32f10x_crc.c **** /** @defgroup CRC_Private_TypesDefinitions
  34:STM32F10x_StdPeriph_Driver/src/stm32f10x_crc.c ****   * @{
  35:STM32F10x_StdPeriph_Driver/src/stm32f10x_crc.c ****   */
  36:STM32F10x_StdPeriph_Driver/src/stm32f10x_crc.c **** 
  37:STM32F10x_StdPeriph_Driver/src/stm32f10x_crc.c **** /**
  38:STM32F10x_StdPeriph_Driver/src/stm32f10x_crc.c ****   * @}
  39:STM32F10x_StdPeriph_Driver/src/stm32f10x_crc.c ****   */
  40:STM32F10x_StdPeriph_Driver/src/stm32f10x_crc.c **** 
  41:STM32F10x_StdPeriph_Driver/src/stm32f10x_crc.c **** /** @defgroup CRC_Private_Defines
  42:STM32F10x_StdPeriph_Driver/src/stm32f10x_crc.c ****   * @{
  43:STM32F10x_StdPeriph_Driver/src/stm32f10x_crc.c ****   */
  44:STM32F10x_StdPeriph_Driver/src/stm32f10x_crc.c **** 
  45:STM32F10x_StdPeriph_Driver/src/stm32f10x_crc.c **** /* CR register bit mask */
  46:STM32F10x_StdPeriph_Driver/src/stm32f10x_crc.c **** 
  47:STM32F10x_StdPeriph_Driver/src/stm32f10x_crc.c **** #define CR_RESET_Set    ((uint32_t)0x00000001)
  48:STM32F10x_StdPeriph_Driver/src/stm32f10x_crc.c **** 
  49:STM32F10x_StdPeriph_Driver/src/stm32f10x_crc.c **** /**
  50:STM32F10x_StdPeriph_Driver/src/stm32f10x_crc.c ****   * @}
  51:STM32F10x_StdPeriph_Driver/src/stm32f10x_crc.c ****   */
  52:STM32F10x_StdPeriph_Driver/src/stm32f10x_crc.c **** 
  53:STM32F10x_StdPeriph_Driver/src/stm32f10x_crc.c **** /** @defgroup CRC_Private_Macros
  54:STM32F10x_StdPeriph_Driver/src/stm32f10x_crc.c ****   * @{
  55:STM32F10x_StdPeriph_Driver/src/stm32f10x_crc.c ****   */
  56:STM32F10x_StdPeriph_Driver/src/stm32f10x_crc.c **** 
  57:STM32F10x_StdPeriph_Driver/src/stm32f10x_crc.c **** /**
  58:STM32F10x_StdPeriph_Driver/src/stm32f10x_crc.c ****   * @}
  59:STM32F10x_StdPeriph_Driver/src/stm32f10x_crc.c ****   */
  60:STM32F10x_StdPeriph_Driver/src/stm32f10x_crc.c **** 
  61:STM32F10x_StdPeriph_Driver/src/stm32f10x_crc.c **** /** @defgroup CRC_Private_Variables
  62:STM32F10x_StdPeriph_Driver/src/stm32f10x_crc.c ****   * @{
  63:STM32F10x_StdPeriph_Driver/src/stm32f10x_crc.c ****   */
  64:STM32F10x_StdPeriph_Driver/src/stm32f10x_crc.c **** 
  65:STM32F10x_StdPeriph_Driver/src/stm32f10x_crc.c **** /**
  66:STM32F10x_StdPeriph_Driver/src/stm32f10x_crc.c ****   * @}
  67:STM32F10x_StdPeriph_Driver/src/stm32f10x_crc.c ****   */
  68:STM32F10x_StdPeriph_Driver/src/stm32f10x_crc.c **** 
  69:STM32F10x_StdPeriph_Driver/src/stm32f10x_crc.c **** /** @defgroup CRC_Private_FunctionPrototypes
  70:STM32F10x_StdPeriph_Driver/src/stm32f10x_crc.c ****   * @{
  71:STM32F10x_StdPeriph_Driver/src/stm32f10x_crc.c ****   */
  72:STM32F10x_StdPeriph_Driver/src/stm32f10x_crc.c **** 
  73:STM32F10x_StdPeriph_Driver/src/stm32f10x_crc.c **** /**
  74:STM32F10x_StdPeriph_Driver/src/stm32f10x_crc.c ****   * @}
  75:STM32F10x_StdPeriph_Driver/src/stm32f10x_crc.c ****   */
  76:STM32F10x_StdPeriph_Driver/src/stm32f10x_crc.c **** 
  77:STM32F10x_StdPeriph_Driver/src/stm32f10x_crc.c **** /** @defgroup CRC_Private_Functions
  78:STM32F10x_StdPeriph_Driver/src/stm32f10x_crc.c ****   * @{
  79:STM32F10x_StdPeriph_Driver/src/stm32f10x_crc.c ****   */
  80:STM32F10x_StdPeriph_Driver/src/stm32f10x_crc.c **** 
  81:STM32F10x_StdPeriph_Driver/src/stm32f10x_crc.c **** /**
  82:STM32F10x_StdPeriph_Driver/src/stm32f10x_crc.c ****   * @brief  Resets the CRC Data register (DR).
  83:STM32F10x_StdPeriph_Driver/src/stm32f10x_crc.c ****   * @param  None
  84:STM32F10x_StdPeriph_Driver/src/stm32f10x_crc.c ****   * @retval None
  85:STM32F10x_StdPeriph_Driver/src/stm32f10x_crc.c ****   */
  86:STM32F10x_StdPeriph_Driver/src/stm32f10x_crc.c **** void CRC_ResetDR(void)
  87:STM32F10x_StdPeriph_Driver/src/stm32f10x_crc.c **** {
  28              		.loc 1 87 0
ARM GAS  /var/folders/g9/bbpj86ld7fx45vd1b3pqxmp00000gn/T//cc0cmuBV.s 			page 3


  29              		.cfi_startproc
  30              		@ args = 0, pretend = 0, frame = 0
  31              		@ frame_needed = 0, uses_anonymous_args = 0
  32              		@ link register save eliminated.
  88:STM32F10x_StdPeriph_Driver/src/stm32f10x_crc.c ****   /* Reset CRC generator */
  89:STM32F10x_StdPeriph_Driver/src/stm32f10x_crc.c ****   CRC->CR = CR_RESET_Set;
  33              		.loc 1 89 0
  34 0000 0122     		movs	r2, #1
  35 0002 014B     		ldr	r3, .L2
  36 0004 9A60     		str	r2, [r3, #8]
  37 0006 7047     		bx	lr
  38              	.L3:
  39              		.align	2
  40              	.L2:
  41 0008 00300240 		.word	1073885184
  42              		.cfi_endproc
  43              	.LFE27:
  45              		.section	.text.CRC_CalcCRC,"ax",%progbits
  46              		.align	2
  47              		.global	CRC_CalcCRC
  48              		.thumb
  49              		.thumb_func
  51              	CRC_CalcCRC:
  52              	.LFB28:
  90:STM32F10x_StdPeriph_Driver/src/stm32f10x_crc.c **** }
  91:STM32F10x_StdPeriph_Driver/src/stm32f10x_crc.c **** 
  92:STM32F10x_StdPeriph_Driver/src/stm32f10x_crc.c **** /**
  93:STM32F10x_StdPeriph_Driver/src/stm32f10x_crc.c ****   * @brief  Computes the 32-bit CRC of a given data word(32-bit).
  94:STM32F10x_StdPeriph_Driver/src/stm32f10x_crc.c ****   * @param  Data: data word(32-bit) to compute its CRC
  95:STM32F10x_StdPeriph_Driver/src/stm32f10x_crc.c ****   * @retval 32-bit CRC
  96:STM32F10x_StdPeriph_Driver/src/stm32f10x_crc.c ****   */
  97:STM32F10x_StdPeriph_Driver/src/stm32f10x_crc.c **** uint32_t CRC_CalcCRC(uint32_t Data)
  98:STM32F10x_StdPeriph_Driver/src/stm32f10x_crc.c **** {
  53              		.loc 1 98 0
  54              		.cfi_startproc
  55              		@ args = 0, pretend = 0, frame = 0
  56              		@ frame_needed = 0, uses_anonymous_args = 0
  57              		@ link register save eliminated.
  58              	.LVL0:
  99:STM32F10x_StdPeriph_Driver/src/stm32f10x_crc.c ****   CRC->DR = Data;
  59              		.loc 1 99 0
  60 0000 014B     		ldr	r3, .L5
  61 0002 1860     		str	r0, [r3]
 100:STM32F10x_StdPeriph_Driver/src/stm32f10x_crc.c ****   
 101:STM32F10x_StdPeriph_Driver/src/stm32f10x_crc.c ****   return (CRC->DR);
  62              		.loc 1 101 0
  63 0004 1868     		ldr	r0, [r3]
  64              	.LVL1:
 102:STM32F10x_StdPeriph_Driver/src/stm32f10x_crc.c **** }
  65              		.loc 1 102 0
  66 0006 7047     		bx	lr
  67              	.L6:
  68              		.align	2
  69              	.L5:
  70 0008 00300240 		.word	1073885184
  71              		.cfi_endproc
  72              	.LFE28:
ARM GAS  /var/folders/g9/bbpj86ld7fx45vd1b3pqxmp00000gn/T//cc0cmuBV.s 			page 4


  74              		.section	.text.CRC_CalcBlockCRC,"ax",%progbits
  75              		.align	2
  76              		.global	CRC_CalcBlockCRC
  77              		.thumb
  78              		.thumb_func
  80              	CRC_CalcBlockCRC:
  81              	.LFB29:
 103:STM32F10x_StdPeriph_Driver/src/stm32f10x_crc.c **** 
 104:STM32F10x_StdPeriph_Driver/src/stm32f10x_crc.c **** /**
 105:STM32F10x_StdPeriph_Driver/src/stm32f10x_crc.c ****   * @brief  Computes the 32-bit CRC of a given buffer of data word(32-bit).
 106:STM32F10x_StdPeriph_Driver/src/stm32f10x_crc.c ****   * @param  pBuffer: pointer to the buffer containing the data to be computed
 107:STM32F10x_StdPeriph_Driver/src/stm32f10x_crc.c ****   * @param  BufferLength: length of the buffer to be computed					
 108:STM32F10x_StdPeriph_Driver/src/stm32f10x_crc.c ****   * @retval 32-bit CRC
 109:STM32F10x_StdPeriph_Driver/src/stm32f10x_crc.c ****   */
 110:STM32F10x_StdPeriph_Driver/src/stm32f10x_crc.c **** uint32_t CRC_CalcBlockCRC(uint32_t pBuffer[], uint32_t BufferLength)
 111:STM32F10x_StdPeriph_Driver/src/stm32f10x_crc.c **** {
  82              		.loc 1 111 0
  83              		.cfi_startproc
  84              		@ args = 0, pretend = 0, frame = 0
  85              		@ frame_needed = 0, uses_anonymous_args = 0
  86              		@ link register save eliminated.
  87              	.LVL2:
  88 0000 10B4     		push	{r4}
  89              	.LCFI0:
  90              		.cfi_def_cfa_offset 4
  91              		.cfi_offset 4, -4
  92              	.LVL3:
 112:STM32F10x_StdPeriph_Driver/src/stm32f10x_crc.c ****   uint32_t index = 0;
 113:STM32F10x_StdPeriph_Driver/src/stm32f10x_crc.c ****   
 114:STM32F10x_StdPeriph_Driver/src/stm32f10x_crc.c ****   for(index = 0; index < BufferLength; index++)
  93              		.loc 1 114 0
  94 0002 0023     		movs	r3, #0
  95 0004 04E0     		b	.L8
  96              	.LVL4:
  97              	.L9:
 115:STM32F10x_StdPeriph_Driver/src/stm32f10x_crc.c ****   {
 116:STM32F10x_StdPeriph_Driver/src/stm32f10x_crc.c ****     CRC->DR = pBuffer[index];
  98              		.loc 1 116 0 discriminator 3
  99 0006 50F82340 		ldr	r4, [r0, r3, lsl #2]
 100 000a 044A     		ldr	r2, .L11
 101 000c 1460     		str	r4, [r2]
 114:STM32F10x_StdPeriph_Driver/src/stm32f10x_crc.c ****   {
 102              		.loc 1 114 0 discriminator 3
 103 000e 0133     		adds	r3, r3, #1
 104              	.LVL5:
 105              	.L8:
 114:STM32F10x_StdPeriph_Driver/src/stm32f10x_crc.c ****   {
 106              		.loc 1 114 0 is_stmt 0 discriminator 1
 107 0010 8B42     		cmp	r3, r1
 108 0012 F8D3     		bcc	.L9
 117:STM32F10x_StdPeriph_Driver/src/stm32f10x_crc.c ****   }
 118:STM32F10x_StdPeriph_Driver/src/stm32f10x_crc.c ****   return (CRC->DR);
 109              		.loc 1 118 0 is_stmt 1
 110 0014 014B     		ldr	r3, .L11
 111              	.LVL6:
 112 0016 1868     		ldr	r0, [r3]
 113              	.LVL7:
ARM GAS  /var/folders/g9/bbpj86ld7fx45vd1b3pqxmp00000gn/T//cc0cmuBV.s 			page 5


 119:STM32F10x_StdPeriph_Driver/src/stm32f10x_crc.c **** }
 114              		.loc 1 119 0
 115 0018 10BC     		pop	{r4}
 116              	.LCFI1:
 117              		.cfi_restore 4
 118              		.cfi_def_cfa_offset 0
 119 001a 7047     		bx	lr
 120              	.L12:
 121              		.align	2
 122              	.L11:
 123 001c 00300240 		.word	1073885184
 124              		.cfi_endproc
 125              	.LFE29:
 127              		.section	.text.CRC_GetCRC,"ax",%progbits
 128              		.align	2
 129              		.global	CRC_GetCRC
 130              		.thumb
 131              		.thumb_func
 133              	CRC_GetCRC:
 134              	.LFB30:
 120:STM32F10x_StdPeriph_Driver/src/stm32f10x_crc.c **** 
 121:STM32F10x_StdPeriph_Driver/src/stm32f10x_crc.c **** /**
 122:STM32F10x_StdPeriph_Driver/src/stm32f10x_crc.c ****   * @brief  Returns the current CRC value.
 123:STM32F10x_StdPeriph_Driver/src/stm32f10x_crc.c ****   * @param  None
 124:STM32F10x_StdPeriph_Driver/src/stm32f10x_crc.c ****   * @retval 32-bit CRC
 125:STM32F10x_StdPeriph_Driver/src/stm32f10x_crc.c ****   */
 126:STM32F10x_StdPeriph_Driver/src/stm32f10x_crc.c **** uint32_t CRC_GetCRC(void)
 127:STM32F10x_StdPeriph_Driver/src/stm32f10x_crc.c **** {
 135              		.loc 1 127 0
 136              		.cfi_startproc
 137              		@ args = 0, pretend = 0, frame = 0
 138              		@ frame_needed = 0, uses_anonymous_args = 0
 139              		@ link register save eliminated.
 128:STM32F10x_StdPeriph_Driver/src/stm32f10x_crc.c ****   return (CRC->DR);
 140              		.loc 1 128 0
 141 0000 014B     		ldr	r3, .L14
 142 0002 1868     		ldr	r0, [r3]
 129:STM32F10x_StdPeriph_Driver/src/stm32f10x_crc.c **** }
 143              		.loc 1 129 0
 144 0004 7047     		bx	lr
 145              	.L15:
 146 0006 00BF     		.align	2
 147              	.L14:
 148 0008 00300240 		.word	1073885184
 149              		.cfi_endproc
 150              	.LFE30:
 152              		.section	.text.CRC_SetIDRegister,"ax",%progbits
 153              		.align	2
 154              		.global	CRC_SetIDRegister
 155              		.thumb
 156              		.thumb_func
 158              	CRC_SetIDRegister:
 159              	.LFB31:
 130:STM32F10x_StdPeriph_Driver/src/stm32f10x_crc.c **** 
 131:STM32F10x_StdPeriph_Driver/src/stm32f10x_crc.c **** /**
 132:STM32F10x_StdPeriph_Driver/src/stm32f10x_crc.c ****   * @brief  Stores a 8-bit data in the Independent Data(ID) register.
 133:STM32F10x_StdPeriph_Driver/src/stm32f10x_crc.c ****   * @param  IDValue: 8-bit value to be stored in the ID register 					
ARM GAS  /var/folders/g9/bbpj86ld7fx45vd1b3pqxmp00000gn/T//cc0cmuBV.s 			page 6


 134:STM32F10x_StdPeriph_Driver/src/stm32f10x_crc.c ****   * @retval None
 135:STM32F10x_StdPeriph_Driver/src/stm32f10x_crc.c ****   */
 136:STM32F10x_StdPeriph_Driver/src/stm32f10x_crc.c **** void CRC_SetIDRegister(uint8_t IDValue)
 137:STM32F10x_StdPeriph_Driver/src/stm32f10x_crc.c **** {
 160              		.loc 1 137 0
 161              		.cfi_startproc
 162              		@ args = 0, pretend = 0, frame = 0
 163              		@ frame_needed = 0, uses_anonymous_args = 0
 164              		@ link register save eliminated.
 165              	.LVL8:
 138:STM32F10x_StdPeriph_Driver/src/stm32f10x_crc.c ****   CRC->IDR = IDValue;
 166              		.loc 1 138 0
 167 0000 014B     		ldr	r3, .L17
 168 0002 1871     		strb	r0, [r3, #4]
 169 0004 7047     		bx	lr
 170              	.L18:
 171 0006 00BF     		.align	2
 172              	.L17:
 173 0008 00300240 		.word	1073885184
 174              		.cfi_endproc
 175              	.LFE31:
 177              		.section	.text.CRC_GetIDRegister,"ax",%progbits
 178              		.align	2
 179              		.global	CRC_GetIDRegister
 180              		.thumb
 181              		.thumb_func
 183              	CRC_GetIDRegister:
 184              	.LFB32:
 139:STM32F10x_StdPeriph_Driver/src/stm32f10x_crc.c **** }
 140:STM32F10x_StdPeriph_Driver/src/stm32f10x_crc.c **** 
 141:STM32F10x_StdPeriph_Driver/src/stm32f10x_crc.c **** /**
 142:STM32F10x_StdPeriph_Driver/src/stm32f10x_crc.c ****   * @brief  Returns the 8-bit data stored in the Independent Data(ID) register
 143:STM32F10x_StdPeriph_Driver/src/stm32f10x_crc.c ****   * @param  None
 144:STM32F10x_StdPeriph_Driver/src/stm32f10x_crc.c ****   * @retval 8-bit value of the ID register 
 145:STM32F10x_StdPeriph_Driver/src/stm32f10x_crc.c ****   */
 146:STM32F10x_StdPeriph_Driver/src/stm32f10x_crc.c **** uint8_t CRC_GetIDRegister(void)
 147:STM32F10x_StdPeriph_Driver/src/stm32f10x_crc.c **** {
 185              		.loc 1 147 0
 186              		.cfi_startproc
 187              		@ args = 0, pretend = 0, frame = 0
 188              		@ frame_needed = 0, uses_anonymous_args = 0
 189              		@ link register save eliminated.
 148:STM32F10x_StdPeriph_Driver/src/stm32f10x_crc.c ****   return (CRC->IDR);
 190              		.loc 1 148 0
 191 0000 014B     		ldr	r3, .L20
 192 0002 1879     		ldrb	r0, [r3, #4]	@ zero_extendqisi2
 149:STM32F10x_StdPeriph_Driver/src/stm32f10x_crc.c **** }
 193              		.loc 1 149 0
 194 0004 7047     		bx	lr
 195              	.L21:
 196 0006 00BF     		.align	2
 197              	.L20:
 198 0008 00300240 		.word	1073885184
 199              		.cfi_endproc
 200              	.LFE32:
 202              		.text
 203              	.Letext0:
ARM GAS  /var/folders/g9/bbpj86ld7fx45vd1b3pqxmp00000gn/T//cc0cmuBV.s 			page 7


 204              		.file 2 "/usr/local/Cellar/gcc-arm-none-eabi/20160926/arm-none-eabi/include/machine/_default_types
 205              		.file 3 "/usr/local/Cellar/gcc-arm-none-eabi/20160926/arm-none-eabi/include/sys/_stdint.h"
 206              		.file 4 "CMSIS/Core/CM3/stm32f10x.h"
ARM GAS  /var/folders/g9/bbpj86ld7fx45vd1b3pqxmp00000gn/T//cc0cmuBV.s 			page 8

