ARM GAS  /var/folders/g9/bbpj86ld7fx45vd1b3pqxmp00000gn/T//cch0rGuN.s 			page 1


   1              		.syntax unified
   2              		.cpu cortex-m3
   3              		.fpu softvfp
   4              		.eabi_attribute 20, 1
   5              		.eabi_attribute 21, 1
   6              		.eabi_attribute 23, 3
   7              		.eabi_attribute 24, 1
   8              		.eabi_attribute 25, 1
   9              		.eabi_attribute 26, 1
  10              		.eabi_attribute 30, 1
  11              		.eabi_attribute 34, 1
  12              		.eabi_attribute 18, 4
  13              		.thumb
  14              		.syntax unified
  15              		.file	"stm32f10x_fsmc.c"
  16              		.text
  17              	.Ltext0:
  18              		.cfi_sections	.debug_frame
  19              		.section	.text.FSMC_NORSRAMDeInit,"ax",%progbits
  20              		.align	2
  21              		.global	FSMC_NORSRAMDeInit
  22              		.thumb
  23              		.thumb_func
  25              	FSMC_NORSRAMDeInit:
  26              	.LFB27:
  27              		.file 1 "STM32F10x_StdPeriph_Driver/src/stm32f10x_fsmc.c"
   1:STM32F10x_StdPeriph_Driver/src/stm32f10x_fsmc.c **** /**
   2:STM32F10x_StdPeriph_Driver/src/stm32f10x_fsmc.c ****   ******************************************************************************
   3:STM32F10x_StdPeriph_Driver/src/stm32f10x_fsmc.c ****   * @file    stm32f10x_fsmc.c
   4:STM32F10x_StdPeriph_Driver/src/stm32f10x_fsmc.c ****   * @author  MCD Application Team
   5:STM32F10x_StdPeriph_Driver/src/stm32f10x_fsmc.c ****   * @version V3.1.2
   6:STM32F10x_StdPeriph_Driver/src/stm32f10x_fsmc.c ****   * @date    09/28/2009
   7:STM32F10x_StdPeriph_Driver/src/stm32f10x_fsmc.c ****   * @brief   This file provides all the FSMC firmware functions.
   8:STM32F10x_StdPeriph_Driver/src/stm32f10x_fsmc.c ****   ******************************************************************************
   9:STM32F10x_StdPeriph_Driver/src/stm32f10x_fsmc.c ****   * @copy
  10:STM32F10x_StdPeriph_Driver/src/stm32f10x_fsmc.c ****   *
  11:STM32F10x_StdPeriph_Driver/src/stm32f10x_fsmc.c ****   * THE PRESENT FIRMWARE WHICH IS FOR GUIDANCE ONLY AIMS AT PROVIDING CUSTOMERS
  12:STM32F10x_StdPeriph_Driver/src/stm32f10x_fsmc.c ****   * WITH CODING INFORMATION REGARDING THEIR PRODUCTS IN ORDER FOR THEM TO SAVE
  13:STM32F10x_StdPeriph_Driver/src/stm32f10x_fsmc.c ****   * TIME. AS A RESULT, STMICROELECTRONICS SHALL NOT BE HELD LIABLE FOR ANY
  14:STM32F10x_StdPeriph_Driver/src/stm32f10x_fsmc.c ****   * DIRECT, INDIRECT OR CONSEQUENTIAL DAMAGES WITH RESPECT TO ANY CLAIMS ARISING
  15:STM32F10x_StdPeriph_Driver/src/stm32f10x_fsmc.c ****   * FROM THE CONTENT OF SUCH FIRMWARE AND/OR THE USE MADE BY CUSTOMERS OF THE
  16:STM32F10x_StdPeriph_Driver/src/stm32f10x_fsmc.c ****   * CODING INFORMATION CONTAINED HEREIN IN CONNECTION WITH THEIR PRODUCTS.
  17:STM32F10x_StdPeriph_Driver/src/stm32f10x_fsmc.c ****   *
  18:STM32F10x_StdPeriph_Driver/src/stm32f10x_fsmc.c ****   * <h2><center>&copy; COPYRIGHT 2009 STMicroelectronics</center></h2>
  19:STM32F10x_StdPeriph_Driver/src/stm32f10x_fsmc.c ****   */ 
  20:STM32F10x_StdPeriph_Driver/src/stm32f10x_fsmc.c **** 
  21:STM32F10x_StdPeriph_Driver/src/stm32f10x_fsmc.c **** /* Includes ------------------------------------------------------------------*/
  22:STM32F10x_StdPeriph_Driver/src/stm32f10x_fsmc.c **** #include "stm32f10x_fsmc.h"
  23:STM32F10x_StdPeriph_Driver/src/stm32f10x_fsmc.c **** #include "stm32f10x_rcc.h"
  24:STM32F10x_StdPeriph_Driver/src/stm32f10x_fsmc.c **** 
  25:STM32F10x_StdPeriph_Driver/src/stm32f10x_fsmc.c **** /** @addtogroup STM32F10x_StdPeriph_Driver
  26:STM32F10x_StdPeriph_Driver/src/stm32f10x_fsmc.c ****   * @{
  27:STM32F10x_StdPeriph_Driver/src/stm32f10x_fsmc.c ****   */
  28:STM32F10x_StdPeriph_Driver/src/stm32f10x_fsmc.c **** 
  29:STM32F10x_StdPeriph_Driver/src/stm32f10x_fsmc.c **** /** @defgroup FSMC 
  30:STM32F10x_StdPeriph_Driver/src/stm32f10x_fsmc.c ****   * @brief FSMC driver modules
  31:STM32F10x_StdPeriph_Driver/src/stm32f10x_fsmc.c ****   * @{
ARM GAS  /var/folders/g9/bbpj86ld7fx45vd1b3pqxmp00000gn/T//cch0rGuN.s 			page 2


  32:STM32F10x_StdPeriph_Driver/src/stm32f10x_fsmc.c ****   */ 
  33:STM32F10x_StdPeriph_Driver/src/stm32f10x_fsmc.c **** 
  34:STM32F10x_StdPeriph_Driver/src/stm32f10x_fsmc.c **** /** @defgroup FSMC_Private_TypesDefinitions
  35:STM32F10x_StdPeriph_Driver/src/stm32f10x_fsmc.c ****   * @{
  36:STM32F10x_StdPeriph_Driver/src/stm32f10x_fsmc.c ****   */ 
  37:STM32F10x_StdPeriph_Driver/src/stm32f10x_fsmc.c **** /**
  38:STM32F10x_StdPeriph_Driver/src/stm32f10x_fsmc.c ****   * @}
  39:STM32F10x_StdPeriph_Driver/src/stm32f10x_fsmc.c ****   */
  40:STM32F10x_StdPeriph_Driver/src/stm32f10x_fsmc.c **** 
  41:STM32F10x_StdPeriph_Driver/src/stm32f10x_fsmc.c **** /** @defgroup FSMC_Private_Defines
  42:STM32F10x_StdPeriph_Driver/src/stm32f10x_fsmc.c ****   * @{
  43:STM32F10x_StdPeriph_Driver/src/stm32f10x_fsmc.c ****   */
  44:STM32F10x_StdPeriph_Driver/src/stm32f10x_fsmc.c **** 
  45:STM32F10x_StdPeriph_Driver/src/stm32f10x_fsmc.c **** /* --------------------- FSMC registers bit mask ---------------------------- */
  46:STM32F10x_StdPeriph_Driver/src/stm32f10x_fsmc.c **** 
  47:STM32F10x_StdPeriph_Driver/src/stm32f10x_fsmc.c **** /* FSMC BCRx Mask */
  48:STM32F10x_StdPeriph_Driver/src/stm32f10x_fsmc.c **** #define BCR_MBKEN_Set                       ((uint32_t)0x00000001)
  49:STM32F10x_StdPeriph_Driver/src/stm32f10x_fsmc.c **** #define BCR_MBKEN_Reset                     ((uint32_t)0x000FFFFE)
  50:STM32F10x_StdPeriph_Driver/src/stm32f10x_fsmc.c **** #define BCR_FACCEN_Set                      ((uint32_t)0x00000040)
  51:STM32F10x_StdPeriph_Driver/src/stm32f10x_fsmc.c **** 
  52:STM32F10x_StdPeriph_Driver/src/stm32f10x_fsmc.c **** /* FSMC PCRx Mask */
  53:STM32F10x_StdPeriph_Driver/src/stm32f10x_fsmc.c **** #define PCR_PBKEN_Set                       ((uint32_t)0x00000004)
  54:STM32F10x_StdPeriph_Driver/src/stm32f10x_fsmc.c **** #define PCR_PBKEN_Reset                     ((uint32_t)0x000FFFFB)
  55:STM32F10x_StdPeriph_Driver/src/stm32f10x_fsmc.c **** #define PCR_ECCEN_Set                       ((uint32_t)0x00000040)
  56:STM32F10x_StdPeriph_Driver/src/stm32f10x_fsmc.c **** #define PCR_ECCEN_Reset                     ((uint32_t)0x000FFFBF)
  57:STM32F10x_StdPeriph_Driver/src/stm32f10x_fsmc.c **** #define PCR_MemoryType_NAND                 ((uint32_t)0x00000008)
  58:STM32F10x_StdPeriph_Driver/src/stm32f10x_fsmc.c **** /**
  59:STM32F10x_StdPeriph_Driver/src/stm32f10x_fsmc.c ****   * @}
  60:STM32F10x_StdPeriph_Driver/src/stm32f10x_fsmc.c ****   */
  61:STM32F10x_StdPeriph_Driver/src/stm32f10x_fsmc.c **** 
  62:STM32F10x_StdPeriph_Driver/src/stm32f10x_fsmc.c **** /** @defgroup FSMC_Private_Macros
  63:STM32F10x_StdPeriph_Driver/src/stm32f10x_fsmc.c ****   * @{
  64:STM32F10x_StdPeriph_Driver/src/stm32f10x_fsmc.c ****   */
  65:STM32F10x_StdPeriph_Driver/src/stm32f10x_fsmc.c **** 
  66:STM32F10x_StdPeriph_Driver/src/stm32f10x_fsmc.c **** /**
  67:STM32F10x_StdPeriph_Driver/src/stm32f10x_fsmc.c ****   * @}
  68:STM32F10x_StdPeriph_Driver/src/stm32f10x_fsmc.c ****   */
  69:STM32F10x_StdPeriph_Driver/src/stm32f10x_fsmc.c **** 
  70:STM32F10x_StdPeriph_Driver/src/stm32f10x_fsmc.c **** /** @defgroup FSMC_Private_Variables
  71:STM32F10x_StdPeriph_Driver/src/stm32f10x_fsmc.c ****   * @{
  72:STM32F10x_StdPeriph_Driver/src/stm32f10x_fsmc.c ****   */
  73:STM32F10x_StdPeriph_Driver/src/stm32f10x_fsmc.c **** 
  74:STM32F10x_StdPeriph_Driver/src/stm32f10x_fsmc.c **** /**
  75:STM32F10x_StdPeriph_Driver/src/stm32f10x_fsmc.c ****   * @}
  76:STM32F10x_StdPeriph_Driver/src/stm32f10x_fsmc.c ****   */
  77:STM32F10x_StdPeriph_Driver/src/stm32f10x_fsmc.c **** 
  78:STM32F10x_StdPeriph_Driver/src/stm32f10x_fsmc.c **** /** @defgroup FSMC_Private_FunctionPrototypes
  79:STM32F10x_StdPeriph_Driver/src/stm32f10x_fsmc.c ****   * @{
  80:STM32F10x_StdPeriph_Driver/src/stm32f10x_fsmc.c ****   */
  81:STM32F10x_StdPeriph_Driver/src/stm32f10x_fsmc.c **** 
  82:STM32F10x_StdPeriph_Driver/src/stm32f10x_fsmc.c **** /**
  83:STM32F10x_StdPeriph_Driver/src/stm32f10x_fsmc.c ****   * @}
  84:STM32F10x_StdPeriph_Driver/src/stm32f10x_fsmc.c ****   */
  85:STM32F10x_StdPeriph_Driver/src/stm32f10x_fsmc.c **** 
  86:STM32F10x_StdPeriph_Driver/src/stm32f10x_fsmc.c **** /** @defgroup FSMC_Private_Functions
  87:STM32F10x_StdPeriph_Driver/src/stm32f10x_fsmc.c ****   * @{
  88:STM32F10x_StdPeriph_Driver/src/stm32f10x_fsmc.c ****   */
ARM GAS  /var/folders/g9/bbpj86ld7fx45vd1b3pqxmp00000gn/T//cch0rGuN.s 			page 3


  89:STM32F10x_StdPeriph_Driver/src/stm32f10x_fsmc.c **** 
  90:STM32F10x_StdPeriph_Driver/src/stm32f10x_fsmc.c **** /**
  91:STM32F10x_StdPeriph_Driver/src/stm32f10x_fsmc.c ****   * @brief  Deinitializes the FSMC NOR/SRAM Banks registers to their default 
  92:STM32F10x_StdPeriph_Driver/src/stm32f10x_fsmc.c ****   *   reset values.
  93:STM32F10x_StdPeriph_Driver/src/stm32f10x_fsmc.c ****   * @param  FSMC_Bank: specifies the FSMC Bank to be used
  94:STM32F10x_StdPeriph_Driver/src/stm32f10x_fsmc.c ****   *   This parameter can be one of the following values:
  95:STM32F10x_StdPeriph_Driver/src/stm32f10x_fsmc.c ****   *     @arg FSMC_Bank1_NORSRAM1: FSMC Bank1 NOR/SRAM1  
  96:STM32F10x_StdPeriph_Driver/src/stm32f10x_fsmc.c ****   *     @arg FSMC_Bank1_NORSRAM2: FSMC Bank1 NOR/SRAM2 
  97:STM32F10x_StdPeriph_Driver/src/stm32f10x_fsmc.c ****   *     @arg FSMC_Bank1_NORSRAM3: FSMC Bank1 NOR/SRAM3 
  98:STM32F10x_StdPeriph_Driver/src/stm32f10x_fsmc.c ****   *     @arg FSMC_Bank1_NORSRAM4: FSMC Bank1 NOR/SRAM4 
  99:STM32F10x_StdPeriph_Driver/src/stm32f10x_fsmc.c ****   * @retval None
 100:STM32F10x_StdPeriph_Driver/src/stm32f10x_fsmc.c ****   */
 101:STM32F10x_StdPeriph_Driver/src/stm32f10x_fsmc.c **** void FSMC_NORSRAMDeInit(uint32_t FSMC_Bank)
 102:STM32F10x_StdPeriph_Driver/src/stm32f10x_fsmc.c **** {
  28              		.loc 1 102 0
  29              		.cfi_startproc
  30              		@ args = 0, pretend = 0, frame = 0
  31              		@ frame_needed = 0, uses_anonymous_args = 0
  32              	.LVL0:
  33 0000 10B5     		push	{r4, lr}
  34              	.LCFI0:
  35              		.cfi_def_cfa_offset 8
  36              		.cfi_offset 4, -8
  37              		.cfi_offset 14, -4
 103:STM32F10x_StdPeriph_Driver/src/stm32f10x_fsmc.c ****   /* Check the parameter */
 104:STM32F10x_StdPeriph_Driver/src/stm32f10x_fsmc.c ****   assert_param(IS_FSMC_NORSRAM_BANK(FSMC_Bank));
  38              		.loc 1 104 0
  39 0002 0446     		mov	r4, r0
  40 0004 48B1     		cbz	r0, .L2
  41              		.loc 1 104 0 is_stmt 0 discriminator 1
  42 0006 0228     		cmp	r0, #2
  43 0008 07D0     		beq	.L2
  44              		.loc 1 104 0 discriminator 2
  45 000a 0428     		cmp	r0, #4
  46 000c 05D0     		beq	.L2
  47              		.loc 1 104 0 discriminator 3
  48 000e 0628     		cmp	r0, #6
  49 0010 03D0     		beq	.L2
  50              		.loc 1 104 0 discriminator 4
  51 0012 6821     		movs	r1, #104
  52 0014 0E48     		ldr	r0, .L6
  53              	.LVL1:
  54 0016 FFF7FEFF 		bl	assert_failed
  55              	.LVL2:
  56              	.L2:
 105:STM32F10x_StdPeriph_Driver/src/stm32f10x_fsmc.c ****   
 106:STM32F10x_StdPeriph_Driver/src/stm32f10x_fsmc.c ****   /* FSMC_Bank1_NORSRAM1 */
 107:STM32F10x_StdPeriph_Driver/src/stm32f10x_fsmc.c ****   if(FSMC_Bank == FSMC_Bank1_NORSRAM1)
  57              		.loc 1 107 0 is_stmt 1
  58 001a 34B9     		cbnz	r4, .L3
 108:STM32F10x_StdPeriph_Driver/src/stm32f10x_fsmc.c ****   {
 109:STM32F10x_StdPeriph_Driver/src/stm32f10x_fsmc.c ****     FSMC_Bank1->BTCR[FSMC_Bank] = 0x000030DB;    
  59              		.loc 1 109 0
  60 001c 43F2DB02 		movw	r2, #12507
  61 0020 4FF02043 		mov	r3, #-1610612736
  62 0024 43F82420 		str	r2, [r3, r4, lsl #2]
  63 0028 05E0     		b	.L4
ARM GAS  /var/folders/g9/bbpj86ld7fx45vd1b3pqxmp00000gn/T//cch0rGuN.s 			page 4


  64              	.L3:
 110:STM32F10x_StdPeriph_Driver/src/stm32f10x_fsmc.c ****   }
 111:STM32F10x_StdPeriph_Driver/src/stm32f10x_fsmc.c ****   /* FSMC_Bank1_NORSRAM2,  FSMC_Bank1_NORSRAM3 or FSMC_Bank1_NORSRAM4 */
 112:STM32F10x_StdPeriph_Driver/src/stm32f10x_fsmc.c ****   else
 113:STM32F10x_StdPeriph_Driver/src/stm32f10x_fsmc.c ****   {   
 114:STM32F10x_StdPeriph_Driver/src/stm32f10x_fsmc.c ****     FSMC_Bank1->BTCR[FSMC_Bank] = 0x000030D2; 
  65              		.loc 1 114 0
  66 002a 43F2D202 		movw	r2, #12498
  67 002e 4FF02043 		mov	r3, #-1610612736
  68 0032 43F82420 		str	r2, [r3, r4, lsl #2]
  69              	.L4:
 115:STM32F10x_StdPeriph_Driver/src/stm32f10x_fsmc.c ****   }
 116:STM32F10x_StdPeriph_Driver/src/stm32f10x_fsmc.c ****   FSMC_Bank1->BTCR[FSMC_Bank + 1] = 0x0FFFFFFF;
  70              		.loc 1 116 0
  71 0036 611C     		adds	r1, r4, #1
  72 0038 6FF07043 		mvn	r3, #-268435456
  73 003c 4FF02042 		mov	r2, #-1610612736
  74 0040 42F82130 		str	r3, [r2, r1, lsl #2]
 117:STM32F10x_StdPeriph_Driver/src/stm32f10x_fsmc.c ****   FSMC_Bank1E->BWTR[FSMC_Bank] = 0x0FFFFFFF;  
  75              		.loc 1 117 0
  76 0044 02F58272 		add	r2, r2, #260
  77 0048 42F82430 		str	r3, [r2, r4, lsl #2]
  78 004c 10BD     		pop	{r4, pc}
  79              	.LVL3:
  80              	.L7:
  81 004e 00BF     		.align	2
  82              	.L6:
  83 0050 00000000 		.word	.LC0
  84              		.cfi_endproc
  85              	.LFE27:
  87              		.section	.text.FSMC_NANDDeInit,"ax",%progbits
  88              		.align	2
  89              		.global	FSMC_NANDDeInit
  90              		.thumb
  91              		.thumb_func
  93              	FSMC_NANDDeInit:
  94              	.LFB28:
 118:STM32F10x_StdPeriph_Driver/src/stm32f10x_fsmc.c **** }
 119:STM32F10x_StdPeriph_Driver/src/stm32f10x_fsmc.c **** 
 120:STM32F10x_StdPeriph_Driver/src/stm32f10x_fsmc.c **** /**
 121:STM32F10x_StdPeriph_Driver/src/stm32f10x_fsmc.c ****   * @brief  Deinitializes the FSMC NAND Banks registers to their default reset values.
 122:STM32F10x_StdPeriph_Driver/src/stm32f10x_fsmc.c ****   * @param  FSMC_Bank: specifies the FSMC Bank to be used
 123:STM32F10x_StdPeriph_Driver/src/stm32f10x_fsmc.c ****   *   This parameter can be one of the following values:
 124:STM32F10x_StdPeriph_Driver/src/stm32f10x_fsmc.c ****   *     @arg FSMC_Bank2_NAND: FSMC Bank2 NAND 
 125:STM32F10x_StdPeriph_Driver/src/stm32f10x_fsmc.c ****   *     @arg FSMC_Bank3_NAND: FSMC Bank3 NAND 
 126:STM32F10x_StdPeriph_Driver/src/stm32f10x_fsmc.c ****   * @retval None
 127:STM32F10x_StdPeriph_Driver/src/stm32f10x_fsmc.c ****   */
 128:STM32F10x_StdPeriph_Driver/src/stm32f10x_fsmc.c **** void FSMC_NANDDeInit(uint32_t FSMC_Bank)
 129:STM32F10x_StdPeriph_Driver/src/stm32f10x_fsmc.c **** {
  95              		.loc 1 129 0
  96              		.cfi_startproc
  97              		@ args = 0, pretend = 0, frame = 0
  98              		@ frame_needed = 0, uses_anonymous_args = 0
  99              	.LVL4:
 100 0000 10B5     		push	{r4, lr}
 101              	.LCFI1:
 102              		.cfi_def_cfa_offset 8
ARM GAS  /var/folders/g9/bbpj86ld7fx45vd1b3pqxmp00000gn/T//cch0rGuN.s 			page 5


 103              		.cfi_offset 4, -8
 104              		.cfi_offset 14, -4
 105 0002 0446     		mov	r4, r0
 130:STM32F10x_StdPeriph_Driver/src/stm32f10x_fsmc.c ****   /* Check the parameter */
 131:STM32F10x_StdPeriph_Driver/src/stm32f10x_fsmc.c ****   assert_param(IS_FSMC_NAND_BANK(FSMC_Bank));
 106              		.loc 1 131 0
 107 0004 1028     		cmp	r0, #16
 108 0006 06D0     		beq	.L9
 109              		.loc 1 131 0 is_stmt 0 discriminator 1
 110 0008 B0F5807F 		cmp	r0, #256
 111 000c 03D0     		beq	.L9
 112              		.loc 1 131 0 discriminator 2
 113 000e 8321     		movs	r1, #131
 114 0010 0C48     		ldr	r0, .L13
 115              	.LVL5:
 116 0012 FFF7FEFF 		bl	assert_failed
 117              	.LVL6:
 118              	.L9:
 132:STM32F10x_StdPeriph_Driver/src/stm32f10x_fsmc.c ****   
 133:STM32F10x_StdPeriph_Driver/src/stm32f10x_fsmc.c ****   if(FSMC_Bank == FSMC_Bank2_NAND)
 119              		.loc 1 133 0 is_stmt 1
 120 0016 102C     		cmp	r4, #16
 121 0018 09D1     		bne	.L10
 134:STM32F10x_StdPeriph_Driver/src/stm32f10x_fsmc.c ****   {
 135:STM32F10x_StdPeriph_Driver/src/stm32f10x_fsmc.c ****     /* Set the FSMC_Bank2 registers to their reset values */
 136:STM32F10x_StdPeriph_Driver/src/stm32f10x_fsmc.c ****     FSMC_Bank2->PCR2 = 0x00000018;
 122              		.loc 1 136 0
 123 001a 0B4B     		ldr	r3, .L13+4
 124 001c 1822     		movs	r2, #24
 125 001e 1A60     		str	r2, [r3]
 137:STM32F10x_StdPeriph_Driver/src/stm32f10x_fsmc.c ****     FSMC_Bank2->SR2 = 0x00000040;
 126              		.loc 1 137 0
 127 0020 4022     		movs	r2, #64
 128 0022 5A60     		str	r2, [r3, #4]
 138:STM32F10x_StdPeriph_Driver/src/stm32f10x_fsmc.c ****     FSMC_Bank2->PMEM2 = 0xFCFCFCFC;
 129              		.loc 1 138 0
 130 0024 4FF0FC32 		mov	r2, #-50529028
 131 0028 9A60     		str	r2, [r3, #8]
 139:STM32F10x_StdPeriph_Driver/src/stm32f10x_fsmc.c ****     FSMC_Bank2->PATT2 = 0xFCFCFCFC;  
 132              		.loc 1 139 0
 133 002a DA60     		str	r2, [r3, #12]
 134 002c 10BD     		pop	{r4, pc}
 135              	.LVL7:
 136              	.L10:
 140:STM32F10x_StdPeriph_Driver/src/stm32f10x_fsmc.c ****   }
 141:STM32F10x_StdPeriph_Driver/src/stm32f10x_fsmc.c ****   /* FSMC_Bank3_NAND */  
 142:STM32F10x_StdPeriph_Driver/src/stm32f10x_fsmc.c ****   else
 143:STM32F10x_StdPeriph_Driver/src/stm32f10x_fsmc.c ****   {
 144:STM32F10x_StdPeriph_Driver/src/stm32f10x_fsmc.c ****     /* Set the FSMC_Bank3 registers to their reset values */
 145:STM32F10x_StdPeriph_Driver/src/stm32f10x_fsmc.c ****     FSMC_Bank3->PCR3 = 0x00000018;
 137              		.loc 1 145 0
 138 002e 074B     		ldr	r3, .L13+8
 139 0030 1822     		movs	r2, #24
 140 0032 1A60     		str	r2, [r3]
 146:STM32F10x_StdPeriph_Driver/src/stm32f10x_fsmc.c ****     FSMC_Bank3->SR3 = 0x00000040;
 141              		.loc 1 146 0
 142 0034 4022     		movs	r2, #64
ARM GAS  /var/folders/g9/bbpj86ld7fx45vd1b3pqxmp00000gn/T//cch0rGuN.s 			page 6


 143 0036 5A60     		str	r2, [r3, #4]
 147:STM32F10x_StdPeriph_Driver/src/stm32f10x_fsmc.c ****     FSMC_Bank3->PMEM3 = 0xFCFCFCFC;
 144              		.loc 1 147 0
 145 0038 4FF0FC32 		mov	r2, #-50529028
 146 003c 9A60     		str	r2, [r3, #8]
 148:STM32F10x_StdPeriph_Driver/src/stm32f10x_fsmc.c ****     FSMC_Bank3->PATT3 = 0xFCFCFCFC; 
 147              		.loc 1 148 0
 148 003e DA60     		str	r2, [r3, #12]
 149 0040 10BD     		pop	{r4, pc}
 150              	.LVL8:
 151              	.L14:
 152 0042 00BF     		.align	2
 153              	.L13:
 154 0044 00000000 		.word	.LC0
 155 0048 600000A0 		.word	-1610612640
 156 004c 800000A0 		.word	-1610612608
 157              		.cfi_endproc
 158              	.LFE28:
 160              		.section	.text.FSMC_PCCARDDeInit,"ax",%progbits
 161              		.align	2
 162              		.global	FSMC_PCCARDDeInit
 163              		.thumb
 164              		.thumb_func
 166              	FSMC_PCCARDDeInit:
 167              	.LFB29:
 149:STM32F10x_StdPeriph_Driver/src/stm32f10x_fsmc.c ****   }  
 150:STM32F10x_StdPeriph_Driver/src/stm32f10x_fsmc.c **** }
 151:STM32F10x_StdPeriph_Driver/src/stm32f10x_fsmc.c **** 
 152:STM32F10x_StdPeriph_Driver/src/stm32f10x_fsmc.c **** /**
 153:STM32F10x_StdPeriph_Driver/src/stm32f10x_fsmc.c ****   * @brief  Deinitializes the FSMC PCCARD Bank registers to their default reset values.
 154:STM32F10x_StdPeriph_Driver/src/stm32f10x_fsmc.c ****   * @param  None                       
 155:STM32F10x_StdPeriph_Driver/src/stm32f10x_fsmc.c ****   * @retval None
 156:STM32F10x_StdPeriph_Driver/src/stm32f10x_fsmc.c ****   */
 157:STM32F10x_StdPeriph_Driver/src/stm32f10x_fsmc.c **** void FSMC_PCCARDDeInit(void)
 158:STM32F10x_StdPeriph_Driver/src/stm32f10x_fsmc.c **** {
 168              		.loc 1 158 0
 169              		.cfi_startproc
 170              		@ args = 0, pretend = 0, frame = 0
 171              		@ frame_needed = 0, uses_anonymous_args = 0
 172              		@ link register save eliminated.
 159:STM32F10x_StdPeriph_Driver/src/stm32f10x_fsmc.c ****   /* Set the FSMC_Bank4 registers to their reset values */
 160:STM32F10x_StdPeriph_Driver/src/stm32f10x_fsmc.c ****   FSMC_Bank4->PCR4 = 0x00000018; 
 173              		.loc 1 160 0
 174 0000 054B     		ldr	r3, .L16
 175 0002 1822     		movs	r2, #24
 176 0004 1A60     		str	r2, [r3]
 161:STM32F10x_StdPeriph_Driver/src/stm32f10x_fsmc.c ****   FSMC_Bank4->SR4 = 0x00000000;	
 177              		.loc 1 161 0
 178 0006 0022     		movs	r2, #0
 179 0008 5A60     		str	r2, [r3, #4]
 162:STM32F10x_StdPeriph_Driver/src/stm32f10x_fsmc.c ****   FSMC_Bank4->PMEM4 = 0xFCFCFCFC;
 180              		.loc 1 162 0
 181 000a 4FF0FC32 		mov	r2, #-50529028
 182 000e 9A60     		str	r2, [r3, #8]
 163:STM32F10x_StdPeriph_Driver/src/stm32f10x_fsmc.c ****   FSMC_Bank4->PATT4 = 0xFCFCFCFC;
 183              		.loc 1 163 0
 184 0010 DA60     		str	r2, [r3, #12]
ARM GAS  /var/folders/g9/bbpj86ld7fx45vd1b3pqxmp00000gn/T//cch0rGuN.s 			page 7


 164:STM32F10x_StdPeriph_Driver/src/stm32f10x_fsmc.c ****   FSMC_Bank4->PIO4 = 0xFCFCFCFC;
 185              		.loc 1 164 0
 186 0012 1A61     		str	r2, [r3, #16]
 187 0014 7047     		bx	lr
 188              	.L17:
 189 0016 00BF     		.align	2
 190              	.L16:
 191 0018 A00000A0 		.word	-1610612576
 192              		.cfi_endproc
 193              	.LFE29:
 195              		.section	.text.FSMC_NORSRAMInit,"ax",%progbits
 196              		.align	2
 197              		.global	FSMC_NORSRAMInit
 198              		.thumb
 199              		.thumb_func
 201              	FSMC_NORSRAMInit:
 202              	.LFB30:
 165:STM32F10x_StdPeriph_Driver/src/stm32f10x_fsmc.c **** }
 166:STM32F10x_StdPeriph_Driver/src/stm32f10x_fsmc.c **** 
 167:STM32F10x_StdPeriph_Driver/src/stm32f10x_fsmc.c **** /**
 168:STM32F10x_StdPeriph_Driver/src/stm32f10x_fsmc.c ****   * @brief  Initializes the FSMC NOR/SRAM Banks according to the specified
 169:STM32F10x_StdPeriph_Driver/src/stm32f10x_fsmc.c ****   *   parameters in the FSMC_NORSRAMInitStruct.
 170:STM32F10x_StdPeriph_Driver/src/stm32f10x_fsmc.c ****   * @param  FSMC_NORSRAMInitStruct : pointer to a FSMC_NORSRAMInitTypeDef
 171:STM32F10x_StdPeriph_Driver/src/stm32f10x_fsmc.c ****   *   structure that contains the configuration information for 
 172:STM32F10x_StdPeriph_Driver/src/stm32f10x_fsmc.c ****   *   the FSMC NOR/SRAM specified Banks.                       
 173:STM32F10x_StdPeriph_Driver/src/stm32f10x_fsmc.c ****   * @retval None
 174:STM32F10x_StdPeriph_Driver/src/stm32f10x_fsmc.c ****   */
 175:STM32F10x_StdPeriph_Driver/src/stm32f10x_fsmc.c **** void FSMC_NORSRAMInit(FSMC_NORSRAMInitTypeDef* FSMC_NORSRAMInitStruct)
 176:STM32F10x_StdPeriph_Driver/src/stm32f10x_fsmc.c **** { 
 203              		.loc 1 176 0
 204              		.cfi_startproc
 205              		@ args = 0, pretend = 0, frame = 0
 206              		@ frame_needed = 0, uses_anonymous_args = 0
 207              	.LVL9:
 208 0000 10B5     		push	{r4, lr}
 209              	.LCFI2:
 210              		.cfi_def_cfa_offset 8
 211              		.cfi_offset 4, -8
 212              		.cfi_offset 14, -4
 213 0002 0446     		mov	r4, r0
 177:STM32F10x_StdPeriph_Driver/src/stm32f10x_fsmc.c ****   /* Check the parameters */
 178:STM32F10x_StdPeriph_Driver/src/stm32f10x_fsmc.c ****   assert_param(IS_FSMC_NORSRAM_BANK(FSMC_NORSRAMInitStruct->FSMC_Bank));
 214              		.loc 1 178 0
 215 0004 0368     		ldr	r3, [r0]
 216 0006 4BB1     		cbz	r3, .L19
 217              		.loc 1 178 0 is_stmt 0 discriminator 1
 218 0008 022B     		cmp	r3, #2
 219 000a 07D0     		beq	.L19
 220              		.loc 1 178 0 discriminator 2
 221 000c 042B     		cmp	r3, #4
 222 000e 05D0     		beq	.L19
 223              		.loc 1 178 0 discriminator 3
 224 0010 062B     		cmp	r3, #6
 225 0012 03D0     		beq	.L19
 226              		.loc 1 178 0 discriminator 4
 227 0014 B221     		movs	r1, #178
 228 0016 9E48     		ldr	r0, .L48
ARM GAS  /var/folders/g9/bbpj86ld7fx45vd1b3pqxmp00000gn/T//cch0rGuN.s 			page 8


 229              	.LVL10:
 230 0018 FFF7FEFF 		bl	assert_failed
 231              	.LVL11:
 232              	.L19:
 179:STM32F10x_StdPeriph_Driver/src/stm32f10x_fsmc.c ****   assert_param(IS_FSMC_MUX(FSMC_NORSRAMInitStruct->FSMC_DataAddressMux));
 233              		.loc 1 179 0 is_stmt 1
 234 001c 6368     		ldr	r3, [r4, #4]
 235 001e 2BB1     		cbz	r3, .L20
 236              		.loc 1 179 0 is_stmt 0 discriminator 1
 237 0020 022B     		cmp	r3, #2
 238 0022 03D0     		beq	.L20
 239              		.loc 1 179 0 discriminator 2
 240 0024 B321     		movs	r1, #179
 241 0026 9A48     		ldr	r0, .L48
 242 0028 FFF7FEFF 		bl	assert_failed
 243              	.LVL12:
 244              	.L20:
 180:STM32F10x_StdPeriph_Driver/src/stm32f10x_fsmc.c ****   assert_param(IS_FSMC_MEMORY(FSMC_NORSRAMInitStruct->FSMC_MemoryType));
 245              		.loc 1 180 0 is_stmt 1
 246 002c A368     		ldr	r3, [r4, #8]
 247 002e 3BB1     		cbz	r3, .L21
 248              		.loc 1 180 0 is_stmt 0 discriminator 1
 249 0030 042B     		cmp	r3, #4
 250 0032 05D0     		beq	.L21
 251              		.loc 1 180 0 discriminator 2
 252 0034 082B     		cmp	r3, #8
 253 0036 03D0     		beq	.L21
 254              		.loc 1 180 0 discriminator 3
 255 0038 B421     		movs	r1, #180
 256 003a 9548     		ldr	r0, .L48
 257 003c FFF7FEFF 		bl	assert_failed
 258              	.LVL13:
 259              	.L21:
 181:STM32F10x_StdPeriph_Driver/src/stm32f10x_fsmc.c ****   assert_param(IS_FSMC_MEMORY_WIDTH(FSMC_NORSRAMInitStruct->FSMC_MemoryDataWidth));
 260              		.loc 1 181 0 is_stmt 1
 261 0040 E368     		ldr	r3, [r4, #12]
 262 0042 2BB1     		cbz	r3, .L22
 263              		.loc 1 181 0 is_stmt 0 discriminator 1
 264 0044 102B     		cmp	r3, #16
 265 0046 03D0     		beq	.L22
 266              		.loc 1 181 0 discriminator 2
 267 0048 B521     		movs	r1, #181
 268 004a 9148     		ldr	r0, .L48
 269 004c FFF7FEFF 		bl	assert_failed
 270              	.LVL14:
 271              	.L22:
 182:STM32F10x_StdPeriph_Driver/src/stm32f10x_fsmc.c ****   assert_param(IS_FSMC_BURSTMODE(FSMC_NORSRAMInitStruct->FSMC_BurstAccessMode));
 272              		.loc 1 182 0 is_stmt 1
 273 0050 2369     		ldr	r3, [r4, #16]
 274 0052 33B1     		cbz	r3, .L23
 275              		.loc 1 182 0 is_stmt 0 discriminator 1
 276 0054 B3F5807F 		cmp	r3, #256
 277 0058 03D0     		beq	.L23
 278              		.loc 1 182 0 discriminator 2
 279 005a B621     		movs	r1, #182
 280 005c 8C48     		ldr	r0, .L48
 281 005e FFF7FEFF 		bl	assert_failed
ARM GAS  /var/folders/g9/bbpj86ld7fx45vd1b3pqxmp00000gn/T//cch0rGuN.s 			page 9


 282              	.LVL15:
 283              	.L23:
 183:STM32F10x_StdPeriph_Driver/src/stm32f10x_fsmc.c ****   assert_param(IS_FSMC_WAIT_POLARITY(FSMC_NORSRAMInitStruct->FSMC_WaitSignalPolarity));
 284              		.loc 1 183 0 is_stmt 1
 285 0062 6369     		ldr	r3, [r4, #20]
 286 0064 33B1     		cbz	r3, .L24
 287              		.loc 1 183 0 is_stmt 0 discriminator 1
 288 0066 B3F5007F 		cmp	r3, #512
 289 006a 03D0     		beq	.L24
 290              		.loc 1 183 0 discriminator 2
 291 006c B721     		movs	r1, #183
 292 006e 8848     		ldr	r0, .L48
 293 0070 FFF7FEFF 		bl	assert_failed
 294              	.LVL16:
 295              	.L24:
 184:STM32F10x_StdPeriph_Driver/src/stm32f10x_fsmc.c ****   assert_param(IS_FSMC_WRAP_MODE(FSMC_NORSRAMInitStruct->FSMC_WrapMode));
 296              		.loc 1 184 0 is_stmt 1
 297 0074 A369     		ldr	r3, [r4, #24]
 298 0076 33B1     		cbz	r3, .L25
 299              		.loc 1 184 0 is_stmt 0 discriminator 1
 300 0078 B3F5806F 		cmp	r3, #1024
 301 007c 03D0     		beq	.L25
 302              		.loc 1 184 0 discriminator 2
 303 007e B821     		movs	r1, #184
 304 0080 8348     		ldr	r0, .L48
 305 0082 FFF7FEFF 		bl	assert_failed
 306              	.LVL17:
 307              	.L25:
 185:STM32F10x_StdPeriph_Driver/src/stm32f10x_fsmc.c ****   assert_param(IS_FSMC_WAIT_SIGNAL_ACTIVE(FSMC_NORSRAMInitStruct->FSMC_WaitSignalActive));
 308              		.loc 1 185 0 is_stmt 1
 309 0086 E369     		ldr	r3, [r4, #28]
 310 0088 33B1     		cbz	r3, .L26
 311              		.loc 1 185 0 is_stmt 0 discriminator 1
 312 008a B3F5006F 		cmp	r3, #2048
 313 008e 03D0     		beq	.L26
 314              		.loc 1 185 0 discriminator 2
 315 0090 B921     		movs	r1, #185
 316 0092 7F48     		ldr	r0, .L48
 317 0094 FFF7FEFF 		bl	assert_failed
 318              	.LVL18:
 319              	.L26:
 186:STM32F10x_StdPeriph_Driver/src/stm32f10x_fsmc.c ****   assert_param(IS_FSMC_WRITE_OPERATION(FSMC_NORSRAMInitStruct->FSMC_WriteOperation));
 320              		.loc 1 186 0 is_stmt 1
 321 0098 236A     		ldr	r3, [r4, #32]
 322 009a 33B1     		cbz	r3, .L27
 323              		.loc 1 186 0 is_stmt 0 discriminator 1
 324 009c B3F5805F 		cmp	r3, #4096
 325 00a0 03D0     		beq	.L27
 326              		.loc 1 186 0 discriminator 2
 327 00a2 BA21     		movs	r1, #186
 328 00a4 7A48     		ldr	r0, .L48
 329 00a6 FFF7FEFF 		bl	assert_failed
 330              	.LVL19:
 331              	.L27:
 187:STM32F10x_StdPeriph_Driver/src/stm32f10x_fsmc.c ****   assert_param(IS_FSMC_WAITE_SIGNAL(FSMC_NORSRAMInitStruct->FSMC_WaitSignal));
 332              		.loc 1 187 0 is_stmt 1
 333 00aa 636A     		ldr	r3, [r4, #36]
ARM GAS  /var/folders/g9/bbpj86ld7fx45vd1b3pqxmp00000gn/T//cch0rGuN.s 			page 10


 334 00ac 33B1     		cbz	r3, .L28
 335              		.loc 1 187 0 is_stmt 0 discriminator 1
 336 00ae B3F5005F 		cmp	r3, #8192
 337 00b2 03D0     		beq	.L28
 338              		.loc 1 187 0 discriminator 2
 339 00b4 BB21     		movs	r1, #187
 340 00b6 7648     		ldr	r0, .L48
 341 00b8 FFF7FEFF 		bl	assert_failed
 342              	.LVL20:
 343              	.L28:
 188:STM32F10x_StdPeriph_Driver/src/stm32f10x_fsmc.c ****   assert_param(IS_FSMC_EXTENDED_MODE(FSMC_NORSRAMInitStruct->FSMC_ExtendedMode));
 344              		.loc 1 188 0 is_stmt 1
 345 00bc A36A     		ldr	r3, [r4, #40]
 346 00be 33B1     		cbz	r3, .L29
 347              		.loc 1 188 0 is_stmt 0 discriminator 1
 348 00c0 B3F5804F 		cmp	r3, #16384
 349 00c4 03D0     		beq	.L29
 350              		.loc 1 188 0 discriminator 2
 351 00c6 BC21     		movs	r1, #188
 352 00c8 7148     		ldr	r0, .L48
 353 00ca FFF7FEFF 		bl	assert_failed
 354              	.LVL21:
 355              	.L29:
 189:STM32F10x_StdPeriph_Driver/src/stm32f10x_fsmc.c ****   assert_param(IS_FSMC_WRITE_BURST(FSMC_NORSRAMInitStruct->FSMC_WriteBurst));  
 356              		.loc 1 189 0 is_stmt 1
 357 00ce E36A     		ldr	r3, [r4, #44]
 358 00d0 33B1     		cbz	r3, .L30
 359              		.loc 1 189 0 is_stmt 0 discriminator 1
 360 00d2 B3F5002F 		cmp	r3, #524288
 361 00d6 03D0     		beq	.L30
 362              		.loc 1 189 0 discriminator 2
 363 00d8 BD21     		movs	r1, #189
 364 00da 6D48     		ldr	r0, .L48
 365 00dc FFF7FEFF 		bl	assert_failed
 366              	.LVL22:
 367              	.L30:
 190:STM32F10x_StdPeriph_Driver/src/stm32f10x_fsmc.c ****   assert_param(IS_FSMC_ADDRESS_SETUP_TIME(FSMC_NORSRAMInitStruct->FSMC_ReadWriteTimingStruct->FSMC_
 368              		.loc 1 190 0 is_stmt 1
 369 00e0 236B     		ldr	r3, [r4, #48]
 370 00e2 1B68     		ldr	r3, [r3]
 371 00e4 0F2B     		cmp	r3, #15
 372 00e6 03D9     		bls	.L31
 373              		.loc 1 190 0 is_stmt 0 discriminator 1
 374 00e8 BE21     		movs	r1, #190
 375 00ea 6948     		ldr	r0, .L48
 376 00ec FFF7FEFF 		bl	assert_failed
 377              	.LVL23:
 378              	.L31:
 191:STM32F10x_StdPeriph_Driver/src/stm32f10x_fsmc.c ****   assert_param(IS_FSMC_ADDRESS_HOLD_TIME(FSMC_NORSRAMInitStruct->FSMC_ReadWriteTimingStruct->FSMC_A
 379              		.loc 1 191 0 is_stmt 1
 380 00f0 236B     		ldr	r3, [r4, #48]
 381 00f2 5B68     		ldr	r3, [r3, #4]
 382 00f4 0F2B     		cmp	r3, #15
 383 00f6 03D9     		bls	.L32
 384              		.loc 1 191 0 is_stmt 0 discriminator 1
 385 00f8 BF21     		movs	r1, #191
 386 00fa 6548     		ldr	r0, .L48
ARM GAS  /var/folders/g9/bbpj86ld7fx45vd1b3pqxmp00000gn/T//cch0rGuN.s 			page 11


 387 00fc FFF7FEFF 		bl	assert_failed
 388              	.LVL24:
 389              	.L32:
 192:STM32F10x_StdPeriph_Driver/src/stm32f10x_fsmc.c ****   assert_param(IS_FSMC_DATASETUP_TIME(FSMC_NORSRAMInitStruct->FSMC_ReadWriteTimingStruct->FSMC_Data
 390              		.loc 1 192 0 is_stmt 1
 391 0100 236B     		ldr	r3, [r4, #48]
 392 0102 9B68     		ldr	r3, [r3, #8]
 393 0104 013B     		subs	r3, r3, #1
 394 0106 FE2B     		cmp	r3, #254
 395 0108 03D9     		bls	.L33
 396              		.loc 1 192 0 is_stmt 0 discriminator 1
 397 010a C021     		movs	r1, #192
 398 010c 6048     		ldr	r0, .L48
 399 010e FFF7FEFF 		bl	assert_failed
 400              	.LVL25:
 401              	.L33:
 193:STM32F10x_StdPeriph_Driver/src/stm32f10x_fsmc.c ****   assert_param(IS_FSMC_TURNAROUND_TIME(FSMC_NORSRAMInitStruct->FSMC_ReadWriteTimingStruct->FSMC_Bus
 402              		.loc 1 193 0 is_stmt 1
 403 0112 236B     		ldr	r3, [r4, #48]
 404 0114 DB68     		ldr	r3, [r3, #12]
 405 0116 0F2B     		cmp	r3, #15
 406 0118 03D9     		bls	.L34
 407              		.loc 1 193 0 is_stmt 0 discriminator 1
 408 011a C121     		movs	r1, #193
 409 011c 5C48     		ldr	r0, .L48
 410 011e FFF7FEFF 		bl	assert_failed
 411              	.LVL26:
 412              	.L34:
 194:STM32F10x_StdPeriph_Driver/src/stm32f10x_fsmc.c ****   assert_param(IS_FSMC_CLK_DIV(FSMC_NORSRAMInitStruct->FSMC_ReadWriteTimingStruct->FSMC_CLKDivision
 413              		.loc 1 194 0 is_stmt 1
 414 0122 236B     		ldr	r3, [r4, #48]
 415 0124 1B69     		ldr	r3, [r3, #16]
 416 0126 0F2B     		cmp	r3, #15
 417 0128 03D9     		bls	.L35
 418              		.loc 1 194 0 is_stmt 0 discriminator 1
 419 012a C221     		movs	r1, #194
 420 012c 5848     		ldr	r0, .L48
 421 012e FFF7FEFF 		bl	assert_failed
 422              	.LVL27:
 423              	.L35:
 195:STM32F10x_StdPeriph_Driver/src/stm32f10x_fsmc.c ****   assert_param(IS_FSMC_DATA_LATENCY(FSMC_NORSRAMInitStruct->FSMC_ReadWriteTimingStruct->FSMC_DataLa
 424              		.loc 1 195 0 is_stmt 1
 425 0132 236B     		ldr	r3, [r4, #48]
 426 0134 5B69     		ldr	r3, [r3, #20]
 427 0136 0F2B     		cmp	r3, #15
 428 0138 03D9     		bls	.L36
 429              		.loc 1 195 0 is_stmt 0 discriminator 1
 430 013a C321     		movs	r1, #195
 431 013c 5448     		ldr	r0, .L48
 432 013e FFF7FEFF 		bl	assert_failed
 433              	.LVL28:
 434              	.L36:
 196:STM32F10x_StdPeriph_Driver/src/stm32f10x_fsmc.c ****   assert_param(IS_FSMC_ACCESS_MODE(FSMC_NORSRAMInitStruct->FSMC_ReadWriteTimingStruct->FSMC_AccessM
 435              		.loc 1 196 0 is_stmt 1
 436 0142 236B     		ldr	r3, [r4, #48]
 437 0144 9B69     		ldr	r3, [r3, #24]
 438 0146 63B1     		cbz	r3, .L37
ARM GAS  /var/folders/g9/bbpj86ld7fx45vd1b3pqxmp00000gn/T//cch0rGuN.s 			page 12


 439              		.loc 1 196 0 is_stmt 0 discriminator 1
 440 0148 B3F1805F 		cmp	r3, #268435456
 441 014c 09D0     		beq	.L37
 442              		.loc 1 196 0 discriminator 2
 443 014e B3F1005F 		cmp	r3, #536870912
 444 0152 06D0     		beq	.L37
 445              		.loc 1 196 0 discriminator 3
 446 0154 B3F1405F 		cmp	r3, #805306368
 447 0158 03D0     		beq	.L37
 448              		.loc 1 196 0 discriminator 4
 449 015a C421     		movs	r1, #196
 450 015c 4C48     		ldr	r0, .L48
 451 015e FFF7FEFF 		bl	assert_failed
 452              	.LVL29:
 453              	.L37:
 197:STM32F10x_StdPeriph_Driver/src/stm32f10x_fsmc.c ****   
 198:STM32F10x_StdPeriph_Driver/src/stm32f10x_fsmc.c ****   /* Bank1 NOR/SRAM control register configuration */ 
 199:STM32F10x_StdPeriph_Driver/src/stm32f10x_fsmc.c ****   FSMC_Bank1->BTCR[FSMC_NORSRAMInitStruct->FSMC_Bank] = 
 454              		.loc 1 199 0 is_stmt 1
 455 0162 2168     		ldr	r1, [r4]
 200:STM32F10x_StdPeriph_Driver/src/stm32f10x_fsmc.c ****             (uint32_t)FSMC_NORSRAMInitStruct->FSMC_DataAddressMux |
 456              		.loc 1 200 0
 457 0164 6268     		ldr	r2, [r4, #4]
 201:STM32F10x_StdPeriph_Driver/src/stm32f10x_fsmc.c ****             FSMC_NORSRAMInitStruct->FSMC_MemoryType |
 458              		.loc 1 201 0
 459 0166 A368     		ldr	r3, [r4, #8]
 200:STM32F10x_StdPeriph_Driver/src/stm32f10x_fsmc.c ****             (uint32_t)FSMC_NORSRAMInitStruct->FSMC_DataAddressMux |
 460              		.loc 1 200 0
 461 0168 1A43     		orrs	r2, r2, r3
 202:STM32F10x_StdPeriph_Driver/src/stm32f10x_fsmc.c ****             FSMC_NORSRAMInitStruct->FSMC_MemoryDataWidth |
 462              		.loc 1 202 0
 463 016a E368     		ldr	r3, [r4, #12]
 201:STM32F10x_StdPeriph_Driver/src/stm32f10x_fsmc.c ****             FSMC_NORSRAMInitStruct->FSMC_MemoryType |
 464              		.loc 1 201 0
 465 016c 1A43     		orrs	r2, r2, r3
 203:STM32F10x_StdPeriph_Driver/src/stm32f10x_fsmc.c ****             FSMC_NORSRAMInitStruct->FSMC_BurstAccessMode |
 466              		.loc 1 203 0
 467 016e 2369     		ldr	r3, [r4, #16]
 202:STM32F10x_StdPeriph_Driver/src/stm32f10x_fsmc.c ****             FSMC_NORSRAMInitStruct->FSMC_MemoryDataWidth |
 468              		.loc 1 202 0
 469 0170 1A43     		orrs	r2, r2, r3
 204:STM32F10x_StdPeriph_Driver/src/stm32f10x_fsmc.c ****             FSMC_NORSRAMInitStruct->FSMC_WaitSignalPolarity |
 470              		.loc 1 204 0
 471 0172 6369     		ldr	r3, [r4, #20]
 203:STM32F10x_StdPeriph_Driver/src/stm32f10x_fsmc.c ****             FSMC_NORSRAMInitStruct->FSMC_BurstAccessMode |
 472              		.loc 1 203 0
 473 0174 1A43     		orrs	r2, r2, r3
 205:STM32F10x_StdPeriph_Driver/src/stm32f10x_fsmc.c ****             FSMC_NORSRAMInitStruct->FSMC_WrapMode |
 474              		.loc 1 205 0
 475 0176 A369     		ldr	r3, [r4, #24]
 204:STM32F10x_StdPeriph_Driver/src/stm32f10x_fsmc.c ****             FSMC_NORSRAMInitStruct->FSMC_WaitSignalPolarity |
 476              		.loc 1 204 0
 477 0178 1A43     		orrs	r2, r2, r3
 206:STM32F10x_StdPeriph_Driver/src/stm32f10x_fsmc.c ****             FSMC_NORSRAMInitStruct->FSMC_WaitSignalActive |
 478              		.loc 1 206 0
 479 017a E369     		ldr	r3, [r4, #28]
 205:STM32F10x_StdPeriph_Driver/src/stm32f10x_fsmc.c ****             FSMC_NORSRAMInitStruct->FSMC_WrapMode |
ARM GAS  /var/folders/g9/bbpj86ld7fx45vd1b3pqxmp00000gn/T//cch0rGuN.s 			page 13


 480              		.loc 1 205 0
 481 017c 1A43     		orrs	r2, r2, r3
 207:STM32F10x_StdPeriph_Driver/src/stm32f10x_fsmc.c ****             FSMC_NORSRAMInitStruct->FSMC_WriteOperation |
 482              		.loc 1 207 0
 483 017e 236A     		ldr	r3, [r4, #32]
 206:STM32F10x_StdPeriph_Driver/src/stm32f10x_fsmc.c ****             FSMC_NORSRAMInitStruct->FSMC_WaitSignalActive |
 484              		.loc 1 206 0
 485 0180 1A43     		orrs	r2, r2, r3
 208:STM32F10x_StdPeriph_Driver/src/stm32f10x_fsmc.c ****             FSMC_NORSRAMInitStruct->FSMC_WaitSignal |
 486              		.loc 1 208 0
 487 0182 636A     		ldr	r3, [r4, #36]
 207:STM32F10x_StdPeriph_Driver/src/stm32f10x_fsmc.c ****             FSMC_NORSRAMInitStruct->FSMC_WriteOperation |
 488              		.loc 1 207 0
 489 0184 1A43     		orrs	r2, r2, r3
 209:STM32F10x_StdPeriph_Driver/src/stm32f10x_fsmc.c ****             FSMC_NORSRAMInitStruct->FSMC_ExtendedMode |
 490              		.loc 1 209 0
 491 0186 A36A     		ldr	r3, [r4, #40]
 208:STM32F10x_StdPeriph_Driver/src/stm32f10x_fsmc.c ****             FSMC_NORSRAMInitStruct->FSMC_WaitSignal |
 492              		.loc 1 208 0
 493 0188 1A43     		orrs	r2, r2, r3
 210:STM32F10x_StdPeriph_Driver/src/stm32f10x_fsmc.c ****             FSMC_NORSRAMInitStruct->FSMC_WriteBurst;
 494              		.loc 1 210 0
 495 018a E36A     		ldr	r3, [r4, #44]
 209:STM32F10x_StdPeriph_Driver/src/stm32f10x_fsmc.c ****             FSMC_NORSRAMInitStruct->FSMC_ExtendedMode |
 496              		.loc 1 209 0
 497 018c 1343     		orrs	r3, r3, r2
 199:STM32F10x_StdPeriph_Driver/src/stm32f10x_fsmc.c ****             (uint32_t)FSMC_NORSRAMInitStruct->FSMC_DataAddressMux |
 498              		.loc 1 199 0
 499 018e 4FF02042 		mov	r2, #-1610612736
 500 0192 42F82130 		str	r3, [r2, r1, lsl #2]
 211:STM32F10x_StdPeriph_Driver/src/stm32f10x_fsmc.c ****   if(FSMC_NORSRAMInitStruct->FSMC_MemoryType == FSMC_MemoryType_NOR)
 501              		.loc 1 211 0
 502 0196 A368     		ldr	r3, [r4, #8]
 503 0198 082B     		cmp	r3, #8
 504 019a 06D1     		bne	.L38
 212:STM32F10x_StdPeriph_Driver/src/stm32f10x_fsmc.c ****   {
 213:STM32F10x_StdPeriph_Driver/src/stm32f10x_fsmc.c ****     FSMC_Bank1->BTCR[FSMC_NORSRAMInitStruct->FSMC_Bank] |= (uint32_t)BCR_FACCEN_Set;
 505              		.loc 1 213 0
 506 019c 2168     		ldr	r1, [r4]
 507 019e 52F82130 		ldr	r3, [r2, r1, lsl #2]
 508 01a2 43F04003 		orr	r3, r3, #64
 509 01a6 42F82130 		str	r3, [r2, r1, lsl #2]
 510              	.L38:
 214:STM32F10x_StdPeriph_Driver/src/stm32f10x_fsmc.c ****   }
 215:STM32F10x_StdPeriph_Driver/src/stm32f10x_fsmc.c ****   /* Bank1 NOR/SRAM timing register configuration */
 216:STM32F10x_StdPeriph_Driver/src/stm32f10x_fsmc.c ****   FSMC_Bank1->BTCR[FSMC_NORSRAMInitStruct->FSMC_Bank+1] = 
 511              		.loc 1 216 0
 512 01aa 2168     		ldr	r1, [r4]
 513 01ac 0131     		adds	r1, r1, #1
 217:STM32F10x_StdPeriph_Driver/src/stm32f10x_fsmc.c ****             (uint32_t)FSMC_NORSRAMInitStruct->FSMC_ReadWriteTimingStruct->FSMC_AddressSetupTime |
 514              		.loc 1 217 0
 515 01ae 226B     		ldr	r2, [r4, #48]
 516 01b0 1368     		ldr	r3, [r2]
 218:STM32F10x_StdPeriph_Driver/src/stm32f10x_fsmc.c ****             (FSMC_NORSRAMInitStruct->FSMC_ReadWriteTimingStruct->FSMC_AddressHoldTime << 4) |
 517              		.loc 1 218 0
 518 01b2 5068     		ldr	r0, [r2, #4]
 217:STM32F10x_StdPeriph_Driver/src/stm32f10x_fsmc.c ****             (uint32_t)FSMC_NORSRAMInitStruct->FSMC_ReadWriteTimingStruct->FSMC_AddressSetupTime |
ARM GAS  /var/folders/g9/bbpj86ld7fx45vd1b3pqxmp00000gn/T//cch0rGuN.s 			page 14


 519              		.loc 1 217 0
 520 01b4 43EA0013 		orr	r3, r3, r0, lsl #4
 219:STM32F10x_StdPeriph_Driver/src/stm32f10x_fsmc.c ****             (FSMC_NORSRAMInitStruct->FSMC_ReadWriteTimingStruct->FSMC_DataSetupTime << 8) |
 521              		.loc 1 219 0
 522 01b8 9068     		ldr	r0, [r2, #8]
 218:STM32F10x_StdPeriph_Driver/src/stm32f10x_fsmc.c ****             (FSMC_NORSRAMInitStruct->FSMC_ReadWriteTimingStruct->FSMC_AddressHoldTime << 4) |
 523              		.loc 1 218 0
 524 01ba 43EA0023 		orr	r3, r3, r0, lsl #8
 220:STM32F10x_StdPeriph_Driver/src/stm32f10x_fsmc.c ****             (FSMC_NORSRAMInitStruct->FSMC_ReadWriteTimingStruct->FSMC_BusTurnAroundDuration << 16) 
 525              		.loc 1 220 0
 526 01be D068     		ldr	r0, [r2, #12]
 219:STM32F10x_StdPeriph_Driver/src/stm32f10x_fsmc.c ****             (FSMC_NORSRAMInitStruct->FSMC_ReadWriteTimingStruct->FSMC_DataSetupTime << 8) |
 527              		.loc 1 219 0
 528 01c0 43EA0043 		orr	r3, r3, r0, lsl #16
 221:STM32F10x_StdPeriph_Driver/src/stm32f10x_fsmc.c ****             (FSMC_NORSRAMInitStruct->FSMC_ReadWriteTimingStruct->FSMC_CLKDivision << 20) |
 529              		.loc 1 221 0
 530 01c4 1069     		ldr	r0, [r2, #16]
 220:STM32F10x_StdPeriph_Driver/src/stm32f10x_fsmc.c ****             (FSMC_NORSRAMInitStruct->FSMC_ReadWriteTimingStruct->FSMC_BusTurnAroundDuration << 16) 
 531              		.loc 1 220 0
 532 01c6 43EA0053 		orr	r3, r3, r0, lsl #20
 222:STM32F10x_StdPeriph_Driver/src/stm32f10x_fsmc.c ****             (FSMC_NORSRAMInitStruct->FSMC_ReadWriteTimingStruct->FSMC_DataLatency << 24) |
 533              		.loc 1 222 0
 534 01ca 5069     		ldr	r0, [r2, #20]
 221:STM32F10x_StdPeriph_Driver/src/stm32f10x_fsmc.c ****             (FSMC_NORSRAMInitStruct->FSMC_ReadWriteTimingStruct->FSMC_CLKDivision << 20) |
 535              		.loc 1 221 0
 536 01cc 43EA0063 		orr	r3, r3, r0, lsl #24
 223:STM32F10x_StdPeriph_Driver/src/stm32f10x_fsmc.c ****              FSMC_NORSRAMInitStruct->FSMC_ReadWriteTimingStruct->FSMC_AccessMode;
 537              		.loc 1 223 0
 538 01d0 9269     		ldr	r2, [r2, #24]
 222:STM32F10x_StdPeriph_Driver/src/stm32f10x_fsmc.c ****             (FSMC_NORSRAMInitStruct->FSMC_ReadWriteTimingStruct->FSMC_DataLatency << 24) |
 539              		.loc 1 222 0
 540 01d2 1343     		orrs	r3, r3, r2
 216:STM32F10x_StdPeriph_Driver/src/stm32f10x_fsmc.c ****             (uint32_t)FSMC_NORSRAMInitStruct->FSMC_ReadWriteTimingStruct->FSMC_AddressSetupTime |
 541              		.loc 1 216 0
 542 01d4 4FF02042 		mov	r2, #-1610612736
 543 01d8 42F82130 		str	r3, [r2, r1, lsl #2]
 224:STM32F10x_StdPeriph_Driver/src/stm32f10x_fsmc.c ****             
 225:STM32F10x_StdPeriph_Driver/src/stm32f10x_fsmc.c ****     
 226:STM32F10x_StdPeriph_Driver/src/stm32f10x_fsmc.c ****   /* Bank1 NOR/SRAM timing register for write configuration, if extended mode is used */
 227:STM32F10x_StdPeriph_Driver/src/stm32f10x_fsmc.c ****   if(FSMC_NORSRAMInitStruct->FSMC_ExtendedMode == FSMC_ExtendedMode_Enable)
 544              		.loc 1 227 0
 545 01dc A36A     		ldr	r3, [r4, #40]
 546 01de B3F5804F 		cmp	r3, #16384
 547 01e2 4DD1     		bne	.L39
 228:STM32F10x_StdPeriph_Driver/src/stm32f10x_fsmc.c ****   {
 229:STM32F10x_StdPeriph_Driver/src/stm32f10x_fsmc.c ****     assert_param(IS_FSMC_ADDRESS_SETUP_TIME(FSMC_NORSRAMInitStruct->FSMC_WriteTimingStruct->FSMC_Ad
 548              		.loc 1 229 0
 549 01e4 636B     		ldr	r3, [r4, #52]
 550 01e6 1B68     		ldr	r3, [r3]
 551 01e8 0F2B     		cmp	r3, #15
 552 01ea 03D9     		bls	.L40
 553              		.loc 1 229 0 is_stmt 0 discriminator 1
 554 01ec E521     		movs	r1, #229
 555 01ee 2848     		ldr	r0, .L48
 556 01f0 FFF7FEFF 		bl	assert_failed
 557              	.LVL30:
 558              	.L40:
ARM GAS  /var/folders/g9/bbpj86ld7fx45vd1b3pqxmp00000gn/T//cch0rGuN.s 			page 15


 230:STM32F10x_StdPeriph_Driver/src/stm32f10x_fsmc.c ****     assert_param(IS_FSMC_ADDRESS_HOLD_TIME(FSMC_NORSRAMInitStruct->FSMC_WriteTimingStruct->FSMC_Add
 559              		.loc 1 230 0 is_stmt 1
 560 01f4 636B     		ldr	r3, [r4, #52]
 561 01f6 5B68     		ldr	r3, [r3, #4]
 562 01f8 0F2B     		cmp	r3, #15
 563 01fa 03D9     		bls	.L41
 564              		.loc 1 230 0 is_stmt 0 discriminator 1
 565 01fc E621     		movs	r1, #230
 566 01fe 2448     		ldr	r0, .L48
 567 0200 FFF7FEFF 		bl	assert_failed
 568              	.LVL31:
 569              	.L41:
 231:STM32F10x_StdPeriph_Driver/src/stm32f10x_fsmc.c ****     assert_param(IS_FSMC_DATASETUP_TIME(FSMC_NORSRAMInitStruct->FSMC_WriteTimingStruct->FSMC_DataSe
 570              		.loc 1 231 0 is_stmt 1
 571 0204 636B     		ldr	r3, [r4, #52]
 572 0206 9B68     		ldr	r3, [r3, #8]
 573 0208 013B     		subs	r3, r3, #1
 574 020a FE2B     		cmp	r3, #254
 575 020c 03D9     		bls	.L42
 576              		.loc 1 231 0 is_stmt 0 discriminator 1
 577 020e E721     		movs	r1, #231
 578 0210 1F48     		ldr	r0, .L48
 579 0212 FFF7FEFF 		bl	assert_failed
 580              	.LVL32:
 581              	.L42:
 232:STM32F10x_StdPeriph_Driver/src/stm32f10x_fsmc.c ****     assert_param(IS_FSMC_CLK_DIV(FSMC_NORSRAMInitStruct->FSMC_WriteTimingStruct->FSMC_CLKDivision))
 582              		.loc 1 232 0 is_stmt 1
 583 0216 636B     		ldr	r3, [r4, #52]
 584 0218 1B69     		ldr	r3, [r3, #16]
 585 021a 0F2B     		cmp	r3, #15
 586 021c 03D9     		bls	.L43
 587              		.loc 1 232 0 is_stmt 0 discriminator 1
 588 021e E821     		movs	r1, #232
 589 0220 1B48     		ldr	r0, .L48
 590 0222 FFF7FEFF 		bl	assert_failed
 591              	.LVL33:
 592              	.L43:
 233:STM32F10x_StdPeriph_Driver/src/stm32f10x_fsmc.c ****     assert_param(IS_FSMC_DATA_LATENCY(FSMC_NORSRAMInitStruct->FSMC_WriteTimingStruct->FSMC_DataLate
 593              		.loc 1 233 0 is_stmt 1
 594 0226 636B     		ldr	r3, [r4, #52]
 595 0228 5B69     		ldr	r3, [r3, #20]
 596 022a 0F2B     		cmp	r3, #15
 597 022c 03D9     		bls	.L44
 598              		.loc 1 233 0 is_stmt 0 discriminator 1
 599 022e E921     		movs	r1, #233
 600 0230 1748     		ldr	r0, .L48
 601 0232 FFF7FEFF 		bl	assert_failed
 602              	.LVL34:
 603              	.L44:
 234:STM32F10x_StdPeriph_Driver/src/stm32f10x_fsmc.c ****     assert_param(IS_FSMC_ACCESS_MODE(FSMC_NORSRAMInitStruct->FSMC_WriteTimingStruct->FSMC_AccessMod
 604              		.loc 1 234 0 is_stmt 1
 605 0236 636B     		ldr	r3, [r4, #52]
 606 0238 9B69     		ldr	r3, [r3, #24]
 607 023a 63B1     		cbz	r3, .L45
 608              		.loc 1 234 0 is_stmt 0 discriminator 1
 609 023c B3F1805F 		cmp	r3, #268435456
 610 0240 09D0     		beq	.L45
ARM GAS  /var/folders/g9/bbpj86ld7fx45vd1b3pqxmp00000gn/T//cch0rGuN.s 			page 16


 611              		.loc 1 234 0 discriminator 2
 612 0242 B3F1005F 		cmp	r3, #536870912
 613 0246 06D0     		beq	.L45
 614              		.loc 1 234 0 discriminator 3
 615 0248 B3F1405F 		cmp	r3, #805306368
 616 024c 03D0     		beq	.L45
 617              		.loc 1 234 0 discriminator 4
 618 024e EA21     		movs	r1, #234
 619 0250 0F48     		ldr	r0, .L48
 620 0252 FFF7FEFF 		bl	assert_failed
 621              	.LVL35:
 622              	.L45:
 235:STM32F10x_StdPeriph_Driver/src/stm32f10x_fsmc.c ****     FSMC_Bank1E->BWTR[FSMC_NORSRAMInitStruct->FSMC_Bank] = 
 623              		.loc 1 235 0 is_stmt 1
 624 0256 2168     		ldr	r1, [r4]
 236:STM32F10x_StdPeriph_Driver/src/stm32f10x_fsmc.c ****               (uint32_t)FSMC_NORSRAMInitStruct->FSMC_WriteTimingStruct->FSMC_AddressSetupTime |
 625              		.loc 1 236 0
 626 0258 626B     		ldr	r2, [r4, #52]
 627 025a 1368     		ldr	r3, [r2]
 237:STM32F10x_StdPeriph_Driver/src/stm32f10x_fsmc.c ****               (FSMC_NORSRAMInitStruct->FSMC_WriteTimingStruct->FSMC_AddressHoldTime << 4 )|
 628              		.loc 1 237 0
 629 025c 5068     		ldr	r0, [r2, #4]
 236:STM32F10x_StdPeriph_Driver/src/stm32f10x_fsmc.c ****               (uint32_t)FSMC_NORSRAMInitStruct->FSMC_WriteTimingStruct->FSMC_AddressSetupTime |
 630              		.loc 1 236 0
 631 025e 43EA0013 		orr	r3, r3, r0, lsl #4
 238:STM32F10x_StdPeriph_Driver/src/stm32f10x_fsmc.c ****               (FSMC_NORSRAMInitStruct->FSMC_WriteTimingStruct->FSMC_DataSetupTime << 8) |
 632              		.loc 1 238 0
 633 0262 9068     		ldr	r0, [r2, #8]
 237:STM32F10x_StdPeriph_Driver/src/stm32f10x_fsmc.c ****               (FSMC_NORSRAMInitStruct->FSMC_WriteTimingStruct->FSMC_AddressHoldTime << 4 )|
 634              		.loc 1 237 0
 635 0264 43EA0023 		orr	r3, r3, r0, lsl #8
 239:STM32F10x_StdPeriph_Driver/src/stm32f10x_fsmc.c ****               (FSMC_NORSRAMInitStruct->FSMC_WriteTimingStruct->FSMC_CLKDivision << 20) |
 636              		.loc 1 239 0
 637 0268 1069     		ldr	r0, [r2, #16]
 238:STM32F10x_StdPeriph_Driver/src/stm32f10x_fsmc.c ****               (FSMC_NORSRAMInitStruct->FSMC_WriteTimingStruct->FSMC_DataSetupTime << 8) |
 638              		.loc 1 238 0
 639 026a 43EA0053 		orr	r3, r3, r0, lsl #20
 240:STM32F10x_StdPeriph_Driver/src/stm32f10x_fsmc.c ****               (FSMC_NORSRAMInitStruct->FSMC_WriteTimingStruct->FSMC_DataLatency << 24) |
 640              		.loc 1 240 0
 641 026e 5069     		ldr	r0, [r2, #20]
 239:STM32F10x_StdPeriph_Driver/src/stm32f10x_fsmc.c ****               (FSMC_NORSRAMInitStruct->FSMC_WriteTimingStruct->FSMC_CLKDivision << 20) |
 642              		.loc 1 239 0
 643 0270 43EA0063 		orr	r3, r3, r0, lsl #24
 241:STM32F10x_StdPeriph_Driver/src/stm32f10x_fsmc.c ****                FSMC_NORSRAMInitStruct->FSMC_WriteTimingStruct->FSMC_AccessMode;
 644              		.loc 1 241 0
 645 0274 9269     		ldr	r2, [r2, #24]
 240:STM32F10x_StdPeriph_Driver/src/stm32f10x_fsmc.c ****               (FSMC_NORSRAMInitStruct->FSMC_WriteTimingStruct->FSMC_DataLatency << 24) |
 646              		.loc 1 240 0
 647 0276 1343     		orrs	r3, r3, r2
 235:STM32F10x_StdPeriph_Driver/src/stm32f10x_fsmc.c ****               (uint32_t)FSMC_NORSRAMInitStruct->FSMC_WriteTimingStruct->FSMC_AddressSetupTime |
 648              		.loc 1 235 0
 649 0278 064A     		ldr	r2, .L48+4
 650 027a 42F82130 		str	r3, [r2, r1, lsl #2]
 651 027e 10BD     		pop	{r4, pc}
 652              	.LVL36:
 653              	.L39:
 242:STM32F10x_StdPeriph_Driver/src/stm32f10x_fsmc.c ****   }
ARM GAS  /var/folders/g9/bbpj86ld7fx45vd1b3pqxmp00000gn/T//cch0rGuN.s 			page 17


 243:STM32F10x_StdPeriph_Driver/src/stm32f10x_fsmc.c ****   else
 244:STM32F10x_StdPeriph_Driver/src/stm32f10x_fsmc.c ****   {
 245:STM32F10x_StdPeriph_Driver/src/stm32f10x_fsmc.c ****     FSMC_Bank1E->BWTR[FSMC_NORSRAMInitStruct->FSMC_Bank] = 0x0FFFFFFF;
 654              		.loc 1 245 0
 655 0280 2268     		ldr	r2, [r4]
 656 0282 6FF07041 		mvn	r1, #-268435456
 657 0286 034B     		ldr	r3, .L48+4
 658 0288 43F82210 		str	r1, [r3, r2, lsl #2]
 659 028c 10BD     		pop	{r4, pc}
 660              	.LVL37:
 661              	.L49:
 662 028e 00BF     		.align	2
 663              	.L48:
 664 0290 00000000 		.word	.LC0
 665 0294 040100A0 		.word	-1610612476
 666              		.cfi_endproc
 667              	.LFE30:
 669              		.section	.text.FSMC_NANDInit,"ax",%progbits
 670              		.align	2
 671              		.global	FSMC_NANDInit
 672              		.thumb
 673              		.thumb_func
 675              	FSMC_NANDInit:
 676              	.LFB31:
 246:STM32F10x_StdPeriph_Driver/src/stm32f10x_fsmc.c ****   }
 247:STM32F10x_StdPeriph_Driver/src/stm32f10x_fsmc.c **** }
 248:STM32F10x_StdPeriph_Driver/src/stm32f10x_fsmc.c **** 
 249:STM32F10x_StdPeriph_Driver/src/stm32f10x_fsmc.c **** /**
 250:STM32F10x_StdPeriph_Driver/src/stm32f10x_fsmc.c ****   * @brief  Initializes the FSMC NAND Banks according to the specified 
 251:STM32F10x_StdPeriph_Driver/src/stm32f10x_fsmc.c ****   *   parameters in the FSMC_NANDInitStruct.
 252:STM32F10x_StdPeriph_Driver/src/stm32f10x_fsmc.c ****   * @param  FSMC_NANDInitStruct : pointer to a FSMC_NANDInitTypeDef 
 253:STM32F10x_StdPeriph_Driver/src/stm32f10x_fsmc.c ****   *   structure that contains the configuration information for the FSMC NAND specified Banks.     
 254:STM32F10x_StdPeriph_Driver/src/stm32f10x_fsmc.c ****   * @retval None
 255:STM32F10x_StdPeriph_Driver/src/stm32f10x_fsmc.c ****   */
 256:STM32F10x_StdPeriph_Driver/src/stm32f10x_fsmc.c **** void FSMC_NANDInit(FSMC_NANDInitTypeDef* FSMC_NANDInitStruct)
 257:STM32F10x_StdPeriph_Driver/src/stm32f10x_fsmc.c **** {
 677              		.loc 1 257 0
 678              		.cfi_startproc
 679              		@ args = 0, pretend = 0, frame = 0
 680              		@ frame_needed = 0, uses_anonymous_args = 0
 681              	.LVL38:
 682 0000 38B5     		push	{r3, r4, r5, lr}
 683              	.LCFI3:
 684              		.cfi_def_cfa_offset 16
 685              		.cfi_offset 3, -16
 686              		.cfi_offset 4, -12
 687              		.cfi_offset 5, -8
 688              		.cfi_offset 14, -4
 689 0002 0446     		mov	r4, r0
 690              	.LVL39:
 258:STM32F10x_StdPeriph_Driver/src/stm32f10x_fsmc.c ****   uint32_t tmppcr = 0x00000000, tmppmem = 0x00000000, tmppatt = 0x00000000; 
 259:STM32F10x_StdPeriph_Driver/src/stm32f10x_fsmc.c ****     
 260:STM32F10x_StdPeriph_Driver/src/stm32f10x_fsmc.c ****   /* Check the parameters */
 261:STM32F10x_StdPeriph_Driver/src/stm32f10x_fsmc.c ****   assert_param( IS_FSMC_NAND_BANK(FSMC_NANDInitStruct->FSMC_Bank));
 691              		.loc 1 261 0
 692 0004 0368     		ldr	r3, [r0]
 693 0006 102B     		cmp	r3, #16
ARM GAS  /var/folders/g9/bbpj86ld7fx45vd1b3pqxmp00000gn/T//cch0rGuN.s 			page 18


 694 0008 07D0     		beq	.L51
 695              		.loc 1 261 0 is_stmt 0 discriminator 1
 696 000a B3F5807F 		cmp	r3, #256
 697 000e 04D0     		beq	.L51
 698              		.loc 1 261 0 discriminator 2
 699 0010 40F20511 		movw	r1, #261
 700 0014 5E48     		ldr	r0, .L69
 701              	.LVL40:
 702 0016 FFF7FEFF 		bl	assert_failed
 703              	.LVL41:
 704              	.L51:
 262:STM32F10x_StdPeriph_Driver/src/stm32f10x_fsmc.c ****   assert_param( IS_FSMC_WAIT_FEATURE(FSMC_NANDInitStruct->FSMC_Waitfeature));
 705              		.loc 1 262 0 is_stmt 1
 706 001a 6368     		ldr	r3, [r4, #4]
 707 001c 33B1     		cbz	r3, .L52
 708              		.loc 1 262 0 is_stmt 0 discriminator 1
 709 001e 022B     		cmp	r3, #2
 710 0020 04D0     		beq	.L52
 711              		.loc 1 262 0 discriminator 2
 712 0022 4FF48371 		mov	r1, #262
 713 0026 5A48     		ldr	r0, .L69
 714 0028 FFF7FEFF 		bl	assert_failed
 715              	.LVL42:
 716              	.L52:
 263:STM32F10x_StdPeriph_Driver/src/stm32f10x_fsmc.c ****   assert_param( IS_FSMC_MEMORY_WIDTH(FSMC_NANDInitStruct->FSMC_MemoryDataWidth));
 717              		.loc 1 263 0 is_stmt 1
 718 002c A368     		ldr	r3, [r4, #8]
 719 002e 33B1     		cbz	r3, .L53
 720              		.loc 1 263 0 is_stmt 0 discriminator 1
 721 0030 102B     		cmp	r3, #16
 722 0032 04D0     		beq	.L53
 723              		.loc 1 263 0 discriminator 2
 724 0034 40F20711 		movw	r1, #263
 725 0038 5548     		ldr	r0, .L69
 726 003a FFF7FEFF 		bl	assert_failed
 727              	.LVL43:
 728              	.L53:
 264:STM32F10x_StdPeriph_Driver/src/stm32f10x_fsmc.c ****   assert_param( IS_FSMC_ECC_STATE(FSMC_NANDInitStruct->FSMC_ECC));
 729              		.loc 1 264 0 is_stmt 1
 730 003e E368     		ldr	r3, [r4, #12]
 731 0040 33B1     		cbz	r3, .L54
 732              		.loc 1 264 0 is_stmt 0 discriminator 1
 733 0042 402B     		cmp	r3, #64
 734 0044 04D0     		beq	.L54
 735              		.loc 1 264 0 discriminator 2
 736 0046 4FF48471 		mov	r1, #264
 737 004a 5148     		ldr	r0, .L69
 738 004c FFF7FEFF 		bl	assert_failed
 739              	.LVL44:
 740              	.L54:
 265:STM32F10x_StdPeriph_Driver/src/stm32f10x_fsmc.c ****   assert_param( IS_FSMC_ECCPAGE_SIZE(FSMC_NANDInitStruct->FSMC_ECCPageSize));
 741              		.loc 1 265 0 is_stmt 1
 742 0050 2369     		ldr	r3, [r4, #16]
 743 0052 9BB1     		cbz	r3, .L55
 744              		.loc 1 265 0 is_stmt 0 discriminator 1
 745 0054 B3F5003F 		cmp	r3, #131072
 746 0058 10D0     		beq	.L55
ARM GAS  /var/folders/g9/bbpj86ld7fx45vd1b3pqxmp00000gn/T//cch0rGuN.s 			page 19


 747              		.loc 1 265 0 discriminator 2
 748 005a B3F5802F 		cmp	r3, #262144
 749 005e 0DD0     		beq	.L55
 750              		.loc 1 265 0 discriminator 3
 751 0060 B3F5C02F 		cmp	r3, #393216
 752 0064 0AD0     		beq	.L55
 753              		.loc 1 265 0 discriminator 4
 754 0066 B3F5002F 		cmp	r3, #524288
 755 006a 07D0     		beq	.L55
 756              		.loc 1 265 0 discriminator 5
 757 006c B3F5202F 		cmp	r3, #655360
 758 0070 04D0     		beq	.L55
 759              		.loc 1 265 0 discriminator 6
 760 0072 40F20911 		movw	r1, #265
 761 0076 4648     		ldr	r0, .L69
 762 0078 FFF7FEFF 		bl	assert_failed
 763              	.LVL45:
 764              	.L55:
 266:STM32F10x_StdPeriph_Driver/src/stm32f10x_fsmc.c ****   assert_param( IS_FSMC_TCLR_TIME(FSMC_NANDInitStruct->FSMC_TCLRSetupTime));
 765              		.loc 1 266 0 is_stmt 1
 766 007c 6369     		ldr	r3, [r4, #20]
 767 007e FF2B     		cmp	r3, #255
 768 0080 04D9     		bls	.L56
 769              		.loc 1 266 0 is_stmt 0 discriminator 1
 770 0082 4FF48571 		mov	r1, #266
 771 0086 4248     		ldr	r0, .L69
 772 0088 FFF7FEFF 		bl	assert_failed
 773              	.LVL46:
 774              	.L56:
 267:STM32F10x_StdPeriph_Driver/src/stm32f10x_fsmc.c ****   assert_param( IS_FSMC_TAR_TIME(FSMC_NANDInitStruct->FSMC_TARSetupTime));
 775              		.loc 1 267 0 is_stmt 1
 776 008c A369     		ldr	r3, [r4, #24]
 777 008e FF2B     		cmp	r3, #255
 778 0090 04D9     		bls	.L57
 779              		.loc 1 267 0 is_stmt 0 discriminator 1
 780 0092 40F20B11 		movw	r1, #267
 781 0096 3E48     		ldr	r0, .L69
 782 0098 FFF7FEFF 		bl	assert_failed
 783              	.LVL47:
 784              	.L57:
 268:STM32F10x_StdPeriph_Driver/src/stm32f10x_fsmc.c ****   assert_param(IS_FSMC_SETUP_TIME(FSMC_NANDInitStruct->FSMC_CommonSpaceTimingStruct->FSMC_SetupTime
 785              		.loc 1 268 0 is_stmt 1
 786 009c E369     		ldr	r3, [r4, #28]
 787 009e 1B68     		ldr	r3, [r3]
 788 00a0 FF2B     		cmp	r3, #255
 789 00a2 04D9     		bls	.L58
 790              		.loc 1 268 0 is_stmt 0 discriminator 1
 791 00a4 4FF48671 		mov	r1, #268
 792 00a8 3948     		ldr	r0, .L69
 793 00aa FFF7FEFF 		bl	assert_failed
 794              	.LVL48:
 795              	.L58:
 269:STM32F10x_StdPeriph_Driver/src/stm32f10x_fsmc.c ****   assert_param(IS_FSMC_WAIT_TIME(FSMC_NANDInitStruct->FSMC_CommonSpaceTimingStruct->FSMC_WaitSetupT
 796              		.loc 1 269 0 is_stmt 1
 797 00ae E369     		ldr	r3, [r4, #28]
 798 00b0 5B68     		ldr	r3, [r3, #4]
 799 00b2 FF2B     		cmp	r3, #255
ARM GAS  /var/folders/g9/bbpj86ld7fx45vd1b3pqxmp00000gn/T//cch0rGuN.s 			page 20


 800 00b4 04D9     		bls	.L59
 801              		.loc 1 269 0 is_stmt 0 discriminator 1
 802 00b6 40F20D11 		movw	r1, #269
 803 00ba 3548     		ldr	r0, .L69
 804 00bc FFF7FEFF 		bl	assert_failed
 805              	.LVL49:
 806              	.L59:
 270:STM32F10x_StdPeriph_Driver/src/stm32f10x_fsmc.c ****   assert_param(IS_FSMC_HOLD_TIME(FSMC_NANDInitStruct->FSMC_CommonSpaceTimingStruct->FSMC_HoldSetupT
 807              		.loc 1 270 0 is_stmt 1
 808 00c0 E369     		ldr	r3, [r4, #28]
 809 00c2 9B68     		ldr	r3, [r3, #8]
 810 00c4 FF2B     		cmp	r3, #255
 811 00c6 04D9     		bls	.L60
 812              		.loc 1 270 0 is_stmt 0 discriminator 1
 813 00c8 4FF48771 		mov	r1, #270
 814 00cc 3048     		ldr	r0, .L69
 815 00ce FFF7FEFF 		bl	assert_failed
 816              	.LVL50:
 817              	.L60:
 271:STM32F10x_StdPeriph_Driver/src/stm32f10x_fsmc.c ****   assert_param(IS_FSMC_HIZ_TIME(FSMC_NANDInitStruct->FSMC_CommonSpaceTimingStruct->FSMC_HiZSetupTim
 818              		.loc 1 271 0 is_stmt 1
 819 00d2 E369     		ldr	r3, [r4, #28]
 820 00d4 DB68     		ldr	r3, [r3, #12]
 821 00d6 FF2B     		cmp	r3, #255
 822 00d8 04D9     		bls	.L61
 823              		.loc 1 271 0 is_stmt 0 discriminator 1
 824 00da 40F20F11 		movw	r1, #271
 825 00de 2C48     		ldr	r0, .L69
 826 00e0 FFF7FEFF 		bl	assert_failed
 827              	.LVL51:
 828              	.L61:
 272:STM32F10x_StdPeriph_Driver/src/stm32f10x_fsmc.c ****   assert_param(IS_FSMC_SETUP_TIME(FSMC_NANDInitStruct->FSMC_AttributeSpaceTimingStruct->FSMC_SetupT
 829              		.loc 1 272 0 is_stmt 1
 830 00e4 236A     		ldr	r3, [r4, #32]
 831 00e6 1B68     		ldr	r3, [r3]
 832 00e8 FF2B     		cmp	r3, #255
 833 00ea 04D9     		bls	.L62
 834              		.loc 1 272 0 is_stmt 0 discriminator 1
 835 00ec 4FF48871 		mov	r1, #272
 836 00f0 2748     		ldr	r0, .L69
 837 00f2 FFF7FEFF 		bl	assert_failed
 838              	.LVL52:
 839              	.L62:
 273:STM32F10x_StdPeriph_Driver/src/stm32f10x_fsmc.c ****   assert_param(IS_FSMC_WAIT_TIME(FSMC_NANDInitStruct->FSMC_AttributeSpaceTimingStruct->FSMC_WaitSet
 840              		.loc 1 273 0 is_stmt 1
 841 00f6 236A     		ldr	r3, [r4, #32]
 842 00f8 5B68     		ldr	r3, [r3, #4]
 843 00fa FF2B     		cmp	r3, #255
 844 00fc 04D9     		bls	.L63
 845              		.loc 1 273 0 is_stmt 0 discriminator 1
 846 00fe 40F21111 		movw	r1, #273
 847 0102 2348     		ldr	r0, .L69
 848 0104 FFF7FEFF 		bl	assert_failed
 849              	.LVL53:
 850              	.L63:
 274:STM32F10x_StdPeriph_Driver/src/stm32f10x_fsmc.c ****   assert_param(IS_FSMC_HOLD_TIME(FSMC_NANDInitStruct->FSMC_AttributeSpaceTimingStruct->FSMC_HoldSet
 851              		.loc 1 274 0 is_stmt 1
ARM GAS  /var/folders/g9/bbpj86ld7fx45vd1b3pqxmp00000gn/T//cch0rGuN.s 			page 21


 852 0108 236A     		ldr	r3, [r4, #32]
 853 010a 9B68     		ldr	r3, [r3, #8]
 854 010c FF2B     		cmp	r3, #255
 855 010e 04D9     		bls	.L64
 856              		.loc 1 274 0 is_stmt 0 discriminator 1
 857 0110 4FF48971 		mov	r1, #274
 858 0114 1E48     		ldr	r0, .L69
 859 0116 FFF7FEFF 		bl	assert_failed
 860              	.LVL54:
 861              	.L64:
 275:STM32F10x_StdPeriph_Driver/src/stm32f10x_fsmc.c ****   assert_param(IS_FSMC_HIZ_TIME(FSMC_NANDInitStruct->FSMC_AttributeSpaceTimingStruct->FSMC_HiZSetup
 862              		.loc 1 275 0 is_stmt 1
 863 011a 236A     		ldr	r3, [r4, #32]
 864 011c DB68     		ldr	r3, [r3, #12]
 865 011e FF2B     		cmp	r3, #255
 866 0120 04D9     		bls	.L65
 867              		.loc 1 275 0 is_stmt 0 discriminator 1
 868 0122 40F21311 		movw	r1, #275
 869 0126 1A48     		ldr	r0, .L69
 870 0128 FFF7FEFF 		bl	assert_failed
 871              	.LVL55:
 872              	.L65:
 276:STM32F10x_StdPeriph_Driver/src/stm32f10x_fsmc.c ****   
 277:STM32F10x_StdPeriph_Driver/src/stm32f10x_fsmc.c ****   /* Set the tmppcr value according to FSMC_NANDInitStruct parameters */
 278:STM32F10x_StdPeriph_Driver/src/stm32f10x_fsmc.c ****   tmppcr = (uint32_t)FSMC_NANDInitStruct->FSMC_Waitfeature |
 873              		.loc 1 278 0 is_stmt 1
 874 012c 6268     		ldr	r2, [r4, #4]
 279:STM32F10x_StdPeriph_Driver/src/stm32f10x_fsmc.c ****             PCR_MemoryType_NAND |
 280:STM32F10x_StdPeriph_Driver/src/stm32f10x_fsmc.c ****             FSMC_NANDInitStruct->FSMC_MemoryDataWidth |
 875              		.loc 1 280 0
 876 012e A368     		ldr	r3, [r4, #8]
 279:STM32F10x_StdPeriph_Driver/src/stm32f10x_fsmc.c ****             PCR_MemoryType_NAND |
 877              		.loc 1 279 0
 878 0130 1A43     		orrs	r2, r2, r3
 281:STM32F10x_StdPeriph_Driver/src/stm32f10x_fsmc.c ****             FSMC_NANDInitStruct->FSMC_ECC |
 879              		.loc 1 281 0
 880 0132 E368     		ldr	r3, [r4, #12]
 280:STM32F10x_StdPeriph_Driver/src/stm32f10x_fsmc.c ****             FSMC_NANDInitStruct->FSMC_ECC |
 881              		.loc 1 280 0
 882 0134 1A43     		orrs	r2, r2, r3
 282:STM32F10x_StdPeriph_Driver/src/stm32f10x_fsmc.c ****             FSMC_NANDInitStruct->FSMC_ECCPageSize |
 883              		.loc 1 282 0
 884 0136 2369     		ldr	r3, [r4, #16]
 281:STM32F10x_StdPeriph_Driver/src/stm32f10x_fsmc.c ****             FSMC_NANDInitStruct->FSMC_ECC |
 885              		.loc 1 281 0
 886 0138 1343     		orrs	r3, r3, r2
 283:STM32F10x_StdPeriph_Driver/src/stm32f10x_fsmc.c ****             (FSMC_NANDInitStruct->FSMC_TCLRSetupTime << 9 )|
 887              		.loc 1 283 0
 888 013a 6269     		ldr	r2, [r4, #20]
 282:STM32F10x_StdPeriph_Driver/src/stm32f10x_fsmc.c ****             FSMC_NANDInitStruct->FSMC_ECCPageSize |
 889              		.loc 1 282 0
 890 013c 43EA4223 		orr	r3, r3, r2, lsl #9
 284:STM32F10x_StdPeriph_Driver/src/stm32f10x_fsmc.c ****             (FSMC_NANDInitStruct->FSMC_TARSetupTime << 13);
 891              		.loc 1 284 0
 892 0140 A269     		ldr	r2, [r4, #24]
 283:STM32F10x_StdPeriph_Driver/src/stm32f10x_fsmc.c ****             (FSMC_NANDInitStruct->FSMC_TCLRSetupTime << 9 )|
 893              		.loc 1 283 0
ARM GAS  /var/folders/g9/bbpj86ld7fx45vd1b3pqxmp00000gn/T//cch0rGuN.s 			page 22


 894 0142 43EA4233 		orr	r3, r3, r2, lsl #13
 278:STM32F10x_StdPeriph_Driver/src/stm32f10x_fsmc.c ****             PCR_MemoryType_NAND |
 895              		.loc 1 278 0
 896 0146 43F00803 		orr	r3, r3, #8
 897              	.LVL56:
 285:STM32F10x_StdPeriph_Driver/src/stm32f10x_fsmc.c ****             
 286:STM32F10x_StdPeriph_Driver/src/stm32f10x_fsmc.c ****   /* Set tmppmem value according to FSMC_CommonSpaceTimingStructure parameters */
 287:STM32F10x_StdPeriph_Driver/src/stm32f10x_fsmc.c ****   tmppmem = (uint32_t)FSMC_NANDInitStruct->FSMC_CommonSpaceTimingStruct->FSMC_SetupTime |
 898              		.loc 1 287 0
 899 014a E169     		ldr	r1, [r4, #28]
 900 014c 0A68     		ldr	r2, [r1]
 288:STM32F10x_StdPeriph_Driver/src/stm32f10x_fsmc.c ****             (FSMC_NANDInitStruct->FSMC_CommonSpaceTimingStruct->FSMC_WaitSetupTime << 8) |
 901              		.loc 1 288 0
 902 014e 4868     		ldr	r0, [r1, #4]
 287:STM32F10x_StdPeriph_Driver/src/stm32f10x_fsmc.c ****             (FSMC_NANDInitStruct->FSMC_CommonSpaceTimingStruct->FSMC_WaitSetupTime << 8) |
 903              		.loc 1 287 0
 904 0150 42EA0022 		orr	r2, r2, r0, lsl #8
 289:STM32F10x_StdPeriph_Driver/src/stm32f10x_fsmc.c ****             (FSMC_NANDInitStruct->FSMC_CommonSpaceTimingStruct->FSMC_HoldSetupTime << 16)|
 905              		.loc 1 289 0
 906 0154 8868     		ldr	r0, [r1, #8]
 288:STM32F10x_StdPeriph_Driver/src/stm32f10x_fsmc.c ****             (FSMC_NANDInitStruct->FSMC_CommonSpaceTimingStruct->FSMC_WaitSetupTime << 8) |
 907              		.loc 1 288 0
 908 0156 42EA0042 		orr	r2, r2, r0, lsl #16
 290:STM32F10x_StdPeriph_Driver/src/stm32f10x_fsmc.c ****             (FSMC_NANDInitStruct->FSMC_CommonSpaceTimingStruct->FSMC_HiZSetupTime << 24); 
 909              		.loc 1 290 0
 910 015a C968     		ldr	r1, [r1, #12]
 287:STM32F10x_StdPeriph_Driver/src/stm32f10x_fsmc.c ****             (FSMC_NANDInitStruct->FSMC_CommonSpaceTimingStruct->FSMC_WaitSetupTime << 8) |
 911              		.loc 1 287 0
 912 015c 42EA0161 		orr	r1, r2, r1, lsl #24
 913              	.LVL57:
 291:STM32F10x_StdPeriph_Driver/src/stm32f10x_fsmc.c ****             
 292:STM32F10x_StdPeriph_Driver/src/stm32f10x_fsmc.c ****   /* Set tmppatt value according to FSMC_AttributeSpaceTimingStructure parameters */
 293:STM32F10x_StdPeriph_Driver/src/stm32f10x_fsmc.c ****   tmppatt = (uint32_t)FSMC_NANDInitStruct->FSMC_AttributeSpaceTimingStruct->FSMC_SetupTime |
 914              		.loc 1 293 0
 915 0160 206A     		ldr	r0, [r4, #32]
 916 0162 0268     		ldr	r2, [r0]
 294:STM32F10x_StdPeriph_Driver/src/stm32f10x_fsmc.c ****             (FSMC_NANDInitStruct->FSMC_AttributeSpaceTimingStruct->FSMC_WaitSetupTime << 8) |
 917              		.loc 1 294 0
 918 0164 4568     		ldr	r5, [r0, #4]
 293:STM32F10x_StdPeriph_Driver/src/stm32f10x_fsmc.c ****             (FSMC_NANDInitStruct->FSMC_AttributeSpaceTimingStruct->FSMC_WaitSetupTime << 8) |
 919              		.loc 1 293 0
 920 0166 42EA0522 		orr	r2, r2, r5, lsl #8
 295:STM32F10x_StdPeriph_Driver/src/stm32f10x_fsmc.c ****             (FSMC_NANDInitStruct->FSMC_AttributeSpaceTimingStruct->FSMC_HoldSetupTime << 16)|
 921              		.loc 1 295 0
 922 016a 8568     		ldr	r5, [r0, #8]
 294:STM32F10x_StdPeriph_Driver/src/stm32f10x_fsmc.c ****             (FSMC_NANDInitStruct->FSMC_AttributeSpaceTimingStruct->FSMC_WaitSetupTime << 8) |
 923              		.loc 1 294 0
 924 016c 42EA0542 		orr	r2, r2, r5, lsl #16
 296:STM32F10x_StdPeriph_Driver/src/stm32f10x_fsmc.c ****             (FSMC_NANDInitStruct->FSMC_AttributeSpaceTimingStruct->FSMC_HiZSetupTime << 24);
 925              		.loc 1 296 0
 926 0170 C068     		ldr	r0, [r0, #12]
 293:STM32F10x_StdPeriph_Driver/src/stm32f10x_fsmc.c ****             (FSMC_NANDInitStruct->FSMC_AttributeSpaceTimingStruct->FSMC_WaitSetupTime << 8) |
 927              		.loc 1 293 0
 928 0172 42EA0062 		orr	r2, r2, r0, lsl #24
 929              	.LVL58:
 297:STM32F10x_StdPeriph_Driver/src/stm32f10x_fsmc.c ****   
 298:STM32F10x_StdPeriph_Driver/src/stm32f10x_fsmc.c ****   if(FSMC_NANDInitStruct->FSMC_Bank == FSMC_Bank2_NAND)
ARM GAS  /var/folders/g9/bbpj86ld7fx45vd1b3pqxmp00000gn/T//cch0rGuN.s 			page 23


 930              		.loc 1 298 0
 931 0176 2068     		ldr	r0, [r4]
 932 0178 1028     		cmp	r0, #16
 933 017a 04D1     		bne	.L66
 299:STM32F10x_StdPeriph_Driver/src/stm32f10x_fsmc.c ****   {
 300:STM32F10x_StdPeriph_Driver/src/stm32f10x_fsmc.c ****     /* FSMC_Bank2_NAND registers configuration */
 301:STM32F10x_StdPeriph_Driver/src/stm32f10x_fsmc.c ****     FSMC_Bank2->PCR2 = tmppcr;
 934              		.loc 1 301 0
 935 017c 0548     		ldr	r0, .L69+4
 936 017e 0360     		str	r3, [r0]
 302:STM32F10x_StdPeriph_Driver/src/stm32f10x_fsmc.c ****     FSMC_Bank2->PMEM2 = tmppmem;
 937              		.loc 1 302 0
 938 0180 8160     		str	r1, [r0, #8]
 303:STM32F10x_StdPeriph_Driver/src/stm32f10x_fsmc.c ****     FSMC_Bank2->PATT2 = tmppatt;
 939              		.loc 1 303 0
 940 0182 C260     		str	r2, [r0, #12]
 941 0184 38BD     		pop	{r3, r4, r5, pc}
 942              	.LVL59:
 943              	.L66:
 304:STM32F10x_StdPeriph_Driver/src/stm32f10x_fsmc.c ****   }
 305:STM32F10x_StdPeriph_Driver/src/stm32f10x_fsmc.c ****   else
 306:STM32F10x_StdPeriph_Driver/src/stm32f10x_fsmc.c ****   {
 307:STM32F10x_StdPeriph_Driver/src/stm32f10x_fsmc.c ****     /* FSMC_Bank3_NAND registers configuration */
 308:STM32F10x_StdPeriph_Driver/src/stm32f10x_fsmc.c ****     FSMC_Bank3->PCR3 = tmppcr;
 944              		.loc 1 308 0
 945 0186 0448     		ldr	r0, .L69+8
 946 0188 0360     		str	r3, [r0]
 309:STM32F10x_StdPeriph_Driver/src/stm32f10x_fsmc.c ****     FSMC_Bank3->PMEM3 = tmppmem;
 947              		.loc 1 309 0
 948 018a 8160     		str	r1, [r0, #8]
 310:STM32F10x_StdPeriph_Driver/src/stm32f10x_fsmc.c ****     FSMC_Bank3->PATT3 = tmppatt;
 949              		.loc 1 310 0
 950 018c C260     		str	r2, [r0, #12]
 951 018e 38BD     		pop	{r3, r4, r5, pc}
 952              	.LVL60:
 953              	.L70:
 954              		.align	2
 955              	.L69:
 956 0190 00000000 		.word	.LC0
 957 0194 600000A0 		.word	-1610612640
 958 0198 800000A0 		.word	-1610612608
 959              		.cfi_endproc
 960              	.LFE31:
 962              		.section	.text.FSMC_PCCARDInit,"ax",%progbits
 963              		.align	2
 964              		.global	FSMC_PCCARDInit
 965              		.thumb
 966              		.thumb_func
 968              	FSMC_PCCARDInit:
 969              	.LFB32:
 311:STM32F10x_StdPeriph_Driver/src/stm32f10x_fsmc.c ****   }
 312:STM32F10x_StdPeriph_Driver/src/stm32f10x_fsmc.c **** }
 313:STM32F10x_StdPeriph_Driver/src/stm32f10x_fsmc.c **** 
 314:STM32F10x_StdPeriph_Driver/src/stm32f10x_fsmc.c **** /**
 315:STM32F10x_StdPeriph_Driver/src/stm32f10x_fsmc.c ****   * @brief  Initializes the FSMC PCCARD Bank according to the specified 
 316:STM32F10x_StdPeriph_Driver/src/stm32f10x_fsmc.c ****   *   parameters in the FSMC_PCCARDInitStruct.
 317:STM32F10x_StdPeriph_Driver/src/stm32f10x_fsmc.c ****   * @param  FSMC_PCCARDInitStruct : pointer to a FSMC_PCCARDInitTypeDef
ARM GAS  /var/folders/g9/bbpj86ld7fx45vd1b3pqxmp00000gn/T//cch0rGuN.s 			page 24


 318:STM32F10x_StdPeriph_Driver/src/stm32f10x_fsmc.c ****   *   structure that contains the configuration information for the FSMC PCCARD Bank.              
 319:STM32F10x_StdPeriph_Driver/src/stm32f10x_fsmc.c ****   * @retval None
 320:STM32F10x_StdPeriph_Driver/src/stm32f10x_fsmc.c ****   */
 321:STM32F10x_StdPeriph_Driver/src/stm32f10x_fsmc.c **** void FSMC_PCCARDInit(FSMC_PCCARDInitTypeDef* FSMC_PCCARDInitStruct)
 322:STM32F10x_StdPeriph_Driver/src/stm32f10x_fsmc.c **** {
 970              		.loc 1 322 0
 971              		.cfi_startproc
 972              		@ args = 0, pretend = 0, frame = 0
 973              		@ frame_needed = 0, uses_anonymous_args = 0
 974              	.LVL61:
 975 0000 10B5     		push	{r4, lr}
 976              	.LCFI4:
 977              		.cfi_def_cfa_offset 8
 978              		.cfi_offset 4, -8
 979              		.cfi_offset 14, -4
 980 0002 0446     		mov	r4, r0
 323:STM32F10x_StdPeriph_Driver/src/stm32f10x_fsmc.c ****   /* Check the parameters */
 324:STM32F10x_StdPeriph_Driver/src/stm32f10x_fsmc.c ****   assert_param(IS_FSMC_WAIT_FEATURE(FSMC_PCCARDInitStruct->FSMC_Waitfeature));
 981              		.loc 1 324 0
 982 0004 0368     		ldr	r3, [r0]
 983 0006 33B1     		cbz	r3, .L72
 984              		.loc 1 324 0 is_stmt 0 discriminator 1
 985 0008 022B     		cmp	r3, #2
 986 000a 04D0     		beq	.L72
 987              		.loc 1 324 0 discriminator 2
 988 000c 4FF4A271 		mov	r1, #324
 989 0010 5748     		ldr	r0, .L88
 990              	.LVL62:
 991 0012 FFF7FEFF 		bl	assert_failed
 992              	.LVL63:
 993              	.L72:
 325:STM32F10x_StdPeriph_Driver/src/stm32f10x_fsmc.c ****   assert_param(IS_FSMC_TCLR_TIME(FSMC_PCCARDInitStruct->FSMC_TCLRSetupTime));
 994              		.loc 1 325 0 is_stmt 1
 995 0016 6368     		ldr	r3, [r4, #4]
 996 0018 FF2B     		cmp	r3, #255
 997 001a 04D9     		bls	.L73
 998              		.loc 1 325 0 is_stmt 0 discriminator 1
 999 001c 40F24511 		movw	r1, #325
 1000 0020 5348     		ldr	r0, .L88
 1001 0022 FFF7FEFF 		bl	assert_failed
 1002              	.LVL64:
 1003              	.L73:
 326:STM32F10x_StdPeriph_Driver/src/stm32f10x_fsmc.c ****   assert_param(IS_FSMC_TAR_TIME(FSMC_PCCARDInitStruct->FSMC_TARSetupTime));
 1004              		.loc 1 326 0 is_stmt 1
 1005 0026 A368     		ldr	r3, [r4, #8]
 1006 0028 FF2B     		cmp	r3, #255
 1007 002a 04D9     		bls	.L74
 1008              		.loc 1 326 0 is_stmt 0 discriminator 1
 1009 002c 4FF4A371 		mov	r1, #326
 1010 0030 4F48     		ldr	r0, .L88
 1011 0032 FFF7FEFF 		bl	assert_failed
 1012              	.LVL65:
 1013              	.L74:
 327:STM32F10x_StdPeriph_Driver/src/stm32f10x_fsmc.c ****  
 328:STM32F10x_StdPeriph_Driver/src/stm32f10x_fsmc.c ****   assert_param(IS_FSMC_SETUP_TIME(FSMC_PCCARDInitStruct->FSMC_CommonSpaceTimingStruct->FSMC_SetupTi
 1014              		.loc 1 328 0 is_stmt 1
 1015 0036 E368     		ldr	r3, [r4, #12]
ARM GAS  /var/folders/g9/bbpj86ld7fx45vd1b3pqxmp00000gn/T//cch0rGuN.s 			page 25


 1016 0038 1B68     		ldr	r3, [r3]
 1017 003a FF2B     		cmp	r3, #255
 1018 003c 04D9     		bls	.L75
 1019              		.loc 1 328 0 is_stmt 0 discriminator 1
 1020 003e 4FF4A471 		mov	r1, #328
 1021 0042 4B48     		ldr	r0, .L88
 1022 0044 FFF7FEFF 		bl	assert_failed
 1023              	.LVL66:
 1024              	.L75:
 329:STM32F10x_StdPeriph_Driver/src/stm32f10x_fsmc.c ****   assert_param(IS_FSMC_WAIT_TIME(FSMC_PCCARDInitStruct->FSMC_CommonSpaceTimingStruct->FSMC_WaitSetu
 1025              		.loc 1 329 0 is_stmt 1
 1026 0048 E368     		ldr	r3, [r4, #12]
 1027 004a 5B68     		ldr	r3, [r3, #4]
 1028 004c FF2B     		cmp	r3, #255
 1029 004e 04D9     		bls	.L76
 1030              		.loc 1 329 0 is_stmt 0 discriminator 1
 1031 0050 40F24911 		movw	r1, #329
 1032 0054 4648     		ldr	r0, .L88
 1033 0056 FFF7FEFF 		bl	assert_failed
 1034              	.LVL67:
 1035              	.L76:
 330:STM32F10x_StdPeriph_Driver/src/stm32f10x_fsmc.c ****   assert_param(IS_FSMC_HOLD_TIME(FSMC_PCCARDInitStruct->FSMC_CommonSpaceTimingStruct->FSMC_HoldSetu
 1036              		.loc 1 330 0 is_stmt 1
 1037 005a E368     		ldr	r3, [r4, #12]
 1038 005c 9B68     		ldr	r3, [r3, #8]
 1039 005e FF2B     		cmp	r3, #255
 1040 0060 04D9     		bls	.L77
 1041              		.loc 1 330 0 is_stmt 0 discriminator 1
 1042 0062 4FF4A571 		mov	r1, #330
 1043 0066 4248     		ldr	r0, .L88
 1044 0068 FFF7FEFF 		bl	assert_failed
 1045              	.LVL68:
 1046              	.L77:
 331:STM32F10x_StdPeriph_Driver/src/stm32f10x_fsmc.c ****   assert_param(IS_FSMC_HIZ_TIME(FSMC_PCCARDInitStruct->FSMC_CommonSpaceTimingStruct->FSMC_HiZSetupT
 1047              		.loc 1 331 0 is_stmt 1
 1048 006c E368     		ldr	r3, [r4, #12]
 1049 006e DB68     		ldr	r3, [r3, #12]
 1050 0070 FF2B     		cmp	r3, #255
 1051 0072 04D9     		bls	.L78
 1052              		.loc 1 331 0 is_stmt 0 discriminator 1
 1053 0074 40F24B11 		movw	r1, #331
 1054 0078 3D48     		ldr	r0, .L88
 1055 007a FFF7FEFF 		bl	assert_failed
 1056              	.LVL69:
 1057              	.L78:
 332:STM32F10x_StdPeriph_Driver/src/stm32f10x_fsmc.c ****   
 333:STM32F10x_StdPeriph_Driver/src/stm32f10x_fsmc.c ****   assert_param(IS_FSMC_SETUP_TIME(FSMC_PCCARDInitStruct->FSMC_AttributeSpaceTimingStruct->FSMC_Setu
 1058              		.loc 1 333 0 is_stmt 1
 1059 007e 2369     		ldr	r3, [r4, #16]
 1060 0080 1B68     		ldr	r3, [r3]
 1061 0082 FF2B     		cmp	r3, #255
 1062 0084 04D9     		bls	.L79
 1063              		.loc 1 333 0 is_stmt 0 discriminator 1
 1064 0086 40F24D11 		movw	r1, #333
 1065 008a 3948     		ldr	r0, .L88
 1066 008c FFF7FEFF 		bl	assert_failed
 1067              	.LVL70:
ARM GAS  /var/folders/g9/bbpj86ld7fx45vd1b3pqxmp00000gn/T//cch0rGuN.s 			page 26


 1068              	.L79:
 334:STM32F10x_StdPeriph_Driver/src/stm32f10x_fsmc.c ****   assert_param(IS_FSMC_WAIT_TIME(FSMC_PCCARDInitStruct->FSMC_AttributeSpaceTimingStruct->FSMC_WaitS
 1069              		.loc 1 334 0 is_stmt 1
 1070 0090 2369     		ldr	r3, [r4, #16]
 1071 0092 5B68     		ldr	r3, [r3, #4]
 1072 0094 FF2B     		cmp	r3, #255
 1073 0096 04D9     		bls	.L80
 1074              		.loc 1 334 0 is_stmt 0 discriminator 1
 1075 0098 4FF4A771 		mov	r1, #334
 1076 009c 3448     		ldr	r0, .L88
 1077 009e FFF7FEFF 		bl	assert_failed
 1078              	.LVL71:
 1079              	.L80:
 335:STM32F10x_StdPeriph_Driver/src/stm32f10x_fsmc.c ****   assert_param(IS_FSMC_HOLD_TIME(FSMC_PCCARDInitStruct->FSMC_AttributeSpaceTimingStruct->FSMC_HoldS
 1080              		.loc 1 335 0 is_stmt 1
 1081 00a2 2369     		ldr	r3, [r4, #16]
 1082 00a4 9B68     		ldr	r3, [r3, #8]
 1083 00a6 FF2B     		cmp	r3, #255
 1084 00a8 04D9     		bls	.L81
 1085              		.loc 1 335 0 is_stmt 0 discriminator 1
 1086 00aa 40F24F11 		movw	r1, #335
 1087 00ae 3048     		ldr	r0, .L88
 1088 00b0 FFF7FEFF 		bl	assert_failed
 1089              	.LVL72:
 1090              	.L81:
 336:STM32F10x_StdPeriph_Driver/src/stm32f10x_fsmc.c ****   assert_param(IS_FSMC_HIZ_TIME(FSMC_PCCARDInitStruct->FSMC_AttributeSpaceTimingStruct->FSMC_HiZSet
 1091              		.loc 1 336 0 is_stmt 1
 1092 00b4 2369     		ldr	r3, [r4, #16]
 1093 00b6 DB68     		ldr	r3, [r3, #12]
 1094 00b8 FF2B     		cmp	r3, #255
 1095 00ba 04D9     		bls	.L82
 1096              		.loc 1 336 0 is_stmt 0 discriminator 1
 1097 00bc 4FF4A871 		mov	r1, #336
 1098 00c0 2B48     		ldr	r0, .L88
 1099 00c2 FFF7FEFF 		bl	assert_failed
 1100              	.LVL73:
 1101              	.L82:
 337:STM32F10x_StdPeriph_Driver/src/stm32f10x_fsmc.c ****   assert_param(IS_FSMC_SETUP_TIME(FSMC_PCCARDInitStruct->FSMC_IOSpaceTimingStruct->FSMC_SetupTime))
 1102              		.loc 1 337 0 is_stmt 1
 1103 00c6 6369     		ldr	r3, [r4, #20]
 1104 00c8 1B68     		ldr	r3, [r3]
 1105 00ca FF2B     		cmp	r3, #255
 1106 00cc 04D9     		bls	.L83
 1107              		.loc 1 337 0 is_stmt 0 discriminator 1
 1108 00ce 40F25111 		movw	r1, #337
 1109 00d2 2748     		ldr	r0, .L88
 1110 00d4 FFF7FEFF 		bl	assert_failed
 1111              	.LVL74:
 1112              	.L83:
 338:STM32F10x_StdPeriph_Driver/src/stm32f10x_fsmc.c ****   assert_param(IS_FSMC_WAIT_TIME(FSMC_PCCARDInitStruct->FSMC_IOSpaceTimingStruct->FSMC_WaitSetupTim
 1113              		.loc 1 338 0 is_stmt 1
 1114 00d8 6369     		ldr	r3, [r4, #20]
 1115 00da 5B68     		ldr	r3, [r3, #4]
 1116 00dc FF2B     		cmp	r3, #255
 1117 00de 04D9     		bls	.L84
 1118              		.loc 1 338 0 is_stmt 0 discriminator 1
 1119 00e0 4FF4A971 		mov	r1, #338
ARM GAS  /var/folders/g9/bbpj86ld7fx45vd1b3pqxmp00000gn/T//cch0rGuN.s 			page 27


 1120 00e4 2248     		ldr	r0, .L88
 1121 00e6 FFF7FEFF 		bl	assert_failed
 1122              	.LVL75:
 1123              	.L84:
 339:STM32F10x_StdPeriph_Driver/src/stm32f10x_fsmc.c ****   assert_param(IS_FSMC_HOLD_TIME(FSMC_PCCARDInitStruct->FSMC_IOSpaceTimingStruct->FSMC_HoldSetupTim
 1124              		.loc 1 339 0 is_stmt 1
 1125 00ea 6369     		ldr	r3, [r4, #20]
 1126 00ec 9B68     		ldr	r3, [r3, #8]
 1127 00ee FF2B     		cmp	r3, #255
 1128 00f0 04D9     		bls	.L85
 1129              		.loc 1 339 0 is_stmt 0 discriminator 1
 1130 00f2 40F25311 		movw	r1, #339
 1131 00f6 1E48     		ldr	r0, .L88
 1132 00f8 FFF7FEFF 		bl	assert_failed
 1133              	.LVL76:
 1134              	.L85:
 340:STM32F10x_StdPeriph_Driver/src/stm32f10x_fsmc.c ****   assert_param(IS_FSMC_HIZ_TIME(FSMC_PCCARDInitStruct->FSMC_IOSpaceTimingStruct->FSMC_HiZSetupTime)
 1135              		.loc 1 340 0 is_stmt 1
 1136 00fc 6369     		ldr	r3, [r4, #20]
 1137 00fe DB68     		ldr	r3, [r3, #12]
 1138 0100 FF2B     		cmp	r3, #255
 1139 0102 04D9     		bls	.L86
 1140              		.loc 1 340 0 is_stmt 0 discriminator 1
 1141 0104 4FF4AA71 		mov	r1, #340
 1142 0108 1948     		ldr	r0, .L88
 1143 010a FFF7FEFF 		bl	assert_failed
 1144              	.LVL77:
 1145              	.L86:
 341:STM32F10x_StdPeriph_Driver/src/stm32f10x_fsmc.c ****   
 342:STM32F10x_StdPeriph_Driver/src/stm32f10x_fsmc.c ****   /* Set the PCR4 register value according to FSMC_PCCARDInitStruct parameters */
 343:STM32F10x_StdPeriph_Driver/src/stm32f10x_fsmc.c ****   FSMC_Bank4->PCR4 = (uint32_t)FSMC_PCCARDInitStruct->FSMC_Waitfeature |
 1146              		.loc 1 343 0 is_stmt 1
 1147 010e 2368     		ldr	r3, [r4]
 344:STM32F10x_StdPeriph_Driver/src/stm32f10x_fsmc.c ****                      FSMC_MemoryDataWidth_16b |  
 345:STM32F10x_StdPeriph_Driver/src/stm32f10x_fsmc.c ****                      (FSMC_PCCARDInitStruct->FSMC_TCLRSetupTime << 9) |
 1148              		.loc 1 345 0
 1149 0110 6268     		ldr	r2, [r4, #4]
 344:STM32F10x_StdPeriph_Driver/src/stm32f10x_fsmc.c ****                      FSMC_MemoryDataWidth_16b |  
 1150              		.loc 1 344 0
 1151 0112 43EA4223 		orr	r3, r3, r2, lsl #9
 346:STM32F10x_StdPeriph_Driver/src/stm32f10x_fsmc.c ****                      (FSMC_PCCARDInitStruct->FSMC_TARSetupTime << 13);
 1152              		.loc 1 346 0
 1153 0116 A268     		ldr	r2, [r4, #8]
 345:STM32F10x_StdPeriph_Driver/src/stm32f10x_fsmc.c ****                      (FSMC_PCCARDInitStruct->FSMC_TARSetupTime << 13);
 1154              		.loc 1 345 0
 1155 0118 43EA4233 		orr	r3, r3, r2, lsl #13
 1156 011c 43F01003 		orr	r3, r3, #16
 343:STM32F10x_StdPeriph_Driver/src/stm32f10x_fsmc.c ****                      FSMC_MemoryDataWidth_16b |  
 1157              		.loc 1 343 0
 1158 0120 144A     		ldr	r2, .L88+4
 1159 0122 1360     		str	r3, [r2]
 347:STM32F10x_StdPeriph_Driver/src/stm32f10x_fsmc.c ****             
 348:STM32F10x_StdPeriph_Driver/src/stm32f10x_fsmc.c ****   /* Set PMEM4 register value according to FSMC_CommonSpaceTimingStructure parameters */
 349:STM32F10x_StdPeriph_Driver/src/stm32f10x_fsmc.c ****   FSMC_Bank4->PMEM4 = (uint32_t)FSMC_PCCARDInitStruct->FSMC_CommonSpaceTimingStruct->FSMC_SetupTime
 1160              		.loc 1 349 0
 1161 0124 E168     		ldr	r1, [r4, #12]
 1162 0126 0B68     		ldr	r3, [r1]
ARM GAS  /var/folders/g9/bbpj86ld7fx45vd1b3pqxmp00000gn/T//cch0rGuN.s 			page 28


 350:STM32F10x_StdPeriph_Driver/src/stm32f10x_fsmc.c ****                       (FSMC_PCCARDInitStruct->FSMC_CommonSpaceTimingStruct->FSMC_WaitSetupTime << 8
 1163              		.loc 1 350 0
 1164 0128 4868     		ldr	r0, [r1, #4]
 349:STM32F10x_StdPeriph_Driver/src/stm32f10x_fsmc.c ****                       (FSMC_PCCARDInitStruct->FSMC_CommonSpaceTimingStruct->FSMC_WaitSetupTime << 8
 1165              		.loc 1 349 0
 1166 012a 43EA0023 		orr	r3, r3, r0, lsl #8
 351:STM32F10x_StdPeriph_Driver/src/stm32f10x_fsmc.c ****                       (FSMC_PCCARDInitStruct->FSMC_CommonSpaceTimingStruct->FSMC_HoldSetupTime << 1
 1167              		.loc 1 351 0
 1168 012e 8868     		ldr	r0, [r1, #8]
 350:STM32F10x_StdPeriph_Driver/src/stm32f10x_fsmc.c ****                       (FSMC_PCCARDInitStruct->FSMC_CommonSpaceTimingStruct->FSMC_WaitSetupTime << 8
 1169              		.loc 1 350 0
 1170 0130 43EA0043 		orr	r3, r3, r0, lsl #16
 352:STM32F10x_StdPeriph_Driver/src/stm32f10x_fsmc.c ****                       (FSMC_PCCARDInitStruct->FSMC_CommonSpaceTimingStruct->FSMC_HiZSetupTime << 24
 1171              		.loc 1 352 0
 1172 0134 C968     		ldr	r1, [r1, #12]
 351:STM32F10x_StdPeriph_Driver/src/stm32f10x_fsmc.c ****                       (FSMC_PCCARDInitStruct->FSMC_CommonSpaceTimingStruct->FSMC_HoldSetupTime << 1
 1173              		.loc 1 351 0
 1174 0136 43EA0163 		orr	r3, r3, r1, lsl #24
 349:STM32F10x_StdPeriph_Driver/src/stm32f10x_fsmc.c ****                       (FSMC_PCCARDInitStruct->FSMC_CommonSpaceTimingStruct->FSMC_WaitSetupTime << 8
 1175              		.loc 1 349 0
 1176 013a 9360     		str	r3, [r2, #8]
 353:STM32F10x_StdPeriph_Driver/src/stm32f10x_fsmc.c ****             
 354:STM32F10x_StdPeriph_Driver/src/stm32f10x_fsmc.c ****   /* Set PATT4 register value according to FSMC_AttributeSpaceTimingStructure parameters */
 355:STM32F10x_StdPeriph_Driver/src/stm32f10x_fsmc.c ****   FSMC_Bank4->PATT4 = (uint32_t)FSMC_PCCARDInitStruct->FSMC_AttributeSpaceTimingStruct->FSMC_SetupT
 1177              		.loc 1 355 0
 1178 013c 2169     		ldr	r1, [r4, #16]
 1179 013e 0B68     		ldr	r3, [r1]
 356:STM32F10x_StdPeriph_Driver/src/stm32f10x_fsmc.c ****                       (FSMC_PCCARDInitStruct->FSMC_AttributeSpaceTimingStruct->FSMC_WaitSetupTime <
 1180              		.loc 1 356 0
 1181 0140 4868     		ldr	r0, [r1, #4]
 355:STM32F10x_StdPeriph_Driver/src/stm32f10x_fsmc.c ****                       (FSMC_PCCARDInitStruct->FSMC_AttributeSpaceTimingStruct->FSMC_WaitSetupTime <
 1182              		.loc 1 355 0
 1183 0142 43EA0023 		orr	r3, r3, r0, lsl #8
 357:STM32F10x_StdPeriph_Driver/src/stm32f10x_fsmc.c ****                       (FSMC_PCCARDInitStruct->FSMC_AttributeSpaceTimingStruct->FSMC_HoldSetupTime <
 1184              		.loc 1 357 0
 1185 0146 8868     		ldr	r0, [r1, #8]
 356:STM32F10x_StdPeriph_Driver/src/stm32f10x_fsmc.c ****                       (FSMC_PCCARDInitStruct->FSMC_AttributeSpaceTimingStruct->FSMC_WaitSetupTime <
 1186              		.loc 1 356 0
 1187 0148 43EA0043 		orr	r3, r3, r0, lsl #16
 358:STM32F10x_StdPeriph_Driver/src/stm32f10x_fsmc.c ****                       (FSMC_PCCARDInitStruct->FSMC_AttributeSpaceTimingStruct->FSMC_HiZSetupTime <<
 1188              		.loc 1 358 0
 1189 014c C968     		ldr	r1, [r1, #12]
 357:STM32F10x_StdPeriph_Driver/src/stm32f10x_fsmc.c ****                       (FSMC_PCCARDInitStruct->FSMC_AttributeSpaceTimingStruct->FSMC_HoldSetupTime <
 1190              		.loc 1 357 0
 1191 014e 43EA0163 		orr	r3, r3, r1, lsl #24
 355:STM32F10x_StdPeriph_Driver/src/stm32f10x_fsmc.c ****                       (FSMC_PCCARDInitStruct->FSMC_AttributeSpaceTimingStruct->FSMC_WaitSetupTime <
 1192              		.loc 1 355 0
 1193 0152 D360     		str	r3, [r2, #12]
 359:STM32F10x_StdPeriph_Driver/src/stm32f10x_fsmc.c ****             
 360:STM32F10x_StdPeriph_Driver/src/stm32f10x_fsmc.c ****   /* Set PIO4 register value according to FSMC_IOSpaceTimingStructure parameters */
 361:STM32F10x_StdPeriph_Driver/src/stm32f10x_fsmc.c ****   FSMC_Bank4->PIO4 = (uint32_t)FSMC_PCCARDInitStruct->FSMC_IOSpaceTimingStruct->FSMC_SetupTime |
 1194              		.loc 1 361 0
 1195 0154 6169     		ldr	r1, [r4, #20]
 1196 0156 0B68     		ldr	r3, [r1]
 362:STM32F10x_StdPeriph_Driver/src/stm32f10x_fsmc.c ****                      (FSMC_PCCARDInitStruct->FSMC_IOSpaceTimingStruct->FSMC_WaitSetupTime << 8) |
 1197              		.loc 1 362 0
 1198 0158 4868     		ldr	r0, [r1, #4]
ARM GAS  /var/folders/g9/bbpj86ld7fx45vd1b3pqxmp00000gn/T//cch0rGuN.s 			page 29


 361:STM32F10x_StdPeriph_Driver/src/stm32f10x_fsmc.c ****                      (FSMC_PCCARDInitStruct->FSMC_IOSpaceTimingStruct->FSMC_WaitSetupTime << 8) |
 1199              		.loc 1 361 0
 1200 015a 43EA0023 		orr	r3, r3, r0, lsl #8
 363:STM32F10x_StdPeriph_Driver/src/stm32f10x_fsmc.c ****                      (FSMC_PCCARDInitStruct->FSMC_IOSpaceTimingStruct->FSMC_HoldSetupTime << 16)|
 1201              		.loc 1 363 0
 1202 015e 8868     		ldr	r0, [r1, #8]
 362:STM32F10x_StdPeriph_Driver/src/stm32f10x_fsmc.c ****                      (FSMC_PCCARDInitStruct->FSMC_IOSpaceTimingStruct->FSMC_WaitSetupTime << 8) |
 1203              		.loc 1 362 0
 1204 0160 43EA0043 		orr	r3, r3, r0, lsl #16
 364:STM32F10x_StdPeriph_Driver/src/stm32f10x_fsmc.c ****                      (FSMC_PCCARDInitStruct->FSMC_IOSpaceTimingStruct->FSMC_HiZSetupTime << 24);   
 1205              		.loc 1 364 0
 1206 0164 C968     		ldr	r1, [r1, #12]
 363:STM32F10x_StdPeriph_Driver/src/stm32f10x_fsmc.c ****                      (FSMC_PCCARDInitStruct->FSMC_IOSpaceTimingStruct->FSMC_HoldSetupTime << 16)|
 1207              		.loc 1 363 0
 1208 0166 43EA0163 		orr	r3, r3, r1, lsl #24
 361:STM32F10x_StdPeriph_Driver/src/stm32f10x_fsmc.c ****                      (FSMC_PCCARDInitStruct->FSMC_IOSpaceTimingStruct->FSMC_WaitSetupTime << 8) |
 1209              		.loc 1 361 0
 1210 016a 1361     		str	r3, [r2, #16]
 1211 016c 10BD     		pop	{r4, pc}
 1212              	.LVL78:
 1213              	.L89:
 1214 016e 00BF     		.align	2
 1215              	.L88:
 1216 0170 00000000 		.word	.LC0
 1217 0174 A00000A0 		.word	-1610612576
 1218              		.cfi_endproc
 1219              	.LFE32:
 1221              		.section	.text.FSMC_NORSRAMStructInit,"ax",%progbits
 1222              		.align	2
 1223              		.global	FSMC_NORSRAMStructInit
 1224              		.thumb
 1225              		.thumb_func
 1227              	FSMC_NORSRAMStructInit:
 1228              	.LFB33:
 365:STM32F10x_StdPeriph_Driver/src/stm32f10x_fsmc.c **** }
 366:STM32F10x_StdPeriph_Driver/src/stm32f10x_fsmc.c **** 
 367:STM32F10x_StdPeriph_Driver/src/stm32f10x_fsmc.c **** /**
 368:STM32F10x_StdPeriph_Driver/src/stm32f10x_fsmc.c ****   * @brief  Fills each FSMC_NORSRAMInitStruct member with its default value.
 369:STM32F10x_StdPeriph_Driver/src/stm32f10x_fsmc.c ****   * @param  FSMC_NORSRAMInitStruct: pointer to a FSMC_NORSRAMInitTypeDef 
 370:STM32F10x_StdPeriph_Driver/src/stm32f10x_fsmc.c ****   *   structure which will be initialized.
 371:STM32F10x_StdPeriph_Driver/src/stm32f10x_fsmc.c ****   * @retval None
 372:STM32F10x_StdPeriph_Driver/src/stm32f10x_fsmc.c ****   */
 373:STM32F10x_StdPeriph_Driver/src/stm32f10x_fsmc.c **** void FSMC_NORSRAMStructInit(FSMC_NORSRAMInitTypeDef* FSMC_NORSRAMInitStruct)
 374:STM32F10x_StdPeriph_Driver/src/stm32f10x_fsmc.c **** {  
 1229              		.loc 1 374 0
 1230              		.cfi_startproc
 1231              		@ args = 0, pretend = 0, frame = 0
 1232              		@ frame_needed = 0, uses_anonymous_args = 0
 1233              		@ link register save eliminated.
 1234              	.LVL79:
 1235 0000 10B4     		push	{r4}
 1236              	.LCFI5:
 1237              		.cfi_def_cfa_offset 4
 1238              		.cfi_offset 4, -4
 375:STM32F10x_StdPeriph_Driver/src/stm32f10x_fsmc.c ****   /* Reset NOR/SRAM Init structure parameters values */
 376:STM32F10x_StdPeriph_Driver/src/stm32f10x_fsmc.c ****   FSMC_NORSRAMInitStruct->FSMC_Bank = FSMC_Bank1_NORSRAM1;
 1239              		.loc 1 376 0
ARM GAS  /var/folders/g9/bbpj86ld7fx45vd1b3pqxmp00000gn/T//cch0rGuN.s 			page 30


 1240 0002 0023     		movs	r3, #0
 1241 0004 0360     		str	r3, [r0]
 377:STM32F10x_StdPeriph_Driver/src/stm32f10x_fsmc.c ****   FSMC_NORSRAMInitStruct->FSMC_DataAddressMux = FSMC_DataAddressMux_Enable;
 1242              		.loc 1 377 0
 1243 0006 0222     		movs	r2, #2
 1244 0008 4260     		str	r2, [r0, #4]
 378:STM32F10x_StdPeriph_Driver/src/stm32f10x_fsmc.c ****   FSMC_NORSRAMInitStruct->FSMC_MemoryType = FSMC_MemoryType_SRAM;
 1245              		.loc 1 378 0
 1246 000a 8360     		str	r3, [r0, #8]
 379:STM32F10x_StdPeriph_Driver/src/stm32f10x_fsmc.c ****   FSMC_NORSRAMInitStruct->FSMC_MemoryDataWidth = FSMC_MemoryDataWidth_8b;
 1247              		.loc 1 379 0
 1248 000c C360     		str	r3, [r0, #12]
 380:STM32F10x_StdPeriph_Driver/src/stm32f10x_fsmc.c ****   FSMC_NORSRAMInitStruct->FSMC_BurstAccessMode = FSMC_BurstAccessMode_Disable;
 1249              		.loc 1 380 0
 1250 000e 0361     		str	r3, [r0, #16]
 381:STM32F10x_StdPeriph_Driver/src/stm32f10x_fsmc.c ****   FSMC_NORSRAMInitStruct->FSMC_WaitSignalPolarity = FSMC_WaitSignalPolarity_Low;
 1251              		.loc 1 381 0
 1252 0010 4361     		str	r3, [r0, #20]
 382:STM32F10x_StdPeriph_Driver/src/stm32f10x_fsmc.c ****   FSMC_NORSRAMInitStruct->FSMC_WrapMode = FSMC_WrapMode_Disable;
 1253              		.loc 1 382 0
 1254 0012 8361     		str	r3, [r0, #24]
 383:STM32F10x_StdPeriph_Driver/src/stm32f10x_fsmc.c ****   FSMC_NORSRAMInitStruct->FSMC_WaitSignalActive = FSMC_WaitSignalActive_BeforeWaitState;
 1255              		.loc 1 383 0
 1256 0014 C361     		str	r3, [r0, #28]
 384:STM32F10x_StdPeriph_Driver/src/stm32f10x_fsmc.c ****   FSMC_NORSRAMInitStruct->FSMC_WriteOperation = FSMC_WriteOperation_Enable;
 1257              		.loc 1 384 0
 1258 0016 4FF48052 		mov	r2, #4096
 1259 001a 0262     		str	r2, [r0, #32]
 385:STM32F10x_StdPeriph_Driver/src/stm32f10x_fsmc.c ****   FSMC_NORSRAMInitStruct->FSMC_WaitSignal = FSMC_WaitSignal_Enable;
 1260              		.loc 1 385 0
 1261 001c 4FF40052 		mov	r2, #8192
 1262 0020 4262     		str	r2, [r0, #36]
 386:STM32F10x_StdPeriph_Driver/src/stm32f10x_fsmc.c ****   FSMC_NORSRAMInitStruct->FSMC_ExtendedMode = FSMC_ExtendedMode_Disable;
 1263              		.loc 1 386 0
 1264 0022 8362     		str	r3, [r0, #40]
 387:STM32F10x_StdPeriph_Driver/src/stm32f10x_fsmc.c ****   FSMC_NORSRAMInitStruct->FSMC_WriteBurst = FSMC_WriteBurst_Disable;
 1265              		.loc 1 387 0
 1266 0024 C362     		str	r3, [r0, #44]
 388:STM32F10x_StdPeriph_Driver/src/stm32f10x_fsmc.c ****   FSMC_NORSRAMInitStruct->FSMC_ReadWriteTimingStruct->FSMC_AddressSetupTime = 0xF;
 1267              		.loc 1 388 0
 1268 0026 016B     		ldr	r1, [r0, #48]
 1269 0028 0F22     		movs	r2, #15
 1270 002a 0A60     		str	r2, [r1]
 389:STM32F10x_StdPeriph_Driver/src/stm32f10x_fsmc.c ****   FSMC_NORSRAMInitStruct->FSMC_ReadWriteTimingStruct->FSMC_AddressHoldTime = 0xF;
 1271              		.loc 1 389 0
 1272 002c 016B     		ldr	r1, [r0, #48]
 1273 002e 4A60     		str	r2, [r1, #4]
 390:STM32F10x_StdPeriph_Driver/src/stm32f10x_fsmc.c ****   FSMC_NORSRAMInitStruct->FSMC_ReadWriteTimingStruct->FSMC_DataSetupTime = 0xFF;
 1274              		.loc 1 390 0
 1275 0030 046B     		ldr	r4, [r0, #48]
 1276 0032 FF21     		movs	r1, #255
 1277 0034 A160     		str	r1, [r4, #8]
 391:STM32F10x_StdPeriph_Driver/src/stm32f10x_fsmc.c ****   FSMC_NORSRAMInitStruct->FSMC_ReadWriteTimingStruct->FSMC_BusTurnAroundDuration = 0xF;
 1278              		.loc 1 391 0
 1279 0036 046B     		ldr	r4, [r0, #48]
 1280 0038 E260     		str	r2, [r4, #12]
 392:STM32F10x_StdPeriph_Driver/src/stm32f10x_fsmc.c ****   FSMC_NORSRAMInitStruct->FSMC_ReadWriteTimingStruct->FSMC_CLKDivision = 0xF;
ARM GAS  /var/folders/g9/bbpj86ld7fx45vd1b3pqxmp00000gn/T//cch0rGuN.s 			page 31


 1281              		.loc 1 392 0
 1282 003a 046B     		ldr	r4, [r0, #48]
 1283 003c 2261     		str	r2, [r4, #16]
 393:STM32F10x_StdPeriph_Driver/src/stm32f10x_fsmc.c ****   FSMC_NORSRAMInitStruct->FSMC_ReadWriteTimingStruct->FSMC_DataLatency = 0xF;
 1284              		.loc 1 393 0
 1285 003e 046B     		ldr	r4, [r0, #48]
 1286 0040 6261     		str	r2, [r4, #20]
 394:STM32F10x_StdPeriph_Driver/src/stm32f10x_fsmc.c ****   FSMC_NORSRAMInitStruct->FSMC_ReadWriteTimingStruct->FSMC_AccessMode = FSMC_AccessMode_A; 
 1287              		.loc 1 394 0
 1288 0042 046B     		ldr	r4, [r0, #48]
 1289 0044 A361     		str	r3, [r4, #24]
 395:STM32F10x_StdPeriph_Driver/src/stm32f10x_fsmc.c ****   FSMC_NORSRAMInitStruct->FSMC_WriteTimingStruct->FSMC_AddressSetupTime = 0xF;
 1290              		.loc 1 395 0
 1291 0046 446B     		ldr	r4, [r0, #52]
 1292 0048 2260     		str	r2, [r4]
 396:STM32F10x_StdPeriph_Driver/src/stm32f10x_fsmc.c ****   FSMC_NORSRAMInitStruct->FSMC_WriteTimingStruct->FSMC_AddressHoldTime = 0xF;
 1293              		.loc 1 396 0
 1294 004a 446B     		ldr	r4, [r0, #52]
 1295 004c 6260     		str	r2, [r4, #4]
 397:STM32F10x_StdPeriph_Driver/src/stm32f10x_fsmc.c ****   FSMC_NORSRAMInitStruct->FSMC_WriteTimingStruct->FSMC_DataSetupTime = 0xFF;
 1296              		.loc 1 397 0
 1297 004e 446B     		ldr	r4, [r0, #52]
 1298 0050 A160     		str	r1, [r4, #8]
 398:STM32F10x_StdPeriph_Driver/src/stm32f10x_fsmc.c ****   FSMC_NORSRAMInitStruct->FSMC_WriteTimingStruct->FSMC_BusTurnAroundDuration = 0xF;
 1299              		.loc 1 398 0
 1300 0052 416B     		ldr	r1, [r0, #52]
 1301 0054 CA60     		str	r2, [r1, #12]
 399:STM32F10x_StdPeriph_Driver/src/stm32f10x_fsmc.c ****   FSMC_NORSRAMInitStruct->FSMC_WriteTimingStruct->FSMC_CLKDivision = 0xF;
 1302              		.loc 1 399 0
 1303 0056 416B     		ldr	r1, [r0, #52]
 1304 0058 0A61     		str	r2, [r1, #16]
 400:STM32F10x_StdPeriph_Driver/src/stm32f10x_fsmc.c ****   FSMC_NORSRAMInitStruct->FSMC_WriteTimingStruct->FSMC_DataLatency = 0xF;
 1305              		.loc 1 400 0
 1306 005a 416B     		ldr	r1, [r0, #52]
 1307 005c 4A61     		str	r2, [r1, #20]
 401:STM32F10x_StdPeriph_Driver/src/stm32f10x_fsmc.c ****   FSMC_NORSRAMInitStruct->FSMC_WriteTimingStruct->FSMC_AccessMode = FSMC_AccessMode_A;
 1308              		.loc 1 401 0
 1309 005e 426B     		ldr	r2, [r0, #52]
 1310 0060 9361     		str	r3, [r2, #24]
 402:STM32F10x_StdPeriph_Driver/src/stm32f10x_fsmc.c **** }
 1311              		.loc 1 402 0
 1312 0062 10BC     		pop	{r4}
 1313              	.LCFI6:
 1314              		.cfi_restore 4
 1315              		.cfi_def_cfa_offset 0
 1316 0064 7047     		bx	lr
 1317              		.cfi_endproc
 1318              	.LFE33:
 1320 0066 00BF     		.section	.text.FSMC_NANDStructInit,"ax",%progbits
 1321              		.align	2
 1322              		.global	FSMC_NANDStructInit
 1323              		.thumb
 1324              		.thumb_func
 1326              	FSMC_NANDStructInit:
 1327              	.LFB34:
 403:STM32F10x_StdPeriph_Driver/src/stm32f10x_fsmc.c **** 
 404:STM32F10x_StdPeriph_Driver/src/stm32f10x_fsmc.c **** /**
ARM GAS  /var/folders/g9/bbpj86ld7fx45vd1b3pqxmp00000gn/T//cch0rGuN.s 			page 32


 405:STM32F10x_StdPeriph_Driver/src/stm32f10x_fsmc.c ****   * @brief  Fills each FSMC_NANDInitStruct member with its default value.
 406:STM32F10x_StdPeriph_Driver/src/stm32f10x_fsmc.c ****   * @param  FSMC_NANDInitStruct: pointer to a FSMC_NANDInitTypeDef 
 407:STM32F10x_StdPeriph_Driver/src/stm32f10x_fsmc.c ****   *   structure which will be initialized.
 408:STM32F10x_StdPeriph_Driver/src/stm32f10x_fsmc.c ****   * @retval None
 409:STM32F10x_StdPeriph_Driver/src/stm32f10x_fsmc.c ****   */
 410:STM32F10x_StdPeriph_Driver/src/stm32f10x_fsmc.c **** void FSMC_NANDStructInit(FSMC_NANDInitTypeDef* FSMC_NANDInitStruct)
 411:STM32F10x_StdPeriph_Driver/src/stm32f10x_fsmc.c **** { 
 1328              		.loc 1 411 0
 1329              		.cfi_startproc
 1330              		@ args = 0, pretend = 0, frame = 0
 1331              		@ frame_needed = 0, uses_anonymous_args = 0
 1332              		@ link register save eliminated.
 1333              	.LVL80:
 412:STM32F10x_StdPeriph_Driver/src/stm32f10x_fsmc.c ****   /* Reset NAND Init structure parameters values */
 413:STM32F10x_StdPeriph_Driver/src/stm32f10x_fsmc.c ****   FSMC_NANDInitStruct->FSMC_Bank = FSMC_Bank2_NAND;
 1334              		.loc 1 413 0
 1335 0000 1023     		movs	r3, #16
 1336 0002 0360     		str	r3, [r0]
 414:STM32F10x_StdPeriph_Driver/src/stm32f10x_fsmc.c ****   FSMC_NANDInitStruct->FSMC_Waitfeature = FSMC_Waitfeature_Disable;
 1337              		.loc 1 414 0
 1338 0004 0023     		movs	r3, #0
 1339 0006 4360     		str	r3, [r0, #4]
 415:STM32F10x_StdPeriph_Driver/src/stm32f10x_fsmc.c ****   FSMC_NANDInitStruct->FSMC_MemoryDataWidth = FSMC_MemoryDataWidth_8b;
 1340              		.loc 1 415 0
 1341 0008 8360     		str	r3, [r0, #8]
 416:STM32F10x_StdPeriph_Driver/src/stm32f10x_fsmc.c ****   FSMC_NANDInitStruct->FSMC_ECC = FSMC_ECC_Disable;
 1342              		.loc 1 416 0
 1343 000a C360     		str	r3, [r0, #12]
 417:STM32F10x_StdPeriph_Driver/src/stm32f10x_fsmc.c ****   FSMC_NANDInitStruct->FSMC_ECCPageSize = FSMC_ECCPageSize_256Bytes;
 1344              		.loc 1 417 0
 1345 000c 0361     		str	r3, [r0, #16]
 418:STM32F10x_StdPeriph_Driver/src/stm32f10x_fsmc.c ****   FSMC_NANDInitStruct->FSMC_TCLRSetupTime = 0x0;
 1346              		.loc 1 418 0
 1347 000e 4361     		str	r3, [r0, #20]
 419:STM32F10x_StdPeriph_Driver/src/stm32f10x_fsmc.c ****   FSMC_NANDInitStruct->FSMC_TARSetupTime = 0x0;
 1348              		.loc 1 419 0
 1349 0010 8361     		str	r3, [r0, #24]
 420:STM32F10x_StdPeriph_Driver/src/stm32f10x_fsmc.c ****   FSMC_NANDInitStruct->FSMC_CommonSpaceTimingStruct->FSMC_SetupTime = 0xFC;
 1350              		.loc 1 420 0
 1351 0012 C269     		ldr	r2, [r0, #28]
 1352 0014 FC23     		movs	r3, #252
 1353 0016 1360     		str	r3, [r2]
 421:STM32F10x_StdPeriph_Driver/src/stm32f10x_fsmc.c ****   FSMC_NANDInitStruct->FSMC_CommonSpaceTimingStruct->FSMC_WaitSetupTime = 0xFC;
 1354              		.loc 1 421 0
 1355 0018 C269     		ldr	r2, [r0, #28]
 1356 001a 5360     		str	r3, [r2, #4]
 422:STM32F10x_StdPeriph_Driver/src/stm32f10x_fsmc.c ****   FSMC_NANDInitStruct->FSMC_CommonSpaceTimingStruct->FSMC_HoldSetupTime = 0xFC;
 1357              		.loc 1 422 0
 1358 001c C269     		ldr	r2, [r0, #28]
 1359 001e 9360     		str	r3, [r2, #8]
 423:STM32F10x_StdPeriph_Driver/src/stm32f10x_fsmc.c ****   FSMC_NANDInitStruct->FSMC_CommonSpaceTimingStruct->FSMC_HiZSetupTime = 0xFC;
 1360              		.loc 1 423 0
 1361 0020 C269     		ldr	r2, [r0, #28]
 1362 0022 D360     		str	r3, [r2, #12]
 424:STM32F10x_StdPeriph_Driver/src/stm32f10x_fsmc.c ****   FSMC_NANDInitStruct->FSMC_AttributeSpaceTimingStruct->FSMC_SetupTime = 0xFC;
 1363              		.loc 1 424 0
 1364 0024 026A     		ldr	r2, [r0, #32]
ARM GAS  /var/folders/g9/bbpj86ld7fx45vd1b3pqxmp00000gn/T//cch0rGuN.s 			page 33


 1365 0026 1360     		str	r3, [r2]
 425:STM32F10x_StdPeriph_Driver/src/stm32f10x_fsmc.c ****   FSMC_NANDInitStruct->FSMC_AttributeSpaceTimingStruct->FSMC_WaitSetupTime = 0xFC;
 1366              		.loc 1 425 0
 1367 0028 026A     		ldr	r2, [r0, #32]
 1368 002a 5360     		str	r3, [r2, #4]
 426:STM32F10x_StdPeriph_Driver/src/stm32f10x_fsmc.c ****   FSMC_NANDInitStruct->FSMC_AttributeSpaceTimingStruct->FSMC_HoldSetupTime = 0xFC;
 1369              		.loc 1 426 0
 1370 002c 026A     		ldr	r2, [r0, #32]
 1371 002e 9360     		str	r3, [r2, #8]
 427:STM32F10x_StdPeriph_Driver/src/stm32f10x_fsmc.c ****   FSMC_NANDInitStruct->FSMC_AttributeSpaceTimingStruct->FSMC_HiZSetupTime = 0xFC;	  
 1372              		.loc 1 427 0
 1373 0030 026A     		ldr	r2, [r0, #32]
 1374 0032 D360     		str	r3, [r2, #12]
 1375 0034 7047     		bx	lr
 1376              		.cfi_endproc
 1377              	.LFE34:
 1379 0036 00BF     		.section	.text.FSMC_PCCARDStructInit,"ax",%progbits
 1380              		.align	2
 1381              		.global	FSMC_PCCARDStructInit
 1382              		.thumb
 1383              		.thumb_func
 1385              	FSMC_PCCARDStructInit:
 1386              	.LFB35:
 428:STM32F10x_StdPeriph_Driver/src/stm32f10x_fsmc.c **** }
 429:STM32F10x_StdPeriph_Driver/src/stm32f10x_fsmc.c **** 
 430:STM32F10x_StdPeriph_Driver/src/stm32f10x_fsmc.c **** /**
 431:STM32F10x_StdPeriph_Driver/src/stm32f10x_fsmc.c ****   * @brief  Fills each FSMC_PCCARDInitStruct member with its default value.
 432:STM32F10x_StdPeriph_Driver/src/stm32f10x_fsmc.c ****   * @param  FSMC_PCCARDInitStruct: pointer to a FSMC_PCCARDInitTypeDef 
 433:STM32F10x_StdPeriph_Driver/src/stm32f10x_fsmc.c ****   *   structure which will be initialized.
 434:STM32F10x_StdPeriph_Driver/src/stm32f10x_fsmc.c ****   * @retval None
 435:STM32F10x_StdPeriph_Driver/src/stm32f10x_fsmc.c ****   */
 436:STM32F10x_StdPeriph_Driver/src/stm32f10x_fsmc.c **** void FSMC_PCCARDStructInit(FSMC_PCCARDInitTypeDef* FSMC_PCCARDInitStruct)
 437:STM32F10x_StdPeriph_Driver/src/stm32f10x_fsmc.c **** {
 1387              		.loc 1 437 0
 1388              		.cfi_startproc
 1389              		@ args = 0, pretend = 0, frame = 0
 1390              		@ frame_needed = 0, uses_anonymous_args = 0
 1391              		@ link register save eliminated.
 1392              	.LVL81:
 438:STM32F10x_StdPeriph_Driver/src/stm32f10x_fsmc.c ****   /* Reset PCCARD Init structure parameters values */
 439:STM32F10x_StdPeriph_Driver/src/stm32f10x_fsmc.c ****   FSMC_PCCARDInitStruct->FSMC_Waitfeature = FSMC_Waitfeature_Disable;
 1393              		.loc 1 439 0
 1394 0000 0023     		movs	r3, #0
 1395 0002 0360     		str	r3, [r0]
 440:STM32F10x_StdPeriph_Driver/src/stm32f10x_fsmc.c ****   FSMC_PCCARDInitStruct->FSMC_TCLRSetupTime = 0x0;
 1396              		.loc 1 440 0
 1397 0004 4360     		str	r3, [r0, #4]
 441:STM32F10x_StdPeriph_Driver/src/stm32f10x_fsmc.c ****   FSMC_PCCARDInitStruct->FSMC_TARSetupTime = 0x0;
 1398              		.loc 1 441 0
 1399 0006 8360     		str	r3, [r0, #8]
 442:STM32F10x_StdPeriph_Driver/src/stm32f10x_fsmc.c ****   FSMC_PCCARDInitStruct->FSMC_CommonSpaceTimingStruct->FSMC_SetupTime = 0xFC;
 1400              		.loc 1 442 0
 1401 0008 C268     		ldr	r2, [r0, #12]
 1402 000a FC23     		movs	r3, #252
 1403 000c 1360     		str	r3, [r2]
 443:STM32F10x_StdPeriph_Driver/src/stm32f10x_fsmc.c ****   FSMC_PCCARDInitStruct->FSMC_CommonSpaceTimingStruct->FSMC_WaitSetupTime = 0xFC;
 1404              		.loc 1 443 0
ARM GAS  /var/folders/g9/bbpj86ld7fx45vd1b3pqxmp00000gn/T//cch0rGuN.s 			page 34


 1405 000e C268     		ldr	r2, [r0, #12]
 1406 0010 5360     		str	r3, [r2, #4]
 444:STM32F10x_StdPeriph_Driver/src/stm32f10x_fsmc.c ****   FSMC_PCCARDInitStruct->FSMC_CommonSpaceTimingStruct->FSMC_HoldSetupTime = 0xFC;
 1407              		.loc 1 444 0
 1408 0012 C268     		ldr	r2, [r0, #12]
 1409 0014 9360     		str	r3, [r2, #8]
 445:STM32F10x_StdPeriph_Driver/src/stm32f10x_fsmc.c ****   FSMC_PCCARDInitStruct->FSMC_CommonSpaceTimingStruct->FSMC_HiZSetupTime = 0xFC;
 1410              		.loc 1 445 0
 1411 0016 C268     		ldr	r2, [r0, #12]
 1412 0018 D360     		str	r3, [r2, #12]
 446:STM32F10x_StdPeriph_Driver/src/stm32f10x_fsmc.c ****   FSMC_PCCARDInitStruct->FSMC_AttributeSpaceTimingStruct->FSMC_SetupTime = 0xFC;
 1413              		.loc 1 446 0
 1414 001a 0269     		ldr	r2, [r0, #16]
 1415 001c 1360     		str	r3, [r2]
 447:STM32F10x_StdPeriph_Driver/src/stm32f10x_fsmc.c ****   FSMC_PCCARDInitStruct->FSMC_AttributeSpaceTimingStruct->FSMC_WaitSetupTime = 0xFC;
 1416              		.loc 1 447 0
 1417 001e 0269     		ldr	r2, [r0, #16]
 1418 0020 5360     		str	r3, [r2, #4]
 448:STM32F10x_StdPeriph_Driver/src/stm32f10x_fsmc.c ****   FSMC_PCCARDInitStruct->FSMC_AttributeSpaceTimingStruct->FSMC_HoldSetupTime = 0xFC;
 1419              		.loc 1 448 0
 1420 0022 0269     		ldr	r2, [r0, #16]
 1421 0024 9360     		str	r3, [r2, #8]
 449:STM32F10x_StdPeriph_Driver/src/stm32f10x_fsmc.c ****   FSMC_PCCARDInitStruct->FSMC_AttributeSpaceTimingStruct->FSMC_HiZSetupTime = 0xFC;	
 1422              		.loc 1 449 0
 1423 0026 0269     		ldr	r2, [r0, #16]
 1424 0028 D360     		str	r3, [r2, #12]
 450:STM32F10x_StdPeriph_Driver/src/stm32f10x_fsmc.c ****   FSMC_PCCARDInitStruct->FSMC_IOSpaceTimingStruct->FSMC_SetupTime = 0xFC;
 1425              		.loc 1 450 0
 1426 002a 4269     		ldr	r2, [r0, #20]
 1427 002c 1360     		str	r3, [r2]
 451:STM32F10x_StdPeriph_Driver/src/stm32f10x_fsmc.c ****   FSMC_PCCARDInitStruct->FSMC_IOSpaceTimingStruct->FSMC_WaitSetupTime = 0xFC;
 1428              		.loc 1 451 0
 1429 002e 4269     		ldr	r2, [r0, #20]
 1430 0030 5360     		str	r3, [r2, #4]
 452:STM32F10x_StdPeriph_Driver/src/stm32f10x_fsmc.c ****   FSMC_PCCARDInitStruct->FSMC_IOSpaceTimingStruct->FSMC_HoldSetupTime = 0xFC;
 1431              		.loc 1 452 0
 1432 0032 4269     		ldr	r2, [r0, #20]
 1433 0034 9360     		str	r3, [r2, #8]
 453:STM32F10x_StdPeriph_Driver/src/stm32f10x_fsmc.c ****   FSMC_PCCARDInitStruct->FSMC_IOSpaceTimingStruct->FSMC_HiZSetupTime = 0xFC;
 1434              		.loc 1 453 0
 1435 0036 4269     		ldr	r2, [r0, #20]
 1436 0038 D360     		str	r3, [r2, #12]
 1437 003a 7047     		bx	lr
 1438              		.cfi_endproc
 1439              	.LFE35:
 1441              		.section	.text.FSMC_NORSRAMCmd,"ax",%progbits
 1442              		.align	2
 1443              		.global	FSMC_NORSRAMCmd
 1444              		.thumb
 1445              		.thumb_func
 1447              	FSMC_NORSRAMCmd:
 1448              	.LFB36:
 454:STM32F10x_StdPeriph_Driver/src/stm32f10x_fsmc.c **** }
 455:STM32F10x_StdPeriph_Driver/src/stm32f10x_fsmc.c **** 
 456:STM32F10x_StdPeriph_Driver/src/stm32f10x_fsmc.c **** /**
 457:STM32F10x_StdPeriph_Driver/src/stm32f10x_fsmc.c ****   * @brief  Enables or disables the specified NOR/SRAM Memory Bank.
 458:STM32F10x_StdPeriph_Driver/src/stm32f10x_fsmc.c ****   * @param  FSMC_Bank: specifies the FSMC Bank to be used
ARM GAS  /var/folders/g9/bbpj86ld7fx45vd1b3pqxmp00000gn/T//cch0rGuN.s 			page 35


 459:STM32F10x_StdPeriph_Driver/src/stm32f10x_fsmc.c ****   *   This parameter can be one of the following values:
 460:STM32F10x_StdPeriph_Driver/src/stm32f10x_fsmc.c ****   *     @arg FSMC_Bank1_NORSRAM1: FSMC Bank1 NOR/SRAM1  
 461:STM32F10x_StdPeriph_Driver/src/stm32f10x_fsmc.c ****   *     @arg FSMC_Bank1_NORSRAM2: FSMC Bank1 NOR/SRAM2 
 462:STM32F10x_StdPeriph_Driver/src/stm32f10x_fsmc.c ****   *     @arg FSMC_Bank1_NORSRAM3: FSMC Bank1 NOR/SRAM3 
 463:STM32F10x_StdPeriph_Driver/src/stm32f10x_fsmc.c ****   *     @arg FSMC_Bank1_NORSRAM4: FSMC Bank1 NOR/SRAM4 
 464:STM32F10x_StdPeriph_Driver/src/stm32f10x_fsmc.c ****   * @param  NewState: new state of the FSMC_Bank. This parameter can be: ENABLE or DISABLE.
 465:STM32F10x_StdPeriph_Driver/src/stm32f10x_fsmc.c ****   * @retval None
 466:STM32F10x_StdPeriph_Driver/src/stm32f10x_fsmc.c ****   */
 467:STM32F10x_StdPeriph_Driver/src/stm32f10x_fsmc.c **** void FSMC_NORSRAMCmd(uint32_t FSMC_Bank, FunctionalState NewState)
 468:STM32F10x_StdPeriph_Driver/src/stm32f10x_fsmc.c **** {
 1449              		.loc 1 468 0
 1450              		.cfi_startproc
 1451              		@ args = 0, pretend = 0, frame = 0
 1452              		@ frame_needed = 0, uses_anonymous_args = 0
 1453              	.LVL82:
 1454 0000 38B5     		push	{r3, r4, r5, lr}
 1455              	.LCFI7:
 1456              		.cfi_def_cfa_offset 16
 1457              		.cfi_offset 3, -16
 1458              		.cfi_offset 4, -12
 1459              		.cfi_offset 5, -8
 1460              		.cfi_offset 14, -4
 1461 0002 0D46     		mov	r5, r1
 469:STM32F10x_StdPeriph_Driver/src/stm32f10x_fsmc.c ****   assert_param(IS_FSMC_NORSRAM_BANK(FSMC_Bank));
 1462              		.loc 1 469 0
 1463 0004 0446     		mov	r4, r0
 1464 0006 50B1     		cbz	r0, .L95
 1465              		.loc 1 469 0 is_stmt 0 discriminator 1
 1466 0008 0228     		cmp	r0, #2
 1467 000a 08D0     		beq	.L95
 1468              		.loc 1 469 0 discriminator 2
 1469 000c 0428     		cmp	r0, #4
 1470 000e 06D0     		beq	.L95
 1471              		.loc 1 469 0 discriminator 3
 1472 0010 0628     		cmp	r0, #6
 1473 0012 04D0     		beq	.L95
 1474              		.loc 1 469 0 discriminator 4
 1475 0014 40F2D511 		movw	r1, #469
 1476              	.LVL83:
 1477 0018 0E48     		ldr	r0, .L100
 1478              	.LVL84:
 1479 001a FFF7FEFF 		bl	assert_failed
 1480              	.LVL85:
 1481              	.L95:
 470:STM32F10x_StdPeriph_Driver/src/stm32f10x_fsmc.c ****   assert_param(IS_FUNCTIONAL_STATE(NewState));
 1482              		.loc 1 470 0 is_stmt 1
 1483 001e 012D     		cmp	r5, #1
 1484 0020 04D9     		bls	.L96
 1485              		.loc 1 470 0 is_stmt 0 discriminator 1
 1486 0022 4FF4EB71 		mov	r1, #470
 1487 0026 0B48     		ldr	r0, .L100
 1488 0028 FFF7FEFF 		bl	assert_failed
 1489              	.LVL86:
 1490              	.L96:
 471:STM32F10x_StdPeriph_Driver/src/stm32f10x_fsmc.c ****   
 472:STM32F10x_StdPeriph_Driver/src/stm32f10x_fsmc.c ****   if (NewState != DISABLE)
 1491              		.loc 1 472 0 is_stmt 1
ARM GAS  /var/folders/g9/bbpj86ld7fx45vd1b3pqxmp00000gn/T//cch0rGuN.s 			page 36


 1492 002c 45B1     		cbz	r5, .L97
 473:STM32F10x_StdPeriph_Driver/src/stm32f10x_fsmc.c ****   {
 474:STM32F10x_StdPeriph_Driver/src/stm32f10x_fsmc.c ****     /* Enable the selected NOR/SRAM Bank by setting the PBKEN bit in the BCRx register */
 475:STM32F10x_StdPeriph_Driver/src/stm32f10x_fsmc.c ****     FSMC_Bank1->BTCR[FSMC_Bank] |= BCR_MBKEN_Set;
 1493              		.loc 1 475 0
 1494 002e 4FF02042 		mov	r2, #-1610612736
 1495 0032 52F82430 		ldr	r3, [r2, r4, lsl #2]
 1496 0036 43F00103 		orr	r3, r3, #1
 1497 003a 42F82430 		str	r3, [r2, r4, lsl #2]
 1498 003e 38BD     		pop	{r3, r4, r5, pc}
 1499              	.LVL87:
 1500              	.L97:
 476:STM32F10x_StdPeriph_Driver/src/stm32f10x_fsmc.c ****   }
 477:STM32F10x_StdPeriph_Driver/src/stm32f10x_fsmc.c ****   else
 478:STM32F10x_StdPeriph_Driver/src/stm32f10x_fsmc.c ****   {
 479:STM32F10x_StdPeriph_Driver/src/stm32f10x_fsmc.c ****     /* Disable the selected NOR/SRAM Bank by clearing the PBKEN bit in the BCRx register */
 480:STM32F10x_StdPeriph_Driver/src/stm32f10x_fsmc.c ****     FSMC_Bank1->BTCR[FSMC_Bank] &= BCR_MBKEN_Reset;
 1501              		.loc 1 480 0
 1502 0040 4FF02042 		mov	r2, #-1610612736
 1503 0044 52F82410 		ldr	r1, [r2, r4, lsl #2]
 1504 0048 034B     		ldr	r3, .L100+4
 1505 004a 0B40     		ands	r3, r3, r1
 1506 004c 42F82430 		str	r3, [r2, r4, lsl #2]
 1507 0050 38BD     		pop	{r3, r4, r5, pc}
 1508              	.LVL88:
 1509              	.L101:
 1510 0052 00BF     		.align	2
 1511              	.L100:
 1512 0054 00000000 		.word	.LC0
 1513 0058 FEFF0F00 		.word	1048574
 1514              		.cfi_endproc
 1515              	.LFE36:
 1517              		.section	.text.FSMC_NANDCmd,"ax",%progbits
 1518              		.align	2
 1519              		.global	FSMC_NANDCmd
 1520              		.thumb
 1521              		.thumb_func
 1523              	FSMC_NANDCmd:
 1524              	.LFB37:
 481:STM32F10x_StdPeriph_Driver/src/stm32f10x_fsmc.c ****   }
 482:STM32F10x_StdPeriph_Driver/src/stm32f10x_fsmc.c **** }
 483:STM32F10x_StdPeriph_Driver/src/stm32f10x_fsmc.c **** 
 484:STM32F10x_StdPeriph_Driver/src/stm32f10x_fsmc.c **** /**
 485:STM32F10x_StdPeriph_Driver/src/stm32f10x_fsmc.c ****   * @brief  Enables or disables the specified NAND Memory Bank.
 486:STM32F10x_StdPeriph_Driver/src/stm32f10x_fsmc.c ****   * @param  FSMC_Bank: specifies the FSMC Bank to be used
 487:STM32F10x_StdPeriph_Driver/src/stm32f10x_fsmc.c ****   *   This parameter can be one of the following values:
 488:STM32F10x_StdPeriph_Driver/src/stm32f10x_fsmc.c ****   *     @arg FSMC_Bank2_NAND: FSMC Bank2 NAND 
 489:STM32F10x_StdPeriph_Driver/src/stm32f10x_fsmc.c ****   *     @arg FSMC_Bank3_NAND: FSMC Bank3 NAND
 490:STM32F10x_StdPeriph_Driver/src/stm32f10x_fsmc.c ****   * @param  NewState: new state of the FSMC_Bank. This parameter can be: ENABLE or DISABLE.
 491:STM32F10x_StdPeriph_Driver/src/stm32f10x_fsmc.c ****   * @retval None
 492:STM32F10x_StdPeriph_Driver/src/stm32f10x_fsmc.c ****   */
 493:STM32F10x_StdPeriph_Driver/src/stm32f10x_fsmc.c **** void FSMC_NANDCmd(uint32_t FSMC_Bank, FunctionalState NewState)
 494:STM32F10x_StdPeriph_Driver/src/stm32f10x_fsmc.c **** {
 1525              		.loc 1 494 0
 1526              		.cfi_startproc
 1527              		@ args = 0, pretend = 0, frame = 0
 1528              		@ frame_needed = 0, uses_anonymous_args = 0
ARM GAS  /var/folders/g9/bbpj86ld7fx45vd1b3pqxmp00000gn/T//cch0rGuN.s 			page 37


 1529              	.LVL89:
 1530 0000 38B5     		push	{r3, r4, r5, lr}
 1531              	.LCFI8:
 1532              		.cfi_def_cfa_offset 16
 1533              		.cfi_offset 3, -16
 1534              		.cfi_offset 4, -12
 1535              		.cfi_offset 5, -8
 1536              		.cfi_offset 14, -4
 1537 0002 0446     		mov	r4, r0
 1538 0004 0D46     		mov	r5, r1
 495:STM32F10x_StdPeriph_Driver/src/stm32f10x_fsmc.c ****   assert_param(IS_FSMC_NAND_BANK(FSMC_Bank));
 1539              		.loc 1 495 0
 1540 0006 1028     		cmp	r0, #16
 1541 0008 07D0     		beq	.L103
 1542              		.loc 1 495 0 is_stmt 0 discriminator 1
 1543 000a B0F5807F 		cmp	r0, #256
 1544 000e 04D0     		beq	.L103
 1545              		.loc 1 495 0 discriminator 2
 1546 0010 40F2EF11 		movw	r1, #495
 1547              	.LVL90:
 1548 0014 1348     		ldr	r0, .L110
 1549              	.LVL91:
 1550 0016 FFF7FEFF 		bl	assert_failed
 1551              	.LVL92:
 1552              	.L103:
 496:STM32F10x_StdPeriph_Driver/src/stm32f10x_fsmc.c ****   assert_param(IS_FUNCTIONAL_STATE(NewState));
 1553              		.loc 1 496 0 is_stmt 1
 1554 001a 012D     		cmp	r5, #1
 1555 001c 04D9     		bls	.L104
 1556              		.loc 1 496 0 is_stmt 0 discriminator 1
 1557 001e 4FF4F871 		mov	r1, #496
 1558 0022 1048     		ldr	r0, .L110
 1559 0024 FFF7FEFF 		bl	assert_failed
 1560              	.LVL93:
 1561              	.L104:
 497:STM32F10x_StdPeriph_Driver/src/stm32f10x_fsmc.c ****   
 498:STM32F10x_StdPeriph_Driver/src/stm32f10x_fsmc.c ****   if (NewState != DISABLE)
 1562              		.loc 1 498 0 is_stmt 1
 1563 0028 6DB1     		cbz	r5, .L105
 499:STM32F10x_StdPeriph_Driver/src/stm32f10x_fsmc.c ****   {
 500:STM32F10x_StdPeriph_Driver/src/stm32f10x_fsmc.c ****     /* Enable the selected NAND Bank by setting the PBKEN bit in the PCRx register */
 501:STM32F10x_StdPeriph_Driver/src/stm32f10x_fsmc.c ****     if(FSMC_Bank == FSMC_Bank2_NAND)
 1564              		.loc 1 501 0
 1565 002a 102C     		cmp	r4, #16
 1566 002c 05D1     		bne	.L106
 502:STM32F10x_StdPeriph_Driver/src/stm32f10x_fsmc.c ****     {
 503:STM32F10x_StdPeriph_Driver/src/stm32f10x_fsmc.c ****       FSMC_Bank2->PCR2 |= PCR_PBKEN_Set;
 1567              		.loc 1 503 0
 1568 002e 0E4A     		ldr	r2, .L110+4
 1569 0030 1368     		ldr	r3, [r2]
 1570 0032 43F00403 		orr	r3, r3, #4
 1571 0036 1360     		str	r3, [r2]
 1572 0038 38BD     		pop	{r3, r4, r5, pc}
 1573              	.LVL94:
 1574              	.L106:
 504:STM32F10x_StdPeriph_Driver/src/stm32f10x_fsmc.c ****     }
 505:STM32F10x_StdPeriph_Driver/src/stm32f10x_fsmc.c ****     else
ARM GAS  /var/folders/g9/bbpj86ld7fx45vd1b3pqxmp00000gn/T//cch0rGuN.s 			page 38


 506:STM32F10x_StdPeriph_Driver/src/stm32f10x_fsmc.c ****     {
 507:STM32F10x_StdPeriph_Driver/src/stm32f10x_fsmc.c ****       FSMC_Bank3->PCR3 |= PCR_PBKEN_Set;
 1575              		.loc 1 507 0
 1576 003a 0C4A     		ldr	r2, .L110+8
 1577 003c 1368     		ldr	r3, [r2]
 1578 003e 43F00403 		orr	r3, r3, #4
 1579 0042 1360     		str	r3, [r2]
 1580 0044 38BD     		pop	{r3, r4, r5, pc}
 1581              	.LVL95:
 1582              	.L105:
 508:STM32F10x_StdPeriph_Driver/src/stm32f10x_fsmc.c ****     }
 509:STM32F10x_StdPeriph_Driver/src/stm32f10x_fsmc.c ****   }
 510:STM32F10x_StdPeriph_Driver/src/stm32f10x_fsmc.c ****   else
 511:STM32F10x_StdPeriph_Driver/src/stm32f10x_fsmc.c ****   {
 512:STM32F10x_StdPeriph_Driver/src/stm32f10x_fsmc.c ****     /* Disable the selected NAND Bank by clearing the PBKEN bit in the PCRx register */
 513:STM32F10x_StdPeriph_Driver/src/stm32f10x_fsmc.c ****     if(FSMC_Bank == FSMC_Bank2_NAND)
 1583              		.loc 1 513 0
 1584 0046 102C     		cmp	r4, #16
 1585 0048 05D1     		bne	.L108
 514:STM32F10x_StdPeriph_Driver/src/stm32f10x_fsmc.c ****     {
 515:STM32F10x_StdPeriph_Driver/src/stm32f10x_fsmc.c ****       FSMC_Bank2->PCR2 &= PCR_PBKEN_Reset;
 1586              		.loc 1 515 0
 1587 004a 074A     		ldr	r2, .L110+4
 1588 004c 1168     		ldr	r1, [r2]
 1589 004e 084B     		ldr	r3, .L110+12
 1590 0050 0B40     		ands	r3, r3, r1
 1591 0052 1360     		str	r3, [r2]
 1592 0054 38BD     		pop	{r3, r4, r5, pc}
 1593              	.LVL96:
 1594              	.L108:
 516:STM32F10x_StdPeriph_Driver/src/stm32f10x_fsmc.c ****     }
 517:STM32F10x_StdPeriph_Driver/src/stm32f10x_fsmc.c ****     else
 518:STM32F10x_StdPeriph_Driver/src/stm32f10x_fsmc.c ****     {
 519:STM32F10x_StdPeriph_Driver/src/stm32f10x_fsmc.c ****       FSMC_Bank3->PCR3 &= PCR_PBKEN_Reset;
 1595              		.loc 1 519 0
 1596 0056 054A     		ldr	r2, .L110+8
 1597 0058 1168     		ldr	r1, [r2]
 1598 005a 054B     		ldr	r3, .L110+12
 1599 005c 0B40     		ands	r3, r3, r1
 1600 005e 1360     		str	r3, [r2]
 1601 0060 38BD     		pop	{r3, r4, r5, pc}
 1602              	.LVL97:
 1603              	.L111:
 1604 0062 00BF     		.align	2
 1605              	.L110:
 1606 0064 00000000 		.word	.LC0
 1607 0068 600000A0 		.word	-1610612640
 1608 006c 800000A0 		.word	-1610612608
 1609 0070 FBFF0F00 		.word	1048571
 1610              		.cfi_endproc
 1611              	.LFE37:
 1613              		.section	.text.FSMC_PCCARDCmd,"ax",%progbits
 1614              		.align	2
 1615              		.global	FSMC_PCCARDCmd
 1616              		.thumb
 1617              		.thumb_func
 1619              	FSMC_PCCARDCmd:
ARM GAS  /var/folders/g9/bbpj86ld7fx45vd1b3pqxmp00000gn/T//cch0rGuN.s 			page 39


 1620              	.LFB38:
 520:STM32F10x_StdPeriph_Driver/src/stm32f10x_fsmc.c ****     }
 521:STM32F10x_StdPeriph_Driver/src/stm32f10x_fsmc.c ****   }
 522:STM32F10x_StdPeriph_Driver/src/stm32f10x_fsmc.c **** }
 523:STM32F10x_StdPeriph_Driver/src/stm32f10x_fsmc.c **** 
 524:STM32F10x_StdPeriph_Driver/src/stm32f10x_fsmc.c **** /**
 525:STM32F10x_StdPeriph_Driver/src/stm32f10x_fsmc.c ****   * @brief  Enables or disables the PCCARD Memory Bank.
 526:STM32F10x_StdPeriph_Driver/src/stm32f10x_fsmc.c ****   * @param  NewState: new state of the PCCARD Memory Bank.  
 527:STM32F10x_StdPeriph_Driver/src/stm32f10x_fsmc.c ****   *   This parameter can be: ENABLE or DISABLE.
 528:STM32F10x_StdPeriph_Driver/src/stm32f10x_fsmc.c ****   * @retval None
 529:STM32F10x_StdPeriph_Driver/src/stm32f10x_fsmc.c ****   */
 530:STM32F10x_StdPeriph_Driver/src/stm32f10x_fsmc.c **** void FSMC_PCCARDCmd(FunctionalState NewState)
 531:STM32F10x_StdPeriph_Driver/src/stm32f10x_fsmc.c **** {
 1621              		.loc 1 531 0
 1622              		.cfi_startproc
 1623              		@ args = 0, pretend = 0, frame = 0
 1624              		@ frame_needed = 0, uses_anonymous_args = 0
 1625              	.LVL98:
 1626 0000 10B5     		push	{r4, lr}
 1627              	.LCFI9:
 1628              		.cfi_def_cfa_offset 8
 1629              		.cfi_offset 4, -8
 1630              		.cfi_offset 14, -4
 1631 0002 0446     		mov	r4, r0
 532:STM32F10x_StdPeriph_Driver/src/stm32f10x_fsmc.c ****   assert_param(IS_FUNCTIONAL_STATE(NewState));
 1632              		.loc 1 532 0
 1633 0004 0128     		cmp	r0, #1
 1634 0006 04D9     		bls	.L113
 1635              		.loc 1 532 0 is_stmt 0 discriminator 1
 1636 0008 4FF40571 		mov	r1, #532
 1637 000c 0748     		ldr	r0, .L117
 1638              	.LVL99:
 1639 000e FFF7FEFF 		bl	assert_failed
 1640              	.LVL100:
 1641              	.L113:
 533:STM32F10x_StdPeriph_Driver/src/stm32f10x_fsmc.c ****   
 534:STM32F10x_StdPeriph_Driver/src/stm32f10x_fsmc.c ****   if (NewState != DISABLE)
 1642              		.loc 1 534 0 is_stmt 1
 1643 0012 2CB1     		cbz	r4, .L114
 535:STM32F10x_StdPeriph_Driver/src/stm32f10x_fsmc.c ****   {
 536:STM32F10x_StdPeriph_Driver/src/stm32f10x_fsmc.c ****     /* Enable the PCCARD Bank by setting the PBKEN bit in the PCR4 register */
 537:STM32F10x_StdPeriph_Driver/src/stm32f10x_fsmc.c ****     FSMC_Bank4->PCR4 |= PCR_PBKEN_Set;
 1644              		.loc 1 537 0
 1645 0014 064A     		ldr	r2, .L117+4
 1646 0016 1368     		ldr	r3, [r2]
 1647 0018 43F00403 		orr	r3, r3, #4
 1648 001c 1360     		str	r3, [r2]
 1649 001e 10BD     		pop	{r4, pc}
 1650              	.L114:
 538:STM32F10x_StdPeriph_Driver/src/stm32f10x_fsmc.c ****   }
 539:STM32F10x_StdPeriph_Driver/src/stm32f10x_fsmc.c ****   else
 540:STM32F10x_StdPeriph_Driver/src/stm32f10x_fsmc.c ****   {
 541:STM32F10x_StdPeriph_Driver/src/stm32f10x_fsmc.c ****     /* Disable the PCCARD Bank by clearing the PBKEN bit in the PCR4 register */
 542:STM32F10x_StdPeriph_Driver/src/stm32f10x_fsmc.c ****     FSMC_Bank4->PCR4 &= PCR_PBKEN_Reset;
 1651              		.loc 1 542 0
 1652 0020 034A     		ldr	r2, .L117+4
 1653 0022 1168     		ldr	r1, [r2]
ARM GAS  /var/folders/g9/bbpj86ld7fx45vd1b3pqxmp00000gn/T//cch0rGuN.s 			page 40


 1654 0024 034B     		ldr	r3, .L117+8
 1655 0026 0B40     		ands	r3, r3, r1
 1656 0028 1360     		str	r3, [r2]
 1657 002a 10BD     		pop	{r4, pc}
 1658              	.L118:
 1659              		.align	2
 1660              	.L117:
 1661 002c 00000000 		.word	.LC0
 1662 0030 A00000A0 		.word	-1610612576
 1663 0034 FBFF0F00 		.word	1048571
 1664              		.cfi_endproc
 1665              	.LFE38:
 1667              		.section	.text.FSMC_NANDECCCmd,"ax",%progbits
 1668              		.align	2
 1669              		.global	FSMC_NANDECCCmd
 1670              		.thumb
 1671              		.thumb_func
 1673              	FSMC_NANDECCCmd:
 1674              	.LFB39:
 543:STM32F10x_StdPeriph_Driver/src/stm32f10x_fsmc.c ****   }
 544:STM32F10x_StdPeriph_Driver/src/stm32f10x_fsmc.c **** }
 545:STM32F10x_StdPeriph_Driver/src/stm32f10x_fsmc.c **** 
 546:STM32F10x_StdPeriph_Driver/src/stm32f10x_fsmc.c **** /**
 547:STM32F10x_StdPeriph_Driver/src/stm32f10x_fsmc.c ****   * @brief  Enables or disables the FSMC NAND ECC feature.
 548:STM32F10x_StdPeriph_Driver/src/stm32f10x_fsmc.c ****   * @param  FSMC_Bank: specifies the FSMC Bank to be used
 549:STM32F10x_StdPeriph_Driver/src/stm32f10x_fsmc.c ****   *   This parameter can be one of the following values:
 550:STM32F10x_StdPeriph_Driver/src/stm32f10x_fsmc.c ****   *     @arg FSMC_Bank2_NAND: FSMC Bank2 NAND 
 551:STM32F10x_StdPeriph_Driver/src/stm32f10x_fsmc.c ****   *     @arg FSMC_Bank3_NAND: FSMC Bank3 NAND
 552:STM32F10x_StdPeriph_Driver/src/stm32f10x_fsmc.c ****   * @param  NewState: new state of the FSMC NAND ECC feature.  
 553:STM32F10x_StdPeriph_Driver/src/stm32f10x_fsmc.c ****   *   This parameter can be: ENABLE or DISABLE.
 554:STM32F10x_StdPeriph_Driver/src/stm32f10x_fsmc.c ****   * @retval None
 555:STM32F10x_StdPeriph_Driver/src/stm32f10x_fsmc.c ****   */
 556:STM32F10x_StdPeriph_Driver/src/stm32f10x_fsmc.c **** void FSMC_NANDECCCmd(uint32_t FSMC_Bank, FunctionalState NewState)
 557:STM32F10x_StdPeriph_Driver/src/stm32f10x_fsmc.c **** {
 1675              		.loc 1 557 0
 1676              		.cfi_startproc
 1677              		@ args = 0, pretend = 0, frame = 0
 1678              		@ frame_needed = 0, uses_anonymous_args = 0
 1679              	.LVL101:
 1680 0000 38B5     		push	{r3, r4, r5, lr}
 1681              	.LCFI10:
 1682              		.cfi_def_cfa_offset 16
 1683              		.cfi_offset 3, -16
 1684              		.cfi_offset 4, -12
 1685              		.cfi_offset 5, -8
 1686              		.cfi_offset 14, -4
 1687 0002 0446     		mov	r4, r0
 1688 0004 0D46     		mov	r5, r1
 558:STM32F10x_StdPeriph_Driver/src/stm32f10x_fsmc.c ****   assert_param(IS_FSMC_NAND_BANK(FSMC_Bank));
 1689              		.loc 1 558 0
 1690 0006 1028     		cmp	r0, #16
 1691 0008 07D0     		beq	.L120
 1692              		.loc 1 558 0 is_stmt 0 discriminator 1
 1693 000a B0F5807F 		cmp	r0, #256
 1694 000e 04D0     		beq	.L120
 1695              		.loc 1 558 0 discriminator 2
 1696 0010 40F22E21 		movw	r1, #558
ARM GAS  /var/folders/g9/bbpj86ld7fx45vd1b3pqxmp00000gn/T//cch0rGuN.s 			page 41


 1697              	.LVL102:
 1698 0014 1348     		ldr	r0, .L127
 1699              	.LVL103:
 1700 0016 FFF7FEFF 		bl	assert_failed
 1701              	.LVL104:
 1702              	.L120:
 559:STM32F10x_StdPeriph_Driver/src/stm32f10x_fsmc.c ****   assert_param(IS_FUNCTIONAL_STATE(NewState));
 1703              		.loc 1 559 0 is_stmt 1
 1704 001a 012D     		cmp	r5, #1
 1705 001c 04D9     		bls	.L121
 1706              		.loc 1 559 0 is_stmt 0 discriminator 1
 1707 001e 40F22F21 		movw	r1, #559
 1708 0022 1048     		ldr	r0, .L127
 1709 0024 FFF7FEFF 		bl	assert_failed
 1710              	.LVL105:
 1711              	.L121:
 560:STM32F10x_StdPeriph_Driver/src/stm32f10x_fsmc.c ****   
 561:STM32F10x_StdPeriph_Driver/src/stm32f10x_fsmc.c ****   if (NewState != DISABLE)
 1712              		.loc 1 561 0 is_stmt 1
 1713 0028 6DB1     		cbz	r5, .L122
 562:STM32F10x_StdPeriph_Driver/src/stm32f10x_fsmc.c ****   {
 563:STM32F10x_StdPeriph_Driver/src/stm32f10x_fsmc.c ****     /* Enable the selected NAND Bank ECC function by setting the ECCEN bit in the PCRx register */
 564:STM32F10x_StdPeriph_Driver/src/stm32f10x_fsmc.c ****     if(FSMC_Bank == FSMC_Bank2_NAND)
 1714              		.loc 1 564 0
 1715 002a 102C     		cmp	r4, #16
 1716 002c 05D1     		bne	.L123
 565:STM32F10x_StdPeriph_Driver/src/stm32f10x_fsmc.c ****     {
 566:STM32F10x_StdPeriph_Driver/src/stm32f10x_fsmc.c ****       FSMC_Bank2->PCR2 |= PCR_ECCEN_Set;
 1717              		.loc 1 566 0
 1718 002e 0E4A     		ldr	r2, .L127+4
 1719 0030 1368     		ldr	r3, [r2]
 1720 0032 43F04003 		orr	r3, r3, #64
 1721 0036 1360     		str	r3, [r2]
 1722 0038 38BD     		pop	{r3, r4, r5, pc}
 1723              	.LVL106:
 1724              	.L123:
 567:STM32F10x_StdPeriph_Driver/src/stm32f10x_fsmc.c ****     }
 568:STM32F10x_StdPeriph_Driver/src/stm32f10x_fsmc.c ****     else
 569:STM32F10x_StdPeriph_Driver/src/stm32f10x_fsmc.c ****     {
 570:STM32F10x_StdPeriph_Driver/src/stm32f10x_fsmc.c ****       FSMC_Bank3->PCR3 |= PCR_ECCEN_Set;
 1725              		.loc 1 570 0
 1726 003a 0C4A     		ldr	r2, .L127+8
 1727 003c 1368     		ldr	r3, [r2]
 1728 003e 43F04003 		orr	r3, r3, #64
 1729 0042 1360     		str	r3, [r2]
 1730 0044 38BD     		pop	{r3, r4, r5, pc}
 1731              	.LVL107:
 1732              	.L122:
 571:STM32F10x_StdPeriph_Driver/src/stm32f10x_fsmc.c ****     }
 572:STM32F10x_StdPeriph_Driver/src/stm32f10x_fsmc.c ****   }
 573:STM32F10x_StdPeriph_Driver/src/stm32f10x_fsmc.c ****   else
 574:STM32F10x_StdPeriph_Driver/src/stm32f10x_fsmc.c ****   {
 575:STM32F10x_StdPeriph_Driver/src/stm32f10x_fsmc.c ****     /* Disable the selected NAND Bank ECC function by clearing the ECCEN bit in the PCRx register *
 576:STM32F10x_StdPeriph_Driver/src/stm32f10x_fsmc.c ****     if(FSMC_Bank == FSMC_Bank2_NAND)
 1733              		.loc 1 576 0
 1734 0046 102C     		cmp	r4, #16
 1735 0048 05D1     		bne	.L125
ARM GAS  /var/folders/g9/bbpj86ld7fx45vd1b3pqxmp00000gn/T//cch0rGuN.s 			page 42


 577:STM32F10x_StdPeriph_Driver/src/stm32f10x_fsmc.c ****     {
 578:STM32F10x_StdPeriph_Driver/src/stm32f10x_fsmc.c ****       FSMC_Bank2->PCR2 &= PCR_ECCEN_Reset;
 1736              		.loc 1 578 0
 1737 004a 074A     		ldr	r2, .L127+4
 1738 004c 1168     		ldr	r1, [r2]
 1739 004e 084B     		ldr	r3, .L127+12
 1740 0050 0B40     		ands	r3, r3, r1
 1741 0052 1360     		str	r3, [r2]
 1742 0054 38BD     		pop	{r3, r4, r5, pc}
 1743              	.LVL108:
 1744              	.L125:
 579:STM32F10x_StdPeriph_Driver/src/stm32f10x_fsmc.c ****     }
 580:STM32F10x_StdPeriph_Driver/src/stm32f10x_fsmc.c ****     else
 581:STM32F10x_StdPeriph_Driver/src/stm32f10x_fsmc.c ****     {
 582:STM32F10x_StdPeriph_Driver/src/stm32f10x_fsmc.c ****       FSMC_Bank3->PCR3 &= PCR_ECCEN_Reset;
 1745              		.loc 1 582 0
 1746 0056 054A     		ldr	r2, .L127+8
 1747 0058 1168     		ldr	r1, [r2]
 1748 005a 054B     		ldr	r3, .L127+12
 1749 005c 0B40     		ands	r3, r3, r1
 1750 005e 1360     		str	r3, [r2]
 1751 0060 38BD     		pop	{r3, r4, r5, pc}
 1752              	.LVL109:
 1753              	.L128:
 1754 0062 00BF     		.align	2
 1755              	.L127:
 1756 0064 00000000 		.word	.LC0
 1757 0068 600000A0 		.word	-1610612640
 1758 006c 800000A0 		.word	-1610612608
 1759 0070 BFFF0F00 		.word	1048511
 1760              		.cfi_endproc
 1761              	.LFE39:
 1763              		.section	.text.FSMC_GetECC,"ax",%progbits
 1764              		.align	2
 1765              		.global	FSMC_GetECC
 1766              		.thumb
 1767              		.thumb_func
 1769              	FSMC_GetECC:
 1770              	.LFB40:
 583:STM32F10x_StdPeriph_Driver/src/stm32f10x_fsmc.c ****     }
 584:STM32F10x_StdPeriph_Driver/src/stm32f10x_fsmc.c ****   }
 585:STM32F10x_StdPeriph_Driver/src/stm32f10x_fsmc.c **** }
 586:STM32F10x_StdPeriph_Driver/src/stm32f10x_fsmc.c **** 
 587:STM32F10x_StdPeriph_Driver/src/stm32f10x_fsmc.c **** /**
 588:STM32F10x_StdPeriph_Driver/src/stm32f10x_fsmc.c ****   * @brief  Returns the error correction code register value.
 589:STM32F10x_StdPeriph_Driver/src/stm32f10x_fsmc.c ****   * @param  FSMC_Bank: specifies the FSMC Bank to be used
 590:STM32F10x_StdPeriph_Driver/src/stm32f10x_fsmc.c ****   *   This parameter can be one of the following values:
 591:STM32F10x_StdPeriph_Driver/src/stm32f10x_fsmc.c ****   *     @arg FSMC_Bank2_NAND: FSMC Bank2 NAND 
 592:STM32F10x_StdPeriph_Driver/src/stm32f10x_fsmc.c ****   *     @arg FSMC_Bank3_NAND: FSMC Bank3 NAND
 593:STM32F10x_StdPeriph_Driver/src/stm32f10x_fsmc.c ****   * @retval The Error Correction Code (ECC) value.
 594:STM32F10x_StdPeriph_Driver/src/stm32f10x_fsmc.c ****   */
 595:STM32F10x_StdPeriph_Driver/src/stm32f10x_fsmc.c **** uint32_t FSMC_GetECC(uint32_t FSMC_Bank)
 596:STM32F10x_StdPeriph_Driver/src/stm32f10x_fsmc.c **** {
 1771              		.loc 1 596 0
 1772              		.cfi_startproc
 1773              		@ args = 0, pretend = 0, frame = 0
 1774              		@ frame_needed = 0, uses_anonymous_args = 0
ARM GAS  /var/folders/g9/bbpj86ld7fx45vd1b3pqxmp00000gn/T//cch0rGuN.s 			page 43


 1775              		@ link register save eliminated.
 1776              	.LVL110:
 597:STM32F10x_StdPeriph_Driver/src/stm32f10x_fsmc.c ****   uint32_t eccval = 0x00000000;
 598:STM32F10x_StdPeriph_Driver/src/stm32f10x_fsmc.c ****   
 599:STM32F10x_StdPeriph_Driver/src/stm32f10x_fsmc.c ****   if(FSMC_Bank == FSMC_Bank2_NAND)
 1777              		.loc 1 599 0
 1778 0000 1028     		cmp	r0, #16
 1779 0002 02D1     		bne	.L130
 600:STM32F10x_StdPeriph_Driver/src/stm32f10x_fsmc.c ****   {
 601:STM32F10x_StdPeriph_Driver/src/stm32f10x_fsmc.c ****     /* Get the ECCR2 register value */
 602:STM32F10x_StdPeriph_Driver/src/stm32f10x_fsmc.c ****     eccval = FSMC_Bank2->ECCR2;
 1780              		.loc 1 602 0
 1781 0004 024B     		ldr	r3, .L132
 1782 0006 5869     		ldr	r0, [r3, #20]
 1783              	.LVL111:
 1784 0008 7047     		bx	lr
 1785              	.LVL112:
 1786              	.L130:
 603:STM32F10x_StdPeriph_Driver/src/stm32f10x_fsmc.c ****   }
 604:STM32F10x_StdPeriph_Driver/src/stm32f10x_fsmc.c ****   else
 605:STM32F10x_StdPeriph_Driver/src/stm32f10x_fsmc.c ****   {
 606:STM32F10x_StdPeriph_Driver/src/stm32f10x_fsmc.c ****     /* Get the ECCR3 register value */
 607:STM32F10x_StdPeriph_Driver/src/stm32f10x_fsmc.c ****     eccval = FSMC_Bank3->ECCR3;
 1787              		.loc 1 607 0
 1788 000a 024B     		ldr	r3, .L132+4
 1789 000c 5869     		ldr	r0, [r3, #20]
 1790              	.LVL113:
 608:STM32F10x_StdPeriph_Driver/src/stm32f10x_fsmc.c ****   }
 609:STM32F10x_StdPeriph_Driver/src/stm32f10x_fsmc.c ****   /* Return the error correction code value */
 610:STM32F10x_StdPeriph_Driver/src/stm32f10x_fsmc.c ****   return(eccval);
 611:STM32F10x_StdPeriph_Driver/src/stm32f10x_fsmc.c **** }
 1791              		.loc 1 611 0
 1792 000e 7047     		bx	lr
 1793              	.L133:
 1794              		.align	2
 1795              	.L132:
 1796 0010 600000A0 		.word	-1610612640
 1797 0014 800000A0 		.word	-1610612608
 1798              		.cfi_endproc
 1799              	.LFE40:
 1801              		.section	.text.FSMC_ITConfig,"ax",%progbits
 1802              		.align	2
 1803              		.global	FSMC_ITConfig
 1804              		.thumb
 1805              		.thumb_func
 1807              	FSMC_ITConfig:
 1808              	.LFB41:
 612:STM32F10x_StdPeriph_Driver/src/stm32f10x_fsmc.c **** 
 613:STM32F10x_StdPeriph_Driver/src/stm32f10x_fsmc.c **** /**
 614:STM32F10x_StdPeriph_Driver/src/stm32f10x_fsmc.c ****   * @brief  Enables or disables the specified FSMC interrupts.
 615:STM32F10x_StdPeriph_Driver/src/stm32f10x_fsmc.c ****   * @param  FSMC_Bank: specifies the FSMC Bank to be used
 616:STM32F10x_StdPeriph_Driver/src/stm32f10x_fsmc.c ****   *   This parameter can be one of the following values:
 617:STM32F10x_StdPeriph_Driver/src/stm32f10x_fsmc.c ****   *     @arg FSMC_Bank2_NAND: FSMC Bank2 NAND 
 618:STM32F10x_StdPeriph_Driver/src/stm32f10x_fsmc.c ****   *     @arg FSMC_Bank3_NAND: FSMC Bank3 NAND
 619:STM32F10x_StdPeriph_Driver/src/stm32f10x_fsmc.c ****   *     @arg FSMC_Bank4_PCCARD: FSMC Bank4 PCCARD
 620:STM32F10x_StdPeriph_Driver/src/stm32f10x_fsmc.c ****   * @param  FSMC_IT: specifies the FSMC interrupt sources to be enabled or disabled.
 621:STM32F10x_StdPeriph_Driver/src/stm32f10x_fsmc.c ****   *   This parameter can be any combination of the following values:
ARM GAS  /var/folders/g9/bbpj86ld7fx45vd1b3pqxmp00000gn/T//cch0rGuN.s 			page 44


 622:STM32F10x_StdPeriph_Driver/src/stm32f10x_fsmc.c ****   *     @arg FSMC_IT_RisingEdge: Rising edge detection interrupt. 
 623:STM32F10x_StdPeriph_Driver/src/stm32f10x_fsmc.c ****   *     @arg FSMC_IT_Level: Level edge detection interrupt.
 624:STM32F10x_StdPeriph_Driver/src/stm32f10x_fsmc.c ****   *     @arg FSMC_IT_FallingEdge: Falling edge detection interrupt.
 625:STM32F10x_StdPeriph_Driver/src/stm32f10x_fsmc.c ****   * @param  NewState: new state of the specified FSMC interrupts.
 626:STM32F10x_StdPeriph_Driver/src/stm32f10x_fsmc.c ****   *   This parameter can be: ENABLE or DISABLE.
 627:STM32F10x_StdPeriph_Driver/src/stm32f10x_fsmc.c ****   * @retval None
 628:STM32F10x_StdPeriph_Driver/src/stm32f10x_fsmc.c ****   */
 629:STM32F10x_StdPeriph_Driver/src/stm32f10x_fsmc.c **** void FSMC_ITConfig(uint32_t FSMC_Bank, uint32_t FSMC_IT, FunctionalState NewState)
 630:STM32F10x_StdPeriph_Driver/src/stm32f10x_fsmc.c **** {
 1809              		.loc 1 630 0
 1810              		.cfi_startproc
 1811              		@ args = 0, pretend = 0, frame = 0
 1812              		@ frame_needed = 0, uses_anonymous_args = 0
 1813              	.LVL114:
 1814 0000 70B5     		push	{r4, r5, r6, lr}
 1815              	.LCFI11:
 1816              		.cfi_def_cfa_offset 16
 1817              		.cfi_offset 4, -16
 1818              		.cfi_offset 5, -12
 1819              		.cfi_offset 6, -8
 1820              		.cfi_offset 14, -4
 1821 0002 0446     		mov	r4, r0
 1822 0004 0D46     		mov	r5, r1
 1823 0006 1646     		mov	r6, r2
 631:STM32F10x_StdPeriph_Driver/src/stm32f10x_fsmc.c ****   assert_param(IS_FSMC_IT_BANK(FSMC_Bank));
 1824              		.loc 1 631 0
 1825 0008 1028     		cmp	r0, #16
 1826 000a 0AD0     		beq	.L135
 1827              		.loc 1 631 0 is_stmt 0 discriminator 1
 1828 000c B0F5807F 		cmp	r0, #256
 1829 0010 07D0     		beq	.L135
 1830              		.loc 1 631 0 discriminator 2
 1831 0012 B0F5805F 		cmp	r0, #4096
 1832 0016 04D0     		beq	.L135
 1833              		.loc 1 631 0 discriminator 3
 1834 0018 40F27721 		movw	r1, #631
 1835              	.LVL115:
 1836 001c 1F48     		ldr	r0, .L146
 1837              	.LVL116:
 1838 001e FFF7FEFF 		bl	assert_failed
 1839              	.LVL117:
 1840              	.L135:
 632:STM32F10x_StdPeriph_Driver/src/stm32f10x_fsmc.c ****   assert_param(IS_FSMC_IT(FSMC_IT));	
 1841              		.loc 1 632 0 is_stmt 1
 1842 0022 35F03803 		bics	r3, r5, #56
 1843 0026 00D1     		bne	.L136
 1844              		.loc 1 632 0 is_stmt 0 discriminator 2
 1845 0028 25B9     		cbnz	r5, .L137
 1846              	.L136:
 1847              		.loc 1 632 0 discriminator 3
 1848 002a 4FF41E71 		mov	r1, #632
 1849 002e 1B48     		ldr	r0, .L146
 1850 0030 FFF7FEFF 		bl	assert_failed
 1851              	.LVL118:
 1852              	.L137:
 633:STM32F10x_StdPeriph_Driver/src/stm32f10x_fsmc.c ****   assert_param(IS_FUNCTIONAL_STATE(NewState));
 1853              		.loc 1 633 0 is_stmt 1
ARM GAS  /var/folders/g9/bbpj86ld7fx45vd1b3pqxmp00000gn/T//cch0rGuN.s 			page 45


 1854 0034 012E     		cmp	r6, #1
 1855 0036 04D9     		bls	.L138
 1856              		.loc 1 633 0 is_stmt 0 discriminator 1
 1857 0038 40F27921 		movw	r1, #633
 1858 003c 1748     		ldr	r0, .L146
 1859 003e FFF7FEFF 		bl	assert_failed
 1860              	.LVL119:
 1861              	.L138:
 634:STM32F10x_StdPeriph_Driver/src/stm32f10x_fsmc.c ****   
 635:STM32F10x_StdPeriph_Driver/src/stm32f10x_fsmc.c ****   if (NewState != DISABLE)
 1862              		.loc 1 635 0 is_stmt 1
 1863 0042 9EB1     		cbz	r6, .L139
 636:STM32F10x_StdPeriph_Driver/src/stm32f10x_fsmc.c ****   {
 637:STM32F10x_StdPeriph_Driver/src/stm32f10x_fsmc.c ****     /* Enable the selected FSMC_Bank2 interrupts */
 638:STM32F10x_StdPeriph_Driver/src/stm32f10x_fsmc.c ****     if(FSMC_Bank == FSMC_Bank2_NAND)
 1864              		.loc 1 638 0
 1865 0044 102C     		cmp	r4, #16
 1866 0046 04D1     		bne	.L140
 639:STM32F10x_StdPeriph_Driver/src/stm32f10x_fsmc.c ****     {
 640:STM32F10x_StdPeriph_Driver/src/stm32f10x_fsmc.c ****       FSMC_Bank2->SR2 |= FSMC_IT;
 1867              		.loc 1 640 0
 1868 0048 154A     		ldr	r2, .L146+4
 1869 004a 5368     		ldr	r3, [r2, #4]
 1870 004c 1D43     		orrs	r5, r5, r3
 1871              	.LVL120:
 1872 004e 5560     		str	r5, [r2, #4]
 1873 0050 70BD     		pop	{r4, r5, r6, pc}
 1874              	.LVL121:
 1875              	.L140:
 641:STM32F10x_StdPeriph_Driver/src/stm32f10x_fsmc.c ****     }
 642:STM32F10x_StdPeriph_Driver/src/stm32f10x_fsmc.c ****     /* Enable the selected FSMC_Bank3 interrupts */
 643:STM32F10x_StdPeriph_Driver/src/stm32f10x_fsmc.c ****     else if (FSMC_Bank == FSMC_Bank3_NAND)
 1876              		.loc 1 643 0
 1877 0052 B4F5807F 		cmp	r4, #256
 1878 0056 04D1     		bne	.L142
 644:STM32F10x_StdPeriph_Driver/src/stm32f10x_fsmc.c ****     {
 645:STM32F10x_StdPeriph_Driver/src/stm32f10x_fsmc.c ****       FSMC_Bank3->SR3 |= FSMC_IT;
 1879              		.loc 1 645 0
 1880 0058 124A     		ldr	r2, .L146+8
 1881 005a 5368     		ldr	r3, [r2, #4]
 1882 005c 1D43     		orrs	r5, r5, r3
 1883              	.LVL122:
 1884 005e 5560     		str	r5, [r2, #4]
 1885 0060 70BD     		pop	{r4, r5, r6, pc}
 1886              	.LVL123:
 1887              	.L142:
 646:STM32F10x_StdPeriph_Driver/src/stm32f10x_fsmc.c ****     }
 647:STM32F10x_StdPeriph_Driver/src/stm32f10x_fsmc.c ****     /* Enable the selected FSMC_Bank4 interrupts */
 648:STM32F10x_StdPeriph_Driver/src/stm32f10x_fsmc.c ****     else
 649:STM32F10x_StdPeriph_Driver/src/stm32f10x_fsmc.c ****     {
 650:STM32F10x_StdPeriph_Driver/src/stm32f10x_fsmc.c ****       FSMC_Bank4->SR4 |= FSMC_IT;    
 1888              		.loc 1 650 0
 1889 0062 114A     		ldr	r2, .L146+12
 1890 0064 5368     		ldr	r3, [r2, #4]
 1891 0066 1D43     		orrs	r5, r5, r3
 1892              	.LVL124:
 1893 0068 5560     		str	r5, [r2, #4]
ARM GAS  /var/folders/g9/bbpj86ld7fx45vd1b3pqxmp00000gn/T//cch0rGuN.s 			page 46


 1894 006a 70BD     		pop	{r4, r5, r6, pc}
 1895              	.LVL125:
 1896              	.L139:
 651:STM32F10x_StdPeriph_Driver/src/stm32f10x_fsmc.c ****     }
 652:STM32F10x_StdPeriph_Driver/src/stm32f10x_fsmc.c ****   }
 653:STM32F10x_StdPeriph_Driver/src/stm32f10x_fsmc.c ****   else
 654:STM32F10x_StdPeriph_Driver/src/stm32f10x_fsmc.c ****   {
 655:STM32F10x_StdPeriph_Driver/src/stm32f10x_fsmc.c ****     /* Disable the selected FSMC_Bank2 interrupts */
 656:STM32F10x_StdPeriph_Driver/src/stm32f10x_fsmc.c ****     if(FSMC_Bank == FSMC_Bank2_NAND)
 1897              		.loc 1 656 0
 1898 006c 102C     		cmp	r4, #16
 1899 006e 05D1     		bne	.L143
 657:STM32F10x_StdPeriph_Driver/src/stm32f10x_fsmc.c ****     {
 658:STM32F10x_StdPeriph_Driver/src/stm32f10x_fsmc.c ****       
 659:STM32F10x_StdPeriph_Driver/src/stm32f10x_fsmc.c ****       FSMC_Bank2->SR2 &= (uint32_t)~FSMC_IT;
 1900              		.loc 1 659 0
 1901 0070 0B4A     		ldr	r2, .L146+4
 1902 0072 5368     		ldr	r3, [r2, #4]
 1903 0074 23EA0505 		bic	r5, r3, r5
 1904              	.LVL126:
 1905 0078 5560     		str	r5, [r2, #4]
 1906 007a 70BD     		pop	{r4, r5, r6, pc}
 1907              	.LVL127:
 1908              	.L143:
 660:STM32F10x_StdPeriph_Driver/src/stm32f10x_fsmc.c ****     }
 661:STM32F10x_StdPeriph_Driver/src/stm32f10x_fsmc.c ****     /* Disable the selected FSMC_Bank3 interrupts */
 662:STM32F10x_StdPeriph_Driver/src/stm32f10x_fsmc.c ****     else if (FSMC_Bank == FSMC_Bank3_NAND)
 1909              		.loc 1 662 0
 1910 007c B4F5807F 		cmp	r4, #256
 1911 0080 05D1     		bne	.L144
 663:STM32F10x_StdPeriph_Driver/src/stm32f10x_fsmc.c ****     {
 664:STM32F10x_StdPeriph_Driver/src/stm32f10x_fsmc.c ****       FSMC_Bank3->SR3 &= (uint32_t)~FSMC_IT;
 1912              		.loc 1 664 0
 1913 0082 084A     		ldr	r2, .L146+8
 1914 0084 5368     		ldr	r3, [r2, #4]
 1915 0086 23EA0505 		bic	r5, r3, r5
 1916              	.LVL128:
 1917 008a 5560     		str	r5, [r2, #4]
 1918 008c 70BD     		pop	{r4, r5, r6, pc}
 1919              	.LVL129:
 1920              	.L144:
 665:STM32F10x_StdPeriph_Driver/src/stm32f10x_fsmc.c ****     }
 666:STM32F10x_StdPeriph_Driver/src/stm32f10x_fsmc.c ****     /* Disable the selected FSMC_Bank4 interrupts */
 667:STM32F10x_StdPeriph_Driver/src/stm32f10x_fsmc.c ****     else
 668:STM32F10x_StdPeriph_Driver/src/stm32f10x_fsmc.c ****     {
 669:STM32F10x_StdPeriph_Driver/src/stm32f10x_fsmc.c ****       FSMC_Bank4->SR4 &= (uint32_t)~FSMC_IT;    
 1921              		.loc 1 669 0
 1922 008e 064A     		ldr	r2, .L146+12
 1923 0090 5368     		ldr	r3, [r2, #4]
 1924 0092 23EA0505 		bic	r5, r3, r5
 1925              	.LVL130:
 1926 0096 5560     		str	r5, [r2, #4]
 1927 0098 70BD     		pop	{r4, r5, r6, pc}
 1928              	.LVL131:
 1929              	.L147:
 1930 009a 00BF     		.align	2
 1931              	.L146:
ARM GAS  /var/folders/g9/bbpj86ld7fx45vd1b3pqxmp00000gn/T//cch0rGuN.s 			page 47


 1932 009c 00000000 		.word	.LC0
 1933 00a0 600000A0 		.word	-1610612640
 1934 00a4 800000A0 		.word	-1610612608
 1935 00a8 A00000A0 		.word	-1610612576
 1936              		.cfi_endproc
 1937              	.LFE41:
 1939              		.section	.text.FSMC_GetFlagStatus,"ax",%progbits
 1940              		.align	2
 1941              		.global	FSMC_GetFlagStatus
 1942              		.thumb
 1943              		.thumb_func
 1945              	FSMC_GetFlagStatus:
 1946              	.LFB42:
 670:STM32F10x_StdPeriph_Driver/src/stm32f10x_fsmc.c ****     }
 671:STM32F10x_StdPeriph_Driver/src/stm32f10x_fsmc.c ****   }
 672:STM32F10x_StdPeriph_Driver/src/stm32f10x_fsmc.c **** }
 673:STM32F10x_StdPeriph_Driver/src/stm32f10x_fsmc.c **** 
 674:STM32F10x_StdPeriph_Driver/src/stm32f10x_fsmc.c **** /**
 675:STM32F10x_StdPeriph_Driver/src/stm32f10x_fsmc.c ****   * @brief  Checks whether the specified FSMC flag is set or not.
 676:STM32F10x_StdPeriph_Driver/src/stm32f10x_fsmc.c ****   * @param  FSMC_Bank: specifies the FSMC Bank to be used
 677:STM32F10x_StdPeriph_Driver/src/stm32f10x_fsmc.c ****   *   This parameter can be one of the following values:
 678:STM32F10x_StdPeriph_Driver/src/stm32f10x_fsmc.c ****   *     @arg FSMC_Bank2_NAND: FSMC Bank2 NAND 
 679:STM32F10x_StdPeriph_Driver/src/stm32f10x_fsmc.c ****   *     @arg FSMC_Bank3_NAND: FSMC Bank3 NAND
 680:STM32F10x_StdPeriph_Driver/src/stm32f10x_fsmc.c ****   *     @arg FSMC_Bank4_PCCARD: FSMC Bank4 PCCARD
 681:STM32F10x_StdPeriph_Driver/src/stm32f10x_fsmc.c ****   * @param  FSMC_FLAG: specifies the flag to check.
 682:STM32F10x_StdPeriph_Driver/src/stm32f10x_fsmc.c ****   *   This parameter can be one of the following values:
 683:STM32F10x_StdPeriph_Driver/src/stm32f10x_fsmc.c ****   *     @arg FSMC_FLAG_RisingEdge: Rising egde detection Flag.
 684:STM32F10x_StdPeriph_Driver/src/stm32f10x_fsmc.c ****   *     @arg FSMC_FLAG_Level: Level detection Flag.
 685:STM32F10x_StdPeriph_Driver/src/stm32f10x_fsmc.c ****   *     @arg FSMC_FLAG_FallingEdge: Falling egde detection Flag.
 686:STM32F10x_StdPeriph_Driver/src/stm32f10x_fsmc.c ****   *     @arg FSMC_FLAG_FEMPT: Fifo empty Flag. 
 687:STM32F10x_StdPeriph_Driver/src/stm32f10x_fsmc.c ****   * @retval The new state of FSMC_FLAG (SET or RESET).
 688:STM32F10x_StdPeriph_Driver/src/stm32f10x_fsmc.c ****   */
 689:STM32F10x_StdPeriph_Driver/src/stm32f10x_fsmc.c **** FlagStatus FSMC_GetFlagStatus(uint32_t FSMC_Bank, uint32_t FSMC_FLAG)
 690:STM32F10x_StdPeriph_Driver/src/stm32f10x_fsmc.c **** {
 1947              		.loc 1 690 0
 1948              		.cfi_startproc
 1949              		@ args = 0, pretend = 0, frame = 0
 1950              		@ frame_needed = 0, uses_anonymous_args = 0
 1951              	.LVL132:
 1952 0000 38B5     		push	{r3, r4, r5, lr}
 1953              	.LCFI12:
 1954              		.cfi_def_cfa_offset 16
 1955              		.cfi_offset 3, -16
 1956              		.cfi_offset 4, -12
 1957              		.cfi_offset 5, -8
 1958              		.cfi_offset 14, -4
 1959 0002 0446     		mov	r4, r0
 1960 0004 0D46     		mov	r5, r1
 1961              	.LVL133:
 691:STM32F10x_StdPeriph_Driver/src/stm32f10x_fsmc.c ****   FlagStatus bitstatus = RESET;
 692:STM32F10x_StdPeriph_Driver/src/stm32f10x_fsmc.c ****   uint32_t tmpsr = 0x00000000;
 693:STM32F10x_StdPeriph_Driver/src/stm32f10x_fsmc.c ****   
 694:STM32F10x_StdPeriph_Driver/src/stm32f10x_fsmc.c ****   /* Check the parameters */
 695:STM32F10x_StdPeriph_Driver/src/stm32f10x_fsmc.c ****   assert_param(IS_FSMC_GETFLAG_BANK(FSMC_Bank));
 1962              		.loc 1 695 0
 1963 0006 1028     		cmp	r0, #16
 1964 0008 0AD0     		beq	.L149
ARM GAS  /var/folders/g9/bbpj86ld7fx45vd1b3pqxmp00000gn/T//cch0rGuN.s 			page 48


 1965              		.loc 1 695 0 is_stmt 0 discriminator 1
 1966 000a B0F5807F 		cmp	r0, #256
 1967 000e 07D0     		beq	.L149
 1968              		.loc 1 695 0 discriminator 2
 1969 0010 B0F5805F 		cmp	r0, #4096
 1970 0014 04D0     		beq	.L149
 1971              		.loc 1 695 0 discriminator 3
 1972 0016 40F2B721 		movw	r1, #695
 1973              	.LVL134:
 1974 001a 1148     		ldr	r0, .L157
 1975              	.LVL135:
 1976 001c FFF7FEFF 		bl	assert_failed
 1977              	.LVL136:
 1978              	.L149:
 696:STM32F10x_StdPeriph_Driver/src/stm32f10x_fsmc.c ****   assert_param(IS_FSMC_GET_FLAG(FSMC_FLAG));
 1979              		.loc 1 696 0 is_stmt 1
 1980 0020 6B1E     		subs	r3, r5, #1
 1981 0022 012B     		cmp	r3, #1
 1982 0024 08D9     		bls	.L150
 1983              		.loc 1 696 0 is_stmt 0 discriminator 1
 1984 0026 042D     		cmp	r5, #4
 1985 0028 06D0     		beq	.L150
 1986              		.loc 1 696 0 discriminator 2
 1987 002a 402D     		cmp	r5, #64
 1988 002c 04D0     		beq	.L150
 1989              		.loc 1 696 0 discriminator 3
 1990 002e 4FF42E71 		mov	r1, #696
 1991 0032 0B48     		ldr	r0, .L157
 1992 0034 FFF7FEFF 		bl	assert_failed
 1993              	.LVL137:
 1994              	.L150:
 697:STM32F10x_StdPeriph_Driver/src/stm32f10x_fsmc.c ****   
 698:STM32F10x_StdPeriph_Driver/src/stm32f10x_fsmc.c ****   if(FSMC_Bank == FSMC_Bank2_NAND)
 1995              		.loc 1 698 0 is_stmt 1
 1996 0038 102C     		cmp	r4, #16
 1997 003a 02D1     		bne	.L151
 699:STM32F10x_StdPeriph_Driver/src/stm32f10x_fsmc.c ****   {
 700:STM32F10x_StdPeriph_Driver/src/stm32f10x_fsmc.c ****     tmpsr = FSMC_Bank2->SR2;
 1998              		.loc 1 700 0
 1999 003c 094B     		ldr	r3, .L157+4
 2000 003e 5B68     		ldr	r3, [r3, #4]
 2001              	.LVL138:
 2002 0040 07E0     		b	.L152
 2003              	.LVL139:
 2004              	.L151:
 701:STM32F10x_StdPeriph_Driver/src/stm32f10x_fsmc.c ****   }  
 702:STM32F10x_StdPeriph_Driver/src/stm32f10x_fsmc.c ****   else if(FSMC_Bank == FSMC_Bank3_NAND)
 2005              		.loc 1 702 0
 2006 0042 B4F5807F 		cmp	r4, #256
 2007 0046 02D1     		bne	.L153
 703:STM32F10x_StdPeriph_Driver/src/stm32f10x_fsmc.c ****   {
 704:STM32F10x_StdPeriph_Driver/src/stm32f10x_fsmc.c ****     tmpsr = FSMC_Bank3->SR3;
 2008              		.loc 1 704 0
 2009 0048 074B     		ldr	r3, .L157+8
 2010 004a 5B68     		ldr	r3, [r3, #4]
 2011              	.LVL140:
 2012 004c 01E0     		b	.L152
ARM GAS  /var/folders/g9/bbpj86ld7fx45vd1b3pqxmp00000gn/T//cch0rGuN.s 			page 49


 2013              	.LVL141:
 2014              	.L153:
 705:STM32F10x_StdPeriph_Driver/src/stm32f10x_fsmc.c ****   }
 706:STM32F10x_StdPeriph_Driver/src/stm32f10x_fsmc.c ****   /* FSMC_Bank4_PCCARD*/
 707:STM32F10x_StdPeriph_Driver/src/stm32f10x_fsmc.c ****   else
 708:STM32F10x_StdPeriph_Driver/src/stm32f10x_fsmc.c ****   {
 709:STM32F10x_StdPeriph_Driver/src/stm32f10x_fsmc.c ****     tmpsr = FSMC_Bank4->SR4;
 2015              		.loc 1 709 0
 2016 004e 074B     		ldr	r3, .L157+12
 2017 0050 5B68     		ldr	r3, [r3, #4]
 2018              	.LVL142:
 2019              	.L152:
 710:STM32F10x_StdPeriph_Driver/src/stm32f10x_fsmc.c ****   } 
 711:STM32F10x_StdPeriph_Driver/src/stm32f10x_fsmc.c ****   
 712:STM32F10x_StdPeriph_Driver/src/stm32f10x_fsmc.c ****   /* Get the flag status */
 713:STM32F10x_StdPeriph_Driver/src/stm32f10x_fsmc.c ****   if ((tmpsr & FSMC_FLAG) != (uint16_t)RESET )
 2020              		.loc 1 713 0
 2021 0052 2B42     		tst	r3, r5
 2022 0054 01D0     		beq	.L155
 714:STM32F10x_StdPeriph_Driver/src/stm32f10x_fsmc.c ****   {
 715:STM32F10x_StdPeriph_Driver/src/stm32f10x_fsmc.c ****     bitstatus = SET;
 2023              		.loc 1 715 0
 2024 0056 0120     		movs	r0, #1
 2025 0058 38BD     		pop	{r3, r4, r5, pc}
 2026              	.LVL143:
 2027              	.L155:
 716:STM32F10x_StdPeriph_Driver/src/stm32f10x_fsmc.c ****   }
 717:STM32F10x_StdPeriph_Driver/src/stm32f10x_fsmc.c ****   else
 718:STM32F10x_StdPeriph_Driver/src/stm32f10x_fsmc.c ****   {
 719:STM32F10x_StdPeriph_Driver/src/stm32f10x_fsmc.c ****     bitstatus = RESET;
 2028              		.loc 1 719 0
 2029 005a 0020     		movs	r0, #0
 2030              	.LVL144:
 720:STM32F10x_StdPeriph_Driver/src/stm32f10x_fsmc.c ****   }
 721:STM32F10x_StdPeriph_Driver/src/stm32f10x_fsmc.c ****   /* Return the flag status */
 722:STM32F10x_StdPeriph_Driver/src/stm32f10x_fsmc.c ****   return bitstatus;
 723:STM32F10x_StdPeriph_Driver/src/stm32f10x_fsmc.c **** }
 2031              		.loc 1 723 0
 2032 005c 38BD     		pop	{r3, r4, r5, pc}
 2033              	.LVL145:
 2034              	.L158:
 2035 005e 00BF     		.align	2
 2036              	.L157:
 2037 0060 00000000 		.word	.LC0
 2038 0064 600000A0 		.word	-1610612640
 2039 0068 800000A0 		.word	-1610612608
 2040 006c A00000A0 		.word	-1610612576
 2041              		.cfi_endproc
 2042              	.LFE42:
 2044              		.section	.text.FSMC_ClearFlag,"ax",%progbits
 2045              		.align	2
 2046              		.global	FSMC_ClearFlag
 2047              		.thumb
 2048              		.thumb_func
 2050              	FSMC_ClearFlag:
 2051              	.LFB43:
 724:STM32F10x_StdPeriph_Driver/src/stm32f10x_fsmc.c **** 
ARM GAS  /var/folders/g9/bbpj86ld7fx45vd1b3pqxmp00000gn/T//cch0rGuN.s 			page 50


 725:STM32F10x_StdPeriph_Driver/src/stm32f10x_fsmc.c **** /**
 726:STM32F10x_StdPeriph_Driver/src/stm32f10x_fsmc.c ****   * @brief  Clears the FSMCs pending flags.
 727:STM32F10x_StdPeriph_Driver/src/stm32f10x_fsmc.c ****   * @param  FSMC_Bank: specifies the FSMC Bank to be used
 728:STM32F10x_StdPeriph_Driver/src/stm32f10x_fsmc.c ****   *   This parameter can be one of the following values:
 729:STM32F10x_StdPeriph_Driver/src/stm32f10x_fsmc.c ****   *     @arg FSMC_Bank2_NAND: FSMC Bank2 NAND 
 730:STM32F10x_StdPeriph_Driver/src/stm32f10x_fsmc.c ****   *     @arg FSMC_Bank3_NAND: FSMC Bank3 NAND
 731:STM32F10x_StdPeriph_Driver/src/stm32f10x_fsmc.c ****   *     @arg FSMC_Bank4_PCCARD: FSMC Bank4 PCCARD
 732:STM32F10x_StdPeriph_Driver/src/stm32f10x_fsmc.c ****   * @param  FSMC_FLAG: specifies the flag to clear.
 733:STM32F10x_StdPeriph_Driver/src/stm32f10x_fsmc.c ****   *   This parameter can be any combination of the following values:
 734:STM32F10x_StdPeriph_Driver/src/stm32f10x_fsmc.c ****   *     @arg FSMC_FLAG_RisingEdge: Rising egde detection Flag.
 735:STM32F10x_StdPeriph_Driver/src/stm32f10x_fsmc.c ****   *     @arg FSMC_FLAG_Level: Level detection Flag.
 736:STM32F10x_StdPeriph_Driver/src/stm32f10x_fsmc.c ****   *     @arg FSMC_FLAG_FallingEdge: Falling egde detection Flag.
 737:STM32F10x_StdPeriph_Driver/src/stm32f10x_fsmc.c ****   * @retval None
 738:STM32F10x_StdPeriph_Driver/src/stm32f10x_fsmc.c ****   */
 739:STM32F10x_StdPeriph_Driver/src/stm32f10x_fsmc.c **** void FSMC_ClearFlag(uint32_t FSMC_Bank, uint32_t FSMC_FLAG)
 740:STM32F10x_StdPeriph_Driver/src/stm32f10x_fsmc.c **** {
 2052              		.loc 1 740 0
 2053              		.cfi_startproc
 2054              		@ args = 0, pretend = 0, frame = 0
 2055              		@ frame_needed = 0, uses_anonymous_args = 0
 2056              	.LVL146:
 2057 0000 38B5     		push	{r3, r4, r5, lr}
 2058              	.LCFI13:
 2059              		.cfi_def_cfa_offset 16
 2060              		.cfi_offset 3, -16
 2061              		.cfi_offset 4, -12
 2062              		.cfi_offset 5, -8
 2063              		.cfi_offset 14, -4
 2064 0002 0446     		mov	r4, r0
 2065 0004 0D46     		mov	r5, r1
 741:STM32F10x_StdPeriph_Driver/src/stm32f10x_fsmc.c ****  /* Check the parameters */
 742:STM32F10x_StdPeriph_Driver/src/stm32f10x_fsmc.c ****   assert_param(IS_FSMC_GETFLAG_BANK(FSMC_Bank));
 2066              		.loc 1 742 0
 2067 0006 1028     		cmp	r0, #16
 2068 0008 0AD0     		beq	.L160
 2069              		.loc 1 742 0 is_stmt 0 discriminator 1
 2070 000a B0F5807F 		cmp	r0, #256
 2071 000e 07D0     		beq	.L160
 2072              		.loc 1 742 0 discriminator 2
 2073 0010 B0F5805F 		cmp	r0, #4096
 2074 0014 04D0     		beq	.L160
 2075              		.loc 1 742 0 discriminator 3
 2076 0016 40F2E621 		movw	r1, #742
 2077              	.LVL147:
 2078 001a 1148     		ldr	r0, .L167
 2079              	.LVL148:
 2080 001c FFF7FEFF 		bl	assert_failed
 2081              	.LVL149:
 2082              	.L160:
 743:STM32F10x_StdPeriph_Driver/src/stm32f10x_fsmc.c ****   assert_param(IS_FSMC_CLEAR_FLAG(FSMC_FLAG)) ;
 2083              		.loc 1 743 0 is_stmt 1
 2084 0020 35F00703 		bics	r3, r5, #7
 2085 0024 00D1     		bne	.L161
 2086              		.loc 1 743 0 is_stmt 0 discriminator 2
 2087 0026 25B9     		cbnz	r5, .L162
 2088              	.L161:
 2089              		.loc 1 743 0 discriminator 3
ARM GAS  /var/folders/g9/bbpj86ld7fx45vd1b3pqxmp00000gn/T//cch0rGuN.s 			page 51


 2090 0028 40F2E721 		movw	r1, #743
 2091 002c 0C48     		ldr	r0, .L167
 2092 002e FFF7FEFF 		bl	assert_failed
 2093              	.LVL150:
 2094              	.L162:
 744:STM32F10x_StdPeriph_Driver/src/stm32f10x_fsmc.c ****     
 745:STM32F10x_StdPeriph_Driver/src/stm32f10x_fsmc.c ****   if(FSMC_Bank == FSMC_Bank2_NAND)
 2095              		.loc 1 745 0 is_stmt 1
 2096 0032 102C     		cmp	r4, #16
 2097 0034 05D1     		bne	.L163
 746:STM32F10x_StdPeriph_Driver/src/stm32f10x_fsmc.c ****   {
 747:STM32F10x_StdPeriph_Driver/src/stm32f10x_fsmc.c ****     FSMC_Bank2->SR2 &= ~FSMC_FLAG; 
 2098              		.loc 1 747 0
 2099 0036 0B4A     		ldr	r2, .L167+4
 2100 0038 5368     		ldr	r3, [r2, #4]
 2101 003a 23EA0505 		bic	r5, r3, r5
 2102              	.LVL151:
 2103 003e 5560     		str	r5, [r2, #4]
 2104 0040 38BD     		pop	{r3, r4, r5, pc}
 2105              	.LVL152:
 2106              	.L163:
 748:STM32F10x_StdPeriph_Driver/src/stm32f10x_fsmc.c ****   }  
 749:STM32F10x_StdPeriph_Driver/src/stm32f10x_fsmc.c ****   else if(FSMC_Bank == FSMC_Bank3_NAND)
 2107              		.loc 1 749 0
 2108 0042 B4F5807F 		cmp	r4, #256
 2109 0046 05D1     		bne	.L165
 750:STM32F10x_StdPeriph_Driver/src/stm32f10x_fsmc.c ****   {
 751:STM32F10x_StdPeriph_Driver/src/stm32f10x_fsmc.c ****     FSMC_Bank3->SR3 &= ~FSMC_FLAG;
 2110              		.loc 1 751 0
 2111 0048 074A     		ldr	r2, .L167+8
 2112 004a 5368     		ldr	r3, [r2, #4]
 2113 004c 23EA0505 		bic	r5, r3, r5
 2114              	.LVL153:
 2115 0050 5560     		str	r5, [r2, #4]
 2116 0052 38BD     		pop	{r3, r4, r5, pc}
 2117              	.LVL154:
 2118              	.L165:
 752:STM32F10x_StdPeriph_Driver/src/stm32f10x_fsmc.c ****   }
 753:STM32F10x_StdPeriph_Driver/src/stm32f10x_fsmc.c ****   /* FSMC_Bank4_PCCARD*/
 754:STM32F10x_StdPeriph_Driver/src/stm32f10x_fsmc.c ****   else
 755:STM32F10x_StdPeriph_Driver/src/stm32f10x_fsmc.c ****   {
 756:STM32F10x_StdPeriph_Driver/src/stm32f10x_fsmc.c ****     FSMC_Bank4->SR4 &= ~FSMC_FLAG;
 2119              		.loc 1 756 0
 2120 0054 054A     		ldr	r2, .L167+12
 2121 0056 5368     		ldr	r3, [r2, #4]
 2122 0058 23EA0505 		bic	r5, r3, r5
 2123              	.LVL155:
 2124 005c 5560     		str	r5, [r2, #4]
 2125 005e 38BD     		pop	{r3, r4, r5, pc}
 2126              	.LVL156:
 2127              	.L168:
 2128              		.align	2
 2129              	.L167:
 2130 0060 00000000 		.word	.LC0
 2131 0064 600000A0 		.word	-1610612640
 2132 0068 800000A0 		.word	-1610612608
 2133 006c A00000A0 		.word	-1610612576
ARM GAS  /var/folders/g9/bbpj86ld7fx45vd1b3pqxmp00000gn/T//cch0rGuN.s 			page 52


 2134              		.cfi_endproc
 2135              	.LFE43:
 2137              		.section	.text.FSMC_GetITStatus,"ax",%progbits
 2138              		.align	2
 2139              		.global	FSMC_GetITStatus
 2140              		.thumb
 2141              		.thumb_func
 2143              	FSMC_GetITStatus:
 2144              	.LFB44:
 757:STM32F10x_StdPeriph_Driver/src/stm32f10x_fsmc.c ****   }
 758:STM32F10x_StdPeriph_Driver/src/stm32f10x_fsmc.c **** }
 759:STM32F10x_StdPeriph_Driver/src/stm32f10x_fsmc.c **** 
 760:STM32F10x_StdPeriph_Driver/src/stm32f10x_fsmc.c **** /**
 761:STM32F10x_StdPeriph_Driver/src/stm32f10x_fsmc.c ****   * @brief  Checks whether the specified FSMC interrupt has occurred or not.
 762:STM32F10x_StdPeriph_Driver/src/stm32f10x_fsmc.c ****   * @param  FSMC_Bank: specifies the FSMC Bank to be used
 763:STM32F10x_StdPeriph_Driver/src/stm32f10x_fsmc.c ****   *   This parameter can be one of the following values:
 764:STM32F10x_StdPeriph_Driver/src/stm32f10x_fsmc.c ****   *     @arg FSMC_Bank2_NAND: FSMC Bank2 NAND 
 765:STM32F10x_StdPeriph_Driver/src/stm32f10x_fsmc.c ****   *     @arg FSMC_Bank3_NAND: FSMC Bank3 NAND
 766:STM32F10x_StdPeriph_Driver/src/stm32f10x_fsmc.c ****   *     @arg FSMC_Bank4_PCCARD: FSMC Bank4 PCCARD
 767:STM32F10x_StdPeriph_Driver/src/stm32f10x_fsmc.c ****   * @param  FSMC_IT: specifies the FSMC interrupt source to check.
 768:STM32F10x_StdPeriph_Driver/src/stm32f10x_fsmc.c ****   *   This parameter can be one of the following values:
 769:STM32F10x_StdPeriph_Driver/src/stm32f10x_fsmc.c ****   *     @arg FSMC_IT_RisingEdge: Rising edge detection interrupt. 
 770:STM32F10x_StdPeriph_Driver/src/stm32f10x_fsmc.c ****   *     @arg FSMC_IT_Level: Level edge detection interrupt.
 771:STM32F10x_StdPeriph_Driver/src/stm32f10x_fsmc.c ****   *     @arg FSMC_IT_FallingEdge: Falling edge detection interrupt. 
 772:STM32F10x_StdPeriph_Driver/src/stm32f10x_fsmc.c ****   * @retval The new state of FSMC_IT (SET or RESET).
 773:STM32F10x_StdPeriph_Driver/src/stm32f10x_fsmc.c ****   */
 774:STM32F10x_StdPeriph_Driver/src/stm32f10x_fsmc.c **** ITStatus FSMC_GetITStatus(uint32_t FSMC_Bank, uint32_t FSMC_IT)
 775:STM32F10x_StdPeriph_Driver/src/stm32f10x_fsmc.c **** {
 2145              		.loc 1 775 0
 2146              		.cfi_startproc
 2147              		@ args = 0, pretend = 0, frame = 0
 2148              		@ frame_needed = 0, uses_anonymous_args = 0
 2149              	.LVL157:
 2150 0000 38B5     		push	{r3, r4, r5, lr}
 2151              	.LCFI14:
 2152              		.cfi_def_cfa_offset 16
 2153              		.cfi_offset 3, -16
 2154              		.cfi_offset 4, -12
 2155              		.cfi_offset 5, -8
 2156              		.cfi_offset 14, -4
 2157 0002 0546     		mov	r5, r0
 2158 0004 0C46     		mov	r4, r1
 2159              	.LVL158:
 776:STM32F10x_StdPeriph_Driver/src/stm32f10x_fsmc.c ****   ITStatus bitstatus = RESET;
 777:STM32F10x_StdPeriph_Driver/src/stm32f10x_fsmc.c ****   uint32_t tmpsr = 0x0, itstatus = 0x0, itenable = 0x0; 
 778:STM32F10x_StdPeriph_Driver/src/stm32f10x_fsmc.c ****   
 779:STM32F10x_StdPeriph_Driver/src/stm32f10x_fsmc.c ****   /* Check the parameters */
 780:STM32F10x_StdPeriph_Driver/src/stm32f10x_fsmc.c ****   assert_param(IS_FSMC_IT_BANK(FSMC_Bank));
 2160              		.loc 1 780 0
 2161 0006 1028     		cmp	r0, #16
 2162 0008 0AD0     		beq	.L170
 2163              		.loc 1 780 0 is_stmt 0 discriminator 1
 2164 000a B0F5807F 		cmp	r0, #256
 2165 000e 07D0     		beq	.L170
 2166              		.loc 1 780 0 discriminator 2
 2167 0010 B0F5805F 		cmp	r0, #4096
 2168 0014 04D0     		beq	.L170
ARM GAS  /var/folders/g9/bbpj86ld7fx45vd1b3pqxmp00000gn/T//cch0rGuN.s 			page 53


 2169              		.loc 1 780 0 discriminator 3
 2170 0016 4FF44371 		mov	r1, #780
 2171              	.LVL159:
 2172 001a 1348     		ldr	r0, .L179
 2173              	.LVL160:
 2174 001c FFF7FEFF 		bl	assert_failed
 2175              	.LVL161:
 2176              	.L170:
 781:STM32F10x_StdPeriph_Driver/src/stm32f10x_fsmc.c ****   assert_param(IS_FSMC_GET_IT(FSMC_IT));
 2177              		.loc 1 781 0 is_stmt 1
 2178 0020 082C     		cmp	r4, #8
 2179 0022 08D0     		beq	.L171
 2180              		.loc 1 781 0 is_stmt 0 discriminator 1
 2181 0024 102C     		cmp	r4, #16
 2182 0026 06D0     		beq	.L171
 2183              		.loc 1 781 0 discriminator 2
 2184 0028 202C     		cmp	r4, #32
 2185 002a 04D0     		beq	.L171
 2186              		.loc 1 781 0 discriminator 3
 2187 002c 40F20D31 		movw	r1, #781
 2188 0030 0D48     		ldr	r0, .L179
 2189 0032 FFF7FEFF 		bl	assert_failed
 2190              	.LVL162:
 2191              	.L171:
 782:STM32F10x_StdPeriph_Driver/src/stm32f10x_fsmc.c ****   
 783:STM32F10x_StdPeriph_Driver/src/stm32f10x_fsmc.c ****   if(FSMC_Bank == FSMC_Bank2_NAND)
 2192              		.loc 1 783 0 is_stmt 1
 2193 0036 102D     		cmp	r5, #16
 2194 0038 02D1     		bne	.L172
 784:STM32F10x_StdPeriph_Driver/src/stm32f10x_fsmc.c ****   {
 785:STM32F10x_StdPeriph_Driver/src/stm32f10x_fsmc.c ****     tmpsr = FSMC_Bank2->SR2;
 2195              		.loc 1 785 0
 2196 003a 0C4B     		ldr	r3, .L179+4
 2197 003c 5B68     		ldr	r3, [r3, #4]
 2198              	.LVL163:
 2199 003e 07E0     		b	.L173
 2200              	.LVL164:
 2201              	.L172:
 786:STM32F10x_StdPeriph_Driver/src/stm32f10x_fsmc.c ****   }  
 787:STM32F10x_StdPeriph_Driver/src/stm32f10x_fsmc.c ****   else if(FSMC_Bank == FSMC_Bank3_NAND)
 2202              		.loc 1 787 0
 2203 0040 B5F5807F 		cmp	r5, #256
 2204 0044 02D1     		bne	.L174
 788:STM32F10x_StdPeriph_Driver/src/stm32f10x_fsmc.c ****   {
 789:STM32F10x_StdPeriph_Driver/src/stm32f10x_fsmc.c ****     tmpsr = FSMC_Bank3->SR3;
 2205              		.loc 1 789 0
 2206 0046 0A4B     		ldr	r3, .L179+8
 2207 0048 5B68     		ldr	r3, [r3, #4]
 2208              	.LVL165:
 2209 004a 01E0     		b	.L173
 2210              	.LVL166:
 2211              	.L174:
 790:STM32F10x_StdPeriph_Driver/src/stm32f10x_fsmc.c ****   }
 791:STM32F10x_StdPeriph_Driver/src/stm32f10x_fsmc.c ****   /* FSMC_Bank4_PCCARD*/
 792:STM32F10x_StdPeriph_Driver/src/stm32f10x_fsmc.c ****   else
 793:STM32F10x_StdPeriph_Driver/src/stm32f10x_fsmc.c ****   {
 794:STM32F10x_StdPeriph_Driver/src/stm32f10x_fsmc.c ****     tmpsr = FSMC_Bank4->SR4;
ARM GAS  /var/folders/g9/bbpj86ld7fx45vd1b3pqxmp00000gn/T//cch0rGuN.s 			page 54


 2212              		.loc 1 794 0
 2213 004c 094B     		ldr	r3, .L179+12
 2214 004e 5B68     		ldr	r3, [r3, #4]
 2215              	.LVL167:
 2216              	.L173:
 795:STM32F10x_StdPeriph_Driver/src/stm32f10x_fsmc.c ****   } 
 796:STM32F10x_StdPeriph_Driver/src/stm32f10x_fsmc.c ****   
 797:STM32F10x_StdPeriph_Driver/src/stm32f10x_fsmc.c ****   itstatus = tmpsr & FSMC_IT;
 798:STM32F10x_StdPeriph_Driver/src/stm32f10x_fsmc.c ****   
 799:STM32F10x_StdPeriph_Driver/src/stm32f10x_fsmc.c ****   itenable = tmpsr & (FSMC_IT >> 3);
 2217              		.loc 1 799 0
 2218 0050 03EAD402 		and	r2, r3, r4, lsr #3
 2219              	.LVL168:
 800:STM32F10x_StdPeriph_Driver/src/stm32f10x_fsmc.c ****   if ((itstatus != (uint32_t)RESET)  && (itenable != (uint32_t)RESET))
 2220              		.loc 1 800 0
 2221 0054 2342     		tst	r3, r4
 2222 0056 02D0     		beq	.L176
 2223              		.loc 1 800 0 is_stmt 0 discriminator 1
 2224 0058 1AB9     		cbnz	r2, .L177
 801:STM32F10x_StdPeriph_Driver/src/stm32f10x_fsmc.c ****   {
 802:STM32F10x_StdPeriph_Driver/src/stm32f10x_fsmc.c ****     bitstatus = SET;
 803:STM32F10x_StdPeriph_Driver/src/stm32f10x_fsmc.c ****   }
 804:STM32F10x_StdPeriph_Driver/src/stm32f10x_fsmc.c ****   else
 805:STM32F10x_StdPeriph_Driver/src/stm32f10x_fsmc.c ****   {
 806:STM32F10x_StdPeriph_Driver/src/stm32f10x_fsmc.c ****     bitstatus = RESET;
 2225              		.loc 1 806 0 is_stmt 1
 2226 005a 0020     		movs	r0, #0
 2227 005c 38BD     		pop	{r3, r4, r5, pc}
 2228              	.LVL169:
 2229              	.L176:
 2230 005e 0020     		movs	r0, #0
 2231 0060 38BD     		pop	{r3, r4, r5, pc}
 2232              	.LVL170:
 2233              	.L177:
 802:STM32F10x_StdPeriph_Driver/src/stm32f10x_fsmc.c ****   }
 2234              		.loc 1 802 0
 2235 0062 0120     		movs	r0, #1
 2236              	.LVL171:
 807:STM32F10x_StdPeriph_Driver/src/stm32f10x_fsmc.c ****   }
 808:STM32F10x_StdPeriph_Driver/src/stm32f10x_fsmc.c ****   return bitstatus; 
 809:STM32F10x_StdPeriph_Driver/src/stm32f10x_fsmc.c **** }
 2237              		.loc 1 809 0
 2238 0064 38BD     		pop	{r3, r4, r5, pc}
 2239              	.LVL172:
 2240              	.L180:
 2241 0066 00BF     		.align	2
 2242              	.L179:
 2243 0068 00000000 		.word	.LC0
 2244 006c 600000A0 		.word	-1610612640
 2245 0070 800000A0 		.word	-1610612608
 2246 0074 A00000A0 		.word	-1610612576
 2247              		.cfi_endproc
 2248              	.LFE44:
 2250              		.section	.text.FSMC_ClearITPendingBit,"ax",%progbits
 2251              		.align	2
 2252              		.global	FSMC_ClearITPendingBit
 2253              		.thumb
ARM GAS  /var/folders/g9/bbpj86ld7fx45vd1b3pqxmp00000gn/T//cch0rGuN.s 			page 55


 2254              		.thumb_func
 2256              	FSMC_ClearITPendingBit:
 2257              	.LFB45:
 810:STM32F10x_StdPeriph_Driver/src/stm32f10x_fsmc.c **** 
 811:STM32F10x_StdPeriph_Driver/src/stm32f10x_fsmc.c **** /**
 812:STM32F10x_StdPeriph_Driver/src/stm32f10x_fsmc.c ****   * @brief  Clears the FSMCs interrupt pending bits.
 813:STM32F10x_StdPeriph_Driver/src/stm32f10x_fsmc.c ****   * @param  FSMC_Bank: specifies the FSMC Bank to be used
 814:STM32F10x_StdPeriph_Driver/src/stm32f10x_fsmc.c ****   *   This parameter can be one of the following values:
 815:STM32F10x_StdPeriph_Driver/src/stm32f10x_fsmc.c ****   *     @arg FSMC_Bank2_NAND: FSMC Bank2 NAND 
 816:STM32F10x_StdPeriph_Driver/src/stm32f10x_fsmc.c ****   *     @arg FSMC_Bank3_NAND: FSMC Bank3 NAND
 817:STM32F10x_StdPeriph_Driver/src/stm32f10x_fsmc.c ****   *     @arg FSMC_Bank4_PCCARD: FSMC Bank4 PCCARD
 818:STM32F10x_StdPeriph_Driver/src/stm32f10x_fsmc.c ****   * @param  FSMC_IT: specifies the interrupt pending bit to clear.
 819:STM32F10x_StdPeriph_Driver/src/stm32f10x_fsmc.c ****   *   This parameter can be any combination of the following values:
 820:STM32F10x_StdPeriph_Driver/src/stm32f10x_fsmc.c ****   *     @arg FSMC_IT_RisingEdge: Rising edge detection interrupt. 
 821:STM32F10x_StdPeriph_Driver/src/stm32f10x_fsmc.c ****   *     @arg FSMC_IT_Level: Level edge detection interrupt.
 822:STM32F10x_StdPeriph_Driver/src/stm32f10x_fsmc.c ****   *     @arg FSMC_IT_FallingEdge: Falling edge detection interrupt.
 823:STM32F10x_StdPeriph_Driver/src/stm32f10x_fsmc.c ****   * @retval None
 824:STM32F10x_StdPeriph_Driver/src/stm32f10x_fsmc.c ****   */
 825:STM32F10x_StdPeriph_Driver/src/stm32f10x_fsmc.c **** void FSMC_ClearITPendingBit(uint32_t FSMC_Bank, uint32_t FSMC_IT)
 826:STM32F10x_StdPeriph_Driver/src/stm32f10x_fsmc.c **** {
 2258              		.loc 1 826 0
 2259              		.cfi_startproc
 2260              		@ args = 0, pretend = 0, frame = 0
 2261              		@ frame_needed = 0, uses_anonymous_args = 0
 2262              	.LVL173:
 2263 0000 38B5     		push	{r3, r4, r5, lr}
 2264              	.LCFI15:
 2265              		.cfi_def_cfa_offset 16
 2266              		.cfi_offset 3, -16
 2267              		.cfi_offset 4, -12
 2268              		.cfi_offset 5, -8
 2269              		.cfi_offset 14, -4
 2270 0002 0446     		mov	r4, r0
 2271 0004 0D46     		mov	r5, r1
 827:STM32F10x_StdPeriph_Driver/src/stm32f10x_fsmc.c ****   /* Check the parameters */
 828:STM32F10x_StdPeriph_Driver/src/stm32f10x_fsmc.c ****   assert_param(IS_FSMC_IT_BANK(FSMC_Bank));
 2272              		.loc 1 828 0
 2273 0006 1028     		cmp	r0, #16
 2274 0008 0AD0     		beq	.L182
 2275              		.loc 1 828 0 is_stmt 0 discriminator 1
 2276 000a B0F5807F 		cmp	r0, #256
 2277 000e 07D0     		beq	.L182
 2278              		.loc 1 828 0 discriminator 2
 2279 0010 B0F5805F 		cmp	r0, #4096
 2280 0014 04D0     		beq	.L182
 2281              		.loc 1 828 0 discriminator 3
 2282 0016 4FF44F71 		mov	r1, #828
 2283              	.LVL174:
 2284 001a 1148     		ldr	r0, .L189
 2285              	.LVL175:
 2286 001c FFF7FEFF 		bl	assert_failed
 2287              	.LVL176:
 2288              	.L182:
 829:STM32F10x_StdPeriph_Driver/src/stm32f10x_fsmc.c ****   assert_param(IS_FSMC_IT(FSMC_IT));
 2289              		.loc 1 829 0 is_stmt 1
 2290 0020 35F03803 		bics	r3, r5, #56
 2291 0024 00D1     		bne	.L183
ARM GAS  /var/folders/g9/bbpj86ld7fx45vd1b3pqxmp00000gn/T//cch0rGuN.s 			page 56


 2292              		.loc 1 829 0 is_stmt 0 discriminator 2
 2293 0026 25B9     		cbnz	r5, .L184
 2294              	.L183:
 2295              		.loc 1 829 0 discriminator 3
 2296 0028 40F23D31 		movw	r1, #829
 2297 002c 0C48     		ldr	r0, .L189
 2298 002e FFF7FEFF 		bl	assert_failed
 2299              	.LVL177:
 2300              	.L184:
 830:STM32F10x_StdPeriph_Driver/src/stm32f10x_fsmc.c ****     
 831:STM32F10x_StdPeriph_Driver/src/stm32f10x_fsmc.c ****   if(FSMC_Bank == FSMC_Bank2_NAND)
 2301              		.loc 1 831 0 is_stmt 1
 2302 0032 102C     		cmp	r4, #16
 2303 0034 05D1     		bne	.L185
 832:STM32F10x_StdPeriph_Driver/src/stm32f10x_fsmc.c ****   {
 833:STM32F10x_StdPeriph_Driver/src/stm32f10x_fsmc.c ****     FSMC_Bank2->SR2 &= ~(FSMC_IT >> 3); 
 2304              		.loc 1 833 0
 2305 0036 0B4A     		ldr	r2, .L189+4
 2306 0038 5368     		ldr	r3, [r2, #4]
 2307 003a 23EAD505 		bic	r5, r3, r5, lsr #3
 2308              	.LVL178:
 2309 003e 5560     		str	r5, [r2, #4]
 2310 0040 38BD     		pop	{r3, r4, r5, pc}
 2311              	.LVL179:
 2312              	.L185:
 834:STM32F10x_StdPeriph_Driver/src/stm32f10x_fsmc.c ****   }  
 835:STM32F10x_StdPeriph_Driver/src/stm32f10x_fsmc.c ****   else if(FSMC_Bank == FSMC_Bank3_NAND)
 2313              		.loc 1 835 0
 2314 0042 B4F5807F 		cmp	r4, #256
 2315 0046 05D1     		bne	.L187
 836:STM32F10x_StdPeriph_Driver/src/stm32f10x_fsmc.c ****   {
 837:STM32F10x_StdPeriph_Driver/src/stm32f10x_fsmc.c ****     FSMC_Bank3->SR3 &= ~(FSMC_IT >> 3);
 2316              		.loc 1 837 0
 2317 0048 074A     		ldr	r2, .L189+8
 2318 004a 5368     		ldr	r3, [r2, #4]
 2319 004c 23EAD505 		bic	r5, r3, r5, lsr #3
 2320              	.LVL180:
 2321 0050 5560     		str	r5, [r2, #4]
 2322 0052 38BD     		pop	{r3, r4, r5, pc}
 2323              	.LVL181:
 2324              	.L187:
 838:STM32F10x_StdPeriph_Driver/src/stm32f10x_fsmc.c ****   }
 839:STM32F10x_StdPeriph_Driver/src/stm32f10x_fsmc.c ****   /* FSMC_Bank4_PCCARD*/
 840:STM32F10x_StdPeriph_Driver/src/stm32f10x_fsmc.c ****   else
 841:STM32F10x_StdPeriph_Driver/src/stm32f10x_fsmc.c ****   {
 842:STM32F10x_StdPeriph_Driver/src/stm32f10x_fsmc.c ****     FSMC_Bank4->SR4 &= ~(FSMC_IT >> 3);
 2325              		.loc 1 842 0
 2326 0054 054A     		ldr	r2, .L189+12
 2327 0056 5368     		ldr	r3, [r2, #4]
 2328 0058 23EAD505 		bic	r5, r3, r5, lsr #3
 2329              	.LVL182:
 2330 005c 5560     		str	r5, [r2, #4]
 2331 005e 38BD     		pop	{r3, r4, r5, pc}
 2332              	.LVL183:
 2333              	.L190:
 2334              		.align	2
 2335              	.L189:
ARM GAS  /var/folders/g9/bbpj86ld7fx45vd1b3pqxmp00000gn/T//cch0rGuN.s 			page 57


 2336 0060 00000000 		.word	.LC0
 2337 0064 600000A0 		.word	-1610612640
 2338 0068 800000A0 		.word	-1610612608
 2339 006c A00000A0 		.word	-1610612576
 2340              		.cfi_endproc
 2341              	.LFE45:
 2343              		.section	.rodata.str1.4,"aMS",%progbits,1
 2344              		.align	2
 2345              	.LC0:
 2346 0000 53544D33 		.ascii	"STM32F10x_StdPeriph_Driver/src/stm32f10x_fsmc.c\000"
 2346      32463130 
 2346      785F5374 
 2346      64506572 
 2346      6970685F 
 2347              		.text
 2348              	.Letext0:
 2349              		.file 2 "/usr/local/Cellar/gcc-arm-none-eabi/20160926/arm-none-eabi/include/machine/_default_types
 2350              		.file 3 "/usr/local/Cellar/gcc-arm-none-eabi/20160926/arm-none-eabi/include/sys/_stdint.h"
 2351              		.file 4 "CMSIS/Core/CM3/stm32f10x.h"
 2352              		.file 5 "STM32F10x_StdPeriph_Driver/inc/stm32f10x_fsmc.h"
 2353              		.file 6 "Inc/stm32f10x_conf.h"
ARM GAS  /var/folders/g9/bbpj86ld7fx45vd1b3pqxmp00000gn/T//cch0rGuN.s 			page 58

