ARM GAS  /var/folders/g9/bbpj86ld7fx45vd1b3pqxmp00000gn/T//ccyF5Qxu.s 			page 1


   1              		.syntax unified
   2              		.cpu cortex-m3
   3              		.fpu softvfp
   4              		.eabi_attribute 20, 1
   5              		.eabi_attribute 21, 1
   6              		.eabi_attribute 23, 3
   7              		.eabi_attribute 24, 1
   8              		.eabi_attribute 25, 1
   9              		.eabi_attribute 26, 1
  10              		.eabi_attribute 30, 1
  11              		.eabi_attribute 34, 1
  12              		.eabi_attribute 18, 4
  13              		.thumb
  14              		.syntax unified
  15              		.file	"stm32f10x_gpio.c"
  16              		.text
  17              	.Ltext0:
  18              		.cfi_sections	.debug_frame
  19              		.section	.text.GPIO_DeInit,"ax",%progbits
  20              		.align	2
  21              		.global	GPIO_DeInit
  22              		.thumb
  23              		.thumb_func
  25              	GPIO_DeInit:
  26              	.LFB27:
  27              		.file 1 "STM32F10x_StdPeriph_Driver/src/stm32f10x_gpio.c"
   1:STM32F10x_StdPeriph_Driver/src/stm32f10x_gpio.c **** /**
   2:STM32F10x_StdPeriph_Driver/src/stm32f10x_gpio.c ****   ******************************************************************************
   3:STM32F10x_StdPeriph_Driver/src/stm32f10x_gpio.c ****   * @file    stm32f10x_gpio.c
   4:STM32F10x_StdPeriph_Driver/src/stm32f10x_gpio.c ****   * @author  MCD Application Team
   5:STM32F10x_StdPeriph_Driver/src/stm32f10x_gpio.c ****   * @version V3.1.2
   6:STM32F10x_StdPeriph_Driver/src/stm32f10x_gpio.c ****   * @date    09/28/2009
   7:STM32F10x_StdPeriph_Driver/src/stm32f10x_gpio.c ****   * @brief   This file provides all the GPIO firmware functions.
   8:STM32F10x_StdPeriph_Driver/src/stm32f10x_gpio.c ****   ******************************************************************************
   9:STM32F10x_StdPeriph_Driver/src/stm32f10x_gpio.c ****   * @copy
  10:STM32F10x_StdPeriph_Driver/src/stm32f10x_gpio.c ****   *
  11:STM32F10x_StdPeriph_Driver/src/stm32f10x_gpio.c ****   * THE PRESENT FIRMWARE WHICH IS FOR GUIDANCE ONLY AIMS AT PROVIDING CUSTOMERS
  12:STM32F10x_StdPeriph_Driver/src/stm32f10x_gpio.c ****   * WITH CODING INFORMATION REGARDING THEIR PRODUCTS IN ORDER FOR THEM TO SAVE
  13:STM32F10x_StdPeriph_Driver/src/stm32f10x_gpio.c ****   * TIME. AS A RESULT, STMICROELECTRONICS SHALL NOT BE HELD LIABLE FOR ANY
  14:STM32F10x_StdPeriph_Driver/src/stm32f10x_gpio.c ****   * DIRECT, INDIRECT OR CONSEQUENTIAL DAMAGES WITH RESPECT TO ANY CLAIMS ARISING
  15:STM32F10x_StdPeriph_Driver/src/stm32f10x_gpio.c ****   * FROM THE CONTENT OF SUCH FIRMWARE AND/OR THE USE MADE BY CUSTOMERS OF THE
  16:STM32F10x_StdPeriph_Driver/src/stm32f10x_gpio.c ****   * CODING INFORMATION CONTAINED HEREIN IN CONNECTION WITH THEIR PRODUCTS.
  17:STM32F10x_StdPeriph_Driver/src/stm32f10x_gpio.c ****   *
  18:STM32F10x_StdPeriph_Driver/src/stm32f10x_gpio.c ****   * <h2><center>&copy; COPYRIGHT 2009 STMicroelectronics</center></h2>
  19:STM32F10x_StdPeriph_Driver/src/stm32f10x_gpio.c ****   */ 
  20:STM32F10x_StdPeriph_Driver/src/stm32f10x_gpio.c **** 
  21:STM32F10x_StdPeriph_Driver/src/stm32f10x_gpio.c **** /* Includes ------------------------------------------------------------------*/
  22:STM32F10x_StdPeriph_Driver/src/stm32f10x_gpio.c **** #include "stm32f10x_gpio.h"
  23:STM32F10x_StdPeriph_Driver/src/stm32f10x_gpio.c **** #include "stm32f10x_rcc.h"
  24:STM32F10x_StdPeriph_Driver/src/stm32f10x_gpio.c **** 
  25:STM32F10x_StdPeriph_Driver/src/stm32f10x_gpio.c **** /** @addtogroup STM32F10x_StdPeriph_Driver
  26:STM32F10x_StdPeriph_Driver/src/stm32f10x_gpio.c ****   * @{
  27:STM32F10x_StdPeriph_Driver/src/stm32f10x_gpio.c ****   */
  28:STM32F10x_StdPeriph_Driver/src/stm32f10x_gpio.c **** 
  29:STM32F10x_StdPeriph_Driver/src/stm32f10x_gpio.c **** /** @defgroup GPIO 
  30:STM32F10x_StdPeriph_Driver/src/stm32f10x_gpio.c ****   * @brief GPIO driver modules
  31:STM32F10x_StdPeriph_Driver/src/stm32f10x_gpio.c ****   * @{
ARM GAS  /var/folders/g9/bbpj86ld7fx45vd1b3pqxmp00000gn/T//ccyF5Qxu.s 			page 2


  32:STM32F10x_StdPeriph_Driver/src/stm32f10x_gpio.c ****   */ 
  33:STM32F10x_StdPeriph_Driver/src/stm32f10x_gpio.c **** 
  34:STM32F10x_StdPeriph_Driver/src/stm32f10x_gpio.c **** /** @defgroup GPIO_Private_TypesDefinitions
  35:STM32F10x_StdPeriph_Driver/src/stm32f10x_gpio.c ****   * @{
  36:STM32F10x_StdPeriph_Driver/src/stm32f10x_gpio.c ****   */
  37:STM32F10x_StdPeriph_Driver/src/stm32f10x_gpio.c **** 
  38:STM32F10x_StdPeriph_Driver/src/stm32f10x_gpio.c **** /**
  39:STM32F10x_StdPeriph_Driver/src/stm32f10x_gpio.c ****   * @}
  40:STM32F10x_StdPeriph_Driver/src/stm32f10x_gpio.c ****   */
  41:STM32F10x_StdPeriph_Driver/src/stm32f10x_gpio.c **** 
  42:STM32F10x_StdPeriph_Driver/src/stm32f10x_gpio.c **** /** @defgroup GPIO_Private_Defines
  43:STM32F10x_StdPeriph_Driver/src/stm32f10x_gpio.c ****   * @{
  44:STM32F10x_StdPeriph_Driver/src/stm32f10x_gpio.c ****   */
  45:STM32F10x_StdPeriph_Driver/src/stm32f10x_gpio.c **** 
  46:STM32F10x_StdPeriph_Driver/src/stm32f10x_gpio.c **** /* ------------ RCC registers bit address in the alias region ----------------*/
  47:STM32F10x_StdPeriph_Driver/src/stm32f10x_gpio.c **** #define AFIO_OFFSET                 (AFIO_BASE - PERIPH_BASE)
  48:STM32F10x_StdPeriph_Driver/src/stm32f10x_gpio.c **** 
  49:STM32F10x_StdPeriph_Driver/src/stm32f10x_gpio.c **** /* --- EVENTCR Register -----*/
  50:STM32F10x_StdPeriph_Driver/src/stm32f10x_gpio.c **** 
  51:STM32F10x_StdPeriph_Driver/src/stm32f10x_gpio.c **** /* Alias word address of EVOE bit */
  52:STM32F10x_StdPeriph_Driver/src/stm32f10x_gpio.c **** #define EVCR_OFFSET                 (AFIO_OFFSET + 0x00)
  53:STM32F10x_StdPeriph_Driver/src/stm32f10x_gpio.c **** #define EVOE_BitNumber              ((uint8_t)0x07)
  54:STM32F10x_StdPeriph_Driver/src/stm32f10x_gpio.c **** #define EVCR_EVOE_BB                (PERIPH_BB_BASE + (EVCR_OFFSET * 32) + (EVOE_BitNumber * 4))
  55:STM32F10x_StdPeriph_Driver/src/stm32f10x_gpio.c **** 
  56:STM32F10x_StdPeriph_Driver/src/stm32f10x_gpio.c **** 
  57:STM32F10x_StdPeriph_Driver/src/stm32f10x_gpio.c **** /* ---  MAPR Register ---*/ 
  58:STM32F10x_StdPeriph_Driver/src/stm32f10x_gpio.c **** /* Alias word address of MII_RMII_SEL bit */ 
  59:STM32F10x_StdPeriph_Driver/src/stm32f10x_gpio.c **** #define MAPR_OFFSET                 (AFIO_OFFSET + 0x04) 
  60:STM32F10x_StdPeriph_Driver/src/stm32f10x_gpio.c **** #define MII_RMII_SEL_BitNumber      ((uint8_t)0x17) 
  61:STM32F10x_StdPeriph_Driver/src/stm32f10x_gpio.c **** #define MAPR_MII_RMII_SEL_BB        (PERIPH_BB_BASE + (MAPR_OFFSET * 32) + (MII_RMII_SEL_BitNumber 
  62:STM32F10x_StdPeriph_Driver/src/stm32f10x_gpio.c **** 
  63:STM32F10x_StdPeriph_Driver/src/stm32f10x_gpio.c **** 
  64:STM32F10x_StdPeriph_Driver/src/stm32f10x_gpio.c **** #define EVCR_PORTPINCONFIG_MASK     ((uint16_t)0xFF80)
  65:STM32F10x_StdPeriph_Driver/src/stm32f10x_gpio.c **** #define LSB_MASK                    ((uint16_t)0xFFFF)
  66:STM32F10x_StdPeriph_Driver/src/stm32f10x_gpio.c **** #define DBGAFR_POSITION_MASK        ((uint32_t)0x000F0000)
  67:STM32F10x_StdPeriph_Driver/src/stm32f10x_gpio.c **** #define DBGAFR_SWJCFG_MASK          ((uint32_t)0xF0FFFFFF)
  68:STM32F10x_StdPeriph_Driver/src/stm32f10x_gpio.c **** #define DBGAFR_LOCATION_MASK        ((uint32_t)0x00200000)
  69:STM32F10x_StdPeriph_Driver/src/stm32f10x_gpio.c **** #define DBGAFR_NUMBITS_MASK         ((uint32_t)0x00100000)
  70:STM32F10x_StdPeriph_Driver/src/stm32f10x_gpio.c **** /**
  71:STM32F10x_StdPeriph_Driver/src/stm32f10x_gpio.c ****   * @}
  72:STM32F10x_StdPeriph_Driver/src/stm32f10x_gpio.c ****   */
  73:STM32F10x_StdPeriph_Driver/src/stm32f10x_gpio.c **** 
  74:STM32F10x_StdPeriph_Driver/src/stm32f10x_gpio.c **** /** @defgroup GPIO_Private_Macros
  75:STM32F10x_StdPeriph_Driver/src/stm32f10x_gpio.c ****   * @{
  76:STM32F10x_StdPeriph_Driver/src/stm32f10x_gpio.c ****   */
  77:STM32F10x_StdPeriph_Driver/src/stm32f10x_gpio.c **** 
  78:STM32F10x_StdPeriph_Driver/src/stm32f10x_gpio.c **** /**
  79:STM32F10x_StdPeriph_Driver/src/stm32f10x_gpio.c ****   * @}
  80:STM32F10x_StdPeriph_Driver/src/stm32f10x_gpio.c ****   */
  81:STM32F10x_StdPeriph_Driver/src/stm32f10x_gpio.c **** 
  82:STM32F10x_StdPeriph_Driver/src/stm32f10x_gpio.c **** /** @defgroup GPIO_Private_Variables
  83:STM32F10x_StdPeriph_Driver/src/stm32f10x_gpio.c ****   * @{
  84:STM32F10x_StdPeriph_Driver/src/stm32f10x_gpio.c ****   */
  85:STM32F10x_StdPeriph_Driver/src/stm32f10x_gpio.c **** 
  86:STM32F10x_StdPeriph_Driver/src/stm32f10x_gpio.c **** /**
  87:STM32F10x_StdPeriph_Driver/src/stm32f10x_gpio.c ****   * @}
  88:STM32F10x_StdPeriph_Driver/src/stm32f10x_gpio.c ****   */
ARM GAS  /var/folders/g9/bbpj86ld7fx45vd1b3pqxmp00000gn/T//ccyF5Qxu.s 			page 3


  89:STM32F10x_StdPeriph_Driver/src/stm32f10x_gpio.c **** 
  90:STM32F10x_StdPeriph_Driver/src/stm32f10x_gpio.c **** /** @defgroup GPIO_Private_FunctionPrototypes
  91:STM32F10x_StdPeriph_Driver/src/stm32f10x_gpio.c ****   * @{
  92:STM32F10x_StdPeriph_Driver/src/stm32f10x_gpio.c ****   */
  93:STM32F10x_StdPeriph_Driver/src/stm32f10x_gpio.c **** 
  94:STM32F10x_StdPeriph_Driver/src/stm32f10x_gpio.c **** /**
  95:STM32F10x_StdPeriph_Driver/src/stm32f10x_gpio.c ****   * @}
  96:STM32F10x_StdPeriph_Driver/src/stm32f10x_gpio.c ****   */
  97:STM32F10x_StdPeriph_Driver/src/stm32f10x_gpio.c **** 
  98:STM32F10x_StdPeriph_Driver/src/stm32f10x_gpio.c **** /** @defgroup GPIO_Private_Functions
  99:STM32F10x_StdPeriph_Driver/src/stm32f10x_gpio.c ****   * @{
 100:STM32F10x_StdPeriph_Driver/src/stm32f10x_gpio.c ****   */
 101:STM32F10x_StdPeriph_Driver/src/stm32f10x_gpio.c **** 
 102:STM32F10x_StdPeriph_Driver/src/stm32f10x_gpio.c **** /**
 103:STM32F10x_StdPeriph_Driver/src/stm32f10x_gpio.c ****   * @brief  Deinitializes the GPIOx peripheral registers to their default reset values.
 104:STM32F10x_StdPeriph_Driver/src/stm32f10x_gpio.c ****   * @param  GPIOx: where x can be (A..G) to select the GPIO peripheral.
 105:STM32F10x_StdPeriph_Driver/src/stm32f10x_gpio.c ****   * @retval None
 106:STM32F10x_StdPeriph_Driver/src/stm32f10x_gpio.c ****   */
 107:STM32F10x_StdPeriph_Driver/src/stm32f10x_gpio.c **** void GPIO_DeInit(GPIO_TypeDef* GPIOx)
 108:STM32F10x_StdPeriph_Driver/src/stm32f10x_gpio.c **** {
  28              		.loc 1 108 0
  29              		.cfi_startproc
  30              		@ args = 0, pretend = 0, frame = 0
  31              		@ frame_needed = 0, uses_anonymous_args = 0
  32              	.LVL0:
  33 0000 10B5     		push	{r4, lr}
  34              	.LCFI0:
  35              		.cfi_def_cfa_offset 8
  36              		.cfi_offset 4, -8
  37              		.cfi_offset 14, -4
  38 0002 0446     		mov	r4, r0
 109:STM32F10x_StdPeriph_Driver/src/stm32f10x_gpio.c ****   /* Check the parameters */
 110:STM32F10x_StdPeriph_Driver/src/stm32f10x_gpio.c ****   assert_param(IS_GPIO_ALL_PERIPH(GPIOx));
  39              		.loc 1 110 0
  40 0004 3A4B     		ldr	r3, .L11
  41 0006 9842     		cmp	r0, r3
  42 0008 1BD0     		beq	.L2
  43              		.loc 1 110 0 is_stmt 0 discriminator 1
  44 000a 03F58063 		add	r3, r3, #1024
  45 000e 9842     		cmp	r0, r3
  46 0010 17D0     		beq	.L2
  47              		.loc 1 110 0 discriminator 2
  48 0012 03F58063 		add	r3, r3, #1024
  49 0016 9842     		cmp	r0, r3
  50 0018 13D0     		beq	.L2
  51              		.loc 1 110 0 discriminator 3
  52 001a 03F58063 		add	r3, r3, #1024
  53 001e 9842     		cmp	r0, r3
  54 0020 0FD0     		beq	.L2
  55              		.loc 1 110 0 discriminator 4
  56 0022 03F58063 		add	r3, r3, #1024
  57 0026 9842     		cmp	r0, r3
  58 0028 0BD0     		beq	.L2
  59              		.loc 1 110 0 discriminator 5
  60 002a 03F58063 		add	r3, r3, #1024
  61 002e 9842     		cmp	r0, r3
  62 0030 07D0     		beq	.L2
ARM GAS  /var/folders/g9/bbpj86ld7fx45vd1b3pqxmp00000gn/T//ccyF5Qxu.s 			page 4


  63              		.loc 1 110 0 discriminator 6
  64 0032 03F58063 		add	r3, r3, #1024
  65 0036 9842     		cmp	r0, r3
  66 0038 03D0     		beq	.L2
  67              		.loc 1 110 0 discriminator 7
  68 003a 6E21     		movs	r1, #110
  69 003c 2D48     		ldr	r0, .L11+4
  70              	.LVL1:
  71 003e FFF7FEFF 		bl	assert_failed
  72              	.LVL2:
  73              	.L2:
 111:STM32F10x_StdPeriph_Driver/src/stm32f10x_gpio.c ****   
 112:STM32F10x_StdPeriph_Driver/src/stm32f10x_gpio.c ****   if (GPIOx == GPIOA)
  74              		.loc 1 112 0 is_stmt 1
  75 0042 2B4B     		ldr	r3, .L11
  76 0044 9C42     		cmp	r4, r3
  77 0046 08D1     		bne	.L3
 113:STM32F10x_StdPeriph_Driver/src/stm32f10x_gpio.c ****   {
 114:STM32F10x_StdPeriph_Driver/src/stm32f10x_gpio.c ****     RCC_APB2PeriphResetCmd(RCC_APB2Periph_GPIOA, ENABLE);
  78              		.loc 1 114 0
  79 0048 0121     		movs	r1, #1
  80 004a 0420     		movs	r0, #4
  81 004c FFF7FEFF 		bl	RCC_APB2PeriphResetCmd
  82              	.LVL3:
 115:STM32F10x_StdPeriph_Driver/src/stm32f10x_gpio.c ****     RCC_APB2PeriphResetCmd(RCC_APB2Periph_GPIOA, DISABLE);
  83              		.loc 1 115 0
  84 0050 0021     		movs	r1, #0
  85 0052 0420     		movs	r0, #4
  86 0054 FFF7FEFF 		bl	RCC_APB2PeriphResetCmd
  87              	.LVL4:
  88 0058 10BD     		pop	{r4, pc}
  89              	.LVL5:
  90              	.L3:
 116:STM32F10x_StdPeriph_Driver/src/stm32f10x_gpio.c ****   }
 117:STM32F10x_StdPeriph_Driver/src/stm32f10x_gpio.c ****   else if (GPIOx == GPIOB)
  91              		.loc 1 117 0
  92 005a 274B     		ldr	r3, .L11+8
  93 005c 9C42     		cmp	r4, r3
  94 005e 08D1     		bne	.L5
 118:STM32F10x_StdPeriph_Driver/src/stm32f10x_gpio.c ****   {
 119:STM32F10x_StdPeriph_Driver/src/stm32f10x_gpio.c ****     RCC_APB2PeriphResetCmd(RCC_APB2Periph_GPIOB, ENABLE);
  95              		.loc 1 119 0
  96 0060 0121     		movs	r1, #1
  97 0062 0820     		movs	r0, #8
  98 0064 FFF7FEFF 		bl	RCC_APB2PeriphResetCmd
  99              	.LVL6:
 120:STM32F10x_StdPeriph_Driver/src/stm32f10x_gpio.c ****     RCC_APB2PeriphResetCmd(RCC_APB2Periph_GPIOB, DISABLE);
 100              		.loc 1 120 0
 101 0068 0021     		movs	r1, #0
 102 006a 0820     		movs	r0, #8
 103 006c FFF7FEFF 		bl	RCC_APB2PeriphResetCmd
 104              	.LVL7:
 105 0070 10BD     		pop	{r4, pc}
 106              	.LVL8:
 107              	.L5:
 121:STM32F10x_StdPeriph_Driver/src/stm32f10x_gpio.c ****   }
 122:STM32F10x_StdPeriph_Driver/src/stm32f10x_gpio.c ****   else if (GPIOx == GPIOC)
ARM GAS  /var/folders/g9/bbpj86ld7fx45vd1b3pqxmp00000gn/T//ccyF5Qxu.s 			page 5


 108              		.loc 1 122 0
 109 0072 224B     		ldr	r3, .L11+12
 110 0074 9C42     		cmp	r4, r3
 111 0076 08D1     		bne	.L6
 123:STM32F10x_StdPeriph_Driver/src/stm32f10x_gpio.c ****   {
 124:STM32F10x_StdPeriph_Driver/src/stm32f10x_gpio.c ****     RCC_APB2PeriphResetCmd(RCC_APB2Periph_GPIOC, ENABLE);
 112              		.loc 1 124 0
 113 0078 0121     		movs	r1, #1
 114 007a 1020     		movs	r0, #16
 115 007c FFF7FEFF 		bl	RCC_APB2PeriphResetCmd
 116              	.LVL9:
 125:STM32F10x_StdPeriph_Driver/src/stm32f10x_gpio.c ****     RCC_APB2PeriphResetCmd(RCC_APB2Periph_GPIOC, DISABLE);
 117              		.loc 1 125 0
 118 0080 0021     		movs	r1, #0
 119 0082 1020     		movs	r0, #16
 120 0084 FFF7FEFF 		bl	RCC_APB2PeriphResetCmd
 121              	.LVL10:
 122 0088 10BD     		pop	{r4, pc}
 123              	.LVL11:
 124              	.L6:
 126:STM32F10x_StdPeriph_Driver/src/stm32f10x_gpio.c ****   }
 127:STM32F10x_StdPeriph_Driver/src/stm32f10x_gpio.c ****   else if (GPIOx == GPIOD)
 125              		.loc 1 127 0
 126 008a 1D4B     		ldr	r3, .L11+16
 127 008c 9C42     		cmp	r4, r3
 128 008e 08D1     		bne	.L7
 128:STM32F10x_StdPeriph_Driver/src/stm32f10x_gpio.c ****   {
 129:STM32F10x_StdPeriph_Driver/src/stm32f10x_gpio.c ****     RCC_APB2PeriphResetCmd(RCC_APB2Periph_GPIOD, ENABLE);
 129              		.loc 1 129 0
 130 0090 0121     		movs	r1, #1
 131 0092 2020     		movs	r0, #32
 132 0094 FFF7FEFF 		bl	RCC_APB2PeriphResetCmd
 133              	.LVL12:
 130:STM32F10x_StdPeriph_Driver/src/stm32f10x_gpio.c ****     RCC_APB2PeriphResetCmd(RCC_APB2Periph_GPIOD, DISABLE);
 134              		.loc 1 130 0
 135 0098 0021     		movs	r1, #0
 136 009a 2020     		movs	r0, #32
 137 009c FFF7FEFF 		bl	RCC_APB2PeriphResetCmd
 138              	.LVL13:
 139 00a0 10BD     		pop	{r4, pc}
 140              	.LVL14:
 141              	.L7:
 131:STM32F10x_StdPeriph_Driver/src/stm32f10x_gpio.c ****   }    
 132:STM32F10x_StdPeriph_Driver/src/stm32f10x_gpio.c ****   else if (GPIOx == GPIOE)
 142              		.loc 1 132 0
 143 00a2 184B     		ldr	r3, .L11+20
 144 00a4 9C42     		cmp	r4, r3
 145 00a6 08D1     		bne	.L8
 133:STM32F10x_StdPeriph_Driver/src/stm32f10x_gpio.c ****   {
 134:STM32F10x_StdPeriph_Driver/src/stm32f10x_gpio.c ****     RCC_APB2PeriphResetCmd(RCC_APB2Periph_GPIOE, ENABLE);
 146              		.loc 1 134 0
 147 00a8 0121     		movs	r1, #1
 148 00aa 4020     		movs	r0, #64
 149 00ac FFF7FEFF 		bl	RCC_APB2PeriphResetCmd
 150              	.LVL15:
 135:STM32F10x_StdPeriph_Driver/src/stm32f10x_gpio.c ****     RCC_APB2PeriphResetCmd(RCC_APB2Periph_GPIOE, DISABLE);
 151              		.loc 1 135 0
ARM GAS  /var/folders/g9/bbpj86ld7fx45vd1b3pqxmp00000gn/T//ccyF5Qxu.s 			page 6


 152 00b0 0021     		movs	r1, #0
 153 00b2 4020     		movs	r0, #64
 154 00b4 FFF7FEFF 		bl	RCC_APB2PeriphResetCmd
 155              	.LVL16:
 156 00b8 10BD     		pop	{r4, pc}
 157              	.LVL17:
 158              	.L8:
 136:STM32F10x_StdPeriph_Driver/src/stm32f10x_gpio.c ****   } 
 137:STM32F10x_StdPeriph_Driver/src/stm32f10x_gpio.c ****   else if (GPIOx == GPIOF)
 159              		.loc 1 137 0
 160 00ba 134B     		ldr	r3, .L11+24
 161 00bc 9C42     		cmp	r4, r3
 162 00be 08D1     		bne	.L9
 138:STM32F10x_StdPeriph_Driver/src/stm32f10x_gpio.c ****   {
 139:STM32F10x_StdPeriph_Driver/src/stm32f10x_gpio.c ****     RCC_APB2PeriphResetCmd(RCC_APB2Periph_GPIOF, ENABLE);
 163              		.loc 1 139 0
 164 00c0 0121     		movs	r1, #1
 165 00c2 8020     		movs	r0, #128
 166 00c4 FFF7FEFF 		bl	RCC_APB2PeriphResetCmd
 167              	.LVL18:
 140:STM32F10x_StdPeriph_Driver/src/stm32f10x_gpio.c ****     RCC_APB2PeriphResetCmd(RCC_APB2Periph_GPIOF, DISABLE);
 168              		.loc 1 140 0
 169 00c8 0021     		movs	r1, #0
 170 00ca 8020     		movs	r0, #128
 171 00cc FFF7FEFF 		bl	RCC_APB2PeriphResetCmd
 172              	.LVL19:
 173 00d0 10BD     		pop	{r4, pc}
 174              	.LVL20:
 175              	.L9:
 141:STM32F10x_StdPeriph_Driver/src/stm32f10x_gpio.c ****   }
 142:STM32F10x_StdPeriph_Driver/src/stm32f10x_gpio.c ****   else
 143:STM32F10x_StdPeriph_Driver/src/stm32f10x_gpio.c ****   {
 144:STM32F10x_StdPeriph_Driver/src/stm32f10x_gpio.c ****     if (GPIOx == GPIOG)
 176              		.loc 1 144 0
 177 00d2 0E4B     		ldr	r3, .L11+28
 178 00d4 9C42     		cmp	r4, r3
 179 00d6 09D1     		bne	.L1
 145:STM32F10x_StdPeriph_Driver/src/stm32f10x_gpio.c ****     {
 146:STM32F10x_StdPeriph_Driver/src/stm32f10x_gpio.c ****       RCC_APB2PeriphResetCmd(RCC_APB2Periph_GPIOG, ENABLE);
 180              		.loc 1 146 0
 181 00d8 0121     		movs	r1, #1
 182 00da 4FF48070 		mov	r0, #256
 183 00de FFF7FEFF 		bl	RCC_APB2PeriphResetCmd
 184              	.LVL21:
 147:STM32F10x_StdPeriph_Driver/src/stm32f10x_gpio.c ****       RCC_APB2PeriphResetCmd(RCC_APB2Periph_GPIOG, DISABLE);
 185              		.loc 1 147 0
 186 00e2 0021     		movs	r1, #0
 187 00e4 4FF48070 		mov	r0, #256
 188 00e8 FFF7FEFF 		bl	RCC_APB2PeriphResetCmd
 189              	.LVL22:
 190              	.L1:
 191 00ec 10BD     		pop	{r4, pc}
 192              	.LVL23:
 193              	.L12:
 194 00ee 00BF     		.align	2
 195              	.L11:
 196 00f0 00080140 		.word	1073809408
ARM GAS  /var/folders/g9/bbpj86ld7fx45vd1b3pqxmp00000gn/T//ccyF5Qxu.s 			page 7


 197 00f4 00000000 		.word	.LC0
 198 00f8 000C0140 		.word	1073810432
 199 00fc 00100140 		.word	1073811456
 200 0100 00140140 		.word	1073812480
 201 0104 00180140 		.word	1073813504
 202 0108 001C0140 		.word	1073814528
 203 010c 00200140 		.word	1073815552
 204              		.cfi_endproc
 205              	.LFE27:
 207              		.section	.text.GPIO_AFIODeInit,"ax",%progbits
 208              		.align	2
 209              		.global	GPIO_AFIODeInit
 210              		.thumb
 211              		.thumb_func
 213              	GPIO_AFIODeInit:
 214              	.LFB28:
 148:STM32F10x_StdPeriph_Driver/src/stm32f10x_gpio.c ****     }
 149:STM32F10x_StdPeriph_Driver/src/stm32f10x_gpio.c ****   }
 150:STM32F10x_StdPeriph_Driver/src/stm32f10x_gpio.c **** }
 151:STM32F10x_StdPeriph_Driver/src/stm32f10x_gpio.c **** 
 152:STM32F10x_StdPeriph_Driver/src/stm32f10x_gpio.c **** /**
 153:STM32F10x_StdPeriph_Driver/src/stm32f10x_gpio.c ****   * @brief  Deinitializes the Alternate Functions (remap, event control
 154:STM32F10x_StdPeriph_Driver/src/stm32f10x_gpio.c ****   *   and EXTI configuration) registers to their default reset values.
 155:STM32F10x_StdPeriph_Driver/src/stm32f10x_gpio.c ****   * @param  None
 156:STM32F10x_StdPeriph_Driver/src/stm32f10x_gpio.c ****   * @retval None
 157:STM32F10x_StdPeriph_Driver/src/stm32f10x_gpio.c ****   */
 158:STM32F10x_StdPeriph_Driver/src/stm32f10x_gpio.c **** void GPIO_AFIODeInit(void)
 159:STM32F10x_StdPeriph_Driver/src/stm32f10x_gpio.c **** {
 215              		.loc 1 159 0
 216              		.cfi_startproc
 217              		@ args = 0, pretend = 0, frame = 0
 218              		@ frame_needed = 0, uses_anonymous_args = 0
 219 0000 08B5     		push	{r3, lr}
 220              	.LCFI1:
 221              		.cfi_def_cfa_offset 8
 222              		.cfi_offset 3, -8
 223              		.cfi_offset 14, -4
 160:STM32F10x_StdPeriph_Driver/src/stm32f10x_gpio.c ****   RCC_APB2PeriphResetCmd(RCC_APB2Periph_AFIO, ENABLE);
 224              		.loc 1 160 0
 225 0002 0121     		movs	r1, #1
 226 0004 0846     		mov	r0, r1
 227 0006 FFF7FEFF 		bl	RCC_APB2PeriphResetCmd
 228              	.LVL24:
 161:STM32F10x_StdPeriph_Driver/src/stm32f10x_gpio.c ****   RCC_APB2PeriphResetCmd(RCC_APB2Periph_AFIO, DISABLE);
 229              		.loc 1 161 0
 230 000a 0021     		movs	r1, #0
 231 000c 0120     		movs	r0, #1
 232 000e FFF7FEFF 		bl	RCC_APB2PeriphResetCmd
 233              	.LVL25:
 234 0012 08BD     		pop	{r3, pc}
 235              		.cfi_endproc
 236              	.LFE28:
 238              		.section	.text.GPIO_Init,"ax",%progbits
 239              		.align	2
 240              		.global	GPIO_Init
 241              		.thumb
 242              		.thumb_func
ARM GAS  /var/folders/g9/bbpj86ld7fx45vd1b3pqxmp00000gn/T//ccyF5Qxu.s 			page 8


 244              	GPIO_Init:
 245              	.LFB29:
 162:STM32F10x_StdPeriph_Driver/src/stm32f10x_gpio.c **** }
 163:STM32F10x_StdPeriph_Driver/src/stm32f10x_gpio.c **** 
 164:STM32F10x_StdPeriph_Driver/src/stm32f10x_gpio.c **** /**
 165:STM32F10x_StdPeriph_Driver/src/stm32f10x_gpio.c ****   * @brief  Initializes the GPIOx peripheral according to the specified
 166:STM32F10x_StdPeriph_Driver/src/stm32f10x_gpio.c ****   *   parameters in the GPIO_InitStruct.
 167:STM32F10x_StdPeriph_Driver/src/stm32f10x_gpio.c ****   * @param  GPIOx: where x can be (A..G) to select the GPIO peripheral.
 168:STM32F10x_StdPeriph_Driver/src/stm32f10x_gpio.c ****   * @param  GPIO_InitStruct: pointer to a GPIO_InitTypeDef structure that
 169:STM32F10x_StdPeriph_Driver/src/stm32f10x_gpio.c ****   *   contains the configuration information for the specified GPIO peripheral.
 170:STM32F10x_StdPeriph_Driver/src/stm32f10x_gpio.c ****   * @retval None
 171:STM32F10x_StdPeriph_Driver/src/stm32f10x_gpio.c ****   */
 172:STM32F10x_StdPeriph_Driver/src/stm32f10x_gpio.c **** void GPIO_Init(GPIO_TypeDef* GPIOx, GPIO_InitTypeDef* GPIO_InitStruct)
 173:STM32F10x_StdPeriph_Driver/src/stm32f10x_gpio.c **** {
 246              		.loc 1 173 0
 247              		.cfi_startproc
 248              		@ args = 0, pretend = 0, frame = 0
 249              		@ frame_needed = 0, uses_anonymous_args = 0
 250              	.LVL26:
 251 0000 F8B5     		push	{r3, r4, r5, r6, r7, lr}
 252              	.LCFI2:
 253              		.cfi_def_cfa_offset 24
 254              		.cfi_offset 3, -24
 255              		.cfi_offset 4, -20
 256              		.cfi_offset 5, -16
 257              		.cfi_offset 6, -12
 258              		.cfi_offset 7, -8
 259              		.cfi_offset 14, -4
 260 0002 0546     		mov	r5, r0
 261 0004 0C46     		mov	r4, r1
 262              	.LVL27:
 174:STM32F10x_StdPeriph_Driver/src/stm32f10x_gpio.c ****   uint32_t currentmode = 0x00, currentpin = 0x00, pinpos = 0x00, pos = 0x00;
 175:STM32F10x_StdPeriph_Driver/src/stm32f10x_gpio.c ****   uint32_t tmpreg = 0x00, pinmask = 0x00;
 176:STM32F10x_StdPeriph_Driver/src/stm32f10x_gpio.c ****   /* Check the parameters */
 177:STM32F10x_StdPeriph_Driver/src/stm32f10x_gpio.c ****   assert_param(IS_GPIO_ALL_PERIPH(GPIOx));
 263              		.loc 1 177 0
 264 0006 464B     		ldr	r3, .L32
 265 0008 9842     		cmp	r0, r3
 266 000a 1BD0     		beq	.L16
 267              		.loc 1 177 0 is_stmt 0 discriminator 1
 268 000c 03F58063 		add	r3, r3, #1024
 269 0010 9842     		cmp	r0, r3
 270 0012 17D0     		beq	.L16
 271              		.loc 1 177 0 discriminator 2
 272 0014 03F58063 		add	r3, r3, #1024
 273 0018 9842     		cmp	r0, r3
 274 001a 13D0     		beq	.L16
 275              		.loc 1 177 0 discriminator 3
 276 001c 03F58063 		add	r3, r3, #1024
 277 0020 9842     		cmp	r0, r3
 278 0022 0FD0     		beq	.L16
 279              		.loc 1 177 0 discriminator 4
 280 0024 03F58063 		add	r3, r3, #1024
 281 0028 9842     		cmp	r0, r3
 282 002a 0BD0     		beq	.L16
 283              		.loc 1 177 0 discriminator 5
 284 002c 03F58063 		add	r3, r3, #1024
ARM GAS  /var/folders/g9/bbpj86ld7fx45vd1b3pqxmp00000gn/T//ccyF5Qxu.s 			page 9


 285 0030 9842     		cmp	r0, r3
 286 0032 07D0     		beq	.L16
 287              		.loc 1 177 0 discriminator 6
 288 0034 03F58063 		add	r3, r3, #1024
 289 0038 9842     		cmp	r0, r3
 290 003a 03D0     		beq	.L16
 291              		.loc 1 177 0 discriminator 7
 292 003c B121     		movs	r1, #177
 293              	.LVL28:
 294 003e 3948     		ldr	r0, .L32+4
 295              	.LVL29:
 296 0040 FFF7FEFF 		bl	assert_failed
 297              	.LVL30:
 298              	.L16:
 178:STM32F10x_StdPeriph_Driver/src/stm32f10x_gpio.c ****   assert_param(IS_GPIO_MODE(GPIO_InitStruct->GPIO_Mode));
 299              		.loc 1 178 0 is_stmt 1
 300 0044 E378     		ldrb	r3, [r4, #3]	@ zero_extendqisi2
 301 0046 8BB1     		cbz	r3, .L17
 302              		.loc 1 178 0 is_stmt 0 discriminator 1
 303 0048 042B     		cmp	r3, #4
 304 004a 0FD0     		beq	.L17
 305              		.loc 1 178 0 discriminator 2
 306 004c 282B     		cmp	r3, #40
 307 004e 0DD0     		beq	.L17
 308              		.loc 1 178 0 discriminator 3
 309 0050 482B     		cmp	r3, #72
 310 0052 0BD0     		beq	.L17
 311              		.loc 1 178 0 discriminator 4
 312 0054 142B     		cmp	r3, #20
 313 0056 09D0     		beq	.L17
 314              		.loc 1 178 0 discriminator 5
 315 0058 102B     		cmp	r3, #16
 316 005a 07D0     		beq	.L17
 317              		.loc 1 178 0 discriminator 6
 318 005c 1C2B     		cmp	r3, #28
 319 005e 05D0     		beq	.L17
 320              		.loc 1 178 0 discriminator 7
 321 0060 182B     		cmp	r3, #24
 322 0062 03D0     		beq	.L17
 323              		.loc 1 178 0 discriminator 8
 324 0064 B221     		movs	r1, #178
 325 0066 2F48     		ldr	r0, .L32+4
 326 0068 FFF7FEFF 		bl	assert_failed
 327              	.LVL31:
 328              	.L17:
 179:STM32F10x_StdPeriph_Driver/src/stm32f10x_gpio.c ****   assert_param(IS_GPIO_PIN(GPIO_InitStruct->GPIO_Pin));  
 329              		.loc 1 179 0 is_stmt 1
 330 006c 2388     		ldrh	r3, [r4]
 331 006e 1BB9     		cbnz	r3, .L18
 332              		.loc 1 179 0 is_stmt 0 discriminator 1
 333 0070 B321     		movs	r1, #179
 334 0072 2C48     		ldr	r0, .L32+4
 335 0074 FFF7FEFF 		bl	assert_failed
 336              	.LVL32:
 337              	.L18:
 180:STM32F10x_StdPeriph_Driver/src/stm32f10x_gpio.c ****   
 181:STM32F10x_StdPeriph_Driver/src/stm32f10x_gpio.c **** /*---------------------------- GPIO Mode Configuration -----------------------*/
ARM GAS  /var/folders/g9/bbpj86ld7fx45vd1b3pqxmp00000gn/T//ccyF5Qxu.s 			page 10


 182:STM32F10x_StdPeriph_Driver/src/stm32f10x_gpio.c ****   currentmode = ((uint32_t)GPIO_InitStruct->GPIO_Mode) & ((uint32_t)0x0F);
 338              		.loc 1 182 0 is_stmt 1
 339 0078 E378     		ldrb	r3, [r4, #3]	@ zero_extendqisi2
 340 007a 03F00F06 		and	r6, r3, #15
 341 007e 3046     		mov	r0, r6
 342              	.LVL33:
 183:STM32F10x_StdPeriph_Driver/src/stm32f10x_gpio.c ****   if ((((uint32_t)GPIO_InitStruct->GPIO_Mode) & ((uint32_t)0x10)) != 0x00)
 343              		.loc 1 183 0
 344 0080 13F0100F 		tst	r3, #16
 345 0084 0AD0     		beq	.L19
 184:STM32F10x_StdPeriph_Driver/src/stm32f10x_gpio.c ****   { 
 185:STM32F10x_StdPeriph_Driver/src/stm32f10x_gpio.c ****     /* Check the parameters */
 186:STM32F10x_StdPeriph_Driver/src/stm32f10x_gpio.c ****     assert_param(IS_GPIO_SPEED(GPIO_InitStruct->GPIO_Speed));
 346              		.loc 1 186 0
 347 0086 A378     		ldrb	r3, [r4, #2]	@ zero_extendqisi2
 348 0088 013B     		subs	r3, r3, #1
 349 008a DBB2     		uxtb	r3, r3
 350 008c 022B     		cmp	r3, #2
 351 008e 03D9     		bls	.L20
 352              		.loc 1 186 0 is_stmt 0 discriminator 1
 353 0090 BA21     		movs	r1, #186
 354 0092 2448     		ldr	r0, .L32+4
 355              	.LVL34:
 356 0094 FFF7FEFF 		bl	assert_failed
 357              	.LVL35:
 358              	.L20:
 187:STM32F10x_StdPeriph_Driver/src/stm32f10x_gpio.c ****     /* Output mode */
 188:STM32F10x_StdPeriph_Driver/src/stm32f10x_gpio.c ****     currentmode |= (uint32_t)GPIO_InitStruct->GPIO_Speed;
 359              		.loc 1 188 0 is_stmt 1
 360 0098 A078     		ldrb	r0, [r4, #2]	@ zero_extendqisi2
 361 009a 3043     		orrs	r0, r0, r6
 362              	.LVL36:
 363              	.L19:
 189:STM32F10x_StdPeriph_Driver/src/stm32f10x_gpio.c ****   }
 190:STM32F10x_StdPeriph_Driver/src/stm32f10x_gpio.c **** /*---------------------------- GPIO CRL Configuration ------------------------*/
 191:STM32F10x_StdPeriph_Driver/src/stm32f10x_gpio.c ****   /* Configure the eight low port pins */
 192:STM32F10x_StdPeriph_Driver/src/stm32f10x_gpio.c ****   if (((uint32_t)GPIO_InitStruct->GPIO_Pin & ((uint32_t)0x00FF)) != 0x00)
 364              		.loc 1 192 0
 365 009c 2378     		ldrb	r3, [r4]	@ zero_extendqisi2
 366 009e E3B1     		cbz	r3, .L21
 193:STM32F10x_StdPeriph_Driver/src/stm32f10x_gpio.c ****   {
 194:STM32F10x_StdPeriph_Driver/src/stm32f10x_gpio.c ****     tmpreg = GPIOx->CRL;
 367              		.loc 1 194 0
 368 00a0 2E68     		ldr	r6, [r5]
 369              	.LVL37:
 195:STM32F10x_StdPeriph_Driver/src/stm32f10x_gpio.c ****     for (pinpos = 0x00; pinpos < 0x08; pinpos++)
 370              		.loc 1 195 0
 371 00a2 0023     		movs	r3, #0
 372 00a4 16E0     		b	.L22
 373              	.LVL38:
 374              	.L25:
 196:STM32F10x_StdPeriph_Driver/src/stm32f10x_gpio.c ****     {
 197:STM32F10x_StdPeriph_Driver/src/stm32f10x_gpio.c ****       pos = ((uint32_t)0x01) << pinpos;
 375              		.loc 1 197 0
 376 00a6 0122     		movs	r2, #1
 377 00a8 9A40     		lsls	r2, r2, r3
 378              	.LVL39:
ARM GAS  /var/folders/g9/bbpj86ld7fx45vd1b3pqxmp00000gn/T//ccyF5Qxu.s 			page 11


 198:STM32F10x_StdPeriph_Driver/src/stm32f10x_gpio.c ****       /* Get the port pins position */
 199:STM32F10x_StdPeriph_Driver/src/stm32f10x_gpio.c ****       currentpin = (GPIO_InitStruct->GPIO_Pin) & pos;
 379              		.loc 1 199 0
 380 00aa 2188     		ldrh	r1, [r4]
 381              	.LVL40:
 200:STM32F10x_StdPeriph_Driver/src/stm32f10x_gpio.c ****       if (currentpin == pos)
 382              		.loc 1 200 0
 383 00ac 32EA0101 		bics	r1, r2, r1
 384              	.LVL41:
 385 00b0 0FD1     		bne	.L23
 201:STM32F10x_StdPeriph_Driver/src/stm32f10x_gpio.c ****       {
 202:STM32F10x_StdPeriph_Driver/src/stm32f10x_gpio.c ****         pos = pinpos << 2;
 386              		.loc 1 202 0
 387 00b2 9900     		lsls	r1, r3, #2
 388              	.LVL42:
 203:STM32F10x_StdPeriph_Driver/src/stm32f10x_gpio.c ****         /* Clear the corresponding low control register bits */
 204:STM32F10x_StdPeriph_Driver/src/stm32f10x_gpio.c ****         pinmask = ((uint32_t)0x0F) << pos;
 389              		.loc 1 204 0
 390 00b4 0F27     		movs	r7, #15
 391 00b6 8F40     		lsls	r7, r7, r1
 392              	.LVL43:
 205:STM32F10x_StdPeriph_Driver/src/stm32f10x_gpio.c ****         tmpreg &= ~pinmask;
 393              		.loc 1 205 0
 394 00b8 26EA0706 		bic	r6, r6, r7
 395              	.LVL44:
 206:STM32F10x_StdPeriph_Driver/src/stm32f10x_gpio.c ****         /* Write the mode configuration in the corresponding bits */
 207:STM32F10x_StdPeriph_Driver/src/stm32f10x_gpio.c ****         tmpreg |= (currentmode << pos);
 396              		.loc 1 207 0
 397 00bc 00FA01F1 		lsl	r1, r0, r1
 398              	.LVL45:
 399 00c0 0E43     		orrs	r6, r6, r1
 400              	.LVL46:
 208:STM32F10x_StdPeriph_Driver/src/stm32f10x_gpio.c ****         /* Reset the corresponding ODR bit */
 209:STM32F10x_StdPeriph_Driver/src/stm32f10x_gpio.c ****         if (GPIO_InitStruct->GPIO_Mode == GPIO_Mode_IPD)
 401              		.loc 1 209 0
 402 00c2 E178     		ldrb	r1, [r4, #3]	@ zero_extendqisi2
 403 00c4 2829     		cmp	r1, #40
 404 00c6 01D1     		bne	.L24
 210:STM32F10x_StdPeriph_Driver/src/stm32f10x_gpio.c ****         {
 211:STM32F10x_StdPeriph_Driver/src/stm32f10x_gpio.c ****           GPIOx->BRR = (((uint32_t)0x01) << pinpos);
 405              		.loc 1 211 0
 406 00c8 6A61     		str	r2, [r5, #20]
 407              	.LVL47:
 408 00ca 02E0     		b	.L23
 409              	.LVL48:
 410              	.L24:
 212:STM32F10x_StdPeriph_Driver/src/stm32f10x_gpio.c ****         }
 213:STM32F10x_StdPeriph_Driver/src/stm32f10x_gpio.c ****         else
 214:STM32F10x_StdPeriph_Driver/src/stm32f10x_gpio.c ****         {
 215:STM32F10x_StdPeriph_Driver/src/stm32f10x_gpio.c ****           /* Set the corresponding ODR bit */
 216:STM32F10x_StdPeriph_Driver/src/stm32f10x_gpio.c ****           if (GPIO_InitStruct->GPIO_Mode == GPIO_Mode_IPU)
 411              		.loc 1 216 0
 412 00cc 4829     		cmp	r1, #72
 413 00ce 00D1     		bne	.L23
 217:STM32F10x_StdPeriph_Driver/src/stm32f10x_gpio.c ****           {
 218:STM32F10x_StdPeriph_Driver/src/stm32f10x_gpio.c ****             GPIOx->BSRR = (((uint32_t)0x01) << pinpos);
 414              		.loc 1 218 0
ARM GAS  /var/folders/g9/bbpj86ld7fx45vd1b3pqxmp00000gn/T//ccyF5Qxu.s 			page 12


 415 00d0 2A61     		str	r2, [r5, #16]
 416              	.LVL49:
 417              	.L23:
 195:STM32F10x_StdPeriph_Driver/src/stm32f10x_gpio.c ****     {
 418              		.loc 1 195 0 discriminator 2
 419 00d2 0133     		adds	r3, r3, #1
 420              	.LVL50:
 421              	.L22:
 195:STM32F10x_StdPeriph_Driver/src/stm32f10x_gpio.c ****     {
 422              		.loc 1 195 0 is_stmt 0 discriminator 1
 423 00d4 072B     		cmp	r3, #7
 424 00d6 E6D9     		bls	.L25
 219:STM32F10x_StdPeriph_Driver/src/stm32f10x_gpio.c ****           }
 220:STM32F10x_StdPeriph_Driver/src/stm32f10x_gpio.c ****         }
 221:STM32F10x_StdPeriph_Driver/src/stm32f10x_gpio.c ****       }
 222:STM32F10x_StdPeriph_Driver/src/stm32f10x_gpio.c ****     }
 223:STM32F10x_StdPeriph_Driver/src/stm32f10x_gpio.c ****     GPIOx->CRL = tmpreg;
 425              		.loc 1 223 0 is_stmt 1
 426 00d8 2E60     		str	r6, [r5]
 427              	.LVL51:
 428              	.L21:
 224:STM32F10x_StdPeriph_Driver/src/stm32f10x_gpio.c ****   }
 225:STM32F10x_StdPeriph_Driver/src/stm32f10x_gpio.c **** /*---------------------------- GPIO CRH Configuration ------------------------*/
 226:STM32F10x_StdPeriph_Driver/src/stm32f10x_gpio.c ****   /* Configure the eight high port pins */
 227:STM32F10x_StdPeriph_Driver/src/stm32f10x_gpio.c ****   if (GPIO_InitStruct->GPIO_Pin > 0x00FF)
 429              		.loc 1 227 0
 430 00da 2388     		ldrh	r3, [r4]
 431 00dc FF2B     		cmp	r3, #255
 432 00de 1ED9     		bls	.L15
 228:STM32F10x_StdPeriph_Driver/src/stm32f10x_gpio.c ****   {
 229:STM32F10x_StdPeriph_Driver/src/stm32f10x_gpio.c ****     tmpreg = GPIOx->CRH;
 433              		.loc 1 229 0
 434 00e0 6E68     		ldr	r6, [r5, #4]
 435              	.LVL52:
 230:STM32F10x_StdPeriph_Driver/src/stm32f10x_gpio.c ****     for (pinpos = 0x00; pinpos < 0x08; pinpos++)
 436              		.loc 1 230 0
 437 00e2 0023     		movs	r3, #0
 438 00e4 18E0     		b	.L27
 439              	.LVL53:
 440              	.L30:
 231:STM32F10x_StdPeriph_Driver/src/stm32f10x_gpio.c ****     {
 232:STM32F10x_StdPeriph_Driver/src/stm32f10x_gpio.c ****       pos = (((uint32_t)0x01) << (pinpos + 0x08));
 441              		.loc 1 232 0
 442 00e6 03F10801 		add	r1, r3, #8
 443 00ea 0122     		movs	r2, #1
 444 00ec 8A40     		lsls	r2, r2, r1
 445              	.LVL54:
 233:STM32F10x_StdPeriph_Driver/src/stm32f10x_gpio.c ****       /* Get the port pins position */
 234:STM32F10x_StdPeriph_Driver/src/stm32f10x_gpio.c ****       currentpin = ((GPIO_InitStruct->GPIO_Pin) & pos);
 446              		.loc 1 234 0
 447 00ee 2188     		ldrh	r1, [r4]
 448              	.LVL55:
 235:STM32F10x_StdPeriph_Driver/src/stm32f10x_gpio.c ****       if (currentpin == pos)
 449              		.loc 1 235 0
 450 00f0 32EA0101 		bics	r1, r2, r1
 451              	.LVL56:
 452 00f4 0FD1     		bne	.L28
ARM GAS  /var/folders/g9/bbpj86ld7fx45vd1b3pqxmp00000gn/T//ccyF5Qxu.s 			page 13


 236:STM32F10x_StdPeriph_Driver/src/stm32f10x_gpio.c ****       {
 237:STM32F10x_StdPeriph_Driver/src/stm32f10x_gpio.c ****         pos = pinpos << 2;
 453              		.loc 1 237 0
 454 00f6 9900     		lsls	r1, r3, #2
 455              	.LVL57:
 238:STM32F10x_StdPeriph_Driver/src/stm32f10x_gpio.c ****         /* Clear the corresponding high control register bits */
 239:STM32F10x_StdPeriph_Driver/src/stm32f10x_gpio.c ****         pinmask = ((uint32_t)0x0F) << pos;
 456              		.loc 1 239 0
 457 00f8 0F27     		movs	r7, #15
 458 00fa 8F40     		lsls	r7, r7, r1
 459              	.LVL58:
 240:STM32F10x_StdPeriph_Driver/src/stm32f10x_gpio.c ****         tmpreg &= ~pinmask;
 460              		.loc 1 240 0
 461 00fc 26EA0706 		bic	r6, r6, r7
 462              	.LVL59:
 241:STM32F10x_StdPeriph_Driver/src/stm32f10x_gpio.c ****         /* Write the mode configuration in the corresponding bits */
 242:STM32F10x_StdPeriph_Driver/src/stm32f10x_gpio.c ****         tmpreg |= (currentmode << pos);
 463              		.loc 1 242 0
 464 0100 00FA01F1 		lsl	r1, r0, r1
 465              	.LVL60:
 466 0104 0E43     		orrs	r6, r6, r1
 467              	.LVL61:
 243:STM32F10x_StdPeriph_Driver/src/stm32f10x_gpio.c ****         /* Reset the corresponding ODR bit */
 244:STM32F10x_StdPeriph_Driver/src/stm32f10x_gpio.c ****         if (GPIO_InitStruct->GPIO_Mode == GPIO_Mode_IPD)
 468              		.loc 1 244 0
 469 0106 E178     		ldrb	r1, [r4, #3]	@ zero_extendqisi2
 470 0108 2829     		cmp	r1, #40
 471 010a 00D1     		bne	.L29
 245:STM32F10x_StdPeriph_Driver/src/stm32f10x_gpio.c ****         {
 246:STM32F10x_StdPeriph_Driver/src/stm32f10x_gpio.c ****           GPIOx->BRR = (((uint32_t)0x01) << (pinpos + 0x08));
 472              		.loc 1 246 0
 473 010c 6A61     		str	r2, [r5, #20]
 474              	.LVL62:
 475              	.L29:
 247:STM32F10x_StdPeriph_Driver/src/stm32f10x_gpio.c ****         }
 248:STM32F10x_StdPeriph_Driver/src/stm32f10x_gpio.c ****         /* Set the corresponding ODR bit */
 249:STM32F10x_StdPeriph_Driver/src/stm32f10x_gpio.c ****         if (GPIO_InitStruct->GPIO_Mode == GPIO_Mode_IPU)
 476              		.loc 1 249 0
 477 010e E178     		ldrb	r1, [r4, #3]	@ zero_extendqisi2
 478 0110 4829     		cmp	r1, #72
 479 0112 00D1     		bne	.L28
 250:STM32F10x_StdPeriph_Driver/src/stm32f10x_gpio.c ****         {
 251:STM32F10x_StdPeriph_Driver/src/stm32f10x_gpio.c ****           GPIOx->BSRR = (((uint32_t)0x01) << (pinpos + 0x08));
 480              		.loc 1 251 0
 481 0114 2A61     		str	r2, [r5, #16]
 482              	.LVL63:
 483              	.L28:
 230:STM32F10x_StdPeriph_Driver/src/stm32f10x_gpio.c ****     {
 484              		.loc 1 230 0 discriminator 2
 485 0116 0133     		adds	r3, r3, #1
 486              	.LVL64:
 487              	.L27:
 230:STM32F10x_StdPeriph_Driver/src/stm32f10x_gpio.c ****     {
 488              		.loc 1 230 0 is_stmt 0 discriminator 1
 489 0118 072B     		cmp	r3, #7
 490 011a E4D9     		bls	.L30
 252:STM32F10x_StdPeriph_Driver/src/stm32f10x_gpio.c ****         }
ARM GAS  /var/folders/g9/bbpj86ld7fx45vd1b3pqxmp00000gn/T//ccyF5Qxu.s 			page 14


 253:STM32F10x_StdPeriph_Driver/src/stm32f10x_gpio.c ****       }
 254:STM32F10x_StdPeriph_Driver/src/stm32f10x_gpio.c ****     }
 255:STM32F10x_StdPeriph_Driver/src/stm32f10x_gpio.c ****     GPIOx->CRH = tmpreg;
 491              		.loc 1 255 0 is_stmt 1
 492 011c 6E60     		str	r6, [r5, #4]
 493              	.LVL65:
 494              	.L15:
 495 011e F8BD     		pop	{r3, r4, r5, r6, r7, pc}
 496              	.LVL66:
 497              	.L33:
 498              		.align	2
 499              	.L32:
 500 0120 00080140 		.word	1073809408
 501 0124 00000000 		.word	.LC0
 502              		.cfi_endproc
 503              	.LFE29:
 505              		.section	.text.GPIO_StructInit,"ax",%progbits
 506              		.align	2
 507              		.global	GPIO_StructInit
 508              		.thumb
 509              		.thumb_func
 511              	GPIO_StructInit:
 512              	.LFB30:
 256:STM32F10x_StdPeriph_Driver/src/stm32f10x_gpio.c ****   }
 257:STM32F10x_StdPeriph_Driver/src/stm32f10x_gpio.c **** }
 258:STM32F10x_StdPeriph_Driver/src/stm32f10x_gpio.c **** 
 259:STM32F10x_StdPeriph_Driver/src/stm32f10x_gpio.c **** /**
 260:STM32F10x_StdPeriph_Driver/src/stm32f10x_gpio.c ****   * @brief  Fills each GPIO_InitStruct member with its default value.
 261:STM32F10x_StdPeriph_Driver/src/stm32f10x_gpio.c ****   * @param  GPIO_InitStruct : pointer to a GPIO_InitTypeDef structure which will
 262:STM32F10x_StdPeriph_Driver/src/stm32f10x_gpio.c ****   *   be initialized.
 263:STM32F10x_StdPeriph_Driver/src/stm32f10x_gpio.c ****   * @retval None
 264:STM32F10x_StdPeriph_Driver/src/stm32f10x_gpio.c ****   */
 265:STM32F10x_StdPeriph_Driver/src/stm32f10x_gpio.c **** void GPIO_StructInit(GPIO_InitTypeDef* GPIO_InitStruct)
 266:STM32F10x_StdPeriph_Driver/src/stm32f10x_gpio.c **** {
 513              		.loc 1 266 0
 514              		.cfi_startproc
 515              		@ args = 0, pretend = 0, frame = 0
 516              		@ frame_needed = 0, uses_anonymous_args = 0
 517              		@ link register save eliminated.
 518              	.LVL67:
 267:STM32F10x_StdPeriph_Driver/src/stm32f10x_gpio.c ****   /* Reset GPIO init structure parameters values */
 268:STM32F10x_StdPeriph_Driver/src/stm32f10x_gpio.c ****   GPIO_InitStruct->GPIO_Pin  = GPIO_Pin_All;
 519              		.loc 1 268 0
 520 0000 4FF6FF73 		movw	r3, #65535
 521 0004 0380     		strh	r3, [r0]	@ movhi
 269:STM32F10x_StdPeriph_Driver/src/stm32f10x_gpio.c ****   GPIO_InitStruct->GPIO_Speed = GPIO_Speed_2MHz;
 522              		.loc 1 269 0
 523 0006 0223     		movs	r3, #2
 524 0008 8370     		strb	r3, [r0, #2]
 270:STM32F10x_StdPeriph_Driver/src/stm32f10x_gpio.c ****   GPIO_InitStruct->GPIO_Mode = GPIO_Mode_IN_FLOATING;
 525              		.loc 1 270 0
 526 000a 0423     		movs	r3, #4
 527 000c C370     		strb	r3, [r0, #3]
 528 000e 7047     		bx	lr
 529              		.cfi_endproc
 530              	.LFE30:
 532              		.section	.text.GPIO_ReadInputDataBit,"ax",%progbits
ARM GAS  /var/folders/g9/bbpj86ld7fx45vd1b3pqxmp00000gn/T//ccyF5Qxu.s 			page 15


 533              		.align	2
 534              		.global	GPIO_ReadInputDataBit
 535              		.thumb
 536              		.thumb_func
 538              	GPIO_ReadInputDataBit:
 539              	.LFB31:
 271:STM32F10x_StdPeriph_Driver/src/stm32f10x_gpio.c **** }
 272:STM32F10x_StdPeriph_Driver/src/stm32f10x_gpio.c **** 
 273:STM32F10x_StdPeriph_Driver/src/stm32f10x_gpio.c **** /**
 274:STM32F10x_StdPeriph_Driver/src/stm32f10x_gpio.c ****   * @brief  Reads the specified input port pin.
 275:STM32F10x_StdPeriph_Driver/src/stm32f10x_gpio.c ****   * @param  GPIOx: where x can be (A..G) to select the GPIO peripheral.
 276:STM32F10x_StdPeriph_Driver/src/stm32f10x_gpio.c ****   * @param  GPIO_Pin:  specifies the port bit to read.
 277:STM32F10x_StdPeriph_Driver/src/stm32f10x_gpio.c ****   *   This parameter can be GPIO_Pin_x where x can be (0..15).
 278:STM32F10x_StdPeriph_Driver/src/stm32f10x_gpio.c ****   * @retval The input port pin value.
 279:STM32F10x_StdPeriph_Driver/src/stm32f10x_gpio.c ****   */
 280:STM32F10x_StdPeriph_Driver/src/stm32f10x_gpio.c **** uint8_t GPIO_ReadInputDataBit(GPIO_TypeDef* GPIOx, uint16_t GPIO_Pin)
 281:STM32F10x_StdPeriph_Driver/src/stm32f10x_gpio.c **** {
 540              		.loc 1 281 0
 541              		.cfi_startproc
 542              		@ args = 0, pretend = 0, frame = 0
 543              		@ frame_needed = 0, uses_anonymous_args = 0
 544              	.LVL68:
 545 0000 38B5     		push	{r3, r4, r5, lr}
 546              	.LCFI3:
 547              		.cfi_def_cfa_offset 16
 548              		.cfi_offset 3, -16
 549              		.cfi_offset 4, -12
 550              		.cfi_offset 5, -8
 551              		.cfi_offset 14, -4
 552 0002 0446     		mov	r4, r0
 553 0004 0D46     		mov	r5, r1
 554              	.LVL69:
 282:STM32F10x_StdPeriph_Driver/src/stm32f10x_gpio.c ****   uint8_t bitstatus = 0x00;
 283:STM32F10x_StdPeriph_Driver/src/stm32f10x_gpio.c ****   
 284:STM32F10x_StdPeriph_Driver/src/stm32f10x_gpio.c ****   /* Check the parameters */
 285:STM32F10x_StdPeriph_Driver/src/stm32f10x_gpio.c ****   assert_param(IS_GPIO_ALL_PERIPH(GPIOx));
 555              		.loc 1 285 0
 556 0006 2A4B     		ldr	r3, .L41
 557 0008 9842     		cmp	r0, r3
 558 000a 1CD0     		beq	.L36
 559              		.loc 1 285 0 is_stmt 0 discriminator 1
 560 000c 03F58063 		add	r3, r3, #1024
 561 0010 9842     		cmp	r0, r3
 562 0012 18D0     		beq	.L36
 563              		.loc 1 285 0 discriminator 2
 564 0014 03F58063 		add	r3, r3, #1024
 565 0018 9842     		cmp	r0, r3
 566 001a 14D0     		beq	.L36
 567              		.loc 1 285 0 discriminator 3
 568 001c 03F58063 		add	r3, r3, #1024
 569 0020 9842     		cmp	r0, r3
 570 0022 10D0     		beq	.L36
 571              		.loc 1 285 0 discriminator 4
 572 0024 03F58063 		add	r3, r3, #1024
 573 0028 9842     		cmp	r0, r3
 574 002a 0CD0     		beq	.L36
 575              		.loc 1 285 0 discriminator 5
ARM GAS  /var/folders/g9/bbpj86ld7fx45vd1b3pqxmp00000gn/T//ccyF5Qxu.s 			page 16


 576 002c 03F58063 		add	r3, r3, #1024
 577 0030 9842     		cmp	r0, r3
 578 0032 08D0     		beq	.L36
 579              		.loc 1 285 0 discriminator 6
 580 0034 03F58063 		add	r3, r3, #1024
 581 0038 9842     		cmp	r0, r3
 582 003a 04D0     		beq	.L36
 583              		.loc 1 285 0 discriminator 7
 584 003c 40F21D11 		movw	r1, #285
 585              	.LVL70:
 586 0040 1C48     		ldr	r0, .L41+4
 587              	.LVL71:
 588 0042 FFF7FEFF 		bl	assert_failed
 589              	.LVL72:
 590              	.L36:
 286:STM32F10x_StdPeriph_Driver/src/stm32f10x_gpio.c ****   assert_param(IS_GET_GPIO_PIN(GPIO_Pin)); 
 591              		.loc 1 286 0 is_stmt 1
 592 0046 6B1E     		subs	r3, r5, #1
 593 0048 9BB2     		uxth	r3, r3
 594 004a 012B     		cmp	r3, #1
 595 004c 28D9     		bls	.L37
 596              		.loc 1 286 0 is_stmt 0 discriminator 1
 597 004e 042D     		cmp	r5, #4
 598 0050 26D0     		beq	.L37
 599              		.loc 1 286 0 discriminator 2
 600 0052 082D     		cmp	r5, #8
 601 0054 24D0     		beq	.L37
 602              		.loc 1 286 0 discriminator 3
 603 0056 102D     		cmp	r5, #16
 604 0058 22D0     		beq	.L37
 605              		.loc 1 286 0 discriminator 4
 606 005a 202D     		cmp	r5, #32
 607 005c 20D0     		beq	.L37
 608              		.loc 1 286 0 discriminator 5
 609 005e 402D     		cmp	r5, #64
 610 0060 1ED0     		beq	.L37
 611              		.loc 1 286 0 discriminator 6
 612 0062 802D     		cmp	r5, #128
 613 0064 1CD0     		beq	.L37
 614              		.loc 1 286 0 discriminator 7
 615 0066 B5F5807F 		cmp	r5, #256
 616 006a 19D0     		beq	.L37
 617              		.loc 1 286 0 discriminator 8
 618 006c B5F5007F 		cmp	r5, #512
 619 0070 16D0     		beq	.L37
 620              		.loc 1 286 0 discriminator 9
 621 0072 B5F5806F 		cmp	r5, #1024
 622 0076 13D0     		beq	.L37
 623              		.loc 1 286 0 discriminator 10
 624 0078 B5F5006F 		cmp	r5, #2048
 625 007c 10D0     		beq	.L37
 626              		.loc 1 286 0 discriminator 11
 627 007e B5F5805F 		cmp	r5, #4096
 628 0082 0DD0     		beq	.L37
 629              		.loc 1 286 0 discriminator 12
 630 0084 B5F5005F 		cmp	r5, #8192
 631 0088 0AD0     		beq	.L37
ARM GAS  /var/folders/g9/bbpj86ld7fx45vd1b3pqxmp00000gn/T//ccyF5Qxu.s 			page 17


 632              		.loc 1 286 0 discriminator 13
 633 008a B5F5804F 		cmp	r5, #16384
 634 008e 07D0     		beq	.L37
 635              		.loc 1 286 0 discriminator 14
 636 0090 B5F5004F 		cmp	r5, #32768
 637 0094 04D0     		beq	.L37
 638              		.loc 1 286 0 discriminator 15
 639 0096 4FF48F71 		mov	r1, #286
 640 009a 0648     		ldr	r0, .L41+4
 641 009c FFF7FEFF 		bl	assert_failed
 642              	.LVL73:
 643              	.L37:
 287:STM32F10x_StdPeriph_Driver/src/stm32f10x_gpio.c ****   
 288:STM32F10x_StdPeriph_Driver/src/stm32f10x_gpio.c ****   if ((GPIOx->IDR & GPIO_Pin) != (uint32_t)Bit_RESET)
 644              		.loc 1 288 0 is_stmt 1
 645 00a0 A368     		ldr	r3, [r4, #8]
 646 00a2 1D42     		tst	r5, r3
 647 00a4 01D0     		beq	.L39
 289:STM32F10x_StdPeriph_Driver/src/stm32f10x_gpio.c ****   {
 290:STM32F10x_StdPeriph_Driver/src/stm32f10x_gpio.c ****     bitstatus = (uint8_t)Bit_SET;
 648              		.loc 1 290 0
 649 00a6 0120     		movs	r0, #1
 650 00a8 38BD     		pop	{r3, r4, r5, pc}
 651              	.LVL74:
 652              	.L39:
 291:STM32F10x_StdPeriph_Driver/src/stm32f10x_gpio.c ****   }
 292:STM32F10x_StdPeriph_Driver/src/stm32f10x_gpio.c ****   else
 293:STM32F10x_StdPeriph_Driver/src/stm32f10x_gpio.c ****   {
 294:STM32F10x_StdPeriph_Driver/src/stm32f10x_gpio.c ****     bitstatus = (uint8_t)Bit_RESET;
 653              		.loc 1 294 0
 654 00aa 0020     		movs	r0, #0
 655              	.LVL75:
 295:STM32F10x_StdPeriph_Driver/src/stm32f10x_gpio.c ****   }
 296:STM32F10x_StdPeriph_Driver/src/stm32f10x_gpio.c ****   return bitstatus;
 297:STM32F10x_StdPeriph_Driver/src/stm32f10x_gpio.c **** }
 656              		.loc 1 297 0
 657 00ac 38BD     		pop	{r3, r4, r5, pc}
 658              	.LVL76:
 659              	.L42:
 660 00ae 00BF     		.align	2
 661              	.L41:
 662 00b0 00080140 		.word	1073809408
 663 00b4 00000000 		.word	.LC0
 664              		.cfi_endproc
 665              	.LFE31:
 667              		.section	.text.GPIO_ReadInputData,"ax",%progbits
 668              		.align	2
 669              		.global	GPIO_ReadInputData
 670              		.thumb
 671              		.thumb_func
 673              	GPIO_ReadInputData:
 674              	.LFB32:
 298:STM32F10x_StdPeriph_Driver/src/stm32f10x_gpio.c **** 
 299:STM32F10x_StdPeriph_Driver/src/stm32f10x_gpio.c **** /**
 300:STM32F10x_StdPeriph_Driver/src/stm32f10x_gpio.c ****   * @brief  Reads the specified GPIO input data port.
 301:STM32F10x_StdPeriph_Driver/src/stm32f10x_gpio.c ****   * @param  GPIOx: where x can be (A..G) to select the GPIO peripheral.
 302:STM32F10x_StdPeriph_Driver/src/stm32f10x_gpio.c ****   * @retval GPIO input data port value.
ARM GAS  /var/folders/g9/bbpj86ld7fx45vd1b3pqxmp00000gn/T//ccyF5Qxu.s 			page 18


 303:STM32F10x_StdPeriph_Driver/src/stm32f10x_gpio.c ****   */
 304:STM32F10x_StdPeriph_Driver/src/stm32f10x_gpio.c **** uint16_t GPIO_ReadInputData(GPIO_TypeDef* GPIOx)
 305:STM32F10x_StdPeriph_Driver/src/stm32f10x_gpio.c **** {
 675              		.loc 1 305 0
 676              		.cfi_startproc
 677              		@ args = 0, pretend = 0, frame = 0
 678              		@ frame_needed = 0, uses_anonymous_args = 0
 679              	.LVL77:
 680 0000 10B5     		push	{r4, lr}
 681              	.LCFI4:
 682              		.cfi_def_cfa_offset 8
 683              		.cfi_offset 4, -8
 684              		.cfi_offset 14, -4
 685 0002 0446     		mov	r4, r0
 306:STM32F10x_StdPeriph_Driver/src/stm32f10x_gpio.c ****   /* Check the parameters */
 307:STM32F10x_StdPeriph_Driver/src/stm32f10x_gpio.c ****   assert_param(IS_GPIO_ALL_PERIPH(GPIOx));
 686              		.loc 1 307 0
 687 0004 114B     		ldr	r3, .L46
 688 0006 9842     		cmp	r0, r3
 689 0008 1CD0     		beq	.L44
 690              		.loc 1 307 0 is_stmt 0 discriminator 1
 691 000a 03F58063 		add	r3, r3, #1024
 692 000e 9842     		cmp	r0, r3
 693 0010 18D0     		beq	.L44
 694              		.loc 1 307 0 discriminator 2
 695 0012 03F58063 		add	r3, r3, #1024
 696 0016 9842     		cmp	r0, r3
 697 0018 14D0     		beq	.L44
 698              		.loc 1 307 0 discriminator 3
 699 001a 03F58063 		add	r3, r3, #1024
 700 001e 9842     		cmp	r0, r3
 701 0020 10D0     		beq	.L44
 702              		.loc 1 307 0 discriminator 4
 703 0022 03F58063 		add	r3, r3, #1024
 704 0026 9842     		cmp	r0, r3
 705 0028 0CD0     		beq	.L44
 706              		.loc 1 307 0 discriminator 5
 707 002a 03F58063 		add	r3, r3, #1024
 708 002e 9842     		cmp	r0, r3
 709 0030 08D0     		beq	.L44
 710              		.loc 1 307 0 discriminator 6
 711 0032 03F58063 		add	r3, r3, #1024
 712 0036 9842     		cmp	r0, r3
 713 0038 04D0     		beq	.L44
 714              		.loc 1 307 0 discriminator 7
 715 003a 40F23311 		movw	r1, #307
 716 003e 0448     		ldr	r0, .L46+4
 717              	.LVL78:
 718 0040 FFF7FEFF 		bl	assert_failed
 719              	.LVL79:
 720              	.L44:
 308:STM32F10x_StdPeriph_Driver/src/stm32f10x_gpio.c ****   
 309:STM32F10x_StdPeriph_Driver/src/stm32f10x_gpio.c ****   return ((uint16_t)GPIOx->IDR);
 721              		.loc 1 309 0 is_stmt 1
 722 0044 A068     		ldr	r0, [r4, #8]
 310:STM32F10x_StdPeriph_Driver/src/stm32f10x_gpio.c **** }
 723              		.loc 1 310 0
ARM GAS  /var/folders/g9/bbpj86ld7fx45vd1b3pqxmp00000gn/T//ccyF5Qxu.s 			page 19


 724 0046 80B2     		uxth	r0, r0
 725 0048 10BD     		pop	{r4, pc}
 726              	.LVL80:
 727              	.L47:
 728 004a 00BF     		.align	2
 729              	.L46:
 730 004c 00080140 		.word	1073809408
 731 0050 00000000 		.word	.LC0
 732              		.cfi_endproc
 733              	.LFE32:
 735              		.section	.text.GPIO_ReadOutputDataBit,"ax",%progbits
 736              		.align	2
 737              		.global	GPIO_ReadOutputDataBit
 738              		.thumb
 739              		.thumb_func
 741              	GPIO_ReadOutputDataBit:
 742              	.LFB33:
 311:STM32F10x_StdPeriph_Driver/src/stm32f10x_gpio.c **** 
 312:STM32F10x_StdPeriph_Driver/src/stm32f10x_gpio.c **** /**
 313:STM32F10x_StdPeriph_Driver/src/stm32f10x_gpio.c ****   * @brief  Reads the specified output data port bit.
 314:STM32F10x_StdPeriph_Driver/src/stm32f10x_gpio.c ****   * @param  GPIOx: where x can be (A..G) to select the GPIO peripheral.
 315:STM32F10x_StdPeriph_Driver/src/stm32f10x_gpio.c ****   * @param  GPIO_Pin:  specifies the port bit to read.
 316:STM32F10x_StdPeriph_Driver/src/stm32f10x_gpio.c ****   *   This parameter can be GPIO_Pin_x where x can be (0..15).
 317:STM32F10x_StdPeriph_Driver/src/stm32f10x_gpio.c ****   * @retval The output port pin value.
 318:STM32F10x_StdPeriph_Driver/src/stm32f10x_gpio.c ****   */
 319:STM32F10x_StdPeriph_Driver/src/stm32f10x_gpio.c **** uint8_t GPIO_ReadOutputDataBit(GPIO_TypeDef* GPIOx, uint16_t GPIO_Pin)
 320:STM32F10x_StdPeriph_Driver/src/stm32f10x_gpio.c **** {
 743              		.loc 1 320 0
 744              		.cfi_startproc
 745              		@ args = 0, pretend = 0, frame = 0
 746              		@ frame_needed = 0, uses_anonymous_args = 0
 747              	.LVL81:
 748 0000 38B5     		push	{r3, r4, r5, lr}
 749              	.LCFI5:
 750              		.cfi_def_cfa_offset 16
 751              		.cfi_offset 3, -16
 752              		.cfi_offset 4, -12
 753              		.cfi_offset 5, -8
 754              		.cfi_offset 14, -4
 755 0002 0446     		mov	r4, r0
 756 0004 0D46     		mov	r5, r1
 757              	.LVL82:
 321:STM32F10x_StdPeriph_Driver/src/stm32f10x_gpio.c ****   uint8_t bitstatus = 0x00;
 322:STM32F10x_StdPeriph_Driver/src/stm32f10x_gpio.c ****   /* Check the parameters */
 323:STM32F10x_StdPeriph_Driver/src/stm32f10x_gpio.c ****   assert_param(IS_GPIO_ALL_PERIPH(GPIOx));
 758              		.loc 1 323 0
 759 0006 2A4B     		ldr	r3, .L54
 760 0008 9842     		cmp	r0, r3
 761 000a 1CD0     		beq	.L49
 762              		.loc 1 323 0 is_stmt 0 discriminator 1
 763 000c 03F58063 		add	r3, r3, #1024
 764 0010 9842     		cmp	r0, r3
 765 0012 18D0     		beq	.L49
 766              		.loc 1 323 0 discriminator 2
 767 0014 03F58063 		add	r3, r3, #1024
 768 0018 9842     		cmp	r0, r3
 769 001a 14D0     		beq	.L49
ARM GAS  /var/folders/g9/bbpj86ld7fx45vd1b3pqxmp00000gn/T//ccyF5Qxu.s 			page 20


 770              		.loc 1 323 0 discriminator 3
 771 001c 03F58063 		add	r3, r3, #1024
 772 0020 9842     		cmp	r0, r3
 773 0022 10D0     		beq	.L49
 774              		.loc 1 323 0 discriminator 4
 775 0024 03F58063 		add	r3, r3, #1024
 776 0028 9842     		cmp	r0, r3
 777 002a 0CD0     		beq	.L49
 778              		.loc 1 323 0 discriminator 5
 779 002c 03F58063 		add	r3, r3, #1024
 780 0030 9842     		cmp	r0, r3
 781 0032 08D0     		beq	.L49
 782              		.loc 1 323 0 discriminator 6
 783 0034 03F58063 		add	r3, r3, #1024
 784 0038 9842     		cmp	r0, r3
 785 003a 04D0     		beq	.L49
 786              		.loc 1 323 0 discriminator 7
 787 003c 40F24311 		movw	r1, #323
 788              	.LVL83:
 789 0040 1C48     		ldr	r0, .L54+4
 790              	.LVL84:
 791 0042 FFF7FEFF 		bl	assert_failed
 792              	.LVL85:
 793              	.L49:
 324:STM32F10x_StdPeriph_Driver/src/stm32f10x_gpio.c ****   assert_param(IS_GET_GPIO_PIN(GPIO_Pin)); 
 794              		.loc 1 324 0 is_stmt 1
 795 0046 6B1E     		subs	r3, r5, #1
 796 0048 9BB2     		uxth	r3, r3
 797 004a 012B     		cmp	r3, #1
 798 004c 28D9     		bls	.L50
 799              		.loc 1 324 0 is_stmt 0 discriminator 1
 800 004e 042D     		cmp	r5, #4
 801 0050 26D0     		beq	.L50
 802              		.loc 1 324 0 discriminator 2
 803 0052 082D     		cmp	r5, #8
 804 0054 24D0     		beq	.L50
 805              		.loc 1 324 0 discriminator 3
 806 0056 102D     		cmp	r5, #16
 807 0058 22D0     		beq	.L50
 808              		.loc 1 324 0 discriminator 4
 809 005a 202D     		cmp	r5, #32
 810 005c 20D0     		beq	.L50
 811              		.loc 1 324 0 discriminator 5
 812 005e 402D     		cmp	r5, #64
 813 0060 1ED0     		beq	.L50
 814              		.loc 1 324 0 discriminator 6
 815 0062 802D     		cmp	r5, #128
 816 0064 1CD0     		beq	.L50
 817              		.loc 1 324 0 discriminator 7
 818 0066 B5F5807F 		cmp	r5, #256
 819 006a 19D0     		beq	.L50
 820              		.loc 1 324 0 discriminator 8
 821 006c B5F5007F 		cmp	r5, #512
 822 0070 16D0     		beq	.L50
 823              		.loc 1 324 0 discriminator 9
 824 0072 B5F5806F 		cmp	r5, #1024
 825 0076 13D0     		beq	.L50
ARM GAS  /var/folders/g9/bbpj86ld7fx45vd1b3pqxmp00000gn/T//ccyF5Qxu.s 			page 21


 826              		.loc 1 324 0 discriminator 10
 827 0078 B5F5006F 		cmp	r5, #2048
 828 007c 10D0     		beq	.L50
 829              		.loc 1 324 0 discriminator 11
 830 007e B5F5805F 		cmp	r5, #4096
 831 0082 0DD0     		beq	.L50
 832              		.loc 1 324 0 discriminator 12
 833 0084 B5F5005F 		cmp	r5, #8192
 834 0088 0AD0     		beq	.L50
 835              		.loc 1 324 0 discriminator 13
 836 008a B5F5804F 		cmp	r5, #16384
 837 008e 07D0     		beq	.L50
 838              		.loc 1 324 0 discriminator 14
 839 0090 B5F5004F 		cmp	r5, #32768
 840 0094 04D0     		beq	.L50
 841              		.loc 1 324 0 discriminator 15
 842 0096 4FF4A271 		mov	r1, #324
 843 009a 0648     		ldr	r0, .L54+4
 844 009c FFF7FEFF 		bl	assert_failed
 845              	.LVL86:
 846              	.L50:
 325:STM32F10x_StdPeriph_Driver/src/stm32f10x_gpio.c ****   
 326:STM32F10x_StdPeriph_Driver/src/stm32f10x_gpio.c ****   if ((GPIOx->ODR & GPIO_Pin) != (uint32_t)Bit_RESET)
 847              		.loc 1 326 0 is_stmt 1
 848 00a0 E368     		ldr	r3, [r4, #12]
 849 00a2 1D42     		tst	r5, r3
 850 00a4 01D0     		beq	.L52
 327:STM32F10x_StdPeriph_Driver/src/stm32f10x_gpio.c ****   {
 328:STM32F10x_StdPeriph_Driver/src/stm32f10x_gpio.c ****     bitstatus = (uint8_t)Bit_SET;
 851              		.loc 1 328 0
 852 00a6 0120     		movs	r0, #1
 853 00a8 38BD     		pop	{r3, r4, r5, pc}
 854              	.LVL87:
 855              	.L52:
 329:STM32F10x_StdPeriph_Driver/src/stm32f10x_gpio.c ****   }
 330:STM32F10x_StdPeriph_Driver/src/stm32f10x_gpio.c ****   else
 331:STM32F10x_StdPeriph_Driver/src/stm32f10x_gpio.c ****   {
 332:STM32F10x_StdPeriph_Driver/src/stm32f10x_gpio.c ****     bitstatus = (uint8_t)Bit_RESET;
 856              		.loc 1 332 0
 857 00aa 0020     		movs	r0, #0
 858              	.LVL88:
 333:STM32F10x_StdPeriph_Driver/src/stm32f10x_gpio.c ****   }
 334:STM32F10x_StdPeriph_Driver/src/stm32f10x_gpio.c ****   return bitstatus;
 335:STM32F10x_StdPeriph_Driver/src/stm32f10x_gpio.c **** }
 859              		.loc 1 335 0
 860 00ac 38BD     		pop	{r3, r4, r5, pc}
 861              	.LVL89:
 862              	.L55:
 863 00ae 00BF     		.align	2
 864              	.L54:
 865 00b0 00080140 		.word	1073809408
 866 00b4 00000000 		.word	.LC0
 867              		.cfi_endproc
 868              	.LFE33:
 870              		.section	.text.GPIO_ReadOutputData,"ax",%progbits
 871              		.align	2
 872              		.global	GPIO_ReadOutputData
ARM GAS  /var/folders/g9/bbpj86ld7fx45vd1b3pqxmp00000gn/T//ccyF5Qxu.s 			page 22


 873              		.thumb
 874              		.thumb_func
 876              	GPIO_ReadOutputData:
 877              	.LFB34:
 336:STM32F10x_StdPeriph_Driver/src/stm32f10x_gpio.c **** 
 337:STM32F10x_StdPeriph_Driver/src/stm32f10x_gpio.c **** /**
 338:STM32F10x_StdPeriph_Driver/src/stm32f10x_gpio.c ****   * @brief  Reads the specified GPIO output data port.
 339:STM32F10x_StdPeriph_Driver/src/stm32f10x_gpio.c ****   * @param  GPIOx: where x can be (A..G) to select the GPIO peripheral.
 340:STM32F10x_StdPeriph_Driver/src/stm32f10x_gpio.c ****   * @retval GPIO output data port value.
 341:STM32F10x_StdPeriph_Driver/src/stm32f10x_gpio.c ****   */
 342:STM32F10x_StdPeriph_Driver/src/stm32f10x_gpio.c **** uint16_t GPIO_ReadOutputData(GPIO_TypeDef* GPIOx)
 343:STM32F10x_StdPeriph_Driver/src/stm32f10x_gpio.c **** {
 878              		.loc 1 343 0
 879              		.cfi_startproc
 880              		@ args = 0, pretend = 0, frame = 0
 881              		@ frame_needed = 0, uses_anonymous_args = 0
 882              	.LVL90:
 883 0000 10B5     		push	{r4, lr}
 884              	.LCFI6:
 885              		.cfi_def_cfa_offset 8
 886              		.cfi_offset 4, -8
 887              		.cfi_offset 14, -4
 888 0002 0446     		mov	r4, r0
 344:STM32F10x_StdPeriph_Driver/src/stm32f10x_gpio.c ****   /* Check the parameters */
 345:STM32F10x_StdPeriph_Driver/src/stm32f10x_gpio.c ****   assert_param(IS_GPIO_ALL_PERIPH(GPIOx));
 889              		.loc 1 345 0
 890 0004 114B     		ldr	r3, .L59
 891 0006 9842     		cmp	r0, r3
 892 0008 1CD0     		beq	.L57
 893              		.loc 1 345 0 is_stmt 0 discriminator 1
 894 000a 03F58063 		add	r3, r3, #1024
 895 000e 9842     		cmp	r0, r3
 896 0010 18D0     		beq	.L57
 897              		.loc 1 345 0 discriminator 2
 898 0012 03F58063 		add	r3, r3, #1024
 899 0016 9842     		cmp	r0, r3
 900 0018 14D0     		beq	.L57
 901              		.loc 1 345 0 discriminator 3
 902 001a 03F58063 		add	r3, r3, #1024
 903 001e 9842     		cmp	r0, r3
 904 0020 10D0     		beq	.L57
 905              		.loc 1 345 0 discriminator 4
 906 0022 03F58063 		add	r3, r3, #1024
 907 0026 9842     		cmp	r0, r3
 908 0028 0CD0     		beq	.L57
 909              		.loc 1 345 0 discriminator 5
 910 002a 03F58063 		add	r3, r3, #1024
 911 002e 9842     		cmp	r0, r3
 912 0030 08D0     		beq	.L57
 913              		.loc 1 345 0 discriminator 6
 914 0032 03F58063 		add	r3, r3, #1024
 915 0036 9842     		cmp	r0, r3
 916 0038 04D0     		beq	.L57
 917              		.loc 1 345 0 discriminator 7
 918 003a 40F25911 		movw	r1, #345
 919 003e 0448     		ldr	r0, .L59+4
 920              	.LVL91:
ARM GAS  /var/folders/g9/bbpj86ld7fx45vd1b3pqxmp00000gn/T//ccyF5Qxu.s 			page 23


 921 0040 FFF7FEFF 		bl	assert_failed
 922              	.LVL92:
 923              	.L57:
 346:STM32F10x_StdPeriph_Driver/src/stm32f10x_gpio.c ****     
 347:STM32F10x_StdPeriph_Driver/src/stm32f10x_gpio.c ****   return ((uint16_t)GPIOx->ODR);
 924              		.loc 1 347 0 is_stmt 1
 925 0044 E068     		ldr	r0, [r4, #12]
 348:STM32F10x_StdPeriph_Driver/src/stm32f10x_gpio.c **** }
 926              		.loc 1 348 0
 927 0046 80B2     		uxth	r0, r0
 928 0048 10BD     		pop	{r4, pc}
 929              	.LVL93:
 930              	.L60:
 931 004a 00BF     		.align	2
 932              	.L59:
 933 004c 00080140 		.word	1073809408
 934 0050 00000000 		.word	.LC0
 935              		.cfi_endproc
 936              	.LFE34:
 938              		.section	.text.GPIO_SetBits,"ax",%progbits
 939              		.align	2
 940              		.global	GPIO_SetBits
 941              		.thumb
 942              		.thumb_func
 944              	GPIO_SetBits:
 945              	.LFB35:
 349:STM32F10x_StdPeriph_Driver/src/stm32f10x_gpio.c **** 
 350:STM32F10x_StdPeriph_Driver/src/stm32f10x_gpio.c **** /**
 351:STM32F10x_StdPeriph_Driver/src/stm32f10x_gpio.c ****   * @brief  Sets the selected data port bits.
 352:STM32F10x_StdPeriph_Driver/src/stm32f10x_gpio.c ****   * @param  GPIOx: where x can be (A..G) to select the GPIO peripheral.
 353:STM32F10x_StdPeriph_Driver/src/stm32f10x_gpio.c ****   * @param  GPIO_Pin: specifies the port bits to be written.
 354:STM32F10x_StdPeriph_Driver/src/stm32f10x_gpio.c ****   *   This parameter can be any combination of GPIO_Pin_x where x can be (0..15).
 355:STM32F10x_StdPeriph_Driver/src/stm32f10x_gpio.c ****   * @retval None
 356:STM32F10x_StdPeriph_Driver/src/stm32f10x_gpio.c ****   */
 357:STM32F10x_StdPeriph_Driver/src/stm32f10x_gpio.c **** void GPIO_SetBits(GPIO_TypeDef* GPIOx, uint16_t GPIO_Pin)
 358:STM32F10x_StdPeriph_Driver/src/stm32f10x_gpio.c **** {
 946              		.loc 1 358 0
 947              		.cfi_startproc
 948              		@ args = 0, pretend = 0, frame = 0
 949              		@ frame_needed = 0, uses_anonymous_args = 0
 950              	.LVL94:
 951 0000 38B5     		push	{r3, r4, r5, lr}
 952              	.LCFI7:
 953              		.cfi_def_cfa_offset 16
 954              		.cfi_offset 3, -16
 955              		.cfi_offset 4, -12
 956              		.cfi_offset 5, -8
 957              		.cfi_offset 14, -4
 958 0002 0446     		mov	r4, r0
 959 0004 0D46     		mov	r5, r1
 359:STM32F10x_StdPeriph_Driver/src/stm32f10x_gpio.c ****   /* Check the parameters */
 360:STM32F10x_StdPeriph_Driver/src/stm32f10x_gpio.c ****   assert_param(IS_GPIO_ALL_PERIPH(GPIOx));
 960              		.loc 1 360 0
 961 0006 144B     		ldr	r3, .L65
 962 0008 9842     		cmp	r0, r3
 963 000a 1CD0     		beq	.L62
 964              		.loc 1 360 0 is_stmt 0 discriminator 1
ARM GAS  /var/folders/g9/bbpj86ld7fx45vd1b3pqxmp00000gn/T//ccyF5Qxu.s 			page 24


 965 000c 03F58063 		add	r3, r3, #1024
 966 0010 9842     		cmp	r0, r3
 967 0012 18D0     		beq	.L62
 968              		.loc 1 360 0 discriminator 2
 969 0014 03F58063 		add	r3, r3, #1024
 970 0018 9842     		cmp	r0, r3
 971 001a 14D0     		beq	.L62
 972              		.loc 1 360 0 discriminator 3
 973 001c 03F58063 		add	r3, r3, #1024
 974 0020 9842     		cmp	r0, r3
 975 0022 10D0     		beq	.L62
 976              		.loc 1 360 0 discriminator 4
 977 0024 03F58063 		add	r3, r3, #1024
 978 0028 9842     		cmp	r0, r3
 979 002a 0CD0     		beq	.L62
 980              		.loc 1 360 0 discriminator 5
 981 002c 03F58063 		add	r3, r3, #1024
 982 0030 9842     		cmp	r0, r3
 983 0032 08D0     		beq	.L62
 984              		.loc 1 360 0 discriminator 6
 985 0034 03F58063 		add	r3, r3, #1024
 986 0038 9842     		cmp	r0, r3
 987 003a 04D0     		beq	.L62
 988              		.loc 1 360 0 discriminator 7
 989 003c 4FF4B471 		mov	r1, #360
 990              	.LVL95:
 991 0040 0648     		ldr	r0, .L65+4
 992              	.LVL96:
 993 0042 FFF7FEFF 		bl	assert_failed
 994              	.LVL97:
 995              	.L62:
 361:STM32F10x_StdPeriph_Driver/src/stm32f10x_gpio.c ****   assert_param(IS_GPIO_PIN(GPIO_Pin));
 996              		.loc 1 361 0 is_stmt 1
 997 0046 25B9     		cbnz	r5, .L63
 998              		.loc 1 361 0 is_stmt 0 discriminator 1
 999 0048 40F26911 		movw	r1, #361
 1000 004c 0348     		ldr	r0, .L65+4
 1001 004e FFF7FEFF 		bl	assert_failed
 1002              	.LVL98:
 1003              	.L63:
 362:STM32F10x_StdPeriph_Driver/src/stm32f10x_gpio.c ****   
 363:STM32F10x_StdPeriph_Driver/src/stm32f10x_gpio.c ****   GPIOx->BSRR = GPIO_Pin;
 1004              		.loc 1 363 0 is_stmt 1
 1005 0052 2561     		str	r5, [r4, #16]
 1006 0054 38BD     		pop	{r3, r4, r5, pc}
 1007              	.LVL99:
 1008              	.L66:
 1009 0056 00BF     		.align	2
 1010              	.L65:
 1011 0058 00080140 		.word	1073809408
 1012 005c 00000000 		.word	.LC0
 1013              		.cfi_endproc
 1014              	.LFE35:
 1016              		.section	.text.GPIO_ResetBits,"ax",%progbits
 1017              		.align	2
 1018              		.global	GPIO_ResetBits
 1019              		.thumb
ARM GAS  /var/folders/g9/bbpj86ld7fx45vd1b3pqxmp00000gn/T//ccyF5Qxu.s 			page 25


 1020              		.thumb_func
 1022              	GPIO_ResetBits:
 1023              	.LFB36:
 364:STM32F10x_StdPeriph_Driver/src/stm32f10x_gpio.c **** }
 365:STM32F10x_StdPeriph_Driver/src/stm32f10x_gpio.c **** 
 366:STM32F10x_StdPeriph_Driver/src/stm32f10x_gpio.c **** /**
 367:STM32F10x_StdPeriph_Driver/src/stm32f10x_gpio.c ****   * @brief  Clears the selected data port bits.
 368:STM32F10x_StdPeriph_Driver/src/stm32f10x_gpio.c ****   * @param  GPIOx: where x can be (A..G) to select the GPIO peripheral.
 369:STM32F10x_StdPeriph_Driver/src/stm32f10x_gpio.c ****   * @param  GPIO_Pin: specifies the port bits to be written.
 370:STM32F10x_StdPeriph_Driver/src/stm32f10x_gpio.c ****   *   This parameter can be any combination of GPIO_Pin_x where x can be (0..15).
 371:STM32F10x_StdPeriph_Driver/src/stm32f10x_gpio.c ****   * @retval None
 372:STM32F10x_StdPeriph_Driver/src/stm32f10x_gpio.c ****   */
 373:STM32F10x_StdPeriph_Driver/src/stm32f10x_gpio.c **** void GPIO_ResetBits(GPIO_TypeDef* GPIOx, uint16_t GPIO_Pin)
 374:STM32F10x_StdPeriph_Driver/src/stm32f10x_gpio.c **** {
 1024              		.loc 1 374 0
 1025              		.cfi_startproc
 1026              		@ args = 0, pretend = 0, frame = 0
 1027              		@ frame_needed = 0, uses_anonymous_args = 0
 1028              	.LVL100:
 1029 0000 38B5     		push	{r3, r4, r5, lr}
 1030              	.LCFI8:
 1031              		.cfi_def_cfa_offset 16
 1032              		.cfi_offset 3, -16
 1033              		.cfi_offset 4, -12
 1034              		.cfi_offset 5, -8
 1035              		.cfi_offset 14, -4
 1036 0002 0446     		mov	r4, r0
 1037 0004 0D46     		mov	r5, r1
 375:STM32F10x_StdPeriph_Driver/src/stm32f10x_gpio.c ****   /* Check the parameters */
 376:STM32F10x_StdPeriph_Driver/src/stm32f10x_gpio.c ****   assert_param(IS_GPIO_ALL_PERIPH(GPIOx));
 1038              		.loc 1 376 0
 1039 0006 144B     		ldr	r3, .L71
 1040 0008 9842     		cmp	r0, r3
 1041 000a 1CD0     		beq	.L68
 1042              		.loc 1 376 0 is_stmt 0 discriminator 1
 1043 000c 03F58063 		add	r3, r3, #1024
 1044 0010 9842     		cmp	r0, r3
 1045 0012 18D0     		beq	.L68
 1046              		.loc 1 376 0 discriminator 2
 1047 0014 03F58063 		add	r3, r3, #1024
 1048 0018 9842     		cmp	r0, r3
 1049 001a 14D0     		beq	.L68
 1050              		.loc 1 376 0 discriminator 3
 1051 001c 03F58063 		add	r3, r3, #1024
 1052 0020 9842     		cmp	r0, r3
 1053 0022 10D0     		beq	.L68
 1054              		.loc 1 376 0 discriminator 4
 1055 0024 03F58063 		add	r3, r3, #1024
 1056 0028 9842     		cmp	r0, r3
 1057 002a 0CD0     		beq	.L68
 1058              		.loc 1 376 0 discriminator 5
 1059 002c 03F58063 		add	r3, r3, #1024
 1060 0030 9842     		cmp	r0, r3
 1061 0032 08D0     		beq	.L68
 1062              		.loc 1 376 0 discriminator 6
 1063 0034 03F58063 		add	r3, r3, #1024
 1064 0038 9842     		cmp	r0, r3
ARM GAS  /var/folders/g9/bbpj86ld7fx45vd1b3pqxmp00000gn/T//ccyF5Qxu.s 			page 26


 1065 003a 04D0     		beq	.L68
 1066              		.loc 1 376 0 discriminator 7
 1067 003c 4FF4BC71 		mov	r1, #376
 1068              	.LVL101:
 1069 0040 0648     		ldr	r0, .L71+4
 1070              	.LVL102:
 1071 0042 FFF7FEFF 		bl	assert_failed
 1072              	.LVL103:
 1073              	.L68:
 377:STM32F10x_StdPeriph_Driver/src/stm32f10x_gpio.c ****   assert_param(IS_GPIO_PIN(GPIO_Pin));
 1074              		.loc 1 377 0 is_stmt 1
 1075 0046 25B9     		cbnz	r5, .L69
 1076              		.loc 1 377 0 is_stmt 0 discriminator 1
 1077 0048 40F27911 		movw	r1, #377
 1078 004c 0348     		ldr	r0, .L71+4
 1079 004e FFF7FEFF 		bl	assert_failed
 1080              	.LVL104:
 1081              	.L69:
 378:STM32F10x_StdPeriph_Driver/src/stm32f10x_gpio.c ****   
 379:STM32F10x_StdPeriph_Driver/src/stm32f10x_gpio.c ****   GPIOx->BRR = GPIO_Pin;
 1082              		.loc 1 379 0 is_stmt 1
 1083 0052 6561     		str	r5, [r4, #20]
 1084 0054 38BD     		pop	{r3, r4, r5, pc}
 1085              	.LVL105:
 1086              	.L72:
 1087 0056 00BF     		.align	2
 1088              	.L71:
 1089 0058 00080140 		.word	1073809408
 1090 005c 00000000 		.word	.LC0
 1091              		.cfi_endproc
 1092              	.LFE36:
 1094              		.section	.text.GPIO_WriteBit,"ax",%progbits
 1095              		.align	2
 1096              		.global	GPIO_WriteBit
 1097              		.thumb
 1098              		.thumb_func
 1100              	GPIO_WriteBit:
 1101              	.LFB37:
 380:STM32F10x_StdPeriph_Driver/src/stm32f10x_gpio.c **** }
 381:STM32F10x_StdPeriph_Driver/src/stm32f10x_gpio.c **** 
 382:STM32F10x_StdPeriph_Driver/src/stm32f10x_gpio.c **** /**
 383:STM32F10x_StdPeriph_Driver/src/stm32f10x_gpio.c ****   * @brief  Sets or clears the selected data port bit.
 384:STM32F10x_StdPeriph_Driver/src/stm32f10x_gpio.c ****   * @param  GPIOx: where x can be (A..G) to select the GPIO peripheral.
 385:STM32F10x_StdPeriph_Driver/src/stm32f10x_gpio.c ****   * @param  GPIO_Pin: specifies the port bit to be written.
 386:STM32F10x_StdPeriph_Driver/src/stm32f10x_gpio.c ****   *   This parameter can be one of GPIO_Pin_x where x can be (0..15).
 387:STM32F10x_StdPeriph_Driver/src/stm32f10x_gpio.c ****   * @param  BitVal: specifies the value to be written to the selected bit.
 388:STM32F10x_StdPeriph_Driver/src/stm32f10x_gpio.c ****   *   This parameter can be one of the BitAction enum values:
 389:STM32F10x_StdPeriph_Driver/src/stm32f10x_gpio.c ****   *     @arg Bit_RESET: to clear the port pin
 390:STM32F10x_StdPeriph_Driver/src/stm32f10x_gpio.c ****   *     @arg Bit_SET: to set the port pin
 391:STM32F10x_StdPeriph_Driver/src/stm32f10x_gpio.c ****   * @retval None
 392:STM32F10x_StdPeriph_Driver/src/stm32f10x_gpio.c ****   */
 393:STM32F10x_StdPeriph_Driver/src/stm32f10x_gpio.c **** void GPIO_WriteBit(GPIO_TypeDef* GPIOx, uint16_t GPIO_Pin, BitAction BitVal)
 394:STM32F10x_StdPeriph_Driver/src/stm32f10x_gpio.c **** {
 1102              		.loc 1 394 0
 1103              		.cfi_startproc
 1104              		@ args = 0, pretend = 0, frame = 0
 1105              		@ frame_needed = 0, uses_anonymous_args = 0
ARM GAS  /var/folders/g9/bbpj86ld7fx45vd1b3pqxmp00000gn/T//ccyF5Qxu.s 			page 27


 1106              	.LVL106:
 1107 0000 70B5     		push	{r4, r5, r6, lr}
 1108              	.LCFI9:
 1109              		.cfi_def_cfa_offset 16
 1110              		.cfi_offset 4, -16
 1111              		.cfi_offset 5, -12
 1112              		.cfi_offset 6, -8
 1113              		.cfi_offset 14, -4
 1114 0002 0446     		mov	r4, r0
 1115 0004 0D46     		mov	r5, r1
 1116 0006 1646     		mov	r6, r2
 395:STM32F10x_StdPeriph_Driver/src/stm32f10x_gpio.c ****   /* Check the parameters */
 396:STM32F10x_StdPeriph_Driver/src/stm32f10x_gpio.c ****   assert_param(IS_GPIO_ALL_PERIPH(GPIOx));
 1117              		.loc 1 396 0
 1118 0008 2C4B     		ldr	r3, .L80
 1119 000a 9842     		cmp	r0, r3
 1120 000c 1CD0     		beq	.L74
 1121              		.loc 1 396 0 is_stmt 0 discriminator 1
 1122 000e 03F58063 		add	r3, r3, #1024
 1123 0012 9842     		cmp	r0, r3
 1124 0014 18D0     		beq	.L74
 1125              		.loc 1 396 0 discriminator 2
 1126 0016 03F58063 		add	r3, r3, #1024
 1127 001a 9842     		cmp	r0, r3
 1128 001c 14D0     		beq	.L74
 1129              		.loc 1 396 0 discriminator 3
 1130 001e 03F58063 		add	r3, r3, #1024
 1131 0022 9842     		cmp	r0, r3
 1132 0024 10D0     		beq	.L74
 1133              		.loc 1 396 0 discriminator 4
 1134 0026 03F58063 		add	r3, r3, #1024
 1135 002a 9842     		cmp	r0, r3
 1136 002c 0CD0     		beq	.L74
 1137              		.loc 1 396 0 discriminator 5
 1138 002e 03F58063 		add	r3, r3, #1024
 1139 0032 9842     		cmp	r0, r3
 1140 0034 08D0     		beq	.L74
 1141              		.loc 1 396 0 discriminator 6
 1142 0036 03F58063 		add	r3, r3, #1024
 1143 003a 9842     		cmp	r0, r3
 1144 003c 04D0     		beq	.L74
 1145              		.loc 1 396 0 discriminator 7
 1146 003e 4FF4C671 		mov	r1, #396
 1147              	.LVL107:
 1148 0042 1F48     		ldr	r0, .L80+4
 1149              	.LVL108:
 1150 0044 FFF7FEFF 		bl	assert_failed
 1151              	.LVL109:
 1152              	.L74:
 397:STM32F10x_StdPeriph_Driver/src/stm32f10x_gpio.c ****   assert_param(IS_GET_GPIO_PIN(GPIO_Pin));
 1153              		.loc 1 397 0 is_stmt 1
 1154 0048 6B1E     		subs	r3, r5, #1
 1155 004a 9BB2     		uxth	r3, r3
 1156 004c 012B     		cmp	r3, #1
 1157 004e 28D9     		bls	.L75
 1158              		.loc 1 397 0 is_stmt 0 discriminator 1
 1159 0050 042D     		cmp	r5, #4
ARM GAS  /var/folders/g9/bbpj86ld7fx45vd1b3pqxmp00000gn/T//ccyF5Qxu.s 			page 28


 1160 0052 26D0     		beq	.L75
 1161              		.loc 1 397 0 discriminator 2
 1162 0054 082D     		cmp	r5, #8
 1163 0056 24D0     		beq	.L75
 1164              		.loc 1 397 0 discriminator 3
 1165 0058 102D     		cmp	r5, #16
 1166 005a 22D0     		beq	.L75
 1167              		.loc 1 397 0 discriminator 4
 1168 005c 202D     		cmp	r5, #32
 1169 005e 20D0     		beq	.L75
 1170              		.loc 1 397 0 discriminator 5
 1171 0060 402D     		cmp	r5, #64
 1172 0062 1ED0     		beq	.L75
 1173              		.loc 1 397 0 discriminator 6
 1174 0064 802D     		cmp	r5, #128
 1175 0066 1CD0     		beq	.L75
 1176              		.loc 1 397 0 discriminator 7
 1177 0068 B5F5807F 		cmp	r5, #256
 1178 006c 19D0     		beq	.L75
 1179              		.loc 1 397 0 discriminator 8
 1180 006e B5F5007F 		cmp	r5, #512
 1181 0072 16D0     		beq	.L75
 1182              		.loc 1 397 0 discriminator 9
 1183 0074 B5F5806F 		cmp	r5, #1024
 1184 0078 13D0     		beq	.L75
 1185              		.loc 1 397 0 discriminator 10
 1186 007a B5F5006F 		cmp	r5, #2048
 1187 007e 10D0     		beq	.L75
 1188              		.loc 1 397 0 discriminator 11
 1189 0080 B5F5805F 		cmp	r5, #4096
 1190 0084 0DD0     		beq	.L75
 1191              		.loc 1 397 0 discriminator 12
 1192 0086 B5F5005F 		cmp	r5, #8192
 1193 008a 0AD0     		beq	.L75
 1194              		.loc 1 397 0 discriminator 13
 1195 008c B5F5804F 		cmp	r5, #16384
 1196 0090 07D0     		beq	.L75
 1197              		.loc 1 397 0 discriminator 14
 1198 0092 B5F5004F 		cmp	r5, #32768
 1199 0096 04D0     		beq	.L75
 1200              		.loc 1 397 0 discriminator 15
 1201 0098 40F28D11 		movw	r1, #397
 1202 009c 0848     		ldr	r0, .L80+4
 1203 009e FFF7FEFF 		bl	assert_failed
 1204              	.LVL110:
 1205              	.L75:
 398:STM32F10x_StdPeriph_Driver/src/stm32f10x_gpio.c ****   assert_param(IS_GPIO_BIT_ACTION(BitVal)); 
 1206              		.loc 1 398 0 is_stmt 1
 1207 00a2 012E     		cmp	r6, #1
 1208 00a4 04D9     		bls	.L76
 1209              		.loc 1 398 0 is_stmt 0 discriminator 1
 1210 00a6 4FF4C771 		mov	r1, #398
 1211 00aa 0548     		ldr	r0, .L80+4
 1212 00ac FFF7FEFF 		bl	assert_failed
 1213              	.LVL111:
 1214              	.L76:
 399:STM32F10x_StdPeriph_Driver/src/stm32f10x_gpio.c ****   
ARM GAS  /var/folders/g9/bbpj86ld7fx45vd1b3pqxmp00000gn/T//ccyF5Qxu.s 			page 29


 400:STM32F10x_StdPeriph_Driver/src/stm32f10x_gpio.c ****   if (BitVal != Bit_RESET)
 1215              		.loc 1 400 0 is_stmt 1
 1216 00b0 0EB1     		cbz	r6, .L77
 401:STM32F10x_StdPeriph_Driver/src/stm32f10x_gpio.c ****   {
 402:STM32F10x_StdPeriph_Driver/src/stm32f10x_gpio.c ****     GPIOx->BSRR = GPIO_Pin;
 1217              		.loc 1 402 0
 1218 00b2 2561     		str	r5, [r4, #16]
 1219 00b4 70BD     		pop	{r4, r5, r6, pc}
 1220              	.LVL112:
 1221              	.L77:
 403:STM32F10x_StdPeriph_Driver/src/stm32f10x_gpio.c ****   }
 404:STM32F10x_StdPeriph_Driver/src/stm32f10x_gpio.c ****   else
 405:STM32F10x_StdPeriph_Driver/src/stm32f10x_gpio.c ****   {
 406:STM32F10x_StdPeriph_Driver/src/stm32f10x_gpio.c ****     GPIOx->BRR = GPIO_Pin;
 1222              		.loc 1 406 0
 1223 00b6 6561     		str	r5, [r4, #20]
 1224 00b8 70BD     		pop	{r4, r5, r6, pc}
 1225              	.LVL113:
 1226              	.L81:
 1227 00ba 00BF     		.align	2
 1228              	.L80:
 1229 00bc 00080140 		.word	1073809408
 1230 00c0 00000000 		.word	.LC0
 1231              		.cfi_endproc
 1232              	.LFE37:
 1234              		.section	.text.GPIO_Write,"ax",%progbits
 1235              		.align	2
 1236              		.global	GPIO_Write
 1237              		.thumb
 1238              		.thumb_func
 1240              	GPIO_Write:
 1241              	.LFB38:
 407:STM32F10x_StdPeriph_Driver/src/stm32f10x_gpio.c ****   }
 408:STM32F10x_StdPeriph_Driver/src/stm32f10x_gpio.c **** }
 409:STM32F10x_StdPeriph_Driver/src/stm32f10x_gpio.c **** 
 410:STM32F10x_StdPeriph_Driver/src/stm32f10x_gpio.c **** /**
 411:STM32F10x_StdPeriph_Driver/src/stm32f10x_gpio.c ****   * @brief  Writes data to the specified GPIO data port.
 412:STM32F10x_StdPeriph_Driver/src/stm32f10x_gpio.c ****   * @param  GPIOx: where x can be (A..G) to select the GPIO peripheral.
 413:STM32F10x_StdPeriph_Driver/src/stm32f10x_gpio.c ****   * @param  PortVal: specifies the value to be written to the port output data register.
 414:STM32F10x_StdPeriph_Driver/src/stm32f10x_gpio.c ****   * @retval None
 415:STM32F10x_StdPeriph_Driver/src/stm32f10x_gpio.c ****   */
 416:STM32F10x_StdPeriph_Driver/src/stm32f10x_gpio.c **** void GPIO_Write(GPIO_TypeDef* GPIOx, uint16_t PortVal)
 417:STM32F10x_StdPeriph_Driver/src/stm32f10x_gpio.c **** {
 1242              		.loc 1 417 0
 1243              		.cfi_startproc
 1244              		@ args = 0, pretend = 0, frame = 0
 1245              		@ frame_needed = 0, uses_anonymous_args = 0
 1246              	.LVL114:
 1247 0000 38B5     		push	{r3, r4, r5, lr}
 1248              	.LCFI10:
 1249              		.cfi_def_cfa_offset 16
 1250              		.cfi_offset 3, -16
 1251              		.cfi_offset 4, -12
 1252              		.cfi_offset 5, -8
 1253              		.cfi_offset 14, -4
 1254 0002 0446     		mov	r4, r0
 1255 0004 0D46     		mov	r5, r1
ARM GAS  /var/folders/g9/bbpj86ld7fx45vd1b3pqxmp00000gn/T//ccyF5Qxu.s 			page 30


 418:STM32F10x_StdPeriph_Driver/src/stm32f10x_gpio.c ****   /* Check the parameters */
 419:STM32F10x_StdPeriph_Driver/src/stm32f10x_gpio.c ****   assert_param(IS_GPIO_ALL_PERIPH(GPIOx));
 1256              		.loc 1 419 0
 1257 0006 114B     		ldr	r3, .L85
 1258 0008 9842     		cmp	r0, r3
 1259 000a 1CD0     		beq	.L83
 1260              		.loc 1 419 0 is_stmt 0 discriminator 1
 1261 000c 03F58063 		add	r3, r3, #1024
 1262 0010 9842     		cmp	r0, r3
 1263 0012 18D0     		beq	.L83
 1264              		.loc 1 419 0 discriminator 2
 1265 0014 03F58063 		add	r3, r3, #1024
 1266 0018 9842     		cmp	r0, r3
 1267 001a 14D0     		beq	.L83
 1268              		.loc 1 419 0 discriminator 3
 1269 001c 03F58063 		add	r3, r3, #1024
 1270 0020 9842     		cmp	r0, r3
 1271 0022 10D0     		beq	.L83
 1272              		.loc 1 419 0 discriminator 4
 1273 0024 03F58063 		add	r3, r3, #1024
 1274 0028 9842     		cmp	r0, r3
 1275 002a 0CD0     		beq	.L83
 1276              		.loc 1 419 0 discriminator 5
 1277 002c 03F58063 		add	r3, r3, #1024
 1278 0030 9842     		cmp	r0, r3
 1279 0032 08D0     		beq	.L83
 1280              		.loc 1 419 0 discriminator 6
 1281 0034 03F58063 		add	r3, r3, #1024
 1282 0038 9842     		cmp	r0, r3
 1283 003a 04D0     		beq	.L83
 1284              		.loc 1 419 0 discriminator 7
 1285 003c 40F2A311 		movw	r1, #419
 1286              	.LVL115:
 1287 0040 0348     		ldr	r0, .L85+4
 1288              	.LVL116:
 1289 0042 FFF7FEFF 		bl	assert_failed
 1290              	.LVL117:
 1291              	.L83:
 420:STM32F10x_StdPeriph_Driver/src/stm32f10x_gpio.c ****   
 421:STM32F10x_StdPeriph_Driver/src/stm32f10x_gpio.c ****   GPIOx->ODR = PortVal;
 1292              		.loc 1 421 0 is_stmt 1
 1293 0046 E560     		str	r5, [r4, #12]
 1294 0048 38BD     		pop	{r3, r4, r5, pc}
 1295              	.LVL118:
 1296              	.L86:
 1297 004a 00BF     		.align	2
 1298              	.L85:
 1299 004c 00080140 		.word	1073809408
 1300 0050 00000000 		.word	.LC0
 1301              		.cfi_endproc
 1302              	.LFE38:
 1304              		.section	.text.GPIO_PinLockConfig,"ax",%progbits
 1305              		.align	2
 1306              		.global	GPIO_PinLockConfig
 1307              		.thumb
 1308              		.thumb_func
 1310              	GPIO_PinLockConfig:
ARM GAS  /var/folders/g9/bbpj86ld7fx45vd1b3pqxmp00000gn/T//ccyF5Qxu.s 			page 31


 1311              	.LFB39:
 422:STM32F10x_StdPeriph_Driver/src/stm32f10x_gpio.c **** }
 423:STM32F10x_StdPeriph_Driver/src/stm32f10x_gpio.c **** 
 424:STM32F10x_StdPeriph_Driver/src/stm32f10x_gpio.c **** /**
 425:STM32F10x_StdPeriph_Driver/src/stm32f10x_gpio.c ****   * @brief  Locks GPIO Pins configuration registers.
 426:STM32F10x_StdPeriph_Driver/src/stm32f10x_gpio.c ****   * @param  GPIOx: where x can be (A..G) to select the GPIO peripheral.
 427:STM32F10x_StdPeriph_Driver/src/stm32f10x_gpio.c ****   * @param  GPIO_Pin: specifies the port bit to be written.
 428:STM32F10x_StdPeriph_Driver/src/stm32f10x_gpio.c ****   *   This parameter can be any combination of GPIO_Pin_x where x can be (0..15).
 429:STM32F10x_StdPeriph_Driver/src/stm32f10x_gpio.c ****   * @retval None
 430:STM32F10x_StdPeriph_Driver/src/stm32f10x_gpio.c ****   */
 431:STM32F10x_StdPeriph_Driver/src/stm32f10x_gpio.c **** void GPIO_PinLockConfig(GPIO_TypeDef* GPIOx, uint16_t GPIO_Pin)
 432:STM32F10x_StdPeriph_Driver/src/stm32f10x_gpio.c **** {
 1312              		.loc 1 432 0
 1313              		.cfi_startproc
 1314              		@ args = 0, pretend = 0, frame = 0
 1315              		@ frame_needed = 0, uses_anonymous_args = 0
 1316              	.LVL119:
 1317 0000 38B5     		push	{r3, r4, r5, lr}
 1318              	.LCFI11:
 1319              		.cfi_def_cfa_offset 16
 1320              		.cfi_offset 3, -16
 1321              		.cfi_offset 4, -12
 1322              		.cfi_offset 5, -8
 1323              		.cfi_offset 14, -4
 1324 0002 0446     		mov	r4, r0
 1325 0004 0D46     		mov	r5, r1
 1326              	.LVL120:
 433:STM32F10x_StdPeriph_Driver/src/stm32f10x_gpio.c ****   uint32_t tmp = 0x00010000;
 434:STM32F10x_StdPeriph_Driver/src/stm32f10x_gpio.c ****   
 435:STM32F10x_StdPeriph_Driver/src/stm32f10x_gpio.c ****   /* Check the parameters */
 436:STM32F10x_StdPeriph_Driver/src/stm32f10x_gpio.c ****   assert_param(IS_GPIO_ALL_PERIPH(GPIOx));
 1327              		.loc 1 436 0
 1328 0006 174B     		ldr	r3, .L91
 1329 0008 9842     		cmp	r0, r3
 1330 000a 1CD0     		beq	.L88
 1331              		.loc 1 436 0 is_stmt 0 discriminator 1
 1332 000c 03F58063 		add	r3, r3, #1024
 1333 0010 9842     		cmp	r0, r3
 1334 0012 18D0     		beq	.L88
 1335              		.loc 1 436 0 discriminator 2
 1336 0014 03F58063 		add	r3, r3, #1024
 1337 0018 9842     		cmp	r0, r3
 1338 001a 14D0     		beq	.L88
 1339              		.loc 1 436 0 discriminator 3
 1340 001c 03F58063 		add	r3, r3, #1024
 1341 0020 9842     		cmp	r0, r3
 1342 0022 10D0     		beq	.L88
 1343              		.loc 1 436 0 discriminator 4
 1344 0024 03F58063 		add	r3, r3, #1024
 1345 0028 9842     		cmp	r0, r3
 1346 002a 0CD0     		beq	.L88
 1347              		.loc 1 436 0 discriminator 5
 1348 002c 03F58063 		add	r3, r3, #1024
 1349 0030 9842     		cmp	r0, r3
 1350 0032 08D0     		beq	.L88
 1351              		.loc 1 436 0 discriminator 6
 1352 0034 03F58063 		add	r3, r3, #1024
ARM GAS  /var/folders/g9/bbpj86ld7fx45vd1b3pqxmp00000gn/T//ccyF5Qxu.s 			page 32


 1353 0038 9842     		cmp	r0, r3
 1354 003a 04D0     		beq	.L88
 1355              		.loc 1 436 0 discriminator 7
 1356 003c 4FF4DA71 		mov	r1, #436
 1357              	.LVL121:
 1358 0040 0948     		ldr	r0, .L91+4
 1359              	.LVL122:
 1360 0042 FFF7FEFF 		bl	assert_failed
 1361              	.LVL123:
 1362              	.L88:
 437:STM32F10x_StdPeriph_Driver/src/stm32f10x_gpio.c ****   assert_param(IS_GPIO_PIN(GPIO_Pin));
 1363              		.loc 1 437 0 is_stmt 1
 1364 0046 25B9     		cbnz	r5, .L89
 1365              		.loc 1 437 0 is_stmt 0 discriminator 1
 1366 0048 40F2B511 		movw	r1, #437
 1367 004c 0648     		ldr	r0, .L91+4
 1368 004e FFF7FEFF 		bl	assert_failed
 1369              	.LVL124:
 1370              	.L89:
 438:STM32F10x_StdPeriph_Driver/src/stm32f10x_gpio.c ****   
 439:STM32F10x_StdPeriph_Driver/src/stm32f10x_gpio.c ****   tmp |= GPIO_Pin;
 1371              		.loc 1 439 0 is_stmt 1
 1372 0052 45F48033 		orr	r3, r5, #65536
 1373              	.LVL125:
 440:STM32F10x_StdPeriph_Driver/src/stm32f10x_gpio.c ****   /* Set LCKK bit */
 441:STM32F10x_StdPeriph_Driver/src/stm32f10x_gpio.c ****   GPIOx->LCKR = tmp;
 1374              		.loc 1 441 0
 1375 0056 A361     		str	r3, [r4, #24]
 442:STM32F10x_StdPeriph_Driver/src/stm32f10x_gpio.c ****   /* Reset LCKK bit */
 443:STM32F10x_StdPeriph_Driver/src/stm32f10x_gpio.c ****   GPIOx->LCKR =  GPIO_Pin;
 1376              		.loc 1 443 0
 1377 0058 A561     		str	r5, [r4, #24]
 444:STM32F10x_StdPeriph_Driver/src/stm32f10x_gpio.c ****   /* Set LCKK bit */
 445:STM32F10x_StdPeriph_Driver/src/stm32f10x_gpio.c ****   GPIOx->LCKR = tmp;
 1378              		.loc 1 445 0
 1379 005a A361     		str	r3, [r4, #24]
 446:STM32F10x_StdPeriph_Driver/src/stm32f10x_gpio.c ****   /* Read LCKK bit*/
 447:STM32F10x_StdPeriph_Driver/src/stm32f10x_gpio.c ****   tmp = GPIOx->LCKR;
 1380              		.loc 1 447 0
 1381 005c A369     		ldr	r3, [r4, #24]
 1382              	.LVL126:
 448:STM32F10x_StdPeriph_Driver/src/stm32f10x_gpio.c ****   /* Read LCKK bit*/
 449:STM32F10x_StdPeriph_Driver/src/stm32f10x_gpio.c ****   tmp = GPIOx->LCKR;
 1383              		.loc 1 449 0
 1384 005e A369     		ldr	r3, [r4, #24]
 1385 0060 38BD     		pop	{r3, r4, r5, pc}
 1386              	.LVL127:
 1387              	.L92:
 1388 0062 00BF     		.align	2
 1389              	.L91:
 1390 0064 00080140 		.word	1073809408
 1391 0068 00000000 		.word	.LC0
 1392              		.cfi_endproc
 1393              	.LFE39:
 1395              		.section	.text.GPIO_EventOutputConfig,"ax",%progbits
 1396              		.align	2
 1397              		.global	GPIO_EventOutputConfig
ARM GAS  /var/folders/g9/bbpj86ld7fx45vd1b3pqxmp00000gn/T//ccyF5Qxu.s 			page 33


 1398              		.thumb
 1399              		.thumb_func
 1401              	GPIO_EventOutputConfig:
 1402              	.LFB40:
 450:STM32F10x_StdPeriph_Driver/src/stm32f10x_gpio.c **** }
 451:STM32F10x_StdPeriph_Driver/src/stm32f10x_gpio.c **** 
 452:STM32F10x_StdPeriph_Driver/src/stm32f10x_gpio.c **** /**
 453:STM32F10x_StdPeriph_Driver/src/stm32f10x_gpio.c ****   * @brief  Selects the GPIO pin used as Event output.
 454:STM32F10x_StdPeriph_Driver/src/stm32f10x_gpio.c ****   * @param  GPIO_PortSource: selects the GPIO port to be used as source
 455:STM32F10x_StdPeriph_Driver/src/stm32f10x_gpio.c ****   *   for Event output.
 456:STM32F10x_StdPeriph_Driver/src/stm32f10x_gpio.c ****   *   This parameter can be GPIO_PortSourceGPIOx where x can be (A..E).
 457:STM32F10x_StdPeriph_Driver/src/stm32f10x_gpio.c ****   * @param  GPIO_PinSource: specifies the pin for the Event output.
 458:STM32F10x_StdPeriph_Driver/src/stm32f10x_gpio.c ****   *   This parameter can be GPIO_PinSourcex where x can be (0..15).
 459:STM32F10x_StdPeriph_Driver/src/stm32f10x_gpio.c ****   * @retval None
 460:STM32F10x_StdPeriph_Driver/src/stm32f10x_gpio.c ****   */
 461:STM32F10x_StdPeriph_Driver/src/stm32f10x_gpio.c **** void GPIO_EventOutputConfig(uint8_t GPIO_PortSource, uint8_t GPIO_PinSource)
 462:STM32F10x_StdPeriph_Driver/src/stm32f10x_gpio.c **** {
 1403              		.loc 1 462 0
 1404              		.cfi_startproc
 1405              		@ args = 0, pretend = 0, frame = 0
 1406              		@ frame_needed = 0, uses_anonymous_args = 0
 1407              	.LVL128:
 1408 0000 38B5     		push	{r3, r4, r5, lr}
 1409              	.LCFI12:
 1410              		.cfi_def_cfa_offset 16
 1411              		.cfi_offset 3, -16
 1412              		.cfi_offset 4, -12
 1413              		.cfi_offset 5, -8
 1414              		.cfi_offset 14, -4
 1415 0002 0546     		mov	r5, r0
 1416 0004 0C46     		mov	r4, r1
 1417              	.LVL129:
 463:STM32F10x_StdPeriph_Driver/src/stm32f10x_gpio.c ****   uint32_t tmpreg = 0x00;
 464:STM32F10x_StdPeriph_Driver/src/stm32f10x_gpio.c ****   /* Check the parameters */
 465:STM32F10x_StdPeriph_Driver/src/stm32f10x_gpio.c ****   assert_param(IS_GPIO_EVENTOUT_PORT_SOURCE(GPIO_PortSource));
 1418              		.loc 1 465 0
 1419 0006 0428     		cmp	r0, #4
 1420 0008 04D9     		bls	.L94
 1421              		.loc 1 465 0 is_stmt 0 discriminator 1
 1422 000a 40F2D111 		movw	r1, #465
 1423              	.LVL130:
 1424 000e 0A48     		ldr	r0, .L97
 1425              	.LVL131:
 1426 0010 FFF7FEFF 		bl	assert_failed
 1427              	.LVL132:
 1428              	.L94:
 466:STM32F10x_StdPeriph_Driver/src/stm32f10x_gpio.c ****   assert_param(IS_GPIO_PIN_SOURCE(GPIO_PinSource));
 1429              		.loc 1 466 0 is_stmt 1
 1430 0014 0F2C     		cmp	r4, #15
 1431 0016 04D9     		bls	.L95
 1432              		.loc 1 466 0 is_stmt 0 discriminator 1
 1433 0018 4FF4E971 		mov	r1, #466
 1434 001c 0648     		ldr	r0, .L97
 1435 001e FFF7FEFF 		bl	assert_failed
 1436              	.LVL133:
 1437              	.L95:
 467:STM32F10x_StdPeriph_Driver/src/stm32f10x_gpio.c ****     
ARM GAS  /var/folders/g9/bbpj86ld7fx45vd1b3pqxmp00000gn/T//ccyF5Qxu.s 			page 34


 468:STM32F10x_StdPeriph_Driver/src/stm32f10x_gpio.c ****   tmpreg = AFIO->EVCR;
 1438              		.loc 1 468 0 is_stmt 1
 1439 0022 064B     		ldr	r3, .L97+4
 1440 0024 1968     		ldr	r1, [r3]
 1441              	.LVL134:
 469:STM32F10x_StdPeriph_Driver/src/stm32f10x_gpio.c ****   /* Clear the PORT[6:4] and PIN[3:0] bits */
 470:STM32F10x_StdPeriph_Driver/src/stm32f10x_gpio.c ****   tmpreg &= EVCR_PORTPINCONFIG_MASK;
 1442              		.loc 1 470 0
 1443 0026 21F07F01 		bic	r1, r1, #127
 1444              	.LVL135:
 1445 002a 0904     		lsls	r1, r1, #16
 1446 002c 090C     		lsrs	r1, r1, #16
 1447              	.LVL136:
 471:STM32F10x_StdPeriph_Driver/src/stm32f10x_gpio.c ****   tmpreg |= (uint32_t)GPIO_PortSource << 0x04;
 1448              		.loc 1 471 0
 1449 002e 41EA0511 		orr	r1, r1, r5, lsl #4
 1450              	.LVL137:
 472:STM32F10x_StdPeriph_Driver/src/stm32f10x_gpio.c ****   tmpreg |= GPIO_PinSource;
 1451              		.loc 1 472 0
 1452 0032 2143     		orrs	r1, r1, r4
 1453              	.LVL138:
 473:STM32F10x_StdPeriph_Driver/src/stm32f10x_gpio.c ****   AFIO->EVCR = tmpreg;
 1454              		.loc 1 473 0
 1455 0034 1960     		str	r1, [r3]
 1456 0036 38BD     		pop	{r3, r4, r5, pc}
 1457              	.L98:
 1458              		.align	2
 1459              	.L97:
 1460 0038 00000000 		.word	.LC0
 1461 003c 00000140 		.word	1073807360
 1462              		.cfi_endproc
 1463              	.LFE40:
 1465              		.section	.text.GPIO_EventOutputCmd,"ax",%progbits
 1466              		.align	2
 1467              		.global	GPIO_EventOutputCmd
 1468              		.thumb
 1469              		.thumb_func
 1471              	GPIO_EventOutputCmd:
 1472              	.LFB41:
 474:STM32F10x_StdPeriph_Driver/src/stm32f10x_gpio.c **** }
 475:STM32F10x_StdPeriph_Driver/src/stm32f10x_gpio.c **** 
 476:STM32F10x_StdPeriph_Driver/src/stm32f10x_gpio.c **** /**
 477:STM32F10x_StdPeriph_Driver/src/stm32f10x_gpio.c ****   * @brief  Enables or disables the Event Output.
 478:STM32F10x_StdPeriph_Driver/src/stm32f10x_gpio.c ****   * @param  NewState: new state of the Event output.
 479:STM32F10x_StdPeriph_Driver/src/stm32f10x_gpio.c ****   *   This parameter can be: ENABLE or DISABLE.
 480:STM32F10x_StdPeriph_Driver/src/stm32f10x_gpio.c ****   * @retval None
 481:STM32F10x_StdPeriph_Driver/src/stm32f10x_gpio.c ****   */
 482:STM32F10x_StdPeriph_Driver/src/stm32f10x_gpio.c **** void GPIO_EventOutputCmd(FunctionalState NewState)
 483:STM32F10x_StdPeriph_Driver/src/stm32f10x_gpio.c **** {
 1473              		.loc 1 483 0
 1474              		.cfi_startproc
 1475              		@ args = 0, pretend = 0, frame = 0
 1476              		@ frame_needed = 0, uses_anonymous_args = 0
 1477              	.LVL139:
 1478 0000 10B5     		push	{r4, lr}
 1479              	.LCFI13:
 1480              		.cfi_def_cfa_offset 8
ARM GAS  /var/folders/g9/bbpj86ld7fx45vd1b3pqxmp00000gn/T//ccyF5Qxu.s 			page 35


 1481              		.cfi_offset 4, -8
 1482              		.cfi_offset 14, -4
 1483 0002 0446     		mov	r4, r0
 484:STM32F10x_StdPeriph_Driver/src/stm32f10x_gpio.c ****   /* Check the parameters */
 485:STM32F10x_StdPeriph_Driver/src/stm32f10x_gpio.c ****   assert_param(IS_FUNCTIONAL_STATE(NewState));
 1484              		.loc 1 485 0
 1485 0004 0128     		cmp	r0, #1
 1486 0006 04D9     		bls	.L100
 1487              		.loc 1 485 0 is_stmt 0 discriminator 1
 1488 0008 40F2E511 		movw	r1, #485
 1489 000c 0248     		ldr	r0, .L102
 1490              	.LVL140:
 1491 000e FFF7FEFF 		bl	assert_failed
 1492              	.LVL141:
 1493              	.L100:
 486:STM32F10x_StdPeriph_Driver/src/stm32f10x_gpio.c ****   
 487:STM32F10x_StdPeriph_Driver/src/stm32f10x_gpio.c ****   *(__IO uint32_t *) EVCR_EVOE_BB = (uint32_t)NewState;
 1494              		.loc 1 487 0 is_stmt 1
 1495 0012 024B     		ldr	r3, .L102+4
 1496 0014 1C60     		str	r4, [r3]
 1497 0016 10BD     		pop	{r4, pc}
 1498              	.L103:
 1499              		.align	2
 1500              	.L102:
 1501 0018 00000000 		.word	.LC0
 1502 001c 1C002042 		.word	1109393436
 1503              		.cfi_endproc
 1504              	.LFE41:
 1506              		.section	.text.GPIO_PinRemapConfig,"ax",%progbits
 1507              		.align	2
 1508              		.global	GPIO_PinRemapConfig
 1509              		.thumb
 1510              		.thumb_func
 1512              	GPIO_PinRemapConfig:
 1513              	.LFB42:
 488:STM32F10x_StdPeriph_Driver/src/stm32f10x_gpio.c **** }
 489:STM32F10x_StdPeriph_Driver/src/stm32f10x_gpio.c **** 
 490:STM32F10x_StdPeriph_Driver/src/stm32f10x_gpio.c **** /**
 491:STM32F10x_StdPeriph_Driver/src/stm32f10x_gpio.c ****   * @brief  Changes the mapping of the specified pin.
 492:STM32F10x_StdPeriph_Driver/src/stm32f10x_gpio.c ****   * @param  GPIO_Remap: selects the pin to remap.
 493:STM32F10x_StdPeriph_Driver/src/stm32f10x_gpio.c ****   *   This parameter can be one of the following values:
 494:STM32F10x_StdPeriph_Driver/src/stm32f10x_gpio.c ****   *     @arg GPIO_Remap_SPI1
 495:STM32F10x_StdPeriph_Driver/src/stm32f10x_gpio.c ****   *     @arg GPIO_Remap_I2C1
 496:STM32F10x_StdPeriph_Driver/src/stm32f10x_gpio.c ****   *     @arg GPIO_Remap_USART1
 497:STM32F10x_StdPeriph_Driver/src/stm32f10x_gpio.c ****   *     @arg GPIO_Remap_USART2
 498:STM32F10x_StdPeriph_Driver/src/stm32f10x_gpio.c ****   *     @arg GPIO_PartialRemap_USART3
 499:STM32F10x_StdPeriph_Driver/src/stm32f10x_gpio.c ****   *     @arg GPIO_FullRemap_USART3
 500:STM32F10x_StdPeriph_Driver/src/stm32f10x_gpio.c ****   *     @arg GPIO_PartialRemap_TIM1
 501:STM32F10x_StdPeriph_Driver/src/stm32f10x_gpio.c ****   *     @arg GPIO_FullRemap_TIM1
 502:STM32F10x_StdPeriph_Driver/src/stm32f10x_gpio.c ****   *     @arg GPIO_PartialRemap1_TIM2
 503:STM32F10x_StdPeriph_Driver/src/stm32f10x_gpio.c ****   *     @arg GPIO_PartialRemap2_TIM2
 504:STM32F10x_StdPeriph_Driver/src/stm32f10x_gpio.c ****   *     @arg GPIO_FullRemap_TIM2
 505:STM32F10x_StdPeriph_Driver/src/stm32f10x_gpio.c ****   *     @arg GPIO_PartialRemap_TIM3
 506:STM32F10x_StdPeriph_Driver/src/stm32f10x_gpio.c ****   *     @arg GPIO_FullRemap_TIM3
 507:STM32F10x_StdPeriph_Driver/src/stm32f10x_gpio.c ****   *     @arg GPIO_Remap_TIM4
 508:STM32F10x_StdPeriph_Driver/src/stm32f10x_gpio.c ****   *     @arg GPIO_Remap1_CAN1
 509:STM32F10x_StdPeriph_Driver/src/stm32f10x_gpio.c ****   *     @arg GPIO_Remap2_CAN1
ARM GAS  /var/folders/g9/bbpj86ld7fx45vd1b3pqxmp00000gn/T//ccyF5Qxu.s 			page 36


 510:STM32F10x_StdPeriph_Driver/src/stm32f10x_gpio.c ****   *     @arg GPIO_Remap_PD01
 511:STM32F10x_StdPeriph_Driver/src/stm32f10x_gpio.c ****   *     @arg GPIO_Remap_TIM5CH4_LSI
 512:STM32F10x_StdPeriph_Driver/src/stm32f10x_gpio.c ****   *     @arg GPIO_Remap_ADC1_ETRGINJ
 513:STM32F10x_StdPeriph_Driver/src/stm32f10x_gpio.c ****   *     @arg GPIO_Remap_ADC1_ETRGREG
 514:STM32F10x_StdPeriph_Driver/src/stm32f10x_gpio.c ****   *     @arg GPIO_Remap_ADC2_ETRGINJ
 515:STM32F10x_StdPeriph_Driver/src/stm32f10x_gpio.c ****   *     @arg GPIO_Remap_ADC2_ETRGREG
 516:STM32F10x_StdPeriph_Driver/src/stm32f10x_gpio.c ****   *     @arg GPIO_Remap_ETH
 517:STM32F10x_StdPeriph_Driver/src/stm32f10x_gpio.c ****   *     @arg GPIO_Remap_CAN2  
 518:STM32F10x_StdPeriph_Driver/src/stm32f10x_gpio.c ****   *     @arg GPIO_Remap_SWJ_NoJTRST
 519:STM32F10x_StdPeriph_Driver/src/stm32f10x_gpio.c ****   *     @arg GPIO_Remap_SWJ_JTAGDisable
 520:STM32F10x_StdPeriph_Driver/src/stm32f10x_gpio.c ****   *     @arg GPIO_Remap_SWJ_Disable
 521:STM32F10x_StdPeriph_Driver/src/stm32f10x_gpio.c ****   *     @arg GPIO_Remap_SPI3
 522:STM32F10x_StdPeriph_Driver/src/stm32f10x_gpio.c ****   *     @arg GPIO_Remap_TIM2ITR1_PTP_SOF
 523:STM32F10x_StdPeriph_Driver/src/stm32f10x_gpio.c ****   *     @arg GPIO_Remap_PTP_PPS  
 524:STM32F10x_StdPeriph_Driver/src/stm32f10x_gpio.c ****   * @note  If the GPIO_Remap_TIM2ITR1_PTP_SOF is enabled the TIM2 ITR1 is connected 
 525:STM32F10x_StdPeriph_Driver/src/stm32f10x_gpio.c ****   *        to Ethernet PTP output. When Reset TIM2 ITR1 is connected to USB OTG SOF output.       
 526:STM32F10x_StdPeriph_Driver/src/stm32f10x_gpio.c ****   * @param  NewState: new state of the port pin remapping.
 527:STM32F10x_StdPeriph_Driver/src/stm32f10x_gpio.c ****   *   This parameter can be: ENABLE or DISABLE.
 528:STM32F10x_StdPeriph_Driver/src/stm32f10x_gpio.c ****   * @retval None
 529:STM32F10x_StdPeriph_Driver/src/stm32f10x_gpio.c ****   */
 530:STM32F10x_StdPeriph_Driver/src/stm32f10x_gpio.c **** void GPIO_PinRemapConfig(uint32_t GPIO_Remap, FunctionalState NewState)
 531:STM32F10x_StdPeriph_Driver/src/stm32f10x_gpio.c **** {
 1514              		.loc 1 531 0
 1515              		.cfi_startproc
 1516              		@ args = 0, pretend = 0, frame = 0
 1517              		@ frame_needed = 0, uses_anonymous_args = 0
 1518              	.LVL142:
 1519 0000 38B5     		push	{r3, r4, r5, lr}
 1520              	.LCFI14:
 1521              		.cfi_def_cfa_offset 16
 1522              		.cfi_offset 3, -16
 1523              		.cfi_offset 4, -12
 1524              		.cfi_offset 5, -8
 1525              		.cfi_offset 14, -4
 1526 0002 0446     		mov	r4, r0
 1527 0004 0D46     		mov	r5, r1
 1528              	.LVL143:
 532:STM32F10x_StdPeriph_Driver/src/stm32f10x_gpio.c ****   uint32_t tmp = 0x00, tmp1 = 0x00, tmpreg = 0x00, tmpmask = 0x00;
 533:STM32F10x_StdPeriph_Driver/src/stm32f10x_gpio.c **** 
 534:STM32F10x_StdPeriph_Driver/src/stm32f10x_gpio.c ****   /* Check the parameters */
 535:STM32F10x_StdPeriph_Driver/src/stm32f10x_gpio.c ****   assert_param(IS_GPIO_REMAP(GPIO_Remap));
 1529              		.loc 1 535 0
 1530 0006 431E     		subs	r3, r0, #1
 1531 0008 012B     		cmp	r3, #1
 1532 000a 5CD9     		bls	.L105
 1533              		.loc 1 535 0 is_stmt 0 discriminator 1
 1534 000c 0428     		cmp	r0, #4
 1535 000e 5AD0     		beq	.L105
 1536              		.loc 1 535 0 discriminator 2
 1537 0010 0828     		cmp	r0, #8
 1538 0012 58D0     		beq	.L105
 1539              		.loc 1 535 0 discriminator 3
 1540 0014 464B     		ldr	r3, .L112
 1541 0016 9842     		cmp	r0, r3
 1542 0018 55D0     		beq	.L105
 1543              		.loc 1 535 0 discriminator 4
 1544 001a 2033     		adds	r3, r3, #32
ARM GAS  /var/folders/g9/bbpj86ld7fx45vd1b3pqxmp00000gn/T//ccyF5Qxu.s 			page 37


 1545 001c 9842     		cmp	r0, r3
 1546 001e 52D0     		beq	.L105
 1547              		.loc 1 535 0 discriminator 5
 1548 0020 444B     		ldr	r3, .L112+4
 1549 0022 9842     		cmp	r0, r3
 1550 0024 4FD0     		beq	.L105
 1551              		.loc 1 535 0 discriminator 6
 1552 0026 8033     		adds	r3, r3, #128
 1553 0028 9842     		cmp	r0, r3
 1554 002a 4CD0     		beq	.L105
 1555              		.loc 1 535 0 discriminator 7
 1556 002c 424B     		ldr	r3, .L112+8
 1557 002e 9842     		cmp	r0, r3
 1558 0030 49D0     		beq	.L105
 1559              		.loc 1 535 0 discriminator 8
 1560 0032 03F58073 		add	r3, r3, #256
 1561 0036 9842     		cmp	r0, r3
 1562 0038 45D0     		beq	.L105
 1563              		.loc 1 535 0 discriminator 9
 1564 003a 03F58073 		add	r3, r3, #256
 1565 003e 9842     		cmp	r0, r3
 1566 0040 41D0     		beq	.L105
 1567              		.loc 1 535 0 discriminator 10
 1568 0042 3E4B     		ldr	r3, .L112+12
 1569 0044 9842     		cmp	r0, r3
 1570 0046 3ED0     		beq	.L105
 1571              		.loc 1 535 0 discriminator 11
 1572 0048 03F58063 		add	r3, r3, #1024
 1573 004c 9842     		cmp	r0, r3
 1574 004e 3AD0     		beq	.L105
 1575              		.loc 1 535 0 discriminator 12
 1576 0050 B0F5805F 		cmp	r0, #4096
 1577 0054 37D0     		beq	.L105
 1578              		.loc 1 535 0 discriminator 13
 1579 0056 B0F5EA1F 		cmp	r0, #1916928
 1580 005a 34D0     		beq	.L105
 1581              		.loc 1 535 0 discriminator 14
 1582 005c B0F5EB1F 		cmp	r0, #1925120
 1583 0060 31D0     		beq	.L105
 1584              		.loc 1 535 0 discriminator 15
 1585 0062 B0F5004F 		cmp	r0, #32768
 1586 0066 2ED0     		beq	.L105
 1587              		.loc 1 535 0 discriminator 16
 1588 0068 354B     		ldr	r3, .L112+16
 1589 006a 9842     		cmp	r0, r3
 1590 006c 2BD0     		beq	.L105
 1591              		.loc 1 535 0 discriminator 17
 1592 006e 0133     		adds	r3, r3, #1
 1593 0070 9842     		cmp	r0, r3
 1594 0072 28D0     		beq	.L105
 1595              		.loc 1 535 0 discriminator 18
 1596 0074 0233     		adds	r3, r3, #2
 1597 0076 9842     		cmp	r0, r3
 1598 0078 25D0     		beq	.L105
 1599              		.loc 1 535 0 discriminator 19
 1600 007a 0433     		adds	r3, r3, #4
 1601 007c 9842     		cmp	r0, r3
ARM GAS  /var/folders/g9/bbpj86ld7fx45vd1b3pqxmp00000gn/T//ccyF5Qxu.s 			page 38


 1602 007e 22D0     		beq	.L105
 1603              		.loc 1 535 0 discriminator 20
 1604 0080 0833     		adds	r3, r3, #8
 1605 0082 9842     		cmp	r0, r3
 1606 0084 1FD0     		beq	.L105
 1607              		.loc 1 535 0 discriminator 21
 1608 0086 B0F1201F 		cmp	r0, #2097184
 1609 008a 1CD0     		beq	.L105
 1610              		.loc 1 535 0 discriminator 22
 1611 008c 3033     		adds	r3, r3, #48
 1612 008e 9842     		cmp	r0, r3
 1613 0090 19D0     		beq	.L105
 1614              		.loc 1 535 0 discriminator 23
 1615 0092 2C4B     		ldr	r3, .L112+20
 1616 0094 9842     		cmp	r0, r3
 1617 0096 16D0     		beq	.L105
 1618              		.loc 1 535 0 discriminator 24
 1619 0098 03F58073 		add	r3, r3, #256
 1620 009c 9842     		cmp	r0, r3
 1621 009e 12D0     		beq	.L105
 1622              		.loc 1 535 0 discriminator 25
 1623 00a0 03F50073 		add	r3, r3, #512
 1624 00a4 9842     		cmp	r0, r3
 1625 00a6 0ED0     		beq	.L105
 1626              		.loc 1 535 0 discriminator 26
 1627 00a8 274B     		ldr	r3, .L112+24
 1628 00aa 9842     		cmp	r0, r3
 1629 00ac 0BD0     		beq	.L105
 1630              		.loc 1 535 0 discriminator 27
 1631 00ae 03F58053 		add	r3, r3, #4096
 1632 00b2 9842     		cmp	r0, r3
 1633 00b4 07D0     		beq	.L105
 1634              		.loc 1 535 0 discriminator 28
 1635 00b6 B0F5011F 		cmp	r0, #2113536
 1636 00ba 04D0     		beq	.L105
 1637              		.loc 1 535 0 discriminator 29
 1638 00bc 40F21721 		movw	r1, #535
 1639              	.LVL144:
 1640 00c0 2248     		ldr	r0, .L112+28
 1641              	.LVL145:
 1642 00c2 FFF7FEFF 		bl	assert_failed
 1643              	.LVL146:
 1644              	.L105:
 536:STM32F10x_StdPeriph_Driver/src/stm32f10x_gpio.c ****   assert_param(IS_FUNCTIONAL_STATE(NewState));  
 1645              		.loc 1 536 0 is_stmt 1
 1646 00c6 012D     		cmp	r5, #1
 1647 00c8 04D9     		bls	.L106
 1648              		.loc 1 536 0 is_stmt 0 discriminator 1
 1649 00ca 4FF40671 		mov	r1, #536
 1650 00ce 1F48     		ldr	r0, .L112+28
 1651 00d0 FFF7FEFF 		bl	assert_failed
 1652              	.LVL147:
 1653              	.L106:
 537:STM32F10x_StdPeriph_Driver/src/stm32f10x_gpio.c ****   
 538:STM32F10x_StdPeriph_Driver/src/stm32f10x_gpio.c ****   tmpreg = AFIO->MAPR;
 1654              		.loc 1 538 0 is_stmt 1
 1655 00d4 1E4B     		ldr	r3, .L112+32
ARM GAS  /var/folders/g9/bbpj86ld7fx45vd1b3pqxmp00000gn/T//ccyF5Qxu.s 			page 39


 1656 00d6 5B68     		ldr	r3, [r3, #4]
 1657              	.LVL148:
 539:STM32F10x_StdPeriph_Driver/src/stm32f10x_gpio.c **** 
 540:STM32F10x_StdPeriph_Driver/src/stm32f10x_gpio.c ****   tmpmask = (GPIO_Remap & DBGAFR_POSITION_MASK) >> 0x10;
 1658              		.loc 1 540 0
 1659 00d8 C4F30340 		ubfx	r0, r4, #16, #4
 1660              	.LVL149:
 541:STM32F10x_StdPeriph_Driver/src/stm32f10x_gpio.c ****   tmp = GPIO_Remap & LSB_MASK;
 1661              		.loc 1 541 0
 1662 00dc A2B2     		uxth	r2, r4
 1663              	.LVL150:
 542:STM32F10x_StdPeriph_Driver/src/stm32f10x_gpio.c **** 
 543:STM32F10x_StdPeriph_Driver/src/stm32f10x_gpio.c ****   if ((GPIO_Remap & (DBGAFR_LOCATION_MASK | DBGAFR_NUMBITS_MASK)) == (DBGAFR_LOCATION_MASK | DBGAFR
 1664              		.loc 1 543 0
 1665 00de 04F44011 		and	r1, r4, #3145728
 1666 00e2 B1F5401F 		cmp	r1, #3145728
 1667 00e6 07D1     		bne	.L107
 544:STM32F10x_StdPeriph_Driver/src/stm32f10x_gpio.c ****   {
 545:STM32F10x_StdPeriph_Driver/src/stm32f10x_gpio.c ****     tmpreg &= DBGAFR_SWJCFG_MASK;
 1668              		.loc 1 545 0
 1669 00e8 23F07063 		bic	r3, r3, #251658240
 1670              	.LVL151:
 546:STM32F10x_StdPeriph_Driver/src/stm32f10x_gpio.c ****     AFIO->MAPR &= DBGAFR_SWJCFG_MASK;
 1671              		.loc 1 546 0
 1672 00ec 1848     		ldr	r0, .L112+32
 1673              	.LVL152:
 1674 00ee 4168     		ldr	r1, [r0, #4]
 1675 00f0 21F07061 		bic	r1, r1, #251658240
 1676 00f4 4160     		str	r1, [r0, #4]
 1677 00f6 11E0     		b	.L108
 1678              	.LVL153:
 1679              	.L107:
 547:STM32F10x_StdPeriph_Driver/src/stm32f10x_gpio.c ****   }
 548:STM32F10x_StdPeriph_Driver/src/stm32f10x_gpio.c ****   else if ((GPIO_Remap & DBGAFR_NUMBITS_MASK) == DBGAFR_NUMBITS_MASK)
 1680              		.loc 1 548 0
 1681 00f8 14F4801F 		tst	r4, #1048576
 1682 00fc 06D0     		beq	.L109
 549:STM32F10x_StdPeriph_Driver/src/stm32f10x_gpio.c ****   {
 550:STM32F10x_StdPeriph_Driver/src/stm32f10x_gpio.c ****     tmp1 = ((uint32_t)0x03) << tmpmask;
 1683              		.loc 1 550 0
 1684 00fe 0321     		movs	r1, #3
 1685 0100 8140     		lsls	r1, r1, r0
 1686              	.LVL154:
 551:STM32F10x_StdPeriph_Driver/src/stm32f10x_gpio.c ****     tmpreg &= ~tmp1;
 1687              		.loc 1 551 0
 1688 0102 23EA0103 		bic	r3, r3, r1
 1689              	.LVL155:
 552:STM32F10x_StdPeriph_Driver/src/stm32f10x_gpio.c ****     tmpreg |= ~DBGAFR_SWJCFG_MASK;
 1690              		.loc 1 552 0
 1691 0106 43F07063 		orr	r3, r3, #251658240
 1692              	.LVL156:
 1693 010a 07E0     		b	.L108
 1694              	.LVL157:
 1695              	.L109:
 553:STM32F10x_StdPeriph_Driver/src/stm32f10x_gpio.c ****   }
 554:STM32F10x_StdPeriph_Driver/src/stm32f10x_gpio.c ****   else
 555:STM32F10x_StdPeriph_Driver/src/stm32f10x_gpio.c ****   {
ARM GAS  /var/folders/g9/bbpj86ld7fx45vd1b3pqxmp00000gn/T//ccyF5Qxu.s 			page 40


 556:STM32F10x_StdPeriph_Driver/src/stm32f10x_gpio.c ****     tmpreg &= ~(tmp << ((GPIO_Remap >> 0x15)*0x10));
 1696              		.loc 1 556 0
 1697 010c 610D     		lsrs	r1, r4, #21
 1698 010e 0901     		lsls	r1, r1, #4
 1699 0110 02FA01F1 		lsl	r1, r2, r1
 1700 0114 23EA0103 		bic	r3, r3, r1
 1701              	.LVL158:
 557:STM32F10x_StdPeriph_Driver/src/stm32f10x_gpio.c ****     tmpreg |= ~DBGAFR_SWJCFG_MASK;
 1702              		.loc 1 557 0
 1703 0118 43F07063 		orr	r3, r3, #251658240
 1704              	.LVL159:
 1705              	.L108:
 558:STM32F10x_StdPeriph_Driver/src/stm32f10x_gpio.c ****   }
 559:STM32F10x_StdPeriph_Driver/src/stm32f10x_gpio.c **** 
 560:STM32F10x_StdPeriph_Driver/src/stm32f10x_gpio.c ****   if (NewState != DISABLE)
 1706              		.loc 1 560 0
 1707 011c 25B1     		cbz	r5, .L110
 561:STM32F10x_StdPeriph_Driver/src/stm32f10x_gpio.c ****   {
 562:STM32F10x_StdPeriph_Driver/src/stm32f10x_gpio.c ****     tmpreg |= (tmp << ((GPIO_Remap >> 0x15)*0x10));
 1708              		.loc 1 562 0
 1709 011e 640D     		lsrs	r4, r4, #21
 1710              	.LVL160:
 1711 0120 2401     		lsls	r4, r4, #4
 1712 0122 02FA04F4 		lsl	r4, r2, r4
 1713 0126 2343     		orrs	r3, r3, r4
 1714              	.LVL161:
 1715              	.L110:
 563:STM32F10x_StdPeriph_Driver/src/stm32f10x_gpio.c ****   }
 564:STM32F10x_StdPeriph_Driver/src/stm32f10x_gpio.c **** 
 565:STM32F10x_StdPeriph_Driver/src/stm32f10x_gpio.c ****   AFIO->MAPR = tmpreg;
 1716              		.loc 1 565 0
 1717 0128 094A     		ldr	r2, .L112+32
 1718              	.LVL162:
 1719 012a 5360     		str	r3, [r2, #4]
 1720 012c 38BD     		pop	{r3, r4, r5, pc}
 1721              	.LVL163:
 1722              	.L113:
 1723 012e 00BF     		.align	2
 1724              	.L112:
 1725 0130 10001400 		.word	1310736
 1726 0134 40001600 		.word	1441856
 1727 0138 00011800 		.word	1573120
 1728 013c 00081A00 		.word	1705984
 1729 0140 01002000 		.word	2097153
 1730 0144 00013000 		.word	3145984
 1731 0148 00102000 		.word	2101248
 1732 014c 00000000 		.word	.LC0
 1733 0150 00000140 		.word	1073807360
 1734              		.cfi_endproc
 1735              	.LFE42:
 1737              		.section	.text.GPIO_EXTILineConfig,"ax",%progbits
 1738              		.align	2
 1739              		.global	GPIO_EXTILineConfig
 1740              		.thumb
 1741              		.thumb_func
 1743              	GPIO_EXTILineConfig:
 1744              	.LFB43:
ARM GAS  /var/folders/g9/bbpj86ld7fx45vd1b3pqxmp00000gn/T//ccyF5Qxu.s 			page 41


 566:STM32F10x_StdPeriph_Driver/src/stm32f10x_gpio.c **** }
 567:STM32F10x_StdPeriph_Driver/src/stm32f10x_gpio.c **** 
 568:STM32F10x_StdPeriph_Driver/src/stm32f10x_gpio.c **** /**
 569:STM32F10x_StdPeriph_Driver/src/stm32f10x_gpio.c ****   * @brief  Selects the GPIO pin used as EXTI Line.
 570:STM32F10x_StdPeriph_Driver/src/stm32f10x_gpio.c ****   * @param  GPIO_PortSource: selects the GPIO port to be used as source for EXTI lines.
 571:STM32F10x_StdPeriph_Driver/src/stm32f10x_gpio.c ****   *   This parameter can be GPIO_PortSourceGPIOx where x can be (A..G).
 572:STM32F10x_StdPeriph_Driver/src/stm32f10x_gpio.c ****   * @param  GPIO_PinSource: specifies the EXTI line to be configured.
 573:STM32F10x_StdPeriph_Driver/src/stm32f10x_gpio.c ****   *   This parameter can be GPIO_PinSourcex where x can be (0..15).
 574:STM32F10x_StdPeriph_Driver/src/stm32f10x_gpio.c ****   * @retval None
 575:STM32F10x_StdPeriph_Driver/src/stm32f10x_gpio.c ****   */
 576:STM32F10x_StdPeriph_Driver/src/stm32f10x_gpio.c **** void GPIO_EXTILineConfig(uint8_t GPIO_PortSource, uint8_t GPIO_PinSource)
 577:STM32F10x_StdPeriph_Driver/src/stm32f10x_gpio.c **** {
 1745              		.loc 1 577 0
 1746              		.cfi_startproc
 1747              		@ args = 0, pretend = 0, frame = 0
 1748              		@ frame_needed = 0, uses_anonymous_args = 0
 1749              	.LVL164:
 1750 0000 70B5     		push	{r4, r5, r6, lr}
 1751              	.LCFI15:
 1752              		.cfi_def_cfa_offset 16
 1753              		.cfi_offset 4, -16
 1754              		.cfi_offset 5, -12
 1755              		.cfi_offset 6, -8
 1756              		.cfi_offset 14, -4
 1757 0002 0546     		mov	r5, r0
 1758 0004 0C46     		mov	r4, r1
 1759              	.LVL165:
 578:STM32F10x_StdPeriph_Driver/src/stm32f10x_gpio.c ****   uint32_t tmp = 0x00;
 579:STM32F10x_StdPeriph_Driver/src/stm32f10x_gpio.c ****   /* Check the parameters */
 580:STM32F10x_StdPeriph_Driver/src/stm32f10x_gpio.c ****   assert_param(IS_GPIO_EXTI_PORT_SOURCE(GPIO_PortSource));
 1760              		.loc 1 580 0
 1761 0006 0628     		cmp	r0, #6
 1762 0008 04D9     		bls	.L115
 1763              		.loc 1 580 0 is_stmt 0 discriminator 1
 1764 000a 4FF41171 		mov	r1, #580
 1765              	.LVL166:
 1766 000e 1048     		ldr	r0, .L118
 1767              	.LVL167:
 1768 0010 FFF7FEFF 		bl	assert_failed
 1769              	.LVL168:
 1770              	.L115:
 581:STM32F10x_StdPeriph_Driver/src/stm32f10x_gpio.c ****   assert_param(IS_GPIO_PIN_SOURCE(GPIO_PinSource));
 1771              		.loc 1 581 0 is_stmt 1
 1772 0014 0F2C     		cmp	r4, #15
 1773 0016 04D9     		bls	.L116
 1774              		.loc 1 581 0 is_stmt 0 discriminator 1
 1775 0018 40F24521 		movw	r1, #581
 1776 001c 0C48     		ldr	r0, .L118
 1777 001e FFF7FEFF 		bl	assert_failed
 1778              	.LVL169:
 1779              	.L116:
 582:STM32F10x_StdPeriph_Driver/src/stm32f10x_gpio.c ****   
 583:STM32F10x_StdPeriph_Driver/src/stm32f10x_gpio.c ****   tmp = ((uint32_t)0x0F) << (0x04 * (GPIO_PinSource & (uint8_t)0x03));
 1780              		.loc 1 583 0 is_stmt 1
 1781 0022 04F00302 		and	r2, r4, #3
 1782 0026 9200     		lsls	r2, r2, #2
 1783 0028 0F20     		movs	r0, #15
ARM GAS  /var/folders/g9/bbpj86ld7fx45vd1b3pqxmp00000gn/T//ccyF5Qxu.s 			page 42


 1784 002a 00FA02F6 		lsl	r6, r0, r2
 1785              	.LVL170:
 584:STM32F10x_StdPeriph_Driver/src/stm32f10x_gpio.c ****   AFIO->EXTICR[GPIO_PinSource >> 0x02] &= ~tmp;
 1786              		.loc 1 584 0
 1787 002e A108     		lsrs	r1, r4, #2
 1788 0030 084B     		ldr	r3, .L118+4
 1789 0032 0231     		adds	r1, r1, #2
 1790 0034 53F82100 		ldr	r0, [r3, r1, lsl #2]
 1791 0038 20EA0600 		bic	r0, r0, r6
 1792 003c 43F82100 		str	r0, [r3, r1, lsl #2]
 585:STM32F10x_StdPeriph_Driver/src/stm32f10x_gpio.c ****   AFIO->EXTICR[GPIO_PinSource >> 0x02] |= (((uint32_t)GPIO_PortSource) << (0x04 * (GPIO_PinSource &
 1793              		.loc 1 585 0
 1794 0040 53F82100 		ldr	r0, [r3, r1, lsl #2]
 1795 0044 9540     		lsls	r5, r5, r2
 1796 0046 0543     		orrs	r5, r5, r0
 1797 0048 43F82150 		str	r5, [r3, r1, lsl #2]
 1798 004c 70BD     		pop	{r4, r5, r6, pc}
 1799              	.LVL171:
 1800              	.L119:
 1801 004e 00BF     		.align	2
 1802              	.L118:
 1803 0050 00000000 		.word	.LC0
 1804 0054 00000140 		.word	1073807360
 1805              		.cfi_endproc
 1806              	.LFE43:
 1808              		.section	.text.GPIO_ETH_MediaInterfaceConfig,"ax",%progbits
 1809              		.align	2
 1810              		.global	GPIO_ETH_MediaInterfaceConfig
 1811              		.thumb
 1812              		.thumb_func
 1814              	GPIO_ETH_MediaInterfaceConfig:
 1815              	.LFB44:
 586:STM32F10x_StdPeriph_Driver/src/stm32f10x_gpio.c **** }
 587:STM32F10x_StdPeriph_Driver/src/stm32f10x_gpio.c **** 
 588:STM32F10x_StdPeriph_Driver/src/stm32f10x_gpio.c **** /**
 589:STM32F10x_StdPeriph_Driver/src/stm32f10x_gpio.c ****   * @brief  Selects the Ethernet media interface.
 590:STM32F10x_StdPeriph_Driver/src/stm32f10x_gpio.c ****   * @note   This function applies only to STM32 Connectivity line devices.  
 591:STM32F10x_StdPeriph_Driver/src/stm32f10x_gpio.c ****   * @param  GPIO_ETH_MediaInterface: specifies the Media Interface mode.
 592:STM32F10x_StdPeriph_Driver/src/stm32f10x_gpio.c ****   *   This parameter can be one of the following values:
 593:STM32F10x_StdPeriph_Driver/src/stm32f10x_gpio.c ****   *     @arg GPIO_ETH_MediaInterface_MII: MII mode
 594:STM32F10x_StdPeriph_Driver/src/stm32f10x_gpio.c ****   *     @arg GPIO_ETH_MediaInterface_RMII: RMII mode    
 595:STM32F10x_StdPeriph_Driver/src/stm32f10x_gpio.c ****   * @retval None
 596:STM32F10x_StdPeriph_Driver/src/stm32f10x_gpio.c ****   */
 597:STM32F10x_StdPeriph_Driver/src/stm32f10x_gpio.c **** void GPIO_ETH_MediaInterfaceConfig(uint32_t GPIO_ETH_MediaInterface) 
 598:STM32F10x_StdPeriph_Driver/src/stm32f10x_gpio.c **** { 
 1816              		.loc 1 598 0
 1817              		.cfi_startproc
 1818              		@ args = 0, pretend = 0, frame = 0
 1819              		@ frame_needed = 0, uses_anonymous_args = 0
 1820              	.LVL172:
 1821 0000 10B5     		push	{r4, lr}
 1822              	.LCFI16:
 1823              		.cfi_def_cfa_offset 8
 1824              		.cfi_offset 4, -8
 1825              		.cfi_offset 14, -4
 1826 0002 0446     		mov	r4, r0
 599:STM32F10x_StdPeriph_Driver/src/stm32f10x_gpio.c ****   assert_param(IS_GPIO_ETH_MEDIA_INTERFACE(GPIO_ETH_MediaInterface)); 
ARM GAS  /var/folders/g9/bbpj86ld7fx45vd1b3pqxmp00000gn/T//ccyF5Qxu.s 			page 43


 1827              		.loc 1 599 0
 1828 0004 0128     		cmp	r0, #1
 1829 0006 04D9     		bls	.L121
 1830              		.loc 1 599 0 is_stmt 0 discriminator 1
 1831 0008 40F25721 		movw	r1, #599
 1832 000c 0248     		ldr	r0, .L123
 1833              	.LVL173:
 1834 000e FFF7FEFF 		bl	assert_failed
 1835              	.LVL174:
 1836              	.L121:
 600:STM32F10x_StdPeriph_Driver/src/stm32f10x_gpio.c **** 
 601:STM32F10x_StdPeriph_Driver/src/stm32f10x_gpio.c ****   /* Configure MII_RMII selection bit */ 
 602:STM32F10x_StdPeriph_Driver/src/stm32f10x_gpio.c ****   *(__IO uint32_t *) MAPR_MII_RMII_SEL_BB = GPIO_ETH_MediaInterface; 
 1837              		.loc 1 602 0 is_stmt 1
 1838 0012 024B     		ldr	r3, .L123+4
 1839 0014 1C60     		str	r4, [r3]
 1840 0016 10BD     		pop	{r4, pc}
 1841              	.LVL175:
 1842              	.L124:
 1843              		.align	2
 1844              	.L123:
 1845 0018 00000000 		.word	.LC0
 1846 001c DC002042 		.word	1109393628
 1847              		.cfi_endproc
 1848              	.LFE44:
 1850              		.section	.rodata.str1.4,"aMS",%progbits,1
 1851              		.align	2
 1852              	.LC0:
 1853 0000 53544D33 		.ascii	"STM32F10x_StdPeriph_Driver/src/stm32f10x_gpio.c\000"
 1853      32463130 
 1853      785F5374 
 1853      64506572 
 1853      6970685F 
 1854              		.text
 1855              	.Letext0:
 1856              		.file 2 "/usr/local/Cellar/gcc-arm-none-eabi/20160926/arm-none-eabi/include/machine/_default_types
 1857              		.file 3 "/usr/local/Cellar/gcc-arm-none-eabi/20160926/arm-none-eabi/include/sys/_stdint.h"
 1858              		.file 4 "CMSIS/Core/CM3/stm32f10x.h"
 1859              		.file 5 "STM32F10x_StdPeriph_Driver/inc/stm32f10x_gpio.h"
 1860              		.file 6 "Inc/stm32f10x_conf.h"
 1861              		.file 7 "STM32F10x_StdPeriph_Driver/inc/stm32f10x_rcc.h"
ARM GAS  /var/folders/g9/bbpj86ld7fx45vd1b3pqxmp00000gn/T//ccyF5Qxu.s 			page 44

