ARM GAS  /var/folders/g9/bbpj86ld7fx45vd1b3pqxmp00000gn/T//ccMmV5Jv.s 			page 1


   1              		.syntax unified
   2              		.cpu cortex-m3
   3              		.fpu softvfp
   4              		.eabi_attribute 20, 1
   5              		.eabi_attribute 21, 1
   6              		.eabi_attribute 23, 3
   7              		.eabi_attribute 24, 1
   8              		.eabi_attribute 25, 1
   9              		.eabi_attribute 26, 1
  10              		.eabi_attribute 30, 1
  11              		.eabi_attribute 34, 1
  12              		.eabi_attribute 18, 4
  13              		.thumb
  14              		.syntax unified
  15              		.file	"usb_regs.c"
  16              		.text
  17              	.Ltext0:
  18              		.cfi_sections	.debug_frame
  19              		.section	.text.SetCNTR,"ax",%progbits
  20              		.align	2
  21              		.global	SetCNTR
  22              		.thumb
  23              		.thumb_func
  25              	SetCNTR:
  26              	.LFB27:
  27              		.file 1 "STM32_USB-FS-Device_Driver/src/usb_regs.c"
   1:STM32_USB-FS-Device_Driver/src/usb_regs.c **** /******************** (C) COPYRIGHT 2009 STMicroelectronics ********************
   2:STM32_USB-FS-Device_Driver/src/usb_regs.c **** * File Name          : usb_regs.c
   3:STM32_USB-FS-Device_Driver/src/usb_regs.c **** * Author             : MCD Application Team
   4:STM32_USB-FS-Device_Driver/src/usb_regs.c **** * Version            : V3.0.1
   5:STM32_USB-FS-Device_Driver/src/usb_regs.c **** * Date               : 04/27/2009
   6:STM32_USB-FS-Device_Driver/src/usb_regs.c **** * Description        : Interface functions to USB cell registers
   7:STM32_USB-FS-Device_Driver/src/usb_regs.c **** ********************************************************************************
   8:STM32_USB-FS-Device_Driver/src/usb_regs.c **** * THE PRESENT FIRMWARE WHICH IS FOR GUIDANCE ONLY AIMS AT PROVIDING CUSTOMERS
   9:STM32_USB-FS-Device_Driver/src/usb_regs.c **** * WITH CODING INFORMATION REGARDING THEIR PRODUCTS IN ORDER FOR THEM TO SAVE TIME.
  10:STM32_USB-FS-Device_Driver/src/usb_regs.c **** * AS A RESULT, STMICROELECTRONICS SHALL NOT BE HELD LIABLE FOR ANY DIRECT,
  11:STM32_USB-FS-Device_Driver/src/usb_regs.c **** * INDIRECT OR CONSEQUENTIAL DAMAGES WITH RESPECT TO ANY CLAIMS ARISING FROM THE
  12:STM32_USB-FS-Device_Driver/src/usb_regs.c **** * CONTENT OF SUCH FIRMWARE AND/OR THE USE MADE BY CUSTOMERS OF THE CODING
  13:STM32_USB-FS-Device_Driver/src/usb_regs.c **** * INFORMATION CONTAINED HEREIN IN CONNECTION WITH THEIR PRODUCTS.
  14:STM32_USB-FS-Device_Driver/src/usb_regs.c **** *******************************************************************************/
  15:STM32_USB-FS-Device_Driver/src/usb_regs.c **** 
  16:STM32_USB-FS-Device_Driver/src/usb_regs.c **** /* Includes ------------------------------------------------------------------*/
  17:STM32_USB-FS-Device_Driver/src/usb_regs.c **** #include "usb_lib.h"
  18:STM32_USB-FS-Device_Driver/src/usb_regs.c **** 
  19:STM32_USB-FS-Device_Driver/src/usb_regs.c **** /* Private typedef -----------------------------------------------------------*/
  20:STM32_USB-FS-Device_Driver/src/usb_regs.c **** /* Private define ------------------------------------------------------------*/
  21:STM32_USB-FS-Device_Driver/src/usb_regs.c **** /* Private macro -------------------------------------------------------------*/
  22:STM32_USB-FS-Device_Driver/src/usb_regs.c **** /* Private variables ---------------------------------------------------------*/
  23:STM32_USB-FS-Device_Driver/src/usb_regs.c **** /* Extern variables ----------------------------------------------------------*/
  24:STM32_USB-FS-Device_Driver/src/usb_regs.c **** /* Private function prototypes -----------------------------------------------*/
  25:STM32_USB-FS-Device_Driver/src/usb_regs.c **** /* Private functions ---------------------------------------------------------*/
  26:STM32_USB-FS-Device_Driver/src/usb_regs.c **** 
  27:STM32_USB-FS-Device_Driver/src/usb_regs.c **** /*******************************************************************************
  28:STM32_USB-FS-Device_Driver/src/usb_regs.c **** * Function Name  : SetCNTR.
  29:STM32_USB-FS-Device_Driver/src/usb_regs.c **** * Description    : Set the CNTR register value.
  30:STM32_USB-FS-Device_Driver/src/usb_regs.c **** * Input          : wRegValue: new register value.
  31:STM32_USB-FS-Device_Driver/src/usb_regs.c **** * Output         : None.
ARM GAS  /var/folders/g9/bbpj86ld7fx45vd1b3pqxmp00000gn/T//ccMmV5Jv.s 			page 2


  32:STM32_USB-FS-Device_Driver/src/usb_regs.c **** * Return         : None.
  33:STM32_USB-FS-Device_Driver/src/usb_regs.c **** *******************************************************************************/
  34:STM32_USB-FS-Device_Driver/src/usb_regs.c **** void SetCNTR(uint16_t wRegValue)
  35:STM32_USB-FS-Device_Driver/src/usb_regs.c **** {
  28              		.loc 1 35 0
  29              		.cfi_startproc
  30              		@ args = 0, pretend = 0, frame = 0
  31              		@ frame_needed = 0, uses_anonymous_args = 0
  32              		@ link register save eliminated.
  33              	.LVL0:
  36:STM32_USB-FS-Device_Driver/src/usb_regs.c ****   _SetCNTR(wRegValue);
  34              		.loc 1 36 0
  35 0000 014B     		ldr	r3, .L2
  36 0002 1860     		str	r0, [r3]
  37 0004 7047     		bx	lr
  38              	.L3:
  39 0006 00BF     		.align	2
  40              	.L2:
  41 0008 405C0040 		.word	1073765440
  42              		.cfi_endproc
  43              	.LFE27:
  45              		.section	.text.GetCNTR,"ax",%progbits
  46              		.align	2
  47              		.global	GetCNTR
  48              		.thumb
  49              		.thumb_func
  51              	GetCNTR:
  52              	.LFB28:
  37:STM32_USB-FS-Device_Driver/src/usb_regs.c **** }
  38:STM32_USB-FS-Device_Driver/src/usb_regs.c **** 
  39:STM32_USB-FS-Device_Driver/src/usb_regs.c **** /*******************************************************************************
  40:STM32_USB-FS-Device_Driver/src/usb_regs.c **** * Function Name  : GetCNTR.
  41:STM32_USB-FS-Device_Driver/src/usb_regs.c **** * Description    : returns the CNTR register value.
  42:STM32_USB-FS-Device_Driver/src/usb_regs.c **** * Input          : None.
  43:STM32_USB-FS-Device_Driver/src/usb_regs.c **** * Output         : None.
  44:STM32_USB-FS-Device_Driver/src/usb_regs.c **** * Return         : CNTR register Value.
  45:STM32_USB-FS-Device_Driver/src/usb_regs.c **** *******************************************************************************/
  46:STM32_USB-FS-Device_Driver/src/usb_regs.c **** uint16_t GetCNTR(void)
  47:STM32_USB-FS-Device_Driver/src/usb_regs.c **** {
  53              		.loc 1 47 0
  54              		.cfi_startproc
  55              		@ args = 0, pretend = 0, frame = 0
  56              		@ frame_needed = 0, uses_anonymous_args = 0
  57              		@ link register save eliminated.
  48:STM32_USB-FS-Device_Driver/src/usb_regs.c ****   return(_GetCNTR());
  58              		.loc 1 48 0
  59 0000 014B     		ldr	r3, .L5
  60 0002 1868     		ldr	r0, [r3]
  49:STM32_USB-FS-Device_Driver/src/usb_regs.c **** }
  61              		.loc 1 49 0
  62 0004 80B2     		uxth	r0, r0
  63 0006 7047     		bx	lr
  64              	.L6:
  65              		.align	2
  66              	.L5:
  67 0008 405C0040 		.word	1073765440
  68              		.cfi_endproc
ARM GAS  /var/folders/g9/bbpj86ld7fx45vd1b3pqxmp00000gn/T//ccMmV5Jv.s 			page 3


  69              	.LFE28:
  71              		.section	.text.SetISTR,"ax",%progbits
  72              		.align	2
  73              		.global	SetISTR
  74              		.thumb
  75              		.thumb_func
  77              	SetISTR:
  78              	.LFB29:
  50:STM32_USB-FS-Device_Driver/src/usb_regs.c **** 
  51:STM32_USB-FS-Device_Driver/src/usb_regs.c **** /*******************************************************************************
  52:STM32_USB-FS-Device_Driver/src/usb_regs.c **** * Function Name  : SetISTR.
  53:STM32_USB-FS-Device_Driver/src/usb_regs.c **** * Description    : Set the ISTR register value.
  54:STM32_USB-FS-Device_Driver/src/usb_regs.c **** * Input          : wRegValue: new register value.
  55:STM32_USB-FS-Device_Driver/src/usb_regs.c **** * Output         : None.
  56:STM32_USB-FS-Device_Driver/src/usb_regs.c **** * Return         : None.
  57:STM32_USB-FS-Device_Driver/src/usb_regs.c **** *******************************************************************************/
  58:STM32_USB-FS-Device_Driver/src/usb_regs.c **** void SetISTR(uint16_t wRegValue)
  59:STM32_USB-FS-Device_Driver/src/usb_regs.c **** {
  79              		.loc 1 59 0
  80              		.cfi_startproc
  81              		@ args = 0, pretend = 0, frame = 0
  82              		@ frame_needed = 0, uses_anonymous_args = 0
  83              		@ link register save eliminated.
  84              	.LVL1:
  60:STM32_USB-FS-Device_Driver/src/usb_regs.c ****   _SetISTR(wRegValue);
  85              		.loc 1 60 0
  86 0000 014B     		ldr	r3, .L8
  87 0002 1860     		str	r0, [r3]
  88 0004 7047     		bx	lr
  89              	.L9:
  90 0006 00BF     		.align	2
  91              	.L8:
  92 0008 445C0040 		.word	1073765444
  93              		.cfi_endproc
  94              	.LFE29:
  96              		.section	.text.GetISTR,"ax",%progbits
  97              		.align	2
  98              		.global	GetISTR
  99              		.thumb
 100              		.thumb_func
 102              	GetISTR:
 103              	.LFB30:
  61:STM32_USB-FS-Device_Driver/src/usb_regs.c **** }
  62:STM32_USB-FS-Device_Driver/src/usb_regs.c **** 
  63:STM32_USB-FS-Device_Driver/src/usb_regs.c **** /*******************************************************************************
  64:STM32_USB-FS-Device_Driver/src/usb_regs.c **** * Function Name  : GetISTR
  65:STM32_USB-FS-Device_Driver/src/usb_regs.c **** * Description    : Returns the ISTR register value.
  66:STM32_USB-FS-Device_Driver/src/usb_regs.c **** * Input          : None.
  67:STM32_USB-FS-Device_Driver/src/usb_regs.c **** * Output         : None.
  68:STM32_USB-FS-Device_Driver/src/usb_regs.c **** * Return         : ISTR register Value
  69:STM32_USB-FS-Device_Driver/src/usb_regs.c **** *******************************************************************************/
  70:STM32_USB-FS-Device_Driver/src/usb_regs.c **** uint16_t GetISTR(void)
  71:STM32_USB-FS-Device_Driver/src/usb_regs.c **** {
 104              		.loc 1 71 0
 105              		.cfi_startproc
 106              		@ args = 0, pretend = 0, frame = 0
 107              		@ frame_needed = 0, uses_anonymous_args = 0
ARM GAS  /var/folders/g9/bbpj86ld7fx45vd1b3pqxmp00000gn/T//ccMmV5Jv.s 			page 4


 108              		@ link register save eliminated.
  72:STM32_USB-FS-Device_Driver/src/usb_regs.c ****   return(_GetISTR());
 109              		.loc 1 72 0
 110 0000 014B     		ldr	r3, .L11
 111 0002 1868     		ldr	r0, [r3]
  73:STM32_USB-FS-Device_Driver/src/usb_regs.c **** }
 112              		.loc 1 73 0
 113 0004 80B2     		uxth	r0, r0
 114 0006 7047     		bx	lr
 115              	.L12:
 116              		.align	2
 117              	.L11:
 118 0008 445C0040 		.word	1073765444
 119              		.cfi_endproc
 120              	.LFE30:
 122              		.section	.text.GetFNR,"ax",%progbits
 123              		.align	2
 124              		.global	GetFNR
 125              		.thumb
 126              		.thumb_func
 128              	GetFNR:
 129              	.LFB31:
  74:STM32_USB-FS-Device_Driver/src/usb_regs.c **** 
  75:STM32_USB-FS-Device_Driver/src/usb_regs.c **** /*******************************************************************************
  76:STM32_USB-FS-Device_Driver/src/usb_regs.c **** * Function Name  : GetFNR
  77:STM32_USB-FS-Device_Driver/src/usb_regs.c **** * Description    : Returns the FNR register value.
  78:STM32_USB-FS-Device_Driver/src/usb_regs.c **** * Input          : None.
  79:STM32_USB-FS-Device_Driver/src/usb_regs.c **** * Output         : None.
  80:STM32_USB-FS-Device_Driver/src/usb_regs.c **** * Return         : FNR register Value
  81:STM32_USB-FS-Device_Driver/src/usb_regs.c **** *******************************************************************************/
  82:STM32_USB-FS-Device_Driver/src/usb_regs.c **** uint16_t GetFNR(void)
  83:STM32_USB-FS-Device_Driver/src/usb_regs.c **** {
 130              		.loc 1 83 0
 131              		.cfi_startproc
 132              		@ args = 0, pretend = 0, frame = 0
 133              		@ frame_needed = 0, uses_anonymous_args = 0
 134              		@ link register save eliminated.
  84:STM32_USB-FS-Device_Driver/src/usb_regs.c ****   return(_GetFNR());
 135              		.loc 1 84 0
 136 0000 014B     		ldr	r3, .L14
 137 0002 1868     		ldr	r0, [r3]
  85:STM32_USB-FS-Device_Driver/src/usb_regs.c **** }
 138              		.loc 1 85 0
 139 0004 80B2     		uxth	r0, r0
 140 0006 7047     		bx	lr
 141              	.L15:
 142              		.align	2
 143              	.L14:
 144 0008 485C0040 		.word	1073765448
 145              		.cfi_endproc
 146              	.LFE31:
 148              		.section	.text.SetDADDR,"ax",%progbits
 149              		.align	2
 150              		.global	SetDADDR
 151              		.thumb
 152              		.thumb_func
 154              	SetDADDR:
ARM GAS  /var/folders/g9/bbpj86ld7fx45vd1b3pqxmp00000gn/T//ccMmV5Jv.s 			page 5


 155              	.LFB32:
  86:STM32_USB-FS-Device_Driver/src/usb_regs.c **** 
  87:STM32_USB-FS-Device_Driver/src/usb_regs.c **** /*******************************************************************************
  88:STM32_USB-FS-Device_Driver/src/usb_regs.c **** * Function Name  : SetDADDR
  89:STM32_USB-FS-Device_Driver/src/usb_regs.c **** * Description    : Set the DADDR register value.
  90:STM32_USB-FS-Device_Driver/src/usb_regs.c **** * Input          : wRegValue: new register value.
  91:STM32_USB-FS-Device_Driver/src/usb_regs.c **** * Output         : None.
  92:STM32_USB-FS-Device_Driver/src/usb_regs.c **** * Return         : None.
  93:STM32_USB-FS-Device_Driver/src/usb_regs.c **** *******************************************************************************/
  94:STM32_USB-FS-Device_Driver/src/usb_regs.c **** void SetDADDR(uint16_t wRegValue)
  95:STM32_USB-FS-Device_Driver/src/usb_regs.c **** {
 156              		.loc 1 95 0
 157              		.cfi_startproc
 158              		@ args = 0, pretend = 0, frame = 0
 159              		@ frame_needed = 0, uses_anonymous_args = 0
 160              		@ link register save eliminated.
 161              	.LVL2:
  96:STM32_USB-FS-Device_Driver/src/usb_regs.c ****   _SetDADDR(wRegValue);
 162              		.loc 1 96 0
 163 0000 014B     		ldr	r3, .L17
 164 0002 1860     		str	r0, [r3]
 165 0004 7047     		bx	lr
 166              	.L18:
 167 0006 00BF     		.align	2
 168              	.L17:
 169 0008 4C5C0040 		.word	1073765452
 170              		.cfi_endproc
 171              	.LFE32:
 173              		.section	.text.GetDADDR,"ax",%progbits
 174              		.align	2
 175              		.global	GetDADDR
 176              		.thumb
 177              		.thumb_func
 179              	GetDADDR:
 180              	.LFB33:
  97:STM32_USB-FS-Device_Driver/src/usb_regs.c **** }
  98:STM32_USB-FS-Device_Driver/src/usb_regs.c **** 
  99:STM32_USB-FS-Device_Driver/src/usb_regs.c **** /*******************************************************************************
 100:STM32_USB-FS-Device_Driver/src/usb_regs.c **** * Function Name  : GetDADDR
 101:STM32_USB-FS-Device_Driver/src/usb_regs.c **** * Description    : Returns the DADDR register value.
 102:STM32_USB-FS-Device_Driver/src/usb_regs.c **** * Input          : None.
 103:STM32_USB-FS-Device_Driver/src/usb_regs.c **** * Output         : None.
 104:STM32_USB-FS-Device_Driver/src/usb_regs.c **** * Return         : DADDR register Value
 105:STM32_USB-FS-Device_Driver/src/usb_regs.c **** *******************************************************************************/
 106:STM32_USB-FS-Device_Driver/src/usb_regs.c **** uint16_t GetDADDR(void)
 107:STM32_USB-FS-Device_Driver/src/usb_regs.c **** {
 181              		.loc 1 107 0
 182              		.cfi_startproc
 183              		@ args = 0, pretend = 0, frame = 0
 184              		@ frame_needed = 0, uses_anonymous_args = 0
 185              		@ link register save eliminated.
 108:STM32_USB-FS-Device_Driver/src/usb_regs.c ****   return(_GetDADDR());
 186              		.loc 1 108 0
 187 0000 014B     		ldr	r3, .L20
 188 0002 1868     		ldr	r0, [r3]
 109:STM32_USB-FS-Device_Driver/src/usb_regs.c **** }
 189              		.loc 1 109 0
ARM GAS  /var/folders/g9/bbpj86ld7fx45vd1b3pqxmp00000gn/T//ccMmV5Jv.s 			page 6


 190 0004 80B2     		uxth	r0, r0
 191 0006 7047     		bx	lr
 192              	.L21:
 193              		.align	2
 194              	.L20:
 195 0008 4C5C0040 		.word	1073765452
 196              		.cfi_endproc
 197              	.LFE33:
 199              		.section	.text.SetBTABLE,"ax",%progbits
 200              		.align	2
 201              		.global	SetBTABLE
 202              		.thumb
 203              		.thumb_func
 205              	SetBTABLE:
 206              	.LFB34:
 110:STM32_USB-FS-Device_Driver/src/usb_regs.c **** 
 111:STM32_USB-FS-Device_Driver/src/usb_regs.c **** /*******************************************************************************
 112:STM32_USB-FS-Device_Driver/src/usb_regs.c **** * Function Name  : SetBTABLE
 113:STM32_USB-FS-Device_Driver/src/usb_regs.c **** * Description    : Set the BTABLE.
 114:STM32_USB-FS-Device_Driver/src/usb_regs.c **** * Input          : wRegValue: New register value.
 115:STM32_USB-FS-Device_Driver/src/usb_regs.c **** * Output         : None.
 116:STM32_USB-FS-Device_Driver/src/usb_regs.c **** * Return         : None.
 117:STM32_USB-FS-Device_Driver/src/usb_regs.c **** *******************************************************************************/
 118:STM32_USB-FS-Device_Driver/src/usb_regs.c **** void SetBTABLE(uint16_t wRegValue)
 119:STM32_USB-FS-Device_Driver/src/usb_regs.c **** {
 207              		.loc 1 119 0
 208              		.cfi_startproc
 209              		@ args = 0, pretend = 0, frame = 0
 210              		@ frame_needed = 0, uses_anonymous_args = 0
 211              		@ link register save eliminated.
 212              	.LVL3:
 120:STM32_USB-FS-Device_Driver/src/usb_regs.c ****   _SetBTABLE(wRegValue);
 213              		.loc 1 120 0
 214 0000 20F00700 		bic	r0, r0, #7
 215              	.LVL4:
 216 0004 80B2     		uxth	r0, r0
 217 0006 014B     		ldr	r3, .L23
 218 0008 1860     		str	r0, [r3]
 219 000a 7047     		bx	lr
 220              	.L24:
 221              		.align	2
 222              	.L23:
 223 000c 505C0040 		.word	1073765456
 224              		.cfi_endproc
 225              	.LFE34:
 227              		.section	.text.GetBTABLE,"ax",%progbits
 228              		.align	2
 229              		.global	GetBTABLE
 230              		.thumb
 231              		.thumb_func
 233              	GetBTABLE:
 234              	.LFB35:
 121:STM32_USB-FS-Device_Driver/src/usb_regs.c **** }
 122:STM32_USB-FS-Device_Driver/src/usb_regs.c **** 
 123:STM32_USB-FS-Device_Driver/src/usb_regs.c **** /*******************************************************************************
 124:STM32_USB-FS-Device_Driver/src/usb_regs.c **** * Function Name  : GetBTABLE.
 125:STM32_USB-FS-Device_Driver/src/usb_regs.c **** * Description    : Returns the BTABLE register value.
ARM GAS  /var/folders/g9/bbpj86ld7fx45vd1b3pqxmp00000gn/T//ccMmV5Jv.s 			page 7


 126:STM32_USB-FS-Device_Driver/src/usb_regs.c **** * Input          : None. 
 127:STM32_USB-FS-Device_Driver/src/usb_regs.c **** * Output         : None.
 128:STM32_USB-FS-Device_Driver/src/usb_regs.c **** * Return         : BTABLE address.
 129:STM32_USB-FS-Device_Driver/src/usb_regs.c **** *******************************************************************************/
 130:STM32_USB-FS-Device_Driver/src/usb_regs.c **** uint16_t GetBTABLE(void)
 131:STM32_USB-FS-Device_Driver/src/usb_regs.c **** {
 235              		.loc 1 131 0
 236              		.cfi_startproc
 237              		@ args = 0, pretend = 0, frame = 0
 238              		@ frame_needed = 0, uses_anonymous_args = 0
 239              		@ link register save eliminated.
 132:STM32_USB-FS-Device_Driver/src/usb_regs.c ****   return(_GetBTABLE());
 240              		.loc 1 132 0
 241 0000 014B     		ldr	r3, .L26
 242 0002 1868     		ldr	r0, [r3]
 133:STM32_USB-FS-Device_Driver/src/usb_regs.c **** }
 243              		.loc 1 133 0
 244 0004 80B2     		uxth	r0, r0
 245 0006 7047     		bx	lr
 246              	.L27:
 247              		.align	2
 248              	.L26:
 249 0008 505C0040 		.word	1073765456
 250              		.cfi_endproc
 251              	.LFE35:
 253              		.section	.text.SetENDPOINT,"ax",%progbits
 254              		.align	2
 255              		.global	SetENDPOINT
 256              		.thumb
 257              		.thumb_func
 259              	SetENDPOINT:
 260              	.LFB36:
 134:STM32_USB-FS-Device_Driver/src/usb_regs.c **** 
 135:STM32_USB-FS-Device_Driver/src/usb_regs.c **** /*******************************************************************************
 136:STM32_USB-FS-Device_Driver/src/usb_regs.c **** * Function Name  : SetENDPOINT
 137:STM32_USB-FS-Device_Driver/src/usb_regs.c **** * Description    : Setthe Endpoint register value.
 138:STM32_USB-FS-Device_Driver/src/usb_regs.c **** * Input          : bEpNum: Endpoint Number. 
 139:STM32_USB-FS-Device_Driver/src/usb_regs.c **** *                  wRegValue.
 140:STM32_USB-FS-Device_Driver/src/usb_regs.c **** * Output         : None.
 141:STM32_USB-FS-Device_Driver/src/usb_regs.c **** * Return         : None.
 142:STM32_USB-FS-Device_Driver/src/usb_regs.c **** *******************************************************************************/
 143:STM32_USB-FS-Device_Driver/src/usb_regs.c **** void SetENDPOINT(uint8_t bEpNum, uint16_t wRegValue)
 144:STM32_USB-FS-Device_Driver/src/usb_regs.c **** {
 261              		.loc 1 144 0
 262              		.cfi_startproc
 263              		@ args = 0, pretend = 0, frame = 0
 264              		@ frame_needed = 0, uses_anonymous_args = 0
 265              		@ link register save eliminated.
 266              	.LVL5:
 145:STM32_USB-FS-Device_Driver/src/usb_regs.c ****   _SetENDPOINT(bEpNum, wRegValue);
 267              		.loc 1 145 0
 268 0000 8000     		lsls	r0, r0, #2
 269              	.LVL6:
 270 0002 00F18040 		add	r0, r0, #1073741824
 271 0006 00F5B840 		add	r0, r0, #23552
 272 000a 0160     		str	r1, [r0]
 273 000c 7047     		bx	lr
ARM GAS  /var/folders/g9/bbpj86ld7fx45vd1b3pqxmp00000gn/T//ccMmV5Jv.s 			page 8


 274              		.cfi_endproc
 275              	.LFE36:
 277 000e 00BF     		.section	.text.GetENDPOINT,"ax",%progbits
 278              		.align	2
 279              		.global	GetENDPOINT
 280              		.thumb
 281              		.thumb_func
 283              	GetENDPOINT:
 284              	.LFB37:
 146:STM32_USB-FS-Device_Driver/src/usb_regs.c **** }
 147:STM32_USB-FS-Device_Driver/src/usb_regs.c **** 
 148:STM32_USB-FS-Device_Driver/src/usb_regs.c **** /*******************************************************************************
 149:STM32_USB-FS-Device_Driver/src/usb_regs.c **** * Function Name  : GetENDPOINT
 150:STM32_USB-FS-Device_Driver/src/usb_regs.c **** * Description    : Return the Endpoint register value.
 151:STM32_USB-FS-Device_Driver/src/usb_regs.c **** * Input          : bEpNum: Endpoint Number. 
 152:STM32_USB-FS-Device_Driver/src/usb_regs.c **** * Output         : None.
 153:STM32_USB-FS-Device_Driver/src/usb_regs.c **** * Return         : Endpoint register value.
 154:STM32_USB-FS-Device_Driver/src/usb_regs.c **** *******************************************************************************/
 155:STM32_USB-FS-Device_Driver/src/usb_regs.c **** uint16_t GetENDPOINT(uint8_t bEpNum)
 156:STM32_USB-FS-Device_Driver/src/usb_regs.c **** {
 285              		.loc 1 156 0
 286              		.cfi_startproc
 287              		@ args = 0, pretend = 0, frame = 0
 288              		@ frame_needed = 0, uses_anonymous_args = 0
 289              		@ link register save eliminated.
 290              	.LVL7:
 157:STM32_USB-FS-Device_Driver/src/usb_regs.c ****   return(_GetENDPOINT(bEpNum));
 291              		.loc 1 157 0
 292 0000 8000     		lsls	r0, r0, #2
 293              	.LVL8:
 294 0002 00F18040 		add	r0, r0, #1073741824
 295 0006 00F5B840 		add	r0, r0, #23552
 296 000a 0068     		ldr	r0, [r0]
 158:STM32_USB-FS-Device_Driver/src/usb_regs.c **** }
 297              		.loc 1 158 0
 298 000c 80B2     		uxth	r0, r0
 299 000e 7047     		bx	lr
 300              		.cfi_endproc
 301              	.LFE37:
 303              		.section	.text.SetEPType,"ax",%progbits
 304              		.align	2
 305              		.global	SetEPType
 306              		.thumb
 307              		.thumb_func
 309              	SetEPType:
 310              	.LFB38:
 159:STM32_USB-FS-Device_Driver/src/usb_regs.c **** 
 160:STM32_USB-FS-Device_Driver/src/usb_regs.c **** /*******************************************************************************
 161:STM32_USB-FS-Device_Driver/src/usb_regs.c **** * Function Name  : SetEPType
 162:STM32_USB-FS-Device_Driver/src/usb_regs.c **** * Description    : sets the type in the endpoint register.
 163:STM32_USB-FS-Device_Driver/src/usb_regs.c **** * Input          : bEpNum: Endpoint Number. 
 164:STM32_USB-FS-Device_Driver/src/usb_regs.c **** *                  wType: type definition.
 165:STM32_USB-FS-Device_Driver/src/usb_regs.c **** * Output         : None.
 166:STM32_USB-FS-Device_Driver/src/usb_regs.c **** * Return         : None.
 167:STM32_USB-FS-Device_Driver/src/usb_regs.c **** *******************************************************************************/
 168:STM32_USB-FS-Device_Driver/src/usb_regs.c **** void SetEPType(uint8_t bEpNum, uint16_t wType)
 169:STM32_USB-FS-Device_Driver/src/usb_regs.c **** {
ARM GAS  /var/folders/g9/bbpj86ld7fx45vd1b3pqxmp00000gn/T//ccMmV5Jv.s 			page 9


 311              		.loc 1 169 0
 312              		.cfi_startproc
 313              		@ args = 0, pretend = 0, frame = 0
 314              		@ frame_needed = 0, uses_anonymous_args = 0
 315              		@ link register save eliminated.
 316              	.LVL9:
 170:STM32_USB-FS-Device_Driver/src/usb_regs.c ****   _SetEPType(bEpNum, wType);
 317              		.loc 1 170 0
 318 0000 8000     		lsls	r0, r0, #2
 319              	.LVL10:
 320 0002 00F18040 		add	r0, r0, #1073741824
 321 0006 00F5B840 		add	r0, r0, #23552
 322 000a 0368     		ldr	r3, [r0]
 323 000c 23F4EC43 		bic	r3, r3, #30208
 324 0010 23F07003 		bic	r3, r3, #112
 325 0014 1943     		orrs	r1, r1, r3
 326              	.LVL11:
 327 0016 89B2     		uxth	r1, r1
 328 0018 0160     		str	r1, [r0]
 329 001a 7047     		bx	lr
 330              		.cfi_endproc
 331              	.LFE38:
 333              		.section	.text.GetEPType,"ax",%progbits
 334              		.align	2
 335              		.global	GetEPType
 336              		.thumb
 337              		.thumb_func
 339              	GetEPType:
 340              	.LFB39:
 171:STM32_USB-FS-Device_Driver/src/usb_regs.c **** }
 172:STM32_USB-FS-Device_Driver/src/usb_regs.c **** 
 173:STM32_USB-FS-Device_Driver/src/usb_regs.c **** /*******************************************************************************
 174:STM32_USB-FS-Device_Driver/src/usb_regs.c **** * Function Name  : GetEPType
 175:STM32_USB-FS-Device_Driver/src/usb_regs.c **** * Description    : Returns the endpoint type.
 176:STM32_USB-FS-Device_Driver/src/usb_regs.c **** * Input          : bEpNum: Endpoint Number. 
 177:STM32_USB-FS-Device_Driver/src/usb_regs.c **** * Output         : None.
 178:STM32_USB-FS-Device_Driver/src/usb_regs.c **** * Return         : Endpoint Type
 179:STM32_USB-FS-Device_Driver/src/usb_regs.c **** *******************************************************************************/
 180:STM32_USB-FS-Device_Driver/src/usb_regs.c **** uint16_t GetEPType(uint8_t bEpNum)
 181:STM32_USB-FS-Device_Driver/src/usb_regs.c **** {
 341              		.loc 1 181 0
 342              		.cfi_startproc
 343              		@ args = 0, pretend = 0, frame = 0
 344              		@ frame_needed = 0, uses_anonymous_args = 0
 345              		@ link register save eliminated.
 346              	.LVL12:
 182:STM32_USB-FS-Device_Driver/src/usb_regs.c ****   return(_GetEPType(bEpNum));
 347              		.loc 1 182 0
 348 0000 8000     		lsls	r0, r0, #2
 349              	.LVL13:
 350 0002 00F18040 		add	r0, r0, #1073741824
 351 0006 00F5B840 		add	r0, r0, #23552
 352 000a 0068     		ldr	r0, [r0]
 183:STM32_USB-FS-Device_Driver/src/usb_regs.c **** }
 353              		.loc 1 183 0
 354 000c 00F4C060 		and	r0, r0, #1536
 355 0010 7047     		bx	lr
ARM GAS  /var/folders/g9/bbpj86ld7fx45vd1b3pqxmp00000gn/T//ccMmV5Jv.s 			page 10


 356              		.cfi_endproc
 357              	.LFE39:
 359 0012 00BF     		.section	.text.SetEPTxStatus,"ax",%progbits
 360              		.align	2
 361              		.global	SetEPTxStatus
 362              		.thumb
 363              		.thumb_func
 365              	SetEPTxStatus:
 366              	.LFB40:
 184:STM32_USB-FS-Device_Driver/src/usb_regs.c **** 
 185:STM32_USB-FS-Device_Driver/src/usb_regs.c **** /*******************************************************************************
 186:STM32_USB-FS-Device_Driver/src/usb_regs.c **** * Function Name  : SetEPTxStatus
 187:STM32_USB-FS-Device_Driver/src/usb_regs.c **** * Description    : Set the status of Tx endpoint.
 188:STM32_USB-FS-Device_Driver/src/usb_regs.c **** * Input          : bEpNum: Endpoint Number. 
 189:STM32_USB-FS-Device_Driver/src/usb_regs.c **** *                  wState: new state.
 190:STM32_USB-FS-Device_Driver/src/usb_regs.c **** * Output         : None.
 191:STM32_USB-FS-Device_Driver/src/usb_regs.c **** * Return         : None.
 192:STM32_USB-FS-Device_Driver/src/usb_regs.c **** *******************************************************************************/
 193:STM32_USB-FS-Device_Driver/src/usb_regs.c **** void SetEPTxStatus(uint8_t bEpNum, uint16_t wState)
 194:STM32_USB-FS-Device_Driver/src/usb_regs.c **** {
 367              		.loc 1 194 0
 368              		.cfi_startproc
 369              		@ args = 0, pretend = 0, frame = 0
 370              		@ frame_needed = 0, uses_anonymous_args = 0
 371              		@ link register save eliminated.
 372              	.LVL14:
 373              	.LBB2:
 195:STM32_USB-FS-Device_Driver/src/usb_regs.c ****   _SetEPTxStatus(bEpNum, wState);
 374              		.loc 1 195 0
 375 0000 8000     		lsls	r0, r0, #2
 376              	.LVL15:
 377 0002 00F18040 		add	r0, r0, #1073741824
 378 0006 00F5B840 		add	r0, r0, #23552
 379 000a 0368     		ldr	r3, [r0]
 380 000c 9BB2     		uxth	r3, r3
 381 000e 23F4E043 		bic	r3, r3, #28672
 382 0012 23F04003 		bic	r3, r3, #64
 383 0016 9BB2     		uxth	r3, r3
 384              	.LVL16:
 385 0018 01F01002 		and	r2, r1, #16
 386 001c 92B2     		uxth	r2, r2
 387 001e 0AB1     		cbz	r2, .L33
 388              		.loc 1 195 0 is_stmt 0 discriminator 1
 389 0020 83F01003 		eor	r3, r3, #16
 390              	.LVL17:
 391              	.L33:
 392              		.loc 1 195 0 discriminator 3
 393 0024 01F02001 		and	r1, r1, #32
 394              	.LVL18:
 395 0028 89B2     		uxth	r1, r1
 396 002a 09B1     		cbz	r1, .L34
 397              		.loc 1 195 0 discriminator 4
 398 002c 83F02003 		eor	r3, r3, #32
 399              	.LVL19:
 400              	.L34:
 401              		.loc 1 195 0 discriminator 6
 402 0030 0360     		str	r3, [r0]
ARM GAS  /var/folders/g9/bbpj86ld7fx45vd1b3pqxmp00000gn/T//ccMmV5Jv.s 			page 11


 403 0032 7047     		bx	lr
 404              	.LBE2:
 405              		.cfi_endproc
 406              	.LFE40:
 408              		.section	.text.SetEPRxStatus,"ax",%progbits
 409              		.align	2
 410              		.global	SetEPRxStatus
 411              		.thumb
 412              		.thumb_func
 414              	SetEPRxStatus:
 415              	.LFB41:
 196:STM32_USB-FS-Device_Driver/src/usb_regs.c **** }
 197:STM32_USB-FS-Device_Driver/src/usb_regs.c **** 
 198:STM32_USB-FS-Device_Driver/src/usb_regs.c **** /*******************************************************************************
 199:STM32_USB-FS-Device_Driver/src/usb_regs.c **** * Function Name  : SetEPRxStatus
 200:STM32_USB-FS-Device_Driver/src/usb_regs.c **** * Description    : Set the status of Rx endpoint.
 201:STM32_USB-FS-Device_Driver/src/usb_regs.c **** * Input          : bEpNum: Endpoint Number. 
 202:STM32_USB-FS-Device_Driver/src/usb_regs.c **** *                  wState: new state.
 203:STM32_USB-FS-Device_Driver/src/usb_regs.c **** * Output         : None.
 204:STM32_USB-FS-Device_Driver/src/usb_regs.c **** * Return         : None.
 205:STM32_USB-FS-Device_Driver/src/usb_regs.c **** *******************************************************************************/
 206:STM32_USB-FS-Device_Driver/src/usb_regs.c **** void SetEPRxStatus(uint8_t bEpNum, uint16_t wState)
 207:STM32_USB-FS-Device_Driver/src/usb_regs.c **** {
 416              		.loc 1 207 0 is_stmt 1
 417              		.cfi_startproc
 418              		@ args = 0, pretend = 0, frame = 0
 419              		@ frame_needed = 0, uses_anonymous_args = 0
 420              		@ link register save eliminated.
 421              	.LVL20:
 422              	.LBB3:
 208:STM32_USB-FS-Device_Driver/src/usb_regs.c ****   _SetEPRxStatus(bEpNum, wState);
 423              		.loc 1 208 0
 424 0000 8000     		lsls	r0, r0, #2
 425              	.LVL21:
 426 0002 00F18040 		add	r0, r0, #1073741824
 427 0006 00F5B840 		add	r0, r0, #23552
 428 000a 0368     		ldr	r3, [r0]
 429 000c 9BB2     		uxth	r3, r3
 430 000e 23F48043 		bic	r3, r3, #16384
 431 0012 23F07003 		bic	r3, r3, #112
 432 0016 9BB2     		uxth	r3, r3
 433              	.LVL22:
 434 0018 01F48052 		and	r2, r1, #4096
 435 001c 92B2     		uxth	r2, r2
 436 001e 0AB1     		cbz	r2, .L36
 437              		.loc 1 208 0 is_stmt 0 discriminator 1
 438 0020 83F48053 		eor	r3, r3, #4096
 439              	.LVL23:
 440              	.L36:
 441              		.loc 1 208 0 discriminator 3
 442 0024 01F40051 		and	r1, r1, #8192
 443              	.LVL24:
 444 0028 89B2     		uxth	r1, r1
 445 002a 09B1     		cbz	r1, .L37
 446              		.loc 1 208 0 discriminator 4
 447 002c 83F40053 		eor	r3, r3, #8192
 448              	.LVL25:
ARM GAS  /var/folders/g9/bbpj86ld7fx45vd1b3pqxmp00000gn/T//ccMmV5Jv.s 			page 12


 449              	.L37:
 450              		.loc 1 208 0 discriminator 6
 451 0030 0360     		str	r3, [r0]
 452 0032 7047     		bx	lr
 453              	.LBE3:
 454              		.cfi_endproc
 455              	.LFE41:
 457              		.section	.text.SetDouBleBuffEPStall,"ax",%progbits
 458              		.align	2
 459              		.global	SetDouBleBuffEPStall
 460              		.thumb
 461              		.thumb_func
 463              	SetDouBleBuffEPStall:
 464              	.LFB42:
 209:STM32_USB-FS-Device_Driver/src/usb_regs.c **** }
 210:STM32_USB-FS-Device_Driver/src/usb_regs.c **** 
 211:STM32_USB-FS-Device_Driver/src/usb_regs.c **** /*******************************************************************************
 212:STM32_USB-FS-Device_Driver/src/usb_regs.c **** * Function Name  : SetDouBleBuffEPStall
 213:STM32_USB-FS-Device_Driver/src/usb_regs.c **** * Description    : sets the status for Double Buffer Endpoint to STALL
 214:STM32_USB-FS-Device_Driver/src/usb_regs.c **** * Input          : bEpNum: Endpoint Number. 
 215:STM32_USB-FS-Device_Driver/src/usb_regs.c **** *                  bDir: Endpoint direction.
 216:STM32_USB-FS-Device_Driver/src/usb_regs.c **** * Output         : None.
 217:STM32_USB-FS-Device_Driver/src/usb_regs.c **** * Return         : None.
 218:STM32_USB-FS-Device_Driver/src/usb_regs.c **** *******************************************************************************/
 219:STM32_USB-FS-Device_Driver/src/usb_regs.c **** void SetDouBleBuffEPStall(uint8_t bEpNum, uint8_t bDir)
 220:STM32_USB-FS-Device_Driver/src/usb_regs.c **** {
 465              		.loc 1 220 0 is_stmt 1
 466              		.cfi_startproc
 467              		@ args = 0, pretend = 0, frame = 0
 468              		@ frame_needed = 0, uses_anonymous_args = 0
 469              	.LVL26:
 470 0000 38B5     		push	{r3, r4, r5, lr}
 471              	.LCFI0:
 472              		.cfi_def_cfa_offset 16
 473              		.cfi_offset 3, -16
 474              		.cfi_offset 4, -12
 475              		.cfi_offset 5, -8
 476              		.cfi_offset 14, -4
 477 0002 0446     		mov	r4, r0
 478 0004 0D46     		mov	r5, r1
 221:STM32_USB-FS-Device_Driver/src/usb_regs.c ****   uint16_t Endpoint_DTOG_Status;
 222:STM32_USB-FS-Device_Driver/src/usb_regs.c ****   Endpoint_DTOG_Status = GetENDPOINT(bEpNum);
 479              		.loc 1 222 0
 480 0006 FFF7FEFF 		bl	GetENDPOINT
 481              	.LVL27:
 223:STM32_USB-FS-Device_Driver/src/usb_regs.c ****   if (bDir == EP_DBUF_OUT)
 482              		.loc 1 223 0
 483 000a 012D     		cmp	r5, #1
 484 000c 08D1     		bne	.L39
 224:STM32_USB-FS-Device_Driver/src/usb_regs.c ****   { /* OUT double buffered endpoint */
 225:STM32_USB-FS-Device_Driver/src/usb_regs.c ****     _SetENDPOINT(bEpNum, Endpoint_DTOG_Status & ~EPRX_DTOG1);
 485              		.loc 1 225 0
 486 000e A400     		lsls	r4, r4, #2
 487 0010 04F18044 		add	r4, r4, #1073741824
 488 0014 04F5B844 		add	r4, r4, #23552
 489 0018 20F48050 		bic	r0, r0, #4096
 490              	.LVL28:
ARM GAS  /var/folders/g9/bbpj86ld7fx45vd1b3pqxmp00000gn/T//ccMmV5Jv.s 			page 13


 491 001c 2060     		str	r0, [r4]
 492 001e 38BD     		pop	{r3, r4, r5, pc}
 493              	.LVL29:
 494              	.L39:
 226:STM32_USB-FS-Device_Driver/src/usb_regs.c ****   }
 227:STM32_USB-FS-Device_Driver/src/usb_regs.c ****   else if (bDir == EP_DBUF_IN)
 495              		.loc 1 227 0
 496 0020 022D     		cmp	r5, #2
 497 0022 07D1     		bne	.L38
 228:STM32_USB-FS-Device_Driver/src/usb_regs.c ****   { /* IN double buffered endpoint */
 229:STM32_USB-FS-Device_Driver/src/usb_regs.c ****     _SetENDPOINT(bEpNum, Endpoint_DTOG_Status & ~EPTX_DTOG1);
 498              		.loc 1 229 0
 499 0024 A400     		lsls	r4, r4, #2
 500 0026 04F18044 		add	r4, r4, #1073741824
 501 002a 04F5B844 		add	r4, r4, #23552
 502 002e 20F01000 		bic	r0, r0, #16
 503              	.LVL30:
 504 0032 2060     		str	r0, [r4]
 505              	.L38:
 506 0034 38BD     		pop	{r3, r4, r5, pc}
 507              		.cfi_endproc
 508              	.LFE42:
 510 0036 00BF     		.section	.text.GetEPTxStatus,"ax",%progbits
 511              		.align	2
 512              		.global	GetEPTxStatus
 513              		.thumb
 514              		.thumb_func
 516              	GetEPTxStatus:
 517              	.LFB43:
 230:STM32_USB-FS-Device_Driver/src/usb_regs.c ****   }
 231:STM32_USB-FS-Device_Driver/src/usb_regs.c **** }
 232:STM32_USB-FS-Device_Driver/src/usb_regs.c **** 
 233:STM32_USB-FS-Device_Driver/src/usb_regs.c **** /*******************************************************************************
 234:STM32_USB-FS-Device_Driver/src/usb_regs.c **** * Function Name  : GetEPTxStatus
 235:STM32_USB-FS-Device_Driver/src/usb_regs.c **** * Description    : Returns the endpoint Tx status.
 236:STM32_USB-FS-Device_Driver/src/usb_regs.c **** * Input          : bEpNum: Endpoint Number. 
 237:STM32_USB-FS-Device_Driver/src/usb_regs.c **** * Output         : None.
 238:STM32_USB-FS-Device_Driver/src/usb_regs.c **** * Return         : Endpoint TX Status
 239:STM32_USB-FS-Device_Driver/src/usb_regs.c **** *******************************************************************************/
 240:STM32_USB-FS-Device_Driver/src/usb_regs.c **** uint16_t GetEPTxStatus(uint8_t bEpNum)
 241:STM32_USB-FS-Device_Driver/src/usb_regs.c **** {
 518              		.loc 1 241 0
 519              		.cfi_startproc
 520              		@ args = 0, pretend = 0, frame = 0
 521              		@ frame_needed = 0, uses_anonymous_args = 0
 522              		@ link register save eliminated.
 523              	.LVL31:
 242:STM32_USB-FS-Device_Driver/src/usb_regs.c ****   return(_GetEPTxStatus(bEpNum));
 524              		.loc 1 242 0
 525 0000 8000     		lsls	r0, r0, #2
 526              	.LVL32:
 527 0002 00F18040 		add	r0, r0, #1073741824
 528 0006 00F5B840 		add	r0, r0, #23552
 529 000a 0068     		ldr	r0, [r0]
 243:STM32_USB-FS-Device_Driver/src/usb_regs.c **** }
 530              		.loc 1 243 0
 531 000c 00F03000 		and	r0, r0, #48
ARM GAS  /var/folders/g9/bbpj86ld7fx45vd1b3pqxmp00000gn/T//ccMmV5Jv.s 			page 14


 532 0010 7047     		bx	lr
 533              		.cfi_endproc
 534              	.LFE43:
 536 0012 00BF     		.section	.text.GetEPRxStatus,"ax",%progbits
 537              		.align	2
 538              		.global	GetEPRxStatus
 539              		.thumb
 540              		.thumb_func
 542              	GetEPRxStatus:
 543              	.LFB44:
 244:STM32_USB-FS-Device_Driver/src/usb_regs.c **** 
 245:STM32_USB-FS-Device_Driver/src/usb_regs.c **** /*******************************************************************************
 246:STM32_USB-FS-Device_Driver/src/usb_regs.c **** * Function Name  : GetEPRxStatus
 247:STM32_USB-FS-Device_Driver/src/usb_regs.c **** * Description    : Returns the endpoint Rx status.
 248:STM32_USB-FS-Device_Driver/src/usb_regs.c **** * Input          : bEpNum: Endpoint Number. 
 249:STM32_USB-FS-Device_Driver/src/usb_regs.c **** * Output         : None.
 250:STM32_USB-FS-Device_Driver/src/usb_regs.c **** * Return         : Endpoint RX Status
 251:STM32_USB-FS-Device_Driver/src/usb_regs.c **** *******************************************************************************/
 252:STM32_USB-FS-Device_Driver/src/usb_regs.c **** uint16_t GetEPRxStatus(uint8_t bEpNum)
 253:STM32_USB-FS-Device_Driver/src/usb_regs.c **** {
 544              		.loc 1 253 0
 545              		.cfi_startproc
 546              		@ args = 0, pretend = 0, frame = 0
 547              		@ frame_needed = 0, uses_anonymous_args = 0
 548              		@ link register save eliminated.
 549              	.LVL33:
 254:STM32_USB-FS-Device_Driver/src/usb_regs.c ****   return(_GetEPRxStatus(bEpNum));
 550              		.loc 1 254 0
 551 0000 8000     		lsls	r0, r0, #2
 552              	.LVL34:
 553 0002 00F18040 		add	r0, r0, #1073741824
 554 0006 00F5B840 		add	r0, r0, #23552
 555 000a 0068     		ldr	r0, [r0]
 255:STM32_USB-FS-Device_Driver/src/usb_regs.c **** }
 556              		.loc 1 255 0
 557 000c 00F44050 		and	r0, r0, #12288
 558 0010 7047     		bx	lr
 559              		.cfi_endproc
 560              	.LFE44:
 562 0012 00BF     		.section	.text.SetEPTxValid,"ax",%progbits
 563              		.align	2
 564              		.global	SetEPTxValid
 565              		.thumb
 566              		.thumb_func
 568              	SetEPTxValid:
 569              	.LFB45:
 256:STM32_USB-FS-Device_Driver/src/usb_regs.c **** 
 257:STM32_USB-FS-Device_Driver/src/usb_regs.c **** /*******************************************************************************
 258:STM32_USB-FS-Device_Driver/src/usb_regs.c **** * Function Name  : SetEPTxValid
 259:STM32_USB-FS-Device_Driver/src/usb_regs.c **** * Description    : Valid the endpoint Tx Status.
 260:STM32_USB-FS-Device_Driver/src/usb_regs.c **** * Input          : bEpNum: Endpoint Number.  
 261:STM32_USB-FS-Device_Driver/src/usb_regs.c **** * Output         : None.
 262:STM32_USB-FS-Device_Driver/src/usb_regs.c **** * Return         : None.
 263:STM32_USB-FS-Device_Driver/src/usb_regs.c **** *******************************************************************************/
 264:STM32_USB-FS-Device_Driver/src/usb_regs.c **** void SetEPTxValid(uint8_t bEpNum)
 265:STM32_USB-FS-Device_Driver/src/usb_regs.c **** {
 570              		.loc 1 265 0
ARM GAS  /var/folders/g9/bbpj86ld7fx45vd1b3pqxmp00000gn/T//ccMmV5Jv.s 			page 15


 571              		.cfi_startproc
 572              		@ args = 0, pretend = 0, frame = 0
 573              		@ frame_needed = 0, uses_anonymous_args = 0
 574              		@ link register save eliminated.
 575              	.LVL35:
 576              	.LBB4:
 266:STM32_USB-FS-Device_Driver/src/usb_regs.c ****   _SetEPTxStatus(bEpNum, EP_TX_VALID);
 577              		.loc 1 266 0
 578 0000 8000     		lsls	r0, r0, #2
 579              	.LVL36:
 580 0002 00F18040 		add	r0, r0, #1073741824
 581 0006 00F5B840 		add	r0, r0, #23552
 582 000a 0368     		ldr	r3, [r0]
 583 000c 9BB2     		uxth	r3, r3
 584 000e 23F4E043 		bic	r3, r3, #28672
 585 0012 23F04003 		bic	r3, r3, #64
 586              	.LVL37:
 587 0016 83F03003 		eor	r3, r3, #48
 588              	.LVL38:
 589 001a 0360     		str	r3, [r0]
 590 001c 7047     		bx	lr
 591              	.LBE4:
 592              		.cfi_endproc
 593              	.LFE45:
 595 001e 00BF     		.section	.text.SetEPRxValid,"ax",%progbits
 596              		.align	2
 597              		.global	SetEPRxValid
 598              		.thumb
 599              		.thumb_func
 601              	SetEPRxValid:
 602              	.LFB46:
 267:STM32_USB-FS-Device_Driver/src/usb_regs.c **** }
 268:STM32_USB-FS-Device_Driver/src/usb_regs.c **** 
 269:STM32_USB-FS-Device_Driver/src/usb_regs.c **** /*******************************************************************************
 270:STM32_USB-FS-Device_Driver/src/usb_regs.c **** * Function Name  : SetEPRxValid
 271:STM32_USB-FS-Device_Driver/src/usb_regs.c **** * Description    : Valid the endpoint Rx Status.
 272:STM32_USB-FS-Device_Driver/src/usb_regs.c **** * Input          : bEpNum: Endpoint Number. 
 273:STM32_USB-FS-Device_Driver/src/usb_regs.c **** * Output         : None.
 274:STM32_USB-FS-Device_Driver/src/usb_regs.c **** * Return         : None.
 275:STM32_USB-FS-Device_Driver/src/usb_regs.c **** *******************************************************************************/
 276:STM32_USB-FS-Device_Driver/src/usb_regs.c **** void SetEPRxValid(uint8_t bEpNum)
 277:STM32_USB-FS-Device_Driver/src/usb_regs.c **** {
 603              		.loc 1 277 0
 604              		.cfi_startproc
 605              		@ args = 0, pretend = 0, frame = 0
 606              		@ frame_needed = 0, uses_anonymous_args = 0
 607              		@ link register save eliminated.
 608              	.LVL39:
 609              	.LBB5:
 278:STM32_USB-FS-Device_Driver/src/usb_regs.c ****   _SetEPRxStatus(bEpNum, EP_RX_VALID);
 610              		.loc 1 278 0
 611 0000 8000     		lsls	r0, r0, #2
 612              	.LVL40:
 613 0002 00F18040 		add	r0, r0, #1073741824
 614 0006 00F5B840 		add	r0, r0, #23552
 615 000a 0368     		ldr	r3, [r0]
 616 000c 9BB2     		uxth	r3, r3
ARM GAS  /var/folders/g9/bbpj86ld7fx45vd1b3pqxmp00000gn/T//ccMmV5Jv.s 			page 16


 617 000e 23F48043 		bic	r3, r3, #16384
 618 0012 23F07003 		bic	r3, r3, #112
 619              	.LVL41:
 620 0016 83F44053 		eor	r3, r3, #12288
 621              	.LVL42:
 622 001a 0360     		str	r3, [r0]
 623 001c 7047     		bx	lr
 624              	.LBE5:
 625              		.cfi_endproc
 626              	.LFE46:
 628 001e 00BF     		.section	.text.SetEP_KIND,"ax",%progbits
 629              		.align	2
 630              		.global	SetEP_KIND
 631              		.thumb
 632              		.thumb_func
 634              	SetEP_KIND:
 635              	.LFB47:
 279:STM32_USB-FS-Device_Driver/src/usb_regs.c **** }
 280:STM32_USB-FS-Device_Driver/src/usb_regs.c **** 
 281:STM32_USB-FS-Device_Driver/src/usb_regs.c **** /*******************************************************************************
 282:STM32_USB-FS-Device_Driver/src/usb_regs.c **** * Function Name  : SetEP_KIND
 283:STM32_USB-FS-Device_Driver/src/usb_regs.c **** * Description    : Clear the EP_KIND bit.
 284:STM32_USB-FS-Device_Driver/src/usb_regs.c **** * Input          : bEpNum: Endpoint Number. 
 285:STM32_USB-FS-Device_Driver/src/usb_regs.c **** * Output         : None.
 286:STM32_USB-FS-Device_Driver/src/usb_regs.c **** * Return         : None.
 287:STM32_USB-FS-Device_Driver/src/usb_regs.c **** *******************************************************************************/
 288:STM32_USB-FS-Device_Driver/src/usb_regs.c **** void SetEP_KIND(uint8_t bEpNum)
 289:STM32_USB-FS-Device_Driver/src/usb_regs.c **** {
 636              		.loc 1 289 0
 637              		.cfi_startproc
 638              		@ args = 0, pretend = 0, frame = 0
 639              		@ frame_needed = 0, uses_anonymous_args = 0
 640              		@ link register save eliminated.
 641              	.LVL43:
 290:STM32_USB-FS-Device_Driver/src/usb_regs.c ****   _SetEP_KIND(bEpNum);
 642              		.loc 1 290 0
 643 0000 8000     		lsls	r0, r0, #2
 644              	.LVL44:
 645 0002 00F18040 		add	r0, r0, #1073741824
 646 0006 00F5B840 		add	r0, r0, #23552
 647 000a 0368     		ldr	r3, [r0]
 648 000c 9BB2     		uxth	r3, r3
 649 000e 23F4E043 		bic	r3, r3, #28672
 650 0012 23F07003 		bic	r3, r3, #112
 651 0016 43F48073 		orr	r3, r3, #256
 652 001a 0360     		str	r3, [r0]
 653 001c 7047     		bx	lr
 654              		.cfi_endproc
 655              	.LFE47:
 657 001e 00BF     		.section	.text.ClearEP_KIND,"ax",%progbits
 658              		.align	2
 659              		.global	ClearEP_KIND
 660              		.thumb
 661              		.thumb_func
 663              	ClearEP_KIND:
 664              	.LFB48:
 291:STM32_USB-FS-Device_Driver/src/usb_regs.c **** }
ARM GAS  /var/folders/g9/bbpj86ld7fx45vd1b3pqxmp00000gn/T//ccMmV5Jv.s 			page 17


 292:STM32_USB-FS-Device_Driver/src/usb_regs.c **** 
 293:STM32_USB-FS-Device_Driver/src/usb_regs.c **** /*******************************************************************************
 294:STM32_USB-FS-Device_Driver/src/usb_regs.c **** * Function Name  : ClearEP_KIND
 295:STM32_USB-FS-Device_Driver/src/usb_regs.c **** * Description    : set the  EP_KIND bit.
 296:STM32_USB-FS-Device_Driver/src/usb_regs.c **** * Input          : bEpNum: Endpoint Number. 
 297:STM32_USB-FS-Device_Driver/src/usb_regs.c **** * Output         : None.
 298:STM32_USB-FS-Device_Driver/src/usb_regs.c **** * Return         : None.
 299:STM32_USB-FS-Device_Driver/src/usb_regs.c **** *******************************************************************************/
 300:STM32_USB-FS-Device_Driver/src/usb_regs.c **** void ClearEP_KIND(uint8_t bEpNum)
 301:STM32_USB-FS-Device_Driver/src/usb_regs.c **** {
 665              		.loc 1 301 0
 666              		.cfi_startproc
 667              		@ args = 0, pretend = 0, frame = 0
 668              		@ frame_needed = 0, uses_anonymous_args = 0
 669              		@ link register save eliminated.
 670              	.LVL45:
 302:STM32_USB-FS-Device_Driver/src/usb_regs.c ****   _ClearEP_KIND(bEpNum);
 671              		.loc 1 302 0
 672 0000 8000     		lsls	r0, r0, #2
 673              	.LVL46:
 674 0002 00F18040 		add	r0, r0, #1073741824
 675 0006 00F5B840 		add	r0, r0, #23552
 676 000a 0368     		ldr	r3, [r0]
 677 000c 23F4E243 		bic	r3, r3, #28928
 678 0010 23F07003 		bic	r3, r3, #112
 679 0014 1B04     		lsls	r3, r3, #16
 680 0016 1B0C     		lsrs	r3, r3, #16
 681 0018 0360     		str	r3, [r0]
 682 001a 7047     		bx	lr
 683              		.cfi_endproc
 684              	.LFE48:
 686              		.section	.text.Clear_Status_Out,"ax",%progbits
 687              		.align	2
 688              		.global	Clear_Status_Out
 689              		.thumb
 690              		.thumb_func
 692              	Clear_Status_Out:
 693              	.LFB49:
 303:STM32_USB-FS-Device_Driver/src/usb_regs.c **** }
 304:STM32_USB-FS-Device_Driver/src/usb_regs.c **** /*******************************************************************************
 305:STM32_USB-FS-Device_Driver/src/usb_regs.c **** * Function Name  : Clear_Status_Out
 306:STM32_USB-FS-Device_Driver/src/usb_regs.c **** * Description    : Clear the Status Out of the related Endpoint
 307:STM32_USB-FS-Device_Driver/src/usb_regs.c **** * Input          : bEpNum: Endpoint Number. 
 308:STM32_USB-FS-Device_Driver/src/usb_regs.c **** * Output         : None.
 309:STM32_USB-FS-Device_Driver/src/usb_regs.c **** * Return         : None.
 310:STM32_USB-FS-Device_Driver/src/usb_regs.c **** *******************************************************************************/
 311:STM32_USB-FS-Device_Driver/src/usb_regs.c **** void Clear_Status_Out(uint8_t bEpNum)
 312:STM32_USB-FS-Device_Driver/src/usb_regs.c **** {
 694              		.loc 1 312 0
 695              		.cfi_startproc
 696              		@ args = 0, pretend = 0, frame = 0
 697              		@ frame_needed = 0, uses_anonymous_args = 0
 698              		@ link register save eliminated.
 699              	.LVL47:
 313:STM32_USB-FS-Device_Driver/src/usb_regs.c ****   _ClearEP_KIND(bEpNum);
 700              		.loc 1 313 0
 701 0000 8000     		lsls	r0, r0, #2
ARM GAS  /var/folders/g9/bbpj86ld7fx45vd1b3pqxmp00000gn/T//ccMmV5Jv.s 			page 18


 702              	.LVL48:
 703 0002 00F18040 		add	r0, r0, #1073741824
 704 0006 00F5B840 		add	r0, r0, #23552
 705 000a 0368     		ldr	r3, [r0]
 706 000c 23F4E243 		bic	r3, r3, #28928
 707 0010 23F07003 		bic	r3, r3, #112
 708 0014 1B04     		lsls	r3, r3, #16
 709 0016 1B0C     		lsrs	r3, r3, #16
 710 0018 0360     		str	r3, [r0]
 711 001a 7047     		bx	lr
 712              		.cfi_endproc
 713              	.LFE49:
 715              		.section	.text.Set_Status_Out,"ax",%progbits
 716              		.align	2
 717              		.global	Set_Status_Out
 718              		.thumb
 719              		.thumb_func
 721              	Set_Status_Out:
 722              	.LFB50:
 314:STM32_USB-FS-Device_Driver/src/usb_regs.c **** }
 315:STM32_USB-FS-Device_Driver/src/usb_regs.c **** /*******************************************************************************
 316:STM32_USB-FS-Device_Driver/src/usb_regs.c **** * Function Name  : Set_Status_Out
 317:STM32_USB-FS-Device_Driver/src/usb_regs.c **** * Description    : Set the Status Out of the related Endpoint
 318:STM32_USB-FS-Device_Driver/src/usb_regs.c **** * Input          : bEpNum: Endpoint Number. 
 319:STM32_USB-FS-Device_Driver/src/usb_regs.c **** * Output         : None.
 320:STM32_USB-FS-Device_Driver/src/usb_regs.c **** * Return         : None.
 321:STM32_USB-FS-Device_Driver/src/usb_regs.c **** *******************************************************************************/
 322:STM32_USB-FS-Device_Driver/src/usb_regs.c **** void Set_Status_Out(uint8_t bEpNum)
 323:STM32_USB-FS-Device_Driver/src/usb_regs.c **** {
 723              		.loc 1 323 0
 724              		.cfi_startproc
 725              		@ args = 0, pretend = 0, frame = 0
 726              		@ frame_needed = 0, uses_anonymous_args = 0
 727              		@ link register save eliminated.
 728              	.LVL49:
 324:STM32_USB-FS-Device_Driver/src/usb_regs.c ****   _SetEP_KIND(bEpNum);
 729              		.loc 1 324 0
 730 0000 8000     		lsls	r0, r0, #2
 731              	.LVL50:
 732 0002 00F18040 		add	r0, r0, #1073741824
 733 0006 00F5B840 		add	r0, r0, #23552
 734 000a 0368     		ldr	r3, [r0]
 735 000c 9BB2     		uxth	r3, r3
 736 000e 23F4E043 		bic	r3, r3, #28672
 737 0012 23F07003 		bic	r3, r3, #112
 738 0016 43F48073 		orr	r3, r3, #256
 739 001a 0360     		str	r3, [r0]
 740 001c 7047     		bx	lr
 741              		.cfi_endproc
 742              	.LFE50:
 744 001e 00BF     		.section	.text.SetEPDoubleBuff,"ax",%progbits
 745              		.align	2
 746              		.global	SetEPDoubleBuff
 747              		.thumb
 748              		.thumb_func
 750              	SetEPDoubleBuff:
 751              	.LFB51:
ARM GAS  /var/folders/g9/bbpj86ld7fx45vd1b3pqxmp00000gn/T//ccMmV5Jv.s 			page 19


 325:STM32_USB-FS-Device_Driver/src/usb_regs.c **** }
 326:STM32_USB-FS-Device_Driver/src/usb_regs.c **** /*******************************************************************************
 327:STM32_USB-FS-Device_Driver/src/usb_regs.c **** * Function Name  : SetEPDoubleBuff
 328:STM32_USB-FS-Device_Driver/src/usb_regs.c **** * Description    : Enable the double buffer feature for the endpoint. 
 329:STM32_USB-FS-Device_Driver/src/usb_regs.c **** * Input          : bEpNum: Endpoint Number. 
 330:STM32_USB-FS-Device_Driver/src/usb_regs.c **** * Output         : None.
 331:STM32_USB-FS-Device_Driver/src/usb_regs.c **** * Return         : None.
 332:STM32_USB-FS-Device_Driver/src/usb_regs.c **** *******************************************************************************/
 333:STM32_USB-FS-Device_Driver/src/usb_regs.c **** void SetEPDoubleBuff(uint8_t bEpNum)
 334:STM32_USB-FS-Device_Driver/src/usb_regs.c **** {
 752              		.loc 1 334 0
 753              		.cfi_startproc
 754              		@ args = 0, pretend = 0, frame = 0
 755              		@ frame_needed = 0, uses_anonymous_args = 0
 756              		@ link register save eliminated.
 757              	.LVL51:
 335:STM32_USB-FS-Device_Driver/src/usb_regs.c ****   _SetEP_KIND(bEpNum);
 758              		.loc 1 335 0
 759 0000 8000     		lsls	r0, r0, #2
 760              	.LVL52:
 761 0002 00F18040 		add	r0, r0, #1073741824
 762 0006 00F5B840 		add	r0, r0, #23552
 763 000a 0368     		ldr	r3, [r0]
 764 000c 9BB2     		uxth	r3, r3
 765 000e 23F4E043 		bic	r3, r3, #28672
 766 0012 23F07003 		bic	r3, r3, #112
 767 0016 43F48073 		orr	r3, r3, #256
 768 001a 0360     		str	r3, [r0]
 769 001c 7047     		bx	lr
 770              		.cfi_endproc
 771              	.LFE51:
 773 001e 00BF     		.section	.text.ClearEPDoubleBuff,"ax",%progbits
 774              		.align	2
 775              		.global	ClearEPDoubleBuff
 776              		.thumb
 777              		.thumb_func
 779              	ClearEPDoubleBuff:
 780              	.LFB52:
 336:STM32_USB-FS-Device_Driver/src/usb_regs.c **** }
 337:STM32_USB-FS-Device_Driver/src/usb_regs.c **** /*******************************************************************************
 338:STM32_USB-FS-Device_Driver/src/usb_regs.c **** * Function Name  : ClearEPDoubleBuff
 339:STM32_USB-FS-Device_Driver/src/usb_regs.c **** * Description    : Disable the double buffer feature for the endpoint. 
 340:STM32_USB-FS-Device_Driver/src/usb_regs.c **** * Input          : bEpNum: Endpoint Number. 
 341:STM32_USB-FS-Device_Driver/src/usb_regs.c **** * Output         : None.
 342:STM32_USB-FS-Device_Driver/src/usb_regs.c **** * Return         : None.
 343:STM32_USB-FS-Device_Driver/src/usb_regs.c **** *******************************************************************************/
 344:STM32_USB-FS-Device_Driver/src/usb_regs.c **** void ClearEPDoubleBuff(uint8_t bEpNum)
 345:STM32_USB-FS-Device_Driver/src/usb_regs.c **** {
 781              		.loc 1 345 0
 782              		.cfi_startproc
 783              		@ args = 0, pretend = 0, frame = 0
 784              		@ frame_needed = 0, uses_anonymous_args = 0
 785              		@ link register save eliminated.
 786              	.LVL53:
 346:STM32_USB-FS-Device_Driver/src/usb_regs.c ****   _ClearEP_KIND(bEpNum);
 787              		.loc 1 346 0
 788 0000 8000     		lsls	r0, r0, #2
ARM GAS  /var/folders/g9/bbpj86ld7fx45vd1b3pqxmp00000gn/T//ccMmV5Jv.s 			page 20


 789              	.LVL54:
 790 0002 00F18040 		add	r0, r0, #1073741824
 791 0006 00F5B840 		add	r0, r0, #23552
 792 000a 0368     		ldr	r3, [r0]
 793 000c 23F4E243 		bic	r3, r3, #28928
 794 0010 23F07003 		bic	r3, r3, #112
 795 0014 1B04     		lsls	r3, r3, #16
 796 0016 1B0C     		lsrs	r3, r3, #16
 797 0018 0360     		str	r3, [r0]
 798 001a 7047     		bx	lr
 799              		.cfi_endproc
 800              	.LFE52:
 802              		.section	.text.GetTxStallStatus,"ax",%progbits
 803              		.align	2
 804              		.global	GetTxStallStatus
 805              		.thumb
 806              		.thumb_func
 808              	GetTxStallStatus:
 809              	.LFB53:
 347:STM32_USB-FS-Device_Driver/src/usb_regs.c **** }
 348:STM32_USB-FS-Device_Driver/src/usb_regs.c **** /*******************************************************************************
 349:STM32_USB-FS-Device_Driver/src/usb_regs.c **** * Function Name  : GetTxStallStatus
 350:STM32_USB-FS-Device_Driver/src/usb_regs.c **** * Description    : Returns the Stall status of the Tx endpoint.
 351:STM32_USB-FS-Device_Driver/src/usb_regs.c **** * Input          : bEpNum: Endpoint Number. 
 352:STM32_USB-FS-Device_Driver/src/usb_regs.c **** * Output         : None.
 353:STM32_USB-FS-Device_Driver/src/usb_regs.c **** * Return         : Tx Stall status.
 354:STM32_USB-FS-Device_Driver/src/usb_regs.c **** *******************************************************************************/
 355:STM32_USB-FS-Device_Driver/src/usb_regs.c **** uint16_t GetTxStallStatus(uint8_t bEpNum)
 356:STM32_USB-FS-Device_Driver/src/usb_regs.c **** {
 810              		.loc 1 356 0
 811              		.cfi_startproc
 812              		@ args = 0, pretend = 0, frame = 0
 813              		@ frame_needed = 0, uses_anonymous_args = 0
 814              		@ link register save eliminated.
 815              	.LVL55:
 357:STM32_USB-FS-Device_Driver/src/usb_regs.c ****   return(_GetTxStallStatus(bEpNum));
 816              		.loc 1 357 0
 817 0000 8000     		lsls	r0, r0, #2
 818              	.LVL56:
 819 0002 00F18040 		add	r0, r0, #1073741824
 820 0006 00F5B840 		add	r0, r0, #23552
 821 000a 0068     		ldr	r0, [r0]
 822 000c 00F03000 		and	r0, r0, #48
 358:STM32_USB-FS-Device_Driver/src/usb_regs.c **** }
 823              		.loc 1 358 0
 824 0010 1028     		cmp	r0, #16
 825 0012 14BF     		ite	ne
 826 0014 0020     		movne	r0, #0
 827 0016 0120     		moveq	r0, #1
 828 0018 7047     		bx	lr
 829              		.cfi_endproc
 830              	.LFE53:
 832 001a 00BF     		.section	.text.GetRxStallStatus,"ax",%progbits
 833              		.align	2
 834              		.global	GetRxStallStatus
 835              		.thumb
 836              		.thumb_func
ARM GAS  /var/folders/g9/bbpj86ld7fx45vd1b3pqxmp00000gn/T//ccMmV5Jv.s 			page 21


 838              	GetRxStallStatus:
 839              	.LFB54:
 359:STM32_USB-FS-Device_Driver/src/usb_regs.c **** /*******************************************************************************
 360:STM32_USB-FS-Device_Driver/src/usb_regs.c **** * Function Name  : GetRxStallStatus
 361:STM32_USB-FS-Device_Driver/src/usb_regs.c **** * Description    : Returns the Stall status of the Rx endpoint. 
 362:STM32_USB-FS-Device_Driver/src/usb_regs.c **** * Input          : bEpNum: Endpoint Number. 
 363:STM32_USB-FS-Device_Driver/src/usb_regs.c **** * Output         : None.
 364:STM32_USB-FS-Device_Driver/src/usb_regs.c **** * Return         : Rx Stall status.
 365:STM32_USB-FS-Device_Driver/src/usb_regs.c **** *******************************************************************************/
 366:STM32_USB-FS-Device_Driver/src/usb_regs.c **** uint16_t GetRxStallStatus(uint8_t bEpNum)
 367:STM32_USB-FS-Device_Driver/src/usb_regs.c **** {
 840              		.loc 1 367 0
 841              		.cfi_startproc
 842              		@ args = 0, pretend = 0, frame = 0
 843              		@ frame_needed = 0, uses_anonymous_args = 0
 844              		@ link register save eliminated.
 845              	.LVL57:
 368:STM32_USB-FS-Device_Driver/src/usb_regs.c ****   return(_GetRxStallStatus(bEpNum));
 846              		.loc 1 368 0
 847 0000 8000     		lsls	r0, r0, #2
 848              	.LVL58:
 849 0002 00F18040 		add	r0, r0, #1073741824
 850 0006 00F5B840 		add	r0, r0, #23552
 851 000a 0068     		ldr	r0, [r0]
 852 000c 00F44050 		and	r0, r0, #12288
 369:STM32_USB-FS-Device_Driver/src/usb_regs.c **** }
 853              		.loc 1 369 0
 854 0010 B0F5805F 		cmp	r0, #4096
 855 0014 14BF     		ite	ne
 856 0016 0020     		movne	r0, #0
 857 0018 0120     		moveq	r0, #1
 858 001a 7047     		bx	lr
 859              		.cfi_endproc
 860              	.LFE54:
 862              		.section	.text.ClearEP_CTR_RX,"ax",%progbits
 863              		.align	2
 864              		.global	ClearEP_CTR_RX
 865              		.thumb
 866              		.thumb_func
 868              	ClearEP_CTR_RX:
 869              	.LFB55:
 370:STM32_USB-FS-Device_Driver/src/usb_regs.c **** /*******************************************************************************
 371:STM32_USB-FS-Device_Driver/src/usb_regs.c **** * Function Name  : ClearEP_CTR_RX
 372:STM32_USB-FS-Device_Driver/src/usb_regs.c **** * Description    : Clear the CTR_RX bit.
 373:STM32_USB-FS-Device_Driver/src/usb_regs.c **** * Input          : bEpNum: Endpoint Number. 
 374:STM32_USB-FS-Device_Driver/src/usb_regs.c **** * Output         : None.
 375:STM32_USB-FS-Device_Driver/src/usb_regs.c **** * Return         : None.
 376:STM32_USB-FS-Device_Driver/src/usb_regs.c **** *******************************************************************************/
 377:STM32_USB-FS-Device_Driver/src/usb_regs.c **** void ClearEP_CTR_RX(uint8_t bEpNum)
 378:STM32_USB-FS-Device_Driver/src/usb_regs.c **** {
 870              		.loc 1 378 0
 871              		.cfi_startproc
 872              		@ args = 0, pretend = 0, frame = 0
 873              		@ frame_needed = 0, uses_anonymous_args = 0
 874              		@ link register save eliminated.
 875              	.LVL59:
 379:STM32_USB-FS-Device_Driver/src/usb_regs.c ****   _ClearEP_CTR_RX(bEpNum);
ARM GAS  /var/folders/g9/bbpj86ld7fx45vd1b3pqxmp00000gn/T//ccMmV5Jv.s 			page 22


 876              		.loc 1 379 0
 877 0000 8000     		lsls	r0, r0, #2
 878              	.LVL60:
 879 0002 00F18040 		add	r0, r0, #1073741824
 880 0006 00F5B840 		add	r0, r0, #23552
 881 000a 0368     		ldr	r3, [r0]
 882 000c 23F07003 		bic	r3, r3, #112
 883 0010 1B05     		lsls	r3, r3, #20
 884 0012 1B0D     		lsrs	r3, r3, #20
 885 0014 0360     		str	r3, [r0]
 886 0016 7047     		bx	lr
 887              		.cfi_endproc
 888              	.LFE55:
 890              		.section	.text.ClearEP_CTR_TX,"ax",%progbits
 891              		.align	2
 892              		.global	ClearEP_CTR_TX
 893              		.thumb
 894              		.thumb_func
 896              	ClearEP_CTR_TX:
 897              	.LFB56:
 380:STM32_USB-FS-Device_Driver/src/usb_regs.c **** }
 381:STM32_USB-FS-Device_Driver/src/usb_regs.c **** /*******************************************************************************
 382:STM32_USB-FS-Device_Driver/src/usb_regs.c **** * Function Name  : ClearEP_CTR_TX
 383:STM32_USB-FS-Device_Driver/src/usb_regs.c **** * Description    : Clear the CTR_TX bit.
 384:STM32_USB-FS-Device_Driver/src/usb_regs.c **** * Input          : bEpNum: Endpoint Number. 
 385:STM32_USB-FS-Device_Driver/src/usb_regs.c **** * Output         : None.
 386:STM32_USB-FS-Device_Driver/src/usb_regs.c **** * Return         : None.
 387:STM32_USB-FS-Device_Driver/src/usb_regs.c **** *******************************************************************************/
 388:STM32_USB-FS-Device_Driver/src/usb_regs.c **** void ClearEP_CTR_TX(uint8_t bEpNum)
 389:STM32_USB-FS-Device_Driver/src/usb_regs.c **** {
 898              		.loc 1 389 0
 899              		.cfi_startproc
 900              		@ args = 0, pretend = 0, frame = 0
 901              		@ frame_needed = 0, uses_anonymous_args = 0
 902              		@ link register save eliminated.
 903              	.LVL61:
 390:STM32_USB-FS-Device_Driver/src/usb_regs.c ****   _ClearEP_CTR_TX(bEpNum);
 904              		.loc 1 390 0
 905 0000 8000     		lsls	r0, r0, #2
 906              	.LVL62:
 907 0002 00F18040 		add	r0, r0, #1073741824
 908 0006 00F5B840 		add	r0, r0, #23552
 909 000a 0368     		ldr	r3, [r0]
 910 000c 23F4E143 		bic	r3, r3, #28800
 911 0010 23F07003 		bic	r3, r3, #112
 912 0014 1B04     		lsls	r3, r3, #16
 913 0016 1B0C     		lsrs	r3, r3, #16
 914 0018 0360     		str	r3, [r0]
 915 001a 7047     		bx	lr
 916              		.cfi_endproc
 917              	.LFE56:
 919              		.section	.text.ToggleDTOG_RX,"ax",%progbits
 920              		.align	2
 921              		.global	ToggleDTOG_RX
 922              		.thumb
 923              		.thumb_func
 925              	ToggleDTOG_RX:
ARM GAS  /var/folders/g9/bbpj86ld7fx45vd1b3pqxmp00000gn/T//ccMmV5Jv.s 			page 23


 926              	.LFB57:
 391:STM32_USB-FS-Device_Driver/src/usb_regs.c **** }
 392:STM32_USB-FS-Device_Driver/src/usb_regs.c **** /*******************************************************************************
 393:STM32_USB-FS-Device_Driver/src/usb_regs.c **** * Function Name  : ToggleDTOG_RX
 394:STM32_USB-FS-Device_Driver/src/usb_regs.c **** * Description    : Toggle the DTOG_RX bit.
 395:STM32_USB-FS-Device_Driver/src/usb_regs.c **** * Input          : bEpNum: Endpoint Number. 
 396:STM32_USB-FS-Device_Driver/src/usb_regs.c **** * Output         : None.
 397:STM32_USB-FS-Device_Driver/src/usb_regs.c **** * Return         : None.
 398:STM32_USB-FS-Device_Driver/src/usb_regs.c **** *******************************************************************************/
 399:STM32_USB-FS-Device_Driver/src/usb_regs.c **** void ToggleDTOG_RX(uint8_t bEpNum)
 400:STM32_USB-FS-Device_Driver/src/usb_regs.c **** {
 927              		.loc 1 400 0
 928              		.cfi_startproc
 929              		@ args = 0, pretend = 0, frame = 0
 930              		@ frame_needed = 0, uses_anonymous_args = 0
 931              		@ link register save eliminated.
 932              	.LVL63:
 401:STM32_USB-FS-Device_Driver/src/usb_regs.c ****   _ToggleDTOG_RX(bEpNum);
 933              		.loc 1 401 0
 934 0000 8000     		lsls	r0, r0, #2
 935              	.LVL64:
 936 0002 00F18040 		add	r0, r0, #1073741824
 937 0006 00F5B840 		add	r0, r0, #23552
 938 000a 0368     		ldr	r3, [r0]
 939 000c 23F4E043 		bic	r3, r3, #28672
 940 0010 23F07003 		bic	r3, r3, #112
 941 0014 1B04     		lsls	r3, r3, #16
 942 0016 1B0C     		lsrs	r3, r3, #16
 943 0018 43F48043 		orr	r3, r3, #16384
 944 001c 0360     		str	r3, [r0]
 945 001e 7047     		bx	lr
 946              		.cfi_endproc
 947              	.LFE57:
 949              		.section	.text.ToggleDTOG_TX,"ax",%progbits
 950              		.align	2
 951              		.global	ToggleDTOG_TX
 952              		.thumb
 953              		.thumb_func
 955              	ToggleDTOG_TX:
 956              	.LFB58:
 402:STM32_USB-FS-Device_Driver/src/usb_regs.c **** }
 403:STM32_USB-FS-Device_Driver/src/usb_regs.c **** /*******************************************************************************
 404:STM32_USB-FS-Device_Driver/src/usb_regs.c **** * Function Name  : ToggleDTOG_TX
 405:STM32_USB-FS-Device_Driver/src/usb_regs.c **** * Description    : Toggle the DTOG_TX bit.
 406:STM32_USB-FS-Device_Driver/src/usb_regs.c **** * Input          : bEpNum: Endpoint Number. 
 407:STM32_USB-FS-Device_Driver/src/usb_regs.c **** * Output         : None.
 408:STM32_USB-FS-Device_Driver/src/usb_regs.c **** * Return         : None.
 409:STM32_USB-FS-Device_Driver/src/usb_regs.c **** *******************************************************************************/
 410:STM32_USB-FS-Device_Driver/src/usb_regs.c **** void ToggleDTOG_TX(uint8_t bEpNum)
 411:STM32_USB-FS-Device_Driver/src/usb_regs.c **** {
 957              		.loc 1 411 0
 958              		.cfi_startproc
 959              		@ args = 0, pretend = 0, frame = 0
 960              		@ frame_needed = 0, uses_anonymous_args = 0
 961              		@ link register save eliminated.
 962              	.LVL65:
 412:STM32_USB-FS-Device_Driver/src/usb_regs.c ****   _ToggleDTOG_TX(bEpNum);
ARM GAS  /var/folders/g9/bbpj86ld7fx45vd1b3pqxmp00000gn/T//ccMmV5Jv.s 			page 24


 963              		.loc 1 412 0
 964 0000 8000     		lsls	r0, r0, #2
 965              	.LVL66:
 966 0002 00F18040 		add	r0, r0, #1073741824
 967 0006 00F5B840 		add	r0, r0, #23552
 968 000a 0368     		ldr	r3, [r0]
 969 000c 23F4E043 		bic	r3, r3, #28672
 970 0010 23F07003 		bic	r3, r3, #112
 971 0014 1B04     		lsls	r3, r3, #16
 972 0016 1B0C     		lsrs	r3, r3, #16
 973 0018 43F04003 		orr	r3, r3, #64
 974 001c 0360     		str	r3, [r0]
 975 001e 7047     		bx	lr
 976              		.cfi_endproc
 977              	.LFE58:
 979              		.section	.text.ClearDTOG_RX,"ax",%progbits
 980              		.align	2
 981              		.global	ClearDTOG_RX
 982              		.thumb
 983              		.thumb_func
 985              	ClearDTOG_RX:
 986              	.LFB59:
 413:STM32_USB-FS-Device_Driver/src/usb_regs.c **** }
 414:STM32_USB-FS-Device_Driver/src/usb_regs.c **** /*******************************************************************************
 415:STM32_USB-FS-Device_Driver/src/usb_regs.c **** * Function Name  : ClearDTOG_RX.
 416:STM32_USB-FS-Device_Driver/src/usb_regs.c **** * Description    : Clear the DTOG_RX bit.
 417:STM32_USB-FS-Device_Driver/src/usb_regs.c **** * Input          : bEpNum: Endpoint Number. 
 418:STM32_USB-FS-Device_Driver/src/usb_regs.c **** * Output         : None.
 419:STM32_USB-FS-Device_Driver/src/usb_regs.c **** * Return         : None.
 420:STM32_USB-FS-Device_Driver/src/usb_regs.c **** *******************************************************************************/
 421:STM32_USB-FS-Device_Driver/src/usb_regs.c **** void ClearDTOG_RX(uint8_t bEpNum)
 422:STM32_USB-FS-Device_Driver/src/usb_regs.c **** {
 987              		.loc 1 422 0
 988              		.cfi_startproc
 989              		@ args = 0, pretend = 0, frame = 0
 990              		@ frame_needed = 0, uses_anonymous_args = 0
 991              		@ link register save eliminated.
 992              	.LVL67:
 423:STM32_USB-FS-Device_Driver/src/usb_regs.c ****   _ClearDTOG_RX(bEpNum);
 993              		.loc 1 423 0
 994 0000 8000     		lsls	r0, r0, #2
 995              	.LVL68:
 996 0002 00F18040 		add	r0, r0, #1073741824
 997 0006 00F5B840 		add	r0, r0, #23552
 998 000a 0368     		ldr	r3, [r0]
 999 000c 13F4804F 		tst	r3, #16384
 1000 0010 09D0     		beq	.L58
 1001              		.loc 1 423 0 is_stmt 0 discriminator 1
 1002 0012 0368     		ldr	r3, [r0]
 1003 0014 23F4E043 		bic	r3, r3, #28672
 1004 0018 23F07003 		bic	r3, r3, #112
 1005 001c 1B04     		lsls	r3, r3, #16
 1006 001e 1B0C     		lsrs	r3, r3, #16
 1007 0020 43F48043 		orr	r3, r3, #16384
 1008 0024 0360     		str	r3, [r0]
 1009              	.L58:
 1010 0026 7047     		bx	lr
ARM GAS  /var/folders/g9/bbpj86ld7fx45vd1b3pqxmp00000gn/T//ccMmV5Jv.s 			page 25


 1011              		.cfi_endproc
 1012              	.LFE59:
 1014              		.section	.text.ClearDTOG_TX,"ax",%progbits
 1015              		.align	2
 1016              		.global	ClearDTOG_TX
 1017              		.thumb
 1018              		.thumb_func
 1020              	ClearDTOG_TX:
 1021              	.LFB60:
 424:STM32_USB-FS-Device_Driver/src/usb_regs.c **** }
 425:STM32_USB-FS-Device_Driver/src/usb_regs.c **** /*******************************************************************************
 426:STM32_USB-FS-Device_Driver/src/usb_regs.c **** * Function Name  : ClearDTOG_TX.
 427:STM32_USB-FS-Device_Driver/src/usb_regs.c **** * Description    : Clear the DTOG_TX bit.
 428:STM32_USB-FS-Device_Driver/src/usb_regs.c **** * Input          : bEpNum: Endpoint Number. 
 429:STM32_USB-FS-Device_Driver/src/usb_regs.c **** * Output         : None.
 430:STM32_USB-FS-Device_Driver/src/usb_regs.c **** * Return         : None.
 431:STM32_USB-FS-Device_Driver/src/usb_regs.c **** *******************************************************************************/
 432:STM32_USB-FS-Device_Driver/src/usb_regs.c **** void ClearDTOG_TX(uint8_t bEpNum)
 433:STM32_USB-FS-Device_Driver/src/usb_regs.c **** {
 1022              		.loc 1 433 0 is_stmt 1
 1023              		.cfi_startproc
 1024              		@ args = 0, pretend = 0, frame = 0
 1025              		@ frame_needed = 0, uses_anonymous_args = 0
 1026              		@ link register save eliminated.
 1027              	.LVL69:
 434:STM32_USB-FS-Device_Driver/src/usb_regs.c ****   _ClearDTOG_TX(bEpNum);
 1028              		.loc 1 434 0
 1029 0000 8000     		lsls	r0, r0, #2
 1030              	.LVL70:
 1031 0002 00F18040 		add	r0, r0, #1073741824
 1032 0006 00F5B840 		add	r0, r0, #23552
 1033 000a 0368     		ldr	r3, [r0]
 1034 000c 13F0400F 		tst	r3, #64
 1035 0010 09D0     		beq	.L60
 1036              		.loc 1 434 0 is_stmt 0 discriminator 1
 1037 0012 0368     		ldr	r3, [r0]
 1038 0014 23F4E043 		bic	r3, r3, #28672
 1039 0018 23F07003 		bic	r3, r3, #112
 1040 001c 1B04     		lsls	r3, r3, #16
 1041 001e 1B0C     		lsrs	r3, r3, #16
 1042 0020 43F04003 		orr	r3, r3, #64
 1043 0024 0360     		str	r3, [r0]
 1044              	.L60:
 1045 0026 7047     		bx	lr
 1046              		.cfi_endproc
 1047              	.LFE60:
 1049              		.section	.text.SetEPAddress,"ax",%progbits
 1050              		.align	2
 1051              		.global	SetEPAddress
 1052              		.thumb
 1053              		.thumb_func
 1055              	SetEPAddress:
 1056              	.LFB61:
 435:STM32_USB-FS-Device_Driver/src/usb_regs.c **** }
 436:STM32_USB-FS-Device_Driver/src/usb_regs.c **** /*******************************************************************************
 437:STM32_USB-FS-Device_Driver/src/usb_regs.c **** * Function Name  : SetEPAddress
 438:STM32_USB-FS-Device_Driver/src/usb_regs.c **** * Description    : Set the endpoint address.
ARM GAS  /var/folders/g9/bbpj86ld7fx45vd1b3pqxmp00000gn/T//ccMmV5Jv.s 			page 26


 439:STM32_USB-FS-Device_Driver/src/usb_regs.c **** * Input          : bEpNum: Endpoint Number.
 440:STM32_USB-FS-Device_Driver/src/usb_regs.c **** *                  bAddr: New endpoint address.
 441:STM32_USB-FS-Device_Driver/src/usb_regs.c **** * Output         : None.
 442:STM32_USB-FS-Device_Driver/src/usb_regs.c **** * Return         : None.
 443:STM32_USB-FS-Device_Driver/src/usb_regs.c **** *******************************************************************************/
 444:STM32_USB-FS-Device_Driver/src/usb_regs.c **** void SetEPAddress(uint8_t bEpNum, uint8_t bAddr)
 445:STM32_USB-FS-Device_Driver/src/usb_regs.c **** {
 1057              		.loc 1 445 0 is_stmt 1
 1058              		.cfi_startproc
 1059              		@ args = 0, pretend = 0, frame = 0
 1060              		@ frame_needed = 0, uses_anonymous_args = 0
 1061              		@ link register save eliminated.
 1062              	.LVL71:
 446:STM32_USB-FS-Device_Driver/src/usb_regs.c ****   _SetEPAddress(bEpNum, bAddr);
 1063              		.loc 1 446 0
 1064 0000 8000     		lsls	r0, r0, #2
 1065              	.LVL72:
 1066 0002 00F18040 		add	r0, r0, #1073741824
 1067 0006 00F5B840 		add	r0, r0, #23552
 1068 000a 0368     		ldr	r3, [r0]
 1069 000c 23F4E043 		bic	r3, r3, #28672
 1070 0010 23F07003 		bic	r3, r3, #112
 1071 0014 1B04     		lsls	r3, r3, #16
 1072 0016 1B0C     		lsrs	r3, r3, #16
 1073 0018 1943     		orrs	r1, r1, r3
 1074              	.LVL73:
 1075 001a 0160     		str	r1, [r0]
 1076 001c 7047     		bx	lr
 1077              		.cfi_endproc
 1078              	.LFE61:
 1080 001e 00BF     		.section	.text.GetEPAddress,"ax",%progbits
 1081              		.align	2
 1082              		.global	GetEPAddress
 1083              		.thumb
 1084              		.thumb_func
 1086              	GetEPAddress:
 1087              	.LFB62:
 447:STM32_USB-FS-Device_Driver/src/usb_regs.c **** }
 448:STM32_USB-FS-Device_Driver/src/usb_regs.c **** /*******************************************************************************
 449:STM32_USB-FS-Device_Driver/src/usb_regs.c **** * Function Name  : GetEPAddress
 450:STM32_USB-FS-Device_Driver/src/usb_regs.c **** * Description    : Get the endpoint address.
 451:STM32_USB-FS-Device_Driver/src/usb_regs.c **** * Input          : bEpNum: Endpoint Number. 
 452:STM32_USB-FS-Device_Driver/src/usb_regs.c **** * Output         : None.
 453:STM32_USB-FS-Device_Driver/src/usb_regs.c **** * Return         : Endpoint address.
 454:STM32_USB-FS-Device_Driver/src/usb_regs.c **** *******************************************************************************/
 455:STM32_USB-FS-Device_Driver/src/usb_regs.c **** uint8_t GetEPAddress(uint8_t bEpNum)
 456:STM32_USB-FS-Device_Driver/src/usb_regs.c **** {
 1088              		.loc 1 456 0
 1089              		.cfi_startproc
 1090              		@ args = 0, pretend = 0, frame = 0
 1091              		@ frame_needed = 0, uses_anonymous_args = 0
 1092              		@ link register save eliminated.
 1093              	.LVL74:
 457:STM32_USB-FS-Device_Driver/src/usb_regs.c ****   return(_GetEPAddress(bEpNum));
 1094              		.loc 1 457 0
 1095 0000 8000     		lsls	r0, r0, #2
 1096              	.LVL75:
ARM GAS  /var/folders/g9/bbpj86ld7fx45vd1b3pqxmp00000gn/T//ccMmV5Jv.s 			page 27


 1097 0002 00F18040 		add	r0, r0, #1073741824
 1098 0006 00F5B840 		add	r0, r0, #23552
 1099 000a 0068     		ldr	r0, [r0]
 458:STM32_USB-FS-Device_Driver/src/usb_regs.c **** }
 1100              		.loc 1 458 0
 1101 000c 00F00F00 		and	r0, r0, #15
 1102 0010 7047     		bx	lr
 1103              		.cfi_endproc
 1104              	.LFE62:
 1106 0012 00BF     		.section	.text.SetEPTxAddr,"ax",%progbits
 1107              		.align	2
 1108              		.global	SetEPTxAddr
 1109              		.thumb
 1110              		.thumb_func
 1112              	SetEPTxAddr:
 1113              	.LFB63:
 459:STM32_USB-FS-Device_Driver/src/usb_regs.c **** /*******************************************************************************
 460:STM32_USB-FS-Device_Driver/src/usb_regs.c **** * Function Name  : SetEPTxAddr
 461:STM32_USB-FS-Device_Driver/src/usb_regs.c **** * Description    : Set the endpoint Tx buffer address.
 462:STM32_USB-FS-Device_Driver/src/usb_regs.c **** * Input          : bEpNum: Endpoint Number.
 463:STM32_USB-FS-Device_Driver/src/usb_regs.c **** *                  wAddr: new address. 
 464:STM32_USB-FS-Device_Driver/src/usb_regs.c **** * Output         : None.
 465:STM32_USB-FS-Device_Driver/src/usb_regs.c **** * Return         : None.
 466:STM32_USB-FS-Device_Driver/src/usb_regs.c **** *******************************************************************************/
 467:STM32_USB-FS-Device_Driver/src/usb_regs.c **** void SetEPTxAddr(uint8_t bEpNum, uint16_t wAddr)
 468:STM32_USB-FS-Device_Driver/src/usb_regs.c **** {
 1114              		.loc 1 468 0
 1115              		.cfi_startproc
 1116              		@ args = 0, pretend = 0, frame = 0
 1117              		@ frame_needed = 0, uses_anonymous_args = 0
 1118              		@ link register save eliminated.
 1119              	.LVL76:
 469:STM32_USB-FS-Device_Driver/src/usb_regs.c ****   _SetEPTxAddr(bEpNum, wAddr);
 1120              		.loc 1 469 0
 1121 0000 064B     		ldr	r3, .L65
 1122 0002 1B68     		ldr	r3, [r3]
 1123 0004 9BB2     		uxth	r3, r3
 1124 0006 03EBC000 		add	r0, r3, r0, lsl #3
 1125              	.LVL77:
 1126 000a 00F10050 		add	r0, r0, #536870912
 1127 000e 00F54050 		add	r0, r0, #12288
 1128 0012 4000     		lsls	r0, r0, #1
 1129 0014 4908     		lsrs	r1, r1, #1
 1130              	.LVL78:
 1131 0016 4900     		lsls	r1, r1, #1
 1132 0018 0160     		str	r1, [r0]
 1133 001a 7047     		bx	lr
 1134              	.L66:
 1135              		.align	2
 1136              	.L65:
 1137 001c 505C0040 		.word	1073765456
 1138              		.cfi_endproc
 1139              	.LFE63:
 1141              		.section	.text.SetEPRxAddr,"ax",%progbits
 1142              		.align	2
 1143              		.global	SetEPRxAddr
 1144              		.thumb
ARM GAS  /var/folders/g9/bbpj86ld7fx45vd1b3pqxmp00000gn/T//ccMmV5Jv.s 			page 28


 1145              		.thumb_func
 1147              	SetEPRxAddr:
 1148              	.LFB64:
 470:STM32_USB-FS-Device_Driver/src/usb_regs.c **** }
 471:STM32_USB-FS-Device_Driver/src/usb_regs.c **** /*******************************************************************************
 472:STM32_USB-FS-Device_Driver/src/usb_regs.c **** * Function Name  : SetEPRxAddr
 473:STM32_USB-FS-Device_Driver/src/usb_regs.c **** * Description    : Set the endpoint Rx buffer address.
 474:STM32_USB-FS-Device_Driver/src/usb_regs.c **** * Input          : bEpNum: Endpoint Number.
 475:STM32_USB-FS-Device_Driver/src/usb_regs.c **** *                  wAddr: new address.
 476:STM32_USB-FS-Device_Driver/src/usb_regs.c **** * Output         : None.
 477:STM32_USB-FS-Device_Driver/src/usb_regs.c **** * Return         : None.
 478:STM32_USB-FS-Device_Driver/src/usb_regs.c **** *******************************************************************************/
 479:STM32_USB-FS-Device_Driver/src/usb_regs.c **** void SetEPRxAddr(uint8_t bEpNum, uint16_t wAddr)
 480:STM32_USB-FS-Device_Driver/src/usb_regs.c **** {
 1149              		.loc 1 480 0
 1150              		.cfi_startproc
 1151              		@ args = 0, pretend = 0, frame = 0
 1152              		@ frame_needed = 0, uses_anonymous_args = 0
 1153              		@ link register save eliminated.
 1154              	.LVL79:
 481:STM32_USB-FS-Device_Driver/src/usb_regs.c ****   _SetEPRxAddr(bEpNum, wAddr);
 1155              		.loc 1 481 0
 1156 0000 054B     		ldr	r3, .L68
 1157 0002 1B68     		ldr	r3, [r3]
 1158 0004 9BB2     		uxth	r3, r3
 1159 0006 03EBC000 		add	r0, r3, r0, lsl #3
 1160              	.LVL80:
 1161 000a 044B     		ldr	r3, .L68+4
 1162 000c 0344     		add	r3, r3, r0
 1163 000e 5B00     		lsls	r3, r3, #1
 1164 0010 4908     		lsrs	r1, r1, #1
 1165              	.LVL81:
 1166 0012 4900     		lsls	r1, r1, #1
 1167 0014 1960     		str	r1, [r3]
 1168 0016 7047     		bx	lr
 1169              	.L69:
 1170              		.align	2
 1171              	.L68:
 1172 0018 505C0040 		.word	1073765456
 1173 001c 04300020 		.word	536883204
 1174              		.cfi_endproc
 1175              	.LFE64:
 1177              		.section	.text.GetEPTxAddr,"ax",%progbits
 1178              		.align	2
 1179              		.global	GetEPTxAddr
 1180              		.thumb
 1181              		.thumb_func
 1183              	GetEPTxAddr:
 1184              	.LFB65:
 482:STM32_USB-FS-Device_Driver/src/usb_regs.c **** }
 483:STM32_USB-FS-Device_Driver/src/usb_regs.c **** /*******************************************************************************
 484:STM32_USB-FS-Device_Driver/src/usb_regs.c **** * Function Name  : GetEPTxAddr
 485:STM32_USB-FS-Device_Driver/src/usb_regs.c **** * Description    : Returns the endpoint Tx buffer address.
 486:STM32_USB-FS-Device_Driver/src/usb_regs.c **** * Input          : bEpNum: Endpoint Number. 
 487:STM32_USB-FS-Device_Driver/src/usb_regs.c **** * Output         : None.
 488:STM32_USB-FS-Device_Driver/src/usb_regs.c **** * Return         : Rx buffer address. 
 489:STM32_USB-FS-Device_Driver/src/usb_regs.c **** *******************************************************************************/
ARM GAS  /var/folders/g9/bbpj86ld7fx45vd1b3pqxmp00000gn/T//ccMmV5Jv.s 			page 29


 490:STM32_USB-FS-Device_Driver/src/usb_regs.c **** uint16_t GetEPTxAddr(uint8_t bEpNum)
 491:STM32_USB-FS-Device_Driver/src/usb_regs.c **** {
 1185              		.loc 1 491 0
 1186              		.cfi_startproc
 1187              		@ args = 0, pretend = 0, frame = 0
 1188              		@ frame_needed = 0, uses_anonymous_args = 0
 1189              		@ link register save eliminated.
 1190              	.LVL82:
 492:STM32_USB-FS-Device_Driver/src/usb_regs.c ****   return(_GetEPTxAddr(bEpNum));
 1191              		.loc 1 492 0
 1192 0000 054B     		ldr	r3, .L71
 1193 0002 1B68     		ldr	r3, [r3]
 1194 0004 9BB2     		uxth	r3, r3
 1195 0006 03EBC000 		add	r0, r3, r0, lsl #3
 1196              	.LVL83:
 1197 000a 00F10050 		add	r0, r0, #536870912
 1198 000e 00F54050 		add	r0, r0, #12288
 1199 0012 4000     		lsls	r0, r0, #1
 493:STM32_USB-FS-Device_Driver/src/usb_regs.c **** }
 1200              		.loc 1 493 0
 1201 0014 0088     		ldrh	r0, [r0]
 1202 0016 7047     		bx	lr
 1203              	.L72:
 1204              		.align	2
 1205              	.L71:
 1206 0018 505C0040 		.word	1073765456
 1207              		.cfi_endproc
 1208              	.LFE65:
 1210              		.section	.text.GetEPRxAddr,"ax",%progbits
 1211              		.align	2
 1212              		.global	GetEPRxAddr
 1213              		.thumb
 1214              		.thumb_func
 1216              	GetEPRxAddr:
 1217              	.LFB66:
 494:STM32_USB-FS-Device_Driver/src/usb_regs.c **** /*******************************************************************************
 495:STM32_USB-FS-Device_Driver/src/usb_regs.c **** * Function Name  : GetEPRxAddr.
 496:STM32_USB-FS-Device_Driver/src/usb_regs.c **** * Description    : Returns the endpoint Rx buffer address.
 497:STM32_USB-FS-Device_Driver/src/usb_regs.c **** * Input          : bEpNum: Endpoint Number. 
 498:STM32_USB-FS-Device_Driver/src/usb_regs.c **** * Output         : None.
 499:STM32_USB-FS-Device_Driver/src/usb_regs.c **** * Return         : Rx buffer address.
 500:STM32_USB-FS-Device_Driver/src/usb_regs.c **** *******************************************************************************/
 501:STM32_USB-FS-Device_Driver/src/usb_regs.c **** uint16_t GetEPRxAddr(uint8_t bEpNum)
 502:STM32_USB-FS-Device_Driver/src/usb_regs.c **** {
 1218              		.loc 1 502 0
 1219              		.cfi_startproc
 1220              		@ args = 0, pretend = 0, frame = 0
 1221              		@ frame_needed = 0, uses_anonymous_args = 0
 1222              		@ link register save eliminated.
 1223              	.LVL84:
 503:STM32_USB-FS-Device_Driver/src/usb_regs.c ****   return(_GetEPRxAddr(bEpNum));
 1224              		.loc 1 503 0
 1225 0000 044B     		ldr	r3, .L74
 1226 0002 1B68     		ldr	r3, [r3]
 1227 0004 9BB2     		uxth	r3, r3
 1228 0006 03EBC000 		add	r0, r3, r0, lsl #3
 1229              	.LVL85:
ARM GAS  /var/folders/g9/bbpj86ld7fx45vd1b3pqxmp00000gn/T//ccMmV5Jv.s 			page 30


 1230 000a 034B     		ldr	r3, .L74+4
 1231 000c 0344     		add	r3, r3, r0
 1232 000e 5B00     		lsls	r3, r3, #1
 504:STM32_USB-FS-Device_Driver/src/usb_regs.c **** }
 1233              		.loc 1 504 0
 1234 0010 1888     		ldrh	r0, [r3]
 1235 0012 7047     		bx	lr
 1236              	.L75:
 1237              		.align	2
 1238              	.L74:
 1239 0014 505C0040 		.word	1073765456
 1240 0018 04300020 		.word	536883204
 1241              		.cfi_endproc
 1242              	.LFE66:
 1244              		.section	.text.SetEPTxCount,"ax",%progbits
 1245              		.align	2
 1246              		.global	SetEPTxCount
 1247              		.thumb
 1248              		.thumb_func
 1250              	SetEPTxCount:
 1251              	.LFB67:
 505:STM32_USB-FS-Device_Driver/src/usb_regs.c **** /*******************************************************************************
 506:STM32_USB-FS-Device_Driver/src/usb_regs.c **** * Function Name  : SetEPTxCount.
 507:STM32_USB-FS-Device_Driver/src/usb_regs.c **** * Description    : Set the Tx count.
 508:STM32_USB-FS-Device_Driver/src/usb_regs.c **** * Input          : bEpNum: Endpoint Number.
 509:STM32_USB-FS-Device_Driver/src/usb_regs.c **** *                  wCount: new count value.
 510:STM32_USB-FS-Device_Driver/src/usb_regs.c **** * Output         : None.
 511:STM32_USB-FS-Device_Driver/src/usb_regs.c **** * Return         : None.
 512:STM32_USB-FS-Device_Driver/src/usb_regs.c **** *******************************************************************************/
 513:STM32_USB-FS-Device_Driver/src/usb_regs.c **** void SetEPTxCount(uint8_t bEpNum, uint16_t wCount)
 514:STM32_USB-FS-Device_Driver/src/usb_regs.c **** {
 1252              		.loc 1 514 0
 1253              		.cfi_startproc
 1254              		@ args = 0, pretend = 0, frame = 0
 1255              		@ frame_needed = 0, uses_anonymous_args = 0
 1256              		@ link register save eliminated.
 1257              	.LVL86:
 515:STM32_USB-FS-Device_Driver/src/usb_regs.c ****   _SetEPTxCount(bEpNum, wCount);
 1258              		.loc 1 515 0
 1259 0000 044B     		ldr	r3, .L77
 1260 0002 1B68     		ldr	r3, [r3]
 1261 0004 9BB2     		uxth	r3, r3
 1262 0006 03EBC000 		add	r0, r3, r0, lsl #3
 1263              	.LVL87:
 1264 000a 034B     		ldr	r3, .L77+4
 1265 000c 0344     		add	r3, r3, r0
 1266 000e 5B00     		lsls	r3, r3, #1
 1267 0010 1960     		str	r1, [r3]
 1268 0012 7047     		bx	lr
 1269              	.L78:
 1270              		.align	2
 1271              	.L77:
 1272 0014 505C0040 		.word	1073765456
 1273 0018 02300020 		.word	536883202
 1274              		.cfi_endproc
 1275              	.LFE67:
 1277              		.section	.text.SetEPCountRxReg,"ax",%progbits
ARM GAS  /var/folders/g9/bbpj86ld7fx45vd1b3pqxmp00000gn/T//ccMmV5Jv.s 			page 31


 1278              		.align	2
 1279              		.global	SetEPCountRxReg
 1280              		.thumb
 1281              		.thumb_func
 1283              	SetEPCountRxReg:
 1284              	.LFB68:
 516:STM32_USB-FS-Device_Driver/src/usb_regs.c **** }
 517:STM32_USB-FS-Device_Driver/src/usb_regs.c **** /*******************************************************************************
 518:STM32_USB-FS-Device_Driver/src/usb_regs.c **** * Function Name  : SetEPCountRxReg.
 519:STM32_USB-FS-Device_Driver/src/usb_regs.c **** * Description    : Set the Count Rx Register value.
 520:STM32_USB-FS-Device_Driver/src/usb_regs.c **** * Input          : *pdwReg: point to the register.
 521:STM32_USB-FS-Device_Driver/src/usb_regs.c **** *                  wCount: the new register value.
 522:STM32_USB-FS-Device_Driver/src/usb_regs.c **** * Output         : None.
 523:STM32_USB-FS-Device_Driver/src/usb_regs.c **** * Return         : None.
 524:STM32_USB-FS-Device_Driver/src/usb_regs.c **** *******************************************************************************/
 525:STM32_USB-FS-Device_Driver/src/usb_regs.c **** void SetEPCountRxReg(uint32_t *pdwReg, uint16_t wCount)
 526:STM32_USB-FS-Device_Driver/src/usb_regs.c **** {
 1285              		.loc 1 526 0
 1286              		.cfi_startproc
 1287              		@ args = 0, pretend = 0, frame = 0
 1288              		@ frame_needed = 0, uses_anonymous_args = 0
 1289              		@ link register save eliminated.
 1290              	.LVL88:
 1291              	.LBB6:
 527:STM32_USB-FS-Device_Driver/src/usb_regs.c ****   _SetEPCountRxReg(dwReg, wCount);
 1292              		.loc 1 527 0
 1293 0000 3E29     		cmp	r1, #62
 1294 0002 0AD9     		bls	.L80
 1295              		.loc 1 527 0 is_stmt 0 discriminator 1
 1296 0004 4B09     		lsrs	r3, r1, #5
 1297              	.LVL89:
 1298 0006 11F01F0F 		tst	r1, #31
 1299 000a 01D1     		bne	.L81
 1300              		.loc 1 527 0 discriminator 3
 1301 000c 013B     		subs	r3, r3, #1
 1302              	.LVL90:
 1303 000e 9BB2     		uxth	r3, r3
 1304              	.LVL91:
 1305              	.L81:
 1306              		.loc 1 527 0 discriminator 5
 1307 0010 9B02     		lsls	r3, r3, #10
 1308              	.LVL92:
 1309 0012 43F40043 		orr	r3, r3, #32768
 1310 0016 0360     		str	r3, [r0]
 1311 0018 7047     		bx	lr
 1312              	.L80:
 1313              		.loc 1 527 0 discriminator 2
 1314 001a 4B08     		lsrs	r3, r1, #1
 1315              	.LVL93:
 1316 001c 11F0010F 		tst	r1, #1
 1317 0020 00D0     		beq	.L83
 1318              		.loc 1 527 0 discriminator 6
 1319 0022 0133     		adds	r3, r3, #1
 1320              	.LVL94:
 1321              	.L83:
 1322              		.loc 1 527 0 discriminator 8
 1323 0024 9B02     		lsls	r3, r3, #10
ARM GAS  /var/folders/g9/bbpj86ld7fx45vd1b3pqxmp00000gn/T//ccMmV5Jv.s 			page 32


 1324              	.LVL95:
 1325 0026 0360     		str	r3, [r0]
 1326 0028 7047     		bx	lr
 1327              	.LBE6:
 1328              		.cfi_endproc
 1329              	.LFE68:
 1331 002a 00BF     		.section	.text.SetEPRxCount,"ax",%progbits
 1332              		.align	2
 1333              		.global	SetEPRxCount
 1334              		.thumb
 1335              		.thumb_func
 1337              	SetEPRxCount:
 1338              	.LFB69:
 528:STM32_USB-FS-Device_Driver/src/usb_regs.c **** }
 529:STM32_USB-FS-Device_Driver/src/usb_regs.c **** /*******************************************************************************
 530:STM32_USB-FS-Device_Driver/src/usb_regs.c **** * Function Name  : SetEPRxCount
 531:STM32_USB-FS-Device_Driver/src/usb_regs.c **** * Description    : Set the Rx count.
 532:STM32_USB-FS-Device_Driver/src/usb_regs.c **** * Input          : bEpNum: Endpoint Number. 
 533:STM32_USB-FS-Device_Driver/src/usb_regs.c **** *                  wCount: the new count value.
 534:STM32_USB-FS-Device_Driver/src/usb_regs.c **** * Output         : None.
 535:STM32_USB-FS-Device_Driver/src/usb_regs.c **** * Return         : None.
 536:STM32_USB-FS-Device_Driver/src/usb_regs.c **** *******************************************************************************/
 537:STM32_USB-FS-Device_Driver/src/usb_regs.c **** void SetEPRxCount(uint8_t bEpNum, uint16_t wCount)
 538:STM32_USB-FS-Device_Driver/src/usb_regs.c **** {
 1339              		.loc 1 538 0 is_stmt 1
 1340              		.cfi_startproc
 1341              		@ args = 0, pretend = 0, frame = 0
 1342              		@ frame_needed = 0, uses_anonymous_args = 0
 1343              		@ link register save eliminated.
 1344              	.LVL96:
 1345              	.LBB7:
 539:STM32_USB-FS-Device_Driver/src/usb_regs.c ****   _SetEPRxCount(bEpNum, wCount);
 1346              		.loc 1 539 0
 1347 0000 0E4B     		ldr	r3, .L89
 1348 0002 1B68     		ldr	r3, [r3]
 1349 0004 9BB2     		uxth	r3, r3
 1350 0006 03EBC000 		add	r0, r3, r0, lsl #3
 1351              	.LVL97:
 1352 000a 0D4B     		ldr	r3, .L89+4
 1353 000c 0344     		add	r3, r3, r0
 1354 000e 5B00     		lsls	r3, r3, #1
 1355              	.LVL98:
 1356              	.LBB8:
 1357 0010 3E29     		cmp	r1, #62
 1358 0012 0AD9     		bls	.L85
 1359              		.loc 1 539 0 is_stmt 0 discriminator 1
 1360 0014 4A09     		lsrs	r2, r1, #5
 1361              	.LVL99:
 1362 0016 11F01F0F 		tst	r1, #31
 1363 001a 01D1     		bne	.L86
 1364              		.loc 1 539 0 discriminator 3
 1365 001c 013A     		subs	r2, r2, #1
 1366              	.LVL100:
 1367 001e 92B2     		uxth	r2, r2
 1368              	.LVL101:
 1369              	.L86:
 1370              		.loc 1 539 0 discriminator 5
ARM GAS  /var/folders/g9/bbpj86ld7fx45vd1b3pqxmp00000gn/T//ccMmV5Jv.s 			page 33


 1371 0020 9202     		lsls	r2, r2, #10
 1372              	.LVL102:
 1373 0022 42F40042 		orr	r2, r2, #32768
 1374 0026 1A60     		str	r2, [r3]
 1375 0028 7047     		bx	lr
 1376              	.L85:
 1377              		.loc 1 539 0 discriminator 2
 1378 002a 4A08     		lsrs	r2, r1, #1
 1379              	.LVL103:
 1380 002c 11F0010F 		tst	r1, #1
 1381 0030 00D0     		beq	.L88
 1382              		.loc 1 539 0 discriminator 6
 1383 0032 0132     		adds	r2, r2, #1
 1384              	.LVL104:
 1385              	.L88:
 1386              		.loc 1 539 0 discriminator 8
 1387 0034 9202     		lsls	r2, r2, #10
 1388              	.LVL105:
 1389 0036 1A60     		str	r2, [r3]
 1390 0038 7047     		bx	lr
 1391              	.L90:
 1392 003a 00BF     		.align	2
 1393              	.L89:
 1394 003c 505C0040 		.word	1073765456
 1395 0040 06300020 		.word	536883206
 1396              	.LBE8:
 1397              	.LBE7:
 1398              		.cfi_endproc
 1399              	.LFE69:
 1401              		.section	.text.GetEPTxCount,"ax",%progbits
 1402              		.align	2
 1403              		.global	GetEPTxCount
 1404              		.thumb
 1405              		.thumb_func
 1407              	GetEPTxCount:
 1408              	.LFB70:
 540:STM32_USB-FS-Device_Driver/src/usb_regs.c **** }
 541:STM32_USB-FS-Device_Driver/src/usb_regs.c **** /*******************************************************************************
 542:STM32_USB-FS-Device_Driver/src/usb_regs.c **** * Function Name  : GetEPTxCount
 543:STM32_USB-FS-Device_Driver/src/usb_regs.c **** * Description    : Get the Tx count.
 544:STM32_USB-FS-Device_Driver/src/usb_regs.c **** * Input          : bEpNum: Endpoint Number. 
 545:STM32_USB-FS-Device_Driver/src/usb_regs.c **** * Output         : None
 546:STM32_USB-FS-Device_Driver/src/usb_regs.c **** * Return         : Tx count value.
 547:STM32_USB-FS-Device_Driver/src/usb_regs.c **** *******************************************************************************/
 548:STM32_USB-FS-Device_Driver/src/usb_regs.c **** uint16_t GetEPTxCount(uint8_t bEpNum)
 549:STM32_USB-FS-Device_Driver/src/usb_regs.c **** {
 1409              		.loc 1 549 0 is_stmt 1
 1410              		.cfi_startproc
 1411              		@ args = 0, pretend = 0, frame = 0
 1412              		@ frame_needed = 0, uses_anonymous_args = 0
 1413              		@ link register save eliminated.
 1414              	.LVL106:
 550:STM32_USB-FS-Device_Driver/src/usb_regs.c ****   return(_GetEPTxCount(bEpNum));
 1415              		.loc 1 550 0
 1416 0000 054B     		ldr	r3, .L92
 1417 0002 1B68     		ldr	r3, [r3]
 1418 0004 9BB2     		uxth	r3, r3
ARM GAS  /var/folders/g9/bbpj86ld7fx45vd1b3pqxmp00000gn/T//ccMmV5Jv.s 			page 34


 1419 0006 03EBC000 		add	r0, r3, r0, lsl #3
 1420              	.LVL107:
 1421 000a 044B     		ldr	r3, .L92+4
 1422 000c 0344     		add	r3, r3, r0
 1423 000e 5B00     		lsls	r3, r3, #1
 1424 0010 1888     		ldrh	r0, [r3]
 551:STM32_USB-FS-Device_Driver/src/usb_regs.c **** }
 1425              		.loc 1 551 0
 1426 0012 C0F30900 		ubfx	r0, r0, #0, #10
 1427 0016 7047     		bx	lr
 1428              	.L93:
 1429              		.align	2
 1430              	.L92:
 1431 0018 505C0040 		.word	1073765456
 1432 001c 02300020 		.word	536883202
 1433              		.cfi_endproc
 1434              	.LFE70:
 1436              		.section	.text.GetEPRxCount,"ax",%progbits
 1437              		.align	2
 1438              		.global	GetEPRxCount
 1439              		.thumb
 1440              		.thumb_func
 1442              	GetEPRxCount:
 1443              	.LFB71:
 552:STM32_USB-FS-Device_Driver/src/usb_regs.c **** /*******************************************************************************
 553:STM32_USB-FS-Device_Driver/src/usb_regs.c **** * Function Name  : GetEPRxCount
 554:STM32_USB-FS-Device_Driver/src/usb_regs.c **** * Description    : Get the Rx count.
 555:STM32_USB-FS-Device_Driver/src/usb_regs.c **** * Input          : bEpNum: Endpoint Number. 
 556:STM32_USB-FS-Device_Driver/src/usb_regs.c **** * Output         : None.
 557:STM32_USB-FS-Device_Driver/src/usb_regs.c **** * Return         : Rx count value.
 558:STM32_USB-FS-Device_Driver/src/usb_regs.c **** *******************************************************************************/
 559:STM32_USB-FS-Device_Driver/src/usb_regs.c **** uint16_t GetEPRxCount(uint8_t bEpNum)
 560:STM32_USB-FS-Device_Driver/src/usb_regs.c **** {
 1444              		.loc 1 560 0
 1445              		.cfi_startproc
 1446              		@ args = 0, pretend = 0, frame = 0
 1447              		@ frame_needed = 0, uses_anonymous_args = 0
 1448              		@ link register save eliminated.
 1449              	.LVL108:
 561:STM32_USB-FS-Device_Driver/src/usb_regs.c ****   return(_GetEPRxCount(bEpNum));
 1450              		.loc 1 561 0
 1451 0000 054B     		ldr	r3, .L95
 1452 0002 1B68     		ldr	r3, [r3]
 1453 0004 9BB2     		uxth	r3, r3
 1454 0006 03EBC000 		add	r0, r3, r0, lsl #3
 1455              	.LVL109:
 1456 000a 044B     		ldr	r3, .L95+4
 1457 000c 0344     		add	r3, r3, r0
 1458 000e 5B00     		lsls	r3, r3, #1
 1459 0010 1888     		ldrh	r0, [r3]
 562:STM32_USB-FS-Device_Driver/src/usb_regs.c **** }
 1460              		.loc 1 562 0
 1461 0012 C0F30900 		ubfx	r0, r0, #0, #10
 1462 0016 7047     		bx	lr
 1463              	.L96:
 1464              		.align	2
 1465              	.L95:
ARM GAS  /var/folders/g9/bbpj86ld7fx45vd1b3pqxmp00000gn/T//ccMmV5Jv.s 			page 35


 1466 0018 505C0040 		.word	1073765456
 1467 001c 06300020 		.word	536883206
 1468              		.cfi_endproc
 1469              	.LFE71:
 1471              		.section	.text.SetEPDblBuffAddr,"ax",%progbits
 1472              		.align	2
 1473              		.global	SetEPDblBuffAddr
 1474              		.thumb
 1475              		.thumb_func
 1477              	SetEPDblBuffAddr:
 1478              	.LFB72:
 563:STM32_USB-FS-Device_Driver/src/usb_regs.c **** /*******************************************************************************
 564:STM32_USB-FS-Device_Driver/src/usb_regs.c **** * Function Name  : SetEPDblBuffAddr
 565:STM32_USB-FS-Device_Driver/src/usb_regs.c **** * Description    : Set the addresses of the buffer 0 and 1.
 566:STM32_USB-FS-Device_Driver/src/usb_regs.c **** * Input          : bEpNum: Endpoint Number.  
 567:STM32_USB-FS-Device_Driver/src/usb_regs.c **** *                  wBuf0Addr: new address of buffer 0. 
 568:STM32_USB-FS-Device_Driver/src/usb_regs.c **** *                  wBuf1Addr: new address of buffer 1.
 569:STM32_USB-FS-Device_Driver/src/usb_regs.c **** * Output         : None.
 570:STM32_USB-FS-Device_Driver/src/usb_regs.c **** * Return         : None.
 571:STM32_USB-FS-Device_Driver/src/usb_regs.c **** *******************************************************************************/
 572:STM32_USB-FS-Device_Driver/src/usb_regs.c **** void SetEPDblBuffAddr(uint8_t bEpNum, uint16_t wBuf0Addr, uint16_t wBuf1Addr)
 573:STM32_USB-FS-Device_Driver/src/usb_regs.c **** {
 1479              		.loc 1 573 0
 1480              		.cfi_startproc
 1481              		@ args = 0, pretend = 0, frame = 0
 1482              		@ frame_needed = 0, uses_anonymous_args = 0
 1483              		@ link register save eliminated.
 1484              	.LVL110:
 1485 0000 10B4     		push	{r4}
 1486              	.LCFI1:
 1487              		.cfi_def_cfa_offset 4
 1488              		.cfi_offset 4, -4
 574:STM32_USB-FS-Device_Driver/src/usb_regs.c ****   _SetEPDblBuffAddr(bEpNum, wBuf0Addr, wBuf1Addr);
 1489              		.loc 1 574 0
 1490 0002 0C4C     		ldr	r4, .L99
 1491 0004 2368     		ldr	r3, [r4]
 1492 0006 9BB2     		uxth	r3, r3
 1493 0008 C000     		lsls	r0, r0, #3
 1494              	.LVL111:
 1495 000a 0344     		add	r3, r3, r0
 1496 000c 03F10053 		add	r3, r3, #536870912
 1497 0010 03F54053 		add	r3, r3, #12288
 1498 0014 5B00     		lsls	r3, r3, #1
 1499 0016 4908     		lsrs	r1, r1, #1
 1500              	.LVL112:
 1501 0018 4900     		lsls	r1, r1, #1
 1502 001a 1960     		str	r1, [r3]
 1503 001c 2368     		ldr	r3, [r4]
 1504 001e 9BB2     		uxth	r3, r3
 1505 0020 1844     		add	r0, r0, r3
 1506 0022 054B     		ldr	r3, .L99+4
 1507 0024 0344     		add	r3, r3, r0
 1508 0026 5B00     		lsls	r3, r3, #1
 1509 0028 5208     		lsrs	r2, r2, #1
 1510              	.LVL113:
 1511 002a 5200     		lsls	r2, r2, #1
 1512 002c 1A60     		str	r2, [r3]
ARM GAS  /var/folders/g9/bbpj86ld7fx45vd1b3pqxmp00000gn/T//ccMmV5Jv.s 			page 36


 575:STM32_USB-FS-Device_Driver/src/usb_regs.c **** }
 1513              		.loc 1 575 0
 1514 002e 10BC     		pop	{r4}
 1515              	.LCFI2:
 1516              		.cfi_restore 4
 1517              		.cfi_def_cfa_offset 0
 1518 0030 7047     		bx	lr
 1519              	.L100:
 1520 0032 00BF     		.align	2
 1521              	.L99:
 1522 0034 505C0040 		.word	1073765456
 1523 0038 04300020 		.word	536883204
 1524              		.cfi_endproc
 1525              	.LFE72:
 1527              		.section	.text.SetEPDblBuf0Addr,"ax",%progbits
 1528              		.align	2
 1529              		.global	SetEPDblBuf0Addr
 1530              		.thumb
 1531              		.thumb_func
 1533              	SetEPDblBuf0Addr:
 1534              	.LFB73:
 576:STM32_USB-FS-Device_Driver/src/usb_regs.c **** /*******************************************************************************
 577:STM32_USB-FS-Device_Driver/src/usb_regs.c **** * Function Name  : SetEPDblBuf0Addr
 578:STM32_USB-FS-Device_Driver/src/usb_regs.c **** * Description    : Set the Buffer 1 address.
 579:STM32_USB-FS-Device_Driver/src/usb_regs.c **** * Input          : bEpNum: Endpoint Number
 580:STM32_USB-FS-Device_Driver/src/usb_regs.c **** *                  wBuf0Addr: new address.
 581:STM32_USB-FS-Device_Driver/src/usb_regs.c **** * Output         : None.
 582:STM32_USB-FS-Device_Driver/src/usb_regs.c **** * Return         : None.
 583:STM32_USB-FS-Device_Driver/src/usb_regs.c **** *******************************************************************************/
 584:STM32_USB-FS-Device_Driver/src/usb_regs.c **** void SetEPDblBuf0Addr(uint8_t bEpNum, uint16_t wBuf0Addr)
 585:STM32_USB-FS-Device_Driver/src/usb_regs.c **** {
 1535              		.loc 1 585 0
 1536              		.cfi_startproc
 1537              		@ args = 0, pretend = 0, frame = 0
 1538              		@ frame_needed = 0, uses_anonymous_args = 0
 1539              		@ link register save eliminated.
 1540              	.LVL114:
 586:STM32_USB-FS-Device_Driver/src/usb_regs.c ****   _SetEPDblBuf0Addr(bEpNum, wBuf0Addr);
 1541              		.loc 1 586 0
 1542 0000 064B     		ldr	r3, .L102
 1543 0002 1B68     		ldr	r3, [r3]
 1544 0004 9BB2     		uxth	r3, r3
 1545 0006 03EBC000 		add	r0, r3, r0, lsl #3
 1546              	.LVL115:
 1547 000a 00F10050 		add	r0, r0, #536870912
 1548 000e 00F54050 		add	r0, r0, #12288
 1549 0012 4000     		lsls	r0, r0, #1
 1550 0014 4908     		lsrs	r1, r1, #1
 1551              	.LVL116:
 1552 0016 4900     		lsls	r1, r1, #1
 1553 0018 0160     		str	r1, [r0]
 1554 001a 7047     		bx	lr
 1555              	.L103:
 1556              		.align	2
 1557              	.L102:
 1558 001c 505C0040 		.word	1073765456
 1559              		.cfi_endproc
ARM GAS  /var/folders/g9/bbpj86ld7fx45vd1b3pqxmp00000gn/T//ccMmV5Jv.s 			page 37


 1560              	.LFE73:
 1562              		.section	.text.SetEPDblBuf1Addr,"ax",%progbits
 1563              		.align	2
 1564              		.global	SetEPDblBuf1Addr
 1565              		.thumb
 1566              		.thumb_func
 1568              	SetEPDblBuf1Addr:
 1569              	.LFB74:
 587:STM32_USB-FS-Device_Driver/src/usb_regs.c **** }
 588:STM32_USB-FS-Device_Driver/src/usb_regs.c **** /*******************************************************************************
 589:STM32_USB-FS-Device_Driver/src/usb_regs.c **** * Function Name  : SetEPDblBuf1Addr
 590:STM32_USB-FS-Device_Driver/src/usb_regs.c **** * Description    : Set the Buffer 1 address.
 591:STM32_USB-FS-Device_Driver/src/usb_regs.c **** * Input          : bEpNum: Endpoint Number
 592:STM32_USB-FS-Device_Driver/src/usb_regs.c **** *                  wBuf1Addr: new address.
 593:STM32_USB-FS-Device_Driver/src/usb_regs.c **** * Output         : None.
 594:STM32_USB-FS-Device_Driver/src/usb_regs.c **** * Return         : None.
 595:STM32_USB-FS-Device_Driver/src/usb_regs.c **** *******************************************************************************/
 596:STM32_USB-FS-Device_Driver/src/usb_regs.c **** void SetEPDblBuf1Addr(uint8_t bEpNum, uint16_t wBuf1Addr)
 597:STM32_USB-FS-Device_Driver/src/usb_regs.c **** {
 1570              		.loc 1 597 0
 1571              		.cfi_startproc
 1572              		@ args = 0, pretend = 0, frame = 0
 1573              		@ frame_needed = 0, uses_anonymous_args = 0
 1574              		@ link register save eliminated.
 1575              	.LVL117:
 598:STM32_USB-FS-Device_Driver/src/usb_regs.c ****   _SetEPDblBuf1Addr(bEpNum, wBuf1Addr);
 1576              		.loc 1 598 0
 1577 0000 054B     		ldr	r3, .L105
 1578 0002 1B68     		ldr	r3, [r3]
 1579 0004 9BB2     		uxth	r3, r3
 1580 0006 03EBC000 		add	r0, r3, r0, lsl #3
 1581              	.LVL118:
 1582 000a 044B     		ldr	r3, .L105+4
 1583 000c 0344     		add	r3, r3, r0
 1584 000e 5B00     		lsls	r3, r3, #1
 1585 0010 4908     		lsrs	r1, r1, #1
 1586              	.LVL119:
 1587 0012 4900     		lsls	r1, r1, #1
 1588 0014 1960     		str	r1, [r3]
 1589 0016 7047     		bx	lr
 1590              	.L106:
 1591              		.align	2
 1592              	.L105:
 1593 0018 505C0040 		.word	1073765456
 1594 001c 04300020 		.word	536883204
 1595              		.cfi_endproc
 1596              	.LFE74:
 1598              		.section	.text.GetEPDblBuf0Addr,"ax",%progbits
 1599              		.align	2
 1600              		.global	GetEPDblBuf0Addr
 1601              		.thumb
 1602              		.thumb_func
 1604              	GetEPDblBuf0Addr:
 1605              	.LFB75:
 599:STM32_USB-FS-Device_Driver/src/usb_regs.c **** }
 600:STM32_USB-FS-Device_Driver/src/usb_regs.c **** /*******************************************************************************
 601:STM32_USB-FS-Device_Driver/src/usb_regs.c **** * Function Name  : GetEPDblBuf0Addr
ARM GAS  /var/folders/g9/bbpj86ld7fx45vd1b3pqxmp00000gn/T//ccMmV5Jv.s 			page 38


 602:STM32_USB-FS-Device_Driver/src/usb_regs.c **** * Description    : Returns the address of the Buffer 0.
 603:STM32_USB-FS-Device_Driver/src/usb_regs.c **** * Input          : bEpNum: Endpoint Number.
 604:STM32_USB-FS-Device_Driver/src/usb_regs.c **** * Output         : None.
 605:STM32_USB-FS-Device_Driver/src/usb_regs.c **** * Return         : None.
 606:STM32_USB-FS-Device_Driver/src/usb_regs.c **** *******************************************************************************/
 607:STM32_USB-FS-Device_Driver/src/usb_regs.c **** uint16_t GetEPDblBuf0Addr(uint8_t bEpNum)
 608:STM32_USB-FS-Device_Driver/src/usb_regs.c **** {
 1606              		.loc 1 608 0
 1607              		.cfi_startproc
 1608              		@ args = 0, pretend = 0, frame = 0
 1609              		@ frame_needed = 0, uses_anonymous_args = 0
 1610              		@ link register save eliminated.
 1611              	.LVL120:
 609:STM32_USB-FS-Device_Driver/src/usb_regs.c ****   return(_GetEPDblBuf0Addr(bEpNum));
 1612              		.loc 1 609 0
 1613 0000 054B     		ldr	r3, .L108
 1614 0002 1B68     		ldr	r3, [r3]
 1615 0004 9BB2     		uxth	r3, r3
 1616 0006 03EBC000 		add	r0, r3, r0, lsl #3
 1617              	.LVL121:
 1618 000a 00F10050 		add	r0, r0, #536870912
 1619 000e 00F54050 		add	r0, r0, #12288
 1620 0012 4000     		lsls	r0, r0, #1
 610:STM32_USB-FS-Device_Driver/src/usb_regs.c **** }
 1621              		.loc 1 610 0
 1622 0014 0088     		ldrh	r0, [r0]
 1623 0016 7047     		bx	lr
 1624              	.L109:
 1625              		.align	2
 1626              	.L108:
 1627 0018 505C0040 		.word	1073765456
 1628              		.cfi_endproc
 1629              	.LFE75:
 1631              		.section	.text.GetEPDblBuf1Addr,"ax",%progbits
 1632              		.align	2
 1633              		.global	GetEPDblBuf1Addr
 1634              		.thumb
 1635              		.thumb_func
 1637              	GetEPDblBuf1Addr:
 1638              	.LFB76:
 611:STM32_USB-FS-Device_Driver/src/usb_regs.c **** /*******************************************************************************
 612:STM32_USB-FS-Device_Driver/src/usb_regs.c **** * Function Name  : GetEPDblBuf1Addr
 613:STM32_USB-FS-Device_Driver/src/usb_regs.c **** * Description    : Returns the address of the Buffer 1.
 614:STM32_USB-FS-Device_Driver/src/usb_regs.c **** * Input          : bEpNum: Endpoint Number.
 615:STM32_USB-FS-Device_Driver/src/usb_regs.c **** * Output         : None.
 616:STM32_USB-FS-Device_Driver/src/usb_regs.c **** * Return         : Address of the Buffer 1.
 617:STM32_USB-FS-Device_Driver/src/usb_regs.c **** *******************************************************************************/
 618:STM32_USB-FS-Device_Driver/src/usb_regs.c **** uint16_t GetEPDblBuf1Addr(uint8_t bEpNum)
 619:STM32_USB-FS-Device_Driver/src/usb_regs.c **** {
 1639              		.loc 1 619 0
 1640              		.cfi_startproc
 1641              		@ args = 0, pretend = 0, frame = 0
 1642              		@ frame_needed = 0, uses_anonymous_args = 0
 1643              		@ link register save eliminated.
 1644              	.LVL122:
 620:STM32_USB-FS-Device_Driver/src/usb_regs.c ****   return(_GetEPDblBuf1Addr(bEpNum));
 1645              		.loc 1 620 0
ARM GAS  /var/folders/g9/bbpj86ld7fx45vd1b3pqxmp00000gn/T//ccMmV5Jv.s 			page 39


 1646 0000 044B     		ldr	r3, .L111
 1647 0002 1B68     		ldr	r3, [r3]
 1648 0004 9BB2     		uxth	r3, r3
 1649 0006 03EBC000 		add	r0, r3, r0, lsl #3
 1650              	.LVL123:
 1651 000a 034B     		ldr	r3, .L111+4
 1652 000c 0344     		add	r3, r3, r0
 1653 000e 5B00     		lsls	r3, r3, #1
 621:STM32_USB-FS-Device_Driver/src/usb_regs.c **** }
 1654              		.loc 1 621 0
 1655 0010 1888     		ldrh	r0, [r3]
 1656 0012 7047     		bx	lr
 1657              	.L112:
 1658              		.align	2
 1659              	.L111:
 1660 0014 505C0040 		.word	1073765456
 1661 0018 04300020 		.word	536883204
 1662              		.cfi_endproc
 1663              	.LFE76:
 1665              		.section	.text.SetEPDblBuffCount,"ax",%progbits
 1666              		.align	2
 1667              		.global	SetEPDblBuffCount
 1668              		.thumb
 1669              		.thumb_func
 1671              	SetEPDblBuffCount:
 1672              	.LFB77:
 622:STM32_USB-FS-Device_Driver/src/usb_regs.c **** /*******************************************************************************
 623:STM32_USB-FS-Device_Driver/src/usb_regs.c **** * Function Name  : SetEPDblBuffCount
 624:STM32_USB-FS-Device_Driver/src/usb_regs.c **** * Description    : Set the number of bytes for a double Buffer 
 625:STM32_USB-FS-Device_Driver/src/usb_regs.c **** *                  endpoint.
 626:STM32_USB-FS-Device_Driver/src/usb_regs.c **** * Input          : bEpNum,bDir, wCount
 627:STM32_USB-FS-Device_Driver/src/usb_regs.c **** * Output         : None.
 628:STM32_USB-FS-Device_Driver/src/usb_regs.c **** * Return         : None.
 629:STM32_USB-FS-Device_Driver/src/usb_regs.c **** *******************************************************************************/
 630:STM32_USB-FS-Device_Driver/src/usb_regs.c **** void SetEPDblBuffCount(uint8_t bEpNum, uint8_t bDir, uint16_t wCount)
 631:STM32_USB-FS-Device_Driver/src/usb_regs.c **** {
 1673              		.loc 1 631 0
 1674              		.cfi_startproc
 1675              		@ args = 0, pretend = 0, frame = 0
 1676              		@ frame_needed = 0, uses_anonymous_args = 0
 1677              		@ link register save eliminated.
 1678              	.LVL124:
 1679 0000 10B4     		push	{r4}
 1680              	.LCFI3:
 1681              		.cfi_def_cfa_offset 4
 1682              		.cfi_offset 4, -4
 632:STM32_USB-FS-Device_Driver/src/usb_regs.c ****   _SetEPDblBuffCount(bEpNum, bDir, wCount);
 1683              		.loc 1 632 0
 1684 0002 0129     		cmp	r1, #1
 1685 0004 1CD1     		bne	.L114
 1686              	.LBB9:
 1687              		.loc 1 632 0 is_stmt 0 discriminator 1
 1688 0006 2A4B     		ldr	r3, .L125
 1689 0008 1C68     		ldr	r4, [r3]
 1690 000a A4B2     		uxth	r4, r4
 1691 000c 04EBC004 		add	r4, r4, r0, lsl #3
 1692 0010 284B     		ldr	r3, .L125+4
ARM GAS  /var/folders/g9/bbpj86ld7fx45vd1b3pqxmp00000gn/T//ccMmV5Jv.s 			page 40


 1693 0012 2344     		add	r3, r3, r4
 1694 0014 5B00     		lsls	r3, r3, #1
 1695              	.LVL125:
 1696              	.LBB10:
 1697 0016 3E2A     		cmp	r2, #62
 1698 0018 0AD9     		bls	.L115
 1699              		.loc 1 632 0 discriminator 3
 1700 001a 5409     		lsrs	r4, r2, #5
 1701              	.LVL126:
 1702 001c 12F01F0F 		tst	r2, #31
 1703 0020 01D1     		bne	.L116
 1704              		.loc 1 632 0 discriminator 5
 1705 0022 013C     		subs	r4, r4, #1
 1706              	.LVL127:
 1707 0024 A4B2     		uxth	r4, r4
 1708              	.LVL128:
 1709              	.L116:
 1710              		.loc 1 632 0 discriminator 7
 1711 0026 A402     		lsls	r4, r4, #10
 1712              	.LVL129:
 1713 0028 44F40044 		orr	r4, r4, #32768
 1714 002c 1C60     		str	r4, [r3]
 1715 002e 12E0     		b	.L117
 1716              	.L115:
 1717              		.loc 1 632 0 discriminator 4
 1718 0030 5408     		lsrs	r4, r2, #1
 1719              	.LVL130:
 1720 0032 12F0010F 		tst	r2, #1
 1721 0036 00D0     		beq	.L118
 1722              		.loc 1 632 0 discriminator 8
 1723 0038 0134     		adds	r4, r4, #1
 1724              	.LVL131:
 1725              	.L118:
 1726              		.loc 1 632 0 discriminator 10
 1727 003a A402     		lsls	r4, r4, #10
 1728              	.LVL132:
 1729 003c 1C60     		str	r4, [r3]
 1730 003e 0AE0     		b	.L117
 1731              	.LVL133:
 1732              	.L114:
 1733              	.LBE10:
 1734              	.LBE9:
 1735              		.loc 1 632 0 discriminator 2
 1736 0040 0229     		cmp	r1, #2
 1737 0042 08D1     		bne	.L117
 1738              		.loc 1 632 0 discriminator 11
 1739 0044 1A4B     		ldr	r3, .L125
 1740 0046 1C68     		ldr	r4, [r3]
 1741 0048 A4B2     		uxth	r4, r4
 1742 004a 04EBC004 		add	r4, r4, r0, lsl #3
 1743 004e 194B     		ldr	r3, .L125+4
 1744 0050 2344     		add	r3, r3, r4
 1745 0052 5B00     		lsls	r3, r3, #1
 1746 0054 1A60     		str	r2, [r3]
 1747              	.L117:
 1748              		.loc 1 632 0 discriminator 13
 1749 0056 0129     		cmp	r1, #1
ARM GAS  /var/folders/g9/bbpj86ld7fx45vd1b3pqxmp00000gn/T//ccMmV5Jv.s 			page 41


 1750 0058 1CD1     		bne	.L119
 1751              	.LBB11:
 1752              		.loc 1 632 0 discriminator 14
 1753 005a 154B     		ldr	r3, .L125
 1754 005c 1B68     		ldr	r3, [r3]
 1755 005e 9BB2     		uxth	r3, r3
 1756 0060 03EBC000 		add	r0, r3, r0, lsl #3
 1757              	.LVL134:
 1758 0064 144B     		ldr	r3, .L125+8
 1759 0066 0344     		add	r3, r3, r0
 1760 0068 5B00     		lsls	r3, r3, #1
 1761              	.LVL135:
 1762              	.LBB12:
 1763 006a 3E2A     		cmp	r2, #62
 1764 006c 0AD9     		bls	.L120
 1765              		.loc 1 632 0 discriminator 16
 1766 006e 5109     		lsrs	r1, r2, #5
 1767              	.LVL136:
 1768 0070 12F01F0F 		tst	r2, #31
 1769 0074 01D1     		bne	.L121
 1770              		.loc 1 632 0 discriminator 18
 1771 0076 0139     		subs	r1, r1, #1
 1772              	.LVL137:
 1773 0078 89B2     		uxth	r1, r1
 1774              	.LVL138:
 1775              	.L121:
 1776              		.loc 1 632 0 discriminator 20
 1777 007a 8902     		lsls	r1, r1, #10
 1778              	.LVL139:
 1779 007c 41F40041 		orr	r1, r1, #32768
 1780 0080 1960     		str	r1, [r3]
 1781 0082 12E0     		b	.L113
 1782              	.LVL140:
 1783              	.L120:
 1784              		.loc 1 632 0 discriminator 17
 1785 0084 5108     		lsrs	r1, r2, #1
 1786              	.LVL141:
 1787 0086 12F0010F 		tst	r2, #1
 1788 008a 00D0     		beq	.L123
 1789              		.loc 1 632 0 discriminator 21
 1790 008c 0131     		adds	r1, r1, #1
 1791              	.LVL142:
 1792              	.L123:
 1793              		.loc 1 632 0 discriminator 23
 1794 008e 8902     		lsls	r1, r1, #10
 1795              	.LVL143:
 1796 0090 1960     		str	r1, [r3]
 1797 0092 0AE0     		b	.L113
 1798              	.LVL144:
 1799              	.L119:
 1800              	.LBE12:
 1801              	.LBE11:
 1802              		.loc 1 632 0 discriminator 15
 1803 0094 0229     		cmp	r1, #2
 1804 0096 08D1     		bne	.L113
 1805              		.loc 1 632 0 discriminator 24
 1806 0098 054B     		ldr	r3, .L125
ARM GAS  /var/folders/g9/bbpj86ld7fx45vd1b3pqxmp00000gn/T//ccMmV5Jv.s 			page 42


 1807 009a 1B68     		ldr	r3, [r3]
 1808 009c 9BB2     		uxth	r3, r3
 1809 009e 03EBC000 		add	r0, r3, r0, lsl #3
 1810              	.LVL145:
 1811 00a2 054B     		ldr	r3, .L125+8
 1812 00a4 0344     		add	r3, r3, r0
 1813 00a6 5B00     		lsls	r3, r3, #1
 1814 00a8 1A60     		str	r2, [r3]
 1815              	.LVL146:
 1816              	.L113:
 633:STM32_USB-FS-Device_Driver/src/usb_regs.c **** }
 1817              		.loc 1 633 0 is_stmt 1
 1818 00aa 10BC     		pop	{r4}
 1819              	.LCFI4:
 1820              		.cfi_restore 4
 1821              		.cfi_def_cfa_offset 0
 1822 00ac 7047     		bx	lr
 1823              	.L126:
 1824 00ae 00BF     		.align	2
 1825              	.L125:
 1826 00b0 505C0040 		.word	1073765456
 1827 00b4 02300020 		.word	536883202
 1828 00b8 06300020 		.word	536883206
 1829              		.cfi_endproc
 1830              	.LFE77:
 1832              		.section	.text.SetEPDblBuf0Count,"ax",%progbits
 1833              		.align	2
 1834              		.global	SetEPDblBuf0Count
 1835              		.thumb
 1836              		.thumb_func
 1838              	SetEPDblBuf0Count:
 1839              	.LFB78:
 634:STM32_USB-FS-Device_Driver/src/usb_regs.c **** /*******************************************************************************
 635:STM32_USB-FS-Device_Driver/src/usb_regs.c **** * Function Name  : SetEPDblBuf0Count
 636:STM32_USB-FS-Device_Driver/src/usb_regs.c **** * Description    : Set the number of bytes in the buffer 0 of a double Buffer 
 637:STM32_USB-FS-Device_Driver/src/usb_regs.c **** *                  endpoint.
 638:STM32_USB-FS-Device_Driver/src/usb_regs.c **** * Input          : bEpNum, bDir,  wCount
 639:STM32_USB-FS-Device_Driver/src/usb_regs.c **** * Output         : None.
 640:STM32_USB-FS-Device_Driver/src/usb_regs.c **** * Return         : None.
 641:STM32_USB-FS-Device_Driver/src/usb_regs.c **** *******************************************************************************/
 642:STM32_USB-FS-Device_Driver/src/usb_regs.c **** void SetEPDblBuf0Count(uint8_t bEpNum, uint8_t bDir, uint16_t wCount)
 643:STM32_USB-FS-Device_Driver/src/usb_regs.c **** {
 1840              		.loc 1 643 0
 1841              		.cfi_startproc
 1842              		@ args = 0, pretend = 0, frame = 0
 1843              		@ frame_needed = 0, uses_anonymous_args = 0
 1844              		@ link register save eliminated.
 1845              	.LVL147:
 644:STM32_USB-FS-Device_Driver/src/usb_regs.c ****   _SetEPDblBuf0Count(bEpNum, bDir, wCount);
 1846              		.loc 1 644 0
 1847 0000 0129     		cmp	r1, #1
 1848 0002 1CD1     		bne	.L128
 1849              	.LBB13:
 1850              		.loc 1 644 0 is_stmt 0 discriminator 1
 1851 0004 144B     		ldr	r3, .L133
 1852 0006 1B68     		ldr	r3, [r3]
 1853 0008 9BB2     		uxth	r3, r3
ARM GAS  /var/folders/g9/bbpj86ld7fx45vd1b3pqxmp00000gn/T//ccMmV5Jv.s 			page 43


 1854 000a 03EBC000 		add	r0, r3, r0, lsl #3
 1855              	.LVL148:
 1856 000e 134B     		ldr	r3, .L133+4
 1857 0010 0344     		add	r3, r3, r0
 1858 0012 5B00     		lsls	r3, r3, #1
 1859              	.LVL149:
 1860              	.LBB14:
 1861 0014 3E2A     		cmp	r2, #62
 1862 0016 0AD9     		bls	.L129
 1863              		.loc 1 644 0 discriminator 3
 1864 0018 5109     		lsrs	r1, r2, #5
 1865              	.LVL150:
 1866 001a 12F01F0F 		tst	r2, #31
 1867 001e 01D1     		bne	.L130
 1868              		.loc 1 644 0 discriminator 5
 1869 0020 0139     		subs	r1, r1, #1
 1870              	.LVL151:
 1871 0022 89B2     		uxth	r1, r1
 1872              	.LVL152:
 1873              	.L130:
 1874              		.loc 1 644 0 discriminator 7
 1875 0024 8902     		lsls	r1, r1, #10
 1876              	.LVL153:
 1877 0026 41F40041 		orr	r1, r1, #32768
 1878 002a 1960     		str	r1, [r3]
 1879 002c 7047     		bx	lr
 1880              	.LVL154:
 1881              	.L129:
 1882              		.loc 1 644 0 discriminator 4
 1883 002e 5108     		lsrs	r1, r2, #1
 1884              	.LVL155:
 1885 0030 12F0010F 		tst	r2, #1
 1886 0034 00D0     		beq	.L132
 1887              		.loc 1 644 0 discriminator 8
 1888 0036 0131     		adds	r1, r1, #1
 1889              	.LVL156:
 1890              	.L132:
 1891              		.loc 1 644 0 discriminator 10
 1892 0038 8902     		lsls	r1, r1, #10
 1893              	.LVL157:
 1894 003a 1960     		str	r1, [r3]
 1895 003c 7047     		bx	lr
 1896              	.LVL158:
 1897              	.L128:
 1898              	.LBE14:
 1899              	.LBE13:
 1900              		.loc 1 644 0 discriminator 2
 1901 003e 0229     		cmp	r1, #2
 1902 0040 08D1     		bne	.L127
 1903              		.loc 1 644 0 discriminator 11
 1904 0042 054B     		ldr	r3, .L133
 1905 0044 1B68     		ldr	r3, [r3]
 1906 0046 9BB2     		uxth	r3, r3
 1907 0048 03EBC000 		add	r0, r3, r0, lsl #3
 1908              	.LVL159:
 1909 004c 034B     		ldr	r3, .L133+4
 1910 004e 0344     		add	r3, r3, r0
ARM GAS  /var/folders/g9/bbpj86ld7fx45vd1b3pqxmp00000gn/T//ccMmV5Jv.s 			page 44


 1911 0050 5B00     		lsls	r3, r3, #1
 1912 0052 1A60     		str	r2, [r3]
 1913              	.L127:
 1914 0054 7047     		bx	lr
 1915              	.L134:
 1916 0056 00BF     		.align	2
 1917              	.L133:
 1918 0058 505C0040 		.word	1073765456
 1919 005c 02300020 		.word	536883202
 1920              		.cfi_endproc
 1921              	.LFE78:
 1923              		.section	.text.SetEPDblBuf1Count,"ax",%progbits
 1924              		.align	2
 1925              		.global	SetEPDblBuf1Count
 1926              		.thumb
 1927              		.thumb_func
 1929              	SetEPDblBuf1Count:
 1930              	.LFB79:
 645:STM32_USB-FS-Device_Driver/src/usb_regs.c **** }
 646:STM32_USB-FS-Device_Driver/src/usb_regs.c **** /*******************************************************************************
 647:STM32_USB-FS-Device_Driver/src/usb_regs.c **** * Function Name  : SetEPDblBuf1Count
 648:STM32_USB-FS-Device_Driver/src/usb_regs.c **** * Description    : Set the number of bytes in the buffer 0 of a double Buffer 
 649:STM32_USB-FS-Device_Driver/src/usb_regs.c **** *                  endpoint.
 650:STM32_USB-FS-Device_Driver/src/usb_regs.c **** * Input          : bEpNum,  bDir,  wCount
 651:STM32_USB-FS-Device_Driver/src/usb_regs.c **** * Output         : None.
 652:STM32_USB-FS-Device_Driver/src/usb_regs.c **** * Return         : None.
 653:STM32_USB-FS-Device_Driver/src/usb_regs.c **** *******************************************************************************/
 654:STM32_USB-FS-Device_Driver/src/usb_regs.c **** void SetEPDblBuf1Count(uint8_t bEpNum, uint8_t bDir, uint16_t wCount)
 655:STM32_USB-FS-Device_Driver/src/usb_regs.c **** {
 1931              		.loc 1 655 0 is_stmt 1
 1932              		.cfi_startproc
 1933              		@ args = 0, pretend = 0, frame = 0
 1934              		@ frame_needed = 0, uses_anonymous_args = 0
 1935              		@ link register save eliminated.
 1936              	.LVL160:
 656:STM32_USB-FS-Device_Driver/src/usb_regs.c ****   _SetEPDblBuf1Count(bEpNum, bDir, wCount);
 1937              		.loc 1 656 0
 1938 0000 0129     		cmp	r1, #1
 1939 0002 1CD1     		bne	.L136
 1940              	.LBB15:
 1941              		.loc 1 656 0 is_stmt 0 discriminator 1
 1942 0004 144B     		ldr	r3, .L141
 1943 0006 1B68     		ldr	r3, [r3]
 1944 0008 9BB2     		uxth	r3, r3
 1945 000a 03EBC000 		add	r0, r3, r0, lsl #3
 1946              	.LVL161:
 1947 000e 134B     		ldr	r3, .L141+4
 1948 0010 0344     		add	r3, r3, r0
 1949 0012 5B00     		lsls	r3, r3, #1
 1950              	.LVL162:
 1951              	.LBB16:
 1952 0014 3E2A     		cmp	r2, #62
 1953 0016 0AD9     		bls	.L137
 1954              		.loc 1 656 0 discriminator 3
 1955 0018 5109     		lsrs	r1, r2, #5
 1956              	.LVL163:
 1957 001a 12F01F0F 		tst	r2, #31
ARM GAS  /var/folders/g9/bbpj86ld7fx45vd1b3pqxmp00000gn/T//ccMmV5Jv.s 			page 45


 1958 001e 01D1     		bne	.L138
 1959              		.loc 1 656 0 discriminator 5
 1960 0020 0139     		subs	r1, r1, #1
 1961              	.LVL164:
 1962 0022 89B2     		uxth	r1, r1
 1963              	.LVL165:
 1964              	.L138:
 1965              		.loc 1 656 0 discriminator 7
 1966 0024 8902     		lsls	r1, r1, #10
 1967              	.LVL166:
 1968 0026 41F40041 		orr	r1, r1, #32768
 1969 002a 1960     		str	r1, [r3]
 1970 002c 7047     		bx	lr
 1971              	.LVL167:
 1972              	.L137:
 1973              		.loc 1 656 0 discriminator 4
 1974 002e 5108     		lsrs	r1, r2, #1
 1975              	.LVL168:
 1976 0030 12F0010F 		tst	r2, #1
 1977 0034 00D0     		beq	.L140
 1978              		.loc 1 656 0 discriminator 8
 1979 0036 0131     		adds	r1, r1, #1
 1980              	.LVL169:
 1981              	.L140:
 1982              		.loc 1 656 0 discriminator 10
 1983 0038 8902     		lsls	r1, r1, #10
 1984              	.LVL170:
 1985 003a 1960     		str	r1, [r3]
 1986 003c 7047     		bx	lr
 1987              	.LVL171:
 1988              	.L136:
 1989              	.LBE16:
 1990              	.LBE15:
 1991              		.loc 1 656 0 discriminator 2
 1992 003e 0229     		cmp	r1, #2
 1993 0040 08D1     		bne	.L135
 1994              		.loc 1 656 0 discriminator 11
 1995 0042 054B     		ldr	r3, .L141
 1996 0044 1B68     		ldr	r3, [r3]
 1997 0046 9BB2     		uxth	r3, r3
 1998 0048 03EBC000 		add	r0, r3, r0, lsl #3
 1999              	.LVL172:
 2000 004c 034B     		ldr	r3, .L141+4
 2001 004e 0344     		add	r3, r3, r0
 2002 0050 5B00     		lsls	r3, r3, #1
 2003 0052 1A60     		str	r2, [r3]
 2004              	.L135:
 2005 0054 7047     		bx	lr
 2006              	.L142:
 2007 0056 00BF     		.align	2
 2008              	.L141:
 2009 0058 505C0040 		.word	1073765456
 2010 005c 06300020 		.word	536883206
 2011              		.cfi_endproc
 2012              	.LFE79:
 2014              		.section	.text.GetEPDblBuf0Count,"ax",%progbits
 2015              		.align	2
ARM GAS  /var/folders/g9/bbpj86ld7fx45vd1b3pqxmp00000gn/T//ccMmV5Jv.s 			page 46


 2016              		.global	GetEPDblBuf0Count
 2017              		.thumb
 2018              		.thumb_func
 2020              	GetEPDblBuf0Count:
 2021              	.LFB80:
 657:STM32_USB-FS-Device_Driver/src/usb_regs.c **** }
 658:STM32_USB-FS-Device_Driver/src/usb_regs.c **** /*******************************************************************************
 659:STM32_USB-FS-Device_Driver/src/usb_regs.c **** * Function Name  : GetEPDblBuf0Count
 660:STM32_USB-FS-Device_Driver/src/usb_regs.c **** * Description    : Returns the number of byte received in the buffer 0 of a double
 661:STM32_USB-FS-Device_Driver/src/usb_regs.c **** *                  Buffer endpoint.
 662:STM32_USB-FS-Device_Driver/src/usb_regs.c **** * Input          : bEpNum: Endpoint Number.
 663:STM32_USB-FS-Device_Driver/src/usb_regs.c **** * Output         : None.
 664:STM32_USB-FS-Device_Driver/src/usb_regs.c **** * Return         : Endpoint Buffer 0 count
 665:STM32_USB-FS-Device_Driver/src/usb_regs.c **** *******************************************************************************/
 666:STM32_USB-FS-Device_Driver/src/usb_regs.c **** uint16_t GetEPDblBuf0Count(uint8_t bEpNum)
 667:STM32_USB-FS-Device_Driver/src/usb_regs.c **** {
 2022              		.loc 1 667 0 is_stmt 1
 2023              		.cfi_startproc
 2024              		@ args = 0, pretend = 0, frame = 0
 2025              		@ frame_needed = 0, uses_anonymous_args = 0
 2026              		@ link register save eliminated.
 2027              	.LVL173:
 668:STM32_USB-FS-Device_Driver/src/usb_regs.c ****   return(_GetEPDblBuf0Count(bEpNum));
 2028              		.loc 1 668 0
 2029 0000 054B     		ldr	r3, .L144
 2030 0002 1B68     		ldr	r3, [r3]
 2031 0004 9BB2     		uxth	r3, r3
 2032 0006 03EBC000 		add	r0, r3, r0, lsl #3
 2033              	.LVL174:
 2034 000a 044B     		ldr	r3, .L144+4
 2035 000c 0344     		add	r3, r3, r0
 2036 000e 5B00     		lsls	r3, r3, #1
 2037 0010 1888     		ldrh	r0, [r3]
 669:STM32_USB-FS-Device_Driver/src/usb_regs.c **** }
 2038              		.loc 1 669 0
 2039 0012 C0F30900 		ubfx	r0, r0, #0, #10
 2040 0016 7047     		bx	lr
 2041              	.L145:
 2042              		.align	2
 2043              	.L144:
 2044 0018 505C0040 		.word	1073765456
 2045 001c 02300020 		.word	536883202
 2046              		.cfi_endproc
 2047              	.LFE80:
 2049              		.section	.text.GetEPDblBuf1Count,"ax",%progbits
 2050              		.align	2
 2051              		.global	GetEPDblBuf1Count
 2052              		.thumb
 2053              		.thumb_func
 2055              	GetEPDblBuf1Count:
 2056              	.LFB81:
 670:STM32_USB-FS-Device_Driver/src/usb_regs.c **** /*******************************************************************************
 671:STM32_USB-FS-Device_Driver/src/usb_regs.c **** * Function Name  : GetEPDblBuf1Count
 672:STM32_USB-FS-Device_Driver/src/usb_regs.c **** * Description    : Returns the number of data received in the buffer 1 of a double
 673:STM32_USB-FS-Device_Driver/src/usb_regs.c **** *                  Buffer endpoint.
 674:STM32_USB-FS-Device_Driver/src/usb_regs.c **** * Input          : bEpNum: Endpoint Number.
 675:STM32_USB-FS-Device_Driver/src/usb_regs.c **** * Output         : None.
ARM GAS  /var/folders/g9/bbpj86ld7fx45vd1b3pqxmp00000gn/T//ccMmV5Jv.s 			page 47


 676:STM32_USB-FS-Device_Driver/src/usb_regs.c **** * Return         : Endpoint Buffer 1 count.
 677:STM32_USB-FS-Device_Driver/src/usb_regs.c **** *******************************************************************************/
 678:STM32_USB-FS-Device_Driver/src/usb_regs.c **** uint16_t GetEPDblBuf1Count(uint8_t bEpNum)
 679:STM32_USB-FS-Device_Driver/src/usb_regs.c **** {
 2057              		.loc 1 679 0
 2058              		.cfi_startproc
 2059              		@ args = 0, pretend = 0, frame = 0
 2060              		@ frame_needed = 0, uses_anonymous_args = 0
 2061              		@ link register save eliminated.
 2062              	.LVL175:
 680:STM32_USB-FS-Device_Driver/src/usb_regs.c ****   return(_GetEPDblBuf1Count(bEpNum));
 2063              		.loc 1 680 0
 2064 0000 054B     		ldr	r3, .L147
 2065 0002 1B68     		ldr	r3, [r3]
 2066 0004 9BB2     		uxth	r3, r3
 2067 0006 03EBC000 		add	r0, r3, r0, lsl #3
 2068              	.LVL176:
 2069 000a 044B     		ldr	r3, .L147+4
 2070 000c 0344     		add	r3, r3, r0
 2071 000e 5B00     		lsls	r3, r3, #1
 2072 0010 1888     		ldrh	r0, [r3]
 681:STM32_USB-FS-Device_Driver/src/usb_regs.c **** }
 2073              		.loc 1 681 0
 2074 0012 C0F30900 		ubfx	r0, r0, #0, #10
 2075 0016 7047     		bx	lr
 2076              	.L148:
 2077              		.align	2
 2078              	.L147:
 2079 0018 505C0040 		.word	1073765456
 2080 001c 06300020 		.word	536883206
 2081              		.cfi_endproc
 2082              	.LFE81:
 2084              		.section	.text.GetEPDblBufDir,"ax",%progbits
 2085              		.align	2
 2086              		.global	GetEPDblBufDir
 2087              		.thumb
 2088              		.thumb_func
 2090              	GetEPDblBufDir:
 2091              	.LFB82:
 682:STM32_USB-FS-Device_Driver/src/usb_regs.c **** /*******************************************************************************
 683:STM32_USB-FS-Device_Driver/src/usb_regs.c **** * Function Name  : GetEPDblBufDir
 684:STM32_USB-FS-Device_Driver/src/usb_regs.c **** * Description    : gets direction of the double buffered endpoint
 685:STM32_USB-FS-Device_Driver/src/usb_regs.c **** * Input          : bEpNum: Endpoint Number. 
 686:STM32_USB-FS-Device_Driver/src/usb_regs.c **** * Output         : None.
 687:STM32_USB-FS-Device_Driver/src/usb_regs.c **** * Return         : EP_DBUF_OUT, EP_DBUF_IN,
 688:STM32_USB-FS-Device_Driver/src/usb_regs.c **** *                  EP_DBUF_ERR if the endpoint counter not yet programmed.
 689:STM32_USB-FS-Device_Driver/src/usb_regs.c **** *******************************************************************************/
 690:STM32_USB-FS-Device_Driver/src/usb_regs.c **** EP_DBUF_DIR GetEPDblBufDir(uint8_t bEpNum)
 691:STM32_USB-FS-Device_Driver/src/usb_regs.c **** {
 2092              		.loc 1 691 0
 2093              		.cfi_startproc
 2094              		@ args = 0, pretend = 0, frame = 0
 2095              		@ frame_needed = 0, uses_anonymous_args = 0
 2096              		@ link register save eliminated.
 2097              	.LVL177:
 692:STM32_USB-FS-Device_Driver/src/usb_regs.c ****   if ((uint16_t)(*_pEPRxCount(bEpNum) & 0xFC00) != 0)
 2098              		.loc 1 692 0
ARM GAS  /var/folders/g9/bbpj86ld7fx45vd1b3pqxmp00000gn/T//ccMmV5Jv.s 			page 48


 2099 0000 0E4B     		ldr	r3, .L153
 2100 0002 1B68     		ldr	r3, [r3]
 2101 0004 9BB2     		uxth	r3, r3
 2102 0006 C000     		lsls	r0, r0, #3
 2103              	.LVL178:
 2104 0008 1A18     		adds	r2, r3, r0
 2105 000a 0D4B     		ldr	r3, .L153+4
 2106 000c 1344     		add	r3, r3, r2
 2107 000e 5B00     		lsls	r3, r3, #1
 2108 0010 1B88     		ldrh	r3, [r3]
 2109 0012 13F47C4F 		tst	r3, #64512
 2110 0016 0CD1     		bne	.L151
 693:STM32_USB-FS-Device_Driver/src/usb_regs.c ****     return(EP_DBUF_OUT);
 694:STM32_USB-FS-Device_Driver/src/usb_regs.c ****   else if (((uint16_t)(*_pEPTxCount(bEpNum)) & 0x03FF) != 0)
 2111              		.loc 1 694 0
 2112 0018 084B     		ldr	r3, .L153
 2113 001a 1B68     		ldr	r3, [r3]
 2114 001c 9BB2     		uxth	r3, r3
 2115 001e 1844     		add	r0, r0, r3
 2116 0020 084B     		ldr	r3, .L153+8
 2117 0022 0344     		add	r3, r3, r0
 2118 0024 5B00     		lsls	r3, r3, #1
 2119 0026 1B88     		ldrh	r3, [r3]
 2120 0028 C3F30903 		ubfx	r3, r3, #0, #10
 2121 002c 1BB1     		cbz	r3, .L152
 695:STM32_USB-FS-Device_Driver/src/usb_regs.c ****     return(EP_DBUF_IN);
 2122              		.loc 1 695 0
 2123 002e 0220     		movs	r0, #2
 2124 0030 7047     		bx	lr
 2125              	.L151:
 693:STM32_USB-FS-Device_Driver/src/usb_regs.c ****     return(EP_DBUF_OUT);
 2126              		.loc 1 693 0
 2127 0032 0120     		movs	r0, #1
 2128 0034 7047     		bx	lr
 2129              	.L152:
 696:STM32_USB-FS-Device_Driver/src/usb_regs.c ****   else
 697:STM32_USB-FS-Device_Driver/src/usb_regs.c ****     return(EP_DBUF_ERR);
 2130              		.loc 1 697 0
 2131 0036 0020     		movs	r0, #0
 698:STM32_USB-FS-Device_Driver/src/usb_regs.c **** }
 2132              		.loc 1 698 0
 2133 0038 7047     		bx	lr
 2134              	.L154:
 2135 003a 00BF     		.align	2
 2136              	.L153:
 2137 003c 505C0040 		.word	1073765456
 2138 0040 06300020 		.word	536883206
 2139 0044 02300020 		.word	536883202
 2140              		.cfi_endproc
 2141              	.LFE82:
 2143              		.section	.text.FreeUserBuffer,"ax",%progbits
 2144              		.align	2
 2145              		.global	FreeUserBuffer
 2146              		.thumb
 2147              		.thumb_func
 2149              	FreeUserBuffer:
 2150              	.LFB83:
ARM GAS  /var/folders/g9/bbpj86ld7fx45vd1b3pqxmp00000gn/T//ccMmV5Jv.s 			page 49


 699:STM32_USB-FS-Device_Driver/src/usb_regs.c **** /*******************************************************************************
 700:STM32_USB-FS-Device_Driver/src/usb_regs.c **** * Function Name  : FreeUserBuffer
 701:STM32_USB-FS-Device_Driver/src/usb_regs.c **** * Description    : free buffer used from the application realizing it to the line
 702:STM32_USB-FS-Device_Driver/src/usb_regs.c ****                    toggles bit SW_BUF in the double buffered endpoint register
 703:STM32_USB-FS-Device_Driver/src/usb_regs.c **** * Input          : bEpNum, bDir
 704:STM32_USB-FS-Device_Driver/src/usb_regs.c **** * Output         : None.
 705:STM32_USB-FS-Device_Driver/src/usb_regs.c **** * Return         : None.
 706:STM32_USB-FS-Device_Driver/src/usb_regs.c **** *******************************************************************************/
 707:STM32_USB-FS-Device_Driver/src/usb_regs.c **** void FreeUserBuffer(uint8_t bEpNum, uint8_t bDir)
 708:STM32_USB-FS-Device_Driver/src/usb_regs.c **** {
 2151              		.loc 1 708 0
 2152              		.cfi_startproc
 2153              		@ args = 0, pretend = 0, frame = 0
 2154              		@ frame_needed = 0, uses_anonymous_args = 0
 2155              		@ link register save eliminated.
 2156              	.LVL179:
 709:STM32_USB-FS-Device_Driver/src/usb_regs.c ****   if (bDir == EP_DBUF_OUT)
 2157              		.loc 1 709 0
 2158 0000 0129     		cmp	r1, #1
 2159 0002 0FD1     		bne	.L156
 710:STM32_USB-FS-Device_Driver/src/usb_regs.c ****   { /* OUT double buffered endpoint */
 711:STM32_USB-FS-Device_Driver/src/usb_regs.c ****     _ToggleDTOG_TX(bEpNum);
 2160              		.loc 1 711 0
 2161 0004 8000     		lsls	r0, r0, #2
 2162              	.LVL180:
 2163 0006 00F18040 		add	r0, r0, #1073741824
 2164 000a 00F5B840 		add	r0, r0, #23552
 2165 000e 0368     		ldr	r3, [r0]
 2166 0010 23F4E043 		bic	r3, r3, #28672
 2167 0014 23F07003 		bic	r3, r3, #112
 2168 0018 1B04     		lsls	r3, r3, #16
 2169 001a 1B0C     		lsrs	r3, r3, #16
 2170 001c 43F04003 		orr	r3, r3, #64
 2171 0020 0360     		str	r3, [r0]
 2172 0022 7047     		bx	lr
 2173              	.LVL181:
 2174              	.L156:
 712:STM32_USB-FS-Device_Driver/src/usb_regs.c ****   }
 713:STM32_USB-FS-Device_Driver/src/usb_regs.c ****   else if (bDir == EP_DBUF_IN)
 2175              		.loc 1 713 0
 2176 0024 0229     		cmp	r1, #2
 2177 0026 0ED1     		bne	.L155
 714:STM32_USB-FS-Device_Driver/src/usb_regs.c ****   { /* IN double buffered endpoint */
 715:STM32_USB-FS-Device_Driver/src/usb_regs.c ****     _ToggleDTOG_RX(bEpNum);
 2178              		.loc 1 715 0
 2179 0028 8000     		lsls	r0, r0, #2
 2180              	.LVL182:
 2181 002a 00F18040 		add	r0, r0, #1073741824
 2182 002e 00F5B840 		add	r0, r0, #23552
 2183 0032 0368     		ldr	r3, [r0]
 2184 0034 23F4E043 		bic	r3, r3, #28672
 2185 0038 23F07003 		bic	r3, r3, #112
 2186 003c 1B04     		lsls	r3, r3, #16
 2187 003e 1B0C     		lsrs	r3, r3, #16
 2188 0040 43F48043 		orr	r3, r3, #16384
 2189 0044 0360     		str	r3, [r0]
 2190              	.L155:
ARM GAS  /var/folders/g9/bbpj86ld7fx45vd1b3pqxmp00000gn/T//ccMmV5Jv.s 			page 50


 2191 0046 7047     		bx	lr
 2192              		.cfi_endproc
 2193              	.LFE83:
 2195              		.section	.text.ToWord,"ax",%progbits
 2196              		.align	2
 2197              		.global	ToWord
 2198              		.thumb
 2199              		.thumb_func
 2201              	ToWord:
 2202              	.LFB84:
 716:STM32_USB-FS-Device_Driver/src/usb_regs.c ****   }
 717:STM32_USB-FS-Device_Driver/src/usb_regs.c **** }
 718:STM32_USB-FS-Device_Driver/src/usb_regs.c **** 
 719:STM32_USB-FS-Device_Driver/src/usb_regs.c **** /*******************************************************************************
 720:STM32_USB-FS-Device_Driver/src/usb_regs.c **** * Function Name  : ToWord
 721:STM32_USB-FS-Device_Driver/src/usb_regs.c **** * Description    : merge two byte in a word.
 722:STM32_USB-FS-Device_Driver/src/usb_regs.c **** * Input          : bh: byte high, bl: bytes low.
 723:STM32_USB-FS-Device_Driver/src/usb_regs.c **** * Output         : None.
 724:STM32_USB-FS-Device_Driver/src/usb_regs.c **** * Return         : resulted word.
 725:STM32_USB-FS-Device_Driver/src/usb_regs.c **** *******************************************************************************/
 726:STM32_USB-FS-Device_Driver/src/usb_regs.c **** uint16_t ToWord(uint8_t bh, uint8_t bl)
 727:STM32_USB-FS-Device_Driver/src/usb_regs.c **** {
 2203              		.loc 1 727 0
 2204              		.cfi_startproc
 2205              		@ args = 0, pretend = 0, frame = 0
 2206              		@ frame_needed = 0, uses_anonymous_args = 0
 2207              		@ link register save eliminated.
 2208              	.LVL183:
 728:STM32_USB-FS-Device_Driver/src/usb_regs.c ****   uint16_t wRet;
 729:STM32_USB-FS-Device_Driver/src/usb_regs.c ****   wRet = (uint16_t)bl | ((uint16_t)bh << 8);
 730:STM32_USB-FS-Device_Driver/src/usb_regs.c ****   return(wRet);
 731:STM32_USB-FS-Device_Driver/src/usb_regs.c **** }
 2209              		.loc 1 731 0
 2210 0000 41EA0020 		orr	r0, r1, r0, lsl #8
 2211              	.LVL184:
 2212 0004 7047     		bx	lr
 2213              		.cfi_endproc
 2214              	.LFE84:
 2216 0006 00BF     		.section	.text.ByteSwap,"ax",%progbits
 2217              		.align	2
 2218              		.global	ByteSwap
 2219              		.thumb
 2220              		.thumb_func
 2222              	ByteSwap:
 2223              	.LFB85:
 732:STM32_USB-FS-Device_Driver/src/usb_regs.c **** /*******************************************************************************
 733:STM32_USB-FS-Device_Driver/src/usb_regs.c **** * Function Name  : ByteSwap
 734:STM32_USB-FS-Device_Driver/src/usb_regs.c **** * Description    : Swap two byte in a word.
 735:STM32_USB-FS-Device_Driver/src/usb_regs.c **** * Input          : wSwW: word to Swap.
 736:STM32_USB-FS-Device_Driver/src/usb_regs.c **** * Output         : None.
 737:STM32_USB-FS-Device_Driver/src/usb_regs.c **** * Return         : resulted word.
 738:STM32_USB-FS-Device_Driver/src/usb_regs.c **** *******************************************************************************/
 739:STM32_USB-FS-Device_Driver/src/usb_regs.c **** uint16_t ByteSwap(uint16_t wSwW)
 740:STM32_USB-FS-Device_Driver/src/usb_regs.c **** {
 2224              		.loc 1 740 0
 2225              		.cfi_startproc
 2226              		@ args = 0, pretend = 0, frame = 0
ARM GAS  /var/folders/g9/bbpj86ld7fx45vd1b3pqxmp00000gn/T//ccMmV5Jv.s 			page 51


 2227              		@ frame_needed = 0, uses_anonymous_args = 0
 2228              		@ link register save eliminated.
 2229              	.LVL185:
 741:STM32_USB-FS-Device_Driver/src/usb_regs.c ****   uint8_t bTemp;
 742:STM32_USB-FS-Device_Driver/src/usb_regs.c ****   uint16_t wRet;
 743:STM32_USB-FS-Device_Driver/src/usb_regs.c ****   bTemp = (uint8_t)(wSwW & 0xff);
 2230              		.loc 1 743 0
 2231 0000 C3B2     		uxtb	r3, r0
 2232              	.LVL186:
 744:STM32_USB-FS-Device_Driver/src/usb_regs.c ****   wRet =  (wSwW >> 8) | ((uint16_t)bTemp << 8);
 2233              		.loc 1 744 0
 2234 0002 000A     		lsrs	r0, r0, #8
 2235              	.LVL187:
 745:STM32_USB-FS-Device_Driver/src/usb_regs.c ****   return(wRet);
 746:STM32_USB-FS-Device_Driver/src/usb_regs.c **** }
 2236              		.loc 1 746 0
 2237 0004 40EA0320 		orr	r0, r0, r3, lsl #8
 2238              	.LVL188:
 2239 0008 7047     		bx	lr
 2240              		.cfi_endproc
 2241              	.LFE85:
 2243 000a 00BF     		.text
 2244              	.Letext0:
 2245              		.file 2 "/usr/local/Cellar/gcc-arm-none-eabi/20160926/arm-none-eabi/include/machine/_default_types
 2246              		.file 3 "/usr/local/Cellar/gcc-arm-none-eabi/20160926/arm-none-eabi/include/sys/_stdint.h"
 2247              		.file 4 "STM32_USB-FS-Device_Driver/inc/usb_regs.h"
ARM GAS  /var/folders/g9/bbpj86ld7fx45vd1b3pqxmp00000gn/T//ccMmV5Jv.s 			page 52

